ARM GAS  C:\Users\Su\AppData\Local\Temp\ccZVoQ6F.s 			page 1


   1              		.cpu cortex-m7
   2              		.arch armv7e-m
   3              		.fpu fpv5-d16
   4              		.eabi_attribute 28, 1
   5              		.eabi_attribute 20, 1
   6              		.eabi_attribute 21, 1
   7              		.eabi_attribute 23, 3
   8              		.eabi_attribute 24, 1
   9              		.eabi_attribute 25, 1
  10              		.eabi_attribute 26, 1
  11              		.eabi_attribute 30, 6
  12              		.eabi_attribute 34, 1
  13              		.eabi_attribute 18, 4
  14              		.file	"fdcan_filter.c"
  15              		.text
  16              	.Ltext0:
  17              		.cfi_sections	.debug_frame
  18              		.section	.text.FDCAN_filter_init,"ax",%progbits
  19              		.align	1
  20              		.global	FDCAN_filter_init
  21              		.syntax unified
  22              		.thumb
  23              		.thumb_func
  25              	FDCAN_filter_init:
  26              	.LFB144:
  27              		.file 1 "User/Src/fdcan_filter.c"
   1:User/Src/fdcan_filter.c **** #include "fdcan_filter.h"
   2:User/Src/fdcan_filter.c **** 
   3:User/Src/fdcan_filter.c **** int FDCAN_filter_init(FDCAN_HandleTypeDef* hfdcan){
  28              		.loc 1 3 51
  29              		.cfi_startproc
  30              		@ args = 0, pretend = 0, frame = 40
  31              		@ frame_needed = 1, uses_anonymous_args = 0
  32 0000 80B5     		push	{r7, lr}
  33              	.LCFI0:
  34              		.cfi_def_cfa_offset 8
  35              		.cfi_offset 7, -8
  36              		.cfi_offset 14, -4
  37 0002 8AB0     		sub	sp, sp, #40
  38              	.LCFI1:
  39              		.cfi_def_cfa_offset 48
  40 0004 00AF     		add	r7, sp, #0
  41              	.LCFI2:
  42              		.cfi_def_cfa_register 7
  43 0006 7860     		str	r0, [r7, #4]
   4:User/Src/fdcan_filter.c ****   FDCAN_FilterTypeDef filter;
   5:User/Src/fdcan_filter.c **** 
   6:User/Src/fdcan_filter.c ****   filter.IdType = FDCAN_STANDARD_ID;
  44              		.loc 1 6 17
  45 0008 0023     		movs	r3, #0
  46 000a BB60     		str	r3, [r7, #8]
   7:User/Src/fdcan_filter.c ****   filter.FilterIndex = 0;
  47              		.loc 1 7 22
  48 000c 0023     		movs	r3, #0
  49 000e FB60     		str	r3, [r7, #12]
   8:User/Src/fdcan_filter.c ****   filter.FilterType = FDCAN_FILTER_MASK;
  50              		.loc 1 8 21
ARM GAS  C:\Users\Su\AppData\Local\Temp\ccZVoQ6F.s 			page 2


  51 0010 0223     		movs	r3, #2
  52 0012 3B61     		str	r3, [r7, #16]
   9:User/Src/fdcan_filter.c ****   filter.FilterConfig = FDCAN_FILTER_TO_RXFIFO0;
  53              		.loc 1 9 23
  54 0014 0123     		movs	r3, #1
  55 0016 7B61     		str	r3, [r7, #20]
  10:User/Src/fdcan_filter.c ****   filter.FilterID1 = 0x000;
  56              		.loc 1 10 20
  57 0018 0023     		movs	r3, #0
  58 001a BB61     		str	r3, [r7, #24]
  11:User/Src/fdcan_filter.c ****   filter.FilterID2 = 0x000;
  59              		.loc 1 11 20
  60 001c 0023     		movs	r3, #0
  61 001e FB61     		str	r3, [r7, #28]
  12:User/Src/fdcan_filter.c **** 
  13:User/Src/fdcan_filter.c ****   return HAL_FDCAN_ConfigFilter(hfdcan, &filter) == HAL_OK;
  62              		.loc 1 13 10
  63 0020 07F10803 		add	r3, r7, #8
  64 0024 1946     		mov	r1, r3
  65 0026 7868     		ldr	r0, [r7, #4]
  66 0028 FFF7FEFF 		bl	HAL_FDCAN_ConfigFilter
  67 002c 0346     		mov	r3, r0
  68              		.loc 1 13 50
  69 002e 002B     		cmp	r3, #0
  70 0030 0CBF     		ite	eq
  71 0032 0123     		moveq	r3, #1
  72 0034 0023     		movne	r3, #0
  73 0036 DBB2     		uxtb	r3, r3
  14:User/Src/fdcan_filter.c **** }
  74              		.loc 1 14 1
  75 0038 1846     		mov	r0, r3
  76 003a 2837     		adds	r7, r7, #40
  77              	.LCFI3:
  78              		.cfi_def_cfa_offset 8
  79 003c BD46     		mov	sp, r7
  80              	.LCFI4:
  81              		.cfi_def_cfa_register 13
  82              		@ sp needed
  83 003e 80BD     		pop	{r7, pc}
  84              		.cfi_endproc
  85              	.LFE144:
  87              		.text
  88              	.Letext0:
  89              		.file 2 "e:\\user\\bigai\\gcc_arm_none_eabi\\arm-none-eabi\\include\\machine\\_default_types.h"
  90              		.file 3 "e:\\user\\bigai\\gcc_arm_none_eabi\\arm-none-eabi\\include\\sys\\_stdint.h"
  91              		.file 4 "Drivers/CMSIS/Device/ST/STM32H7xx/Include/stm32h723xx.h"
  92              		.file 5 "Drivers/CMSIS/Device/ST/STM32H7xx/Include/stm32h7xx.h"
  93              		.file 6 "Drivers/STM32H7xx_HAL_Driver/Inc/stm32h7xx_hal_def.h"
  94              		.file 7 "Drivers/STM32H7xx_HAL_Driver/Inc/stm32h7xx_hal_fdcan.h"
ARM GAS  C:\Users\Su\AppData\Local\Temp\ccZVoQ6F.s 			page 3

