ARM GAS  C:\Users\Su\AppData\Local\Temp\ccsFXyek.s 			page 1


   1              		.cpu cortex-m7
   2              		.arch armv7e-m
   3              		.fpu fpv5-d16
   4              		.eabi_attribute 28, 1
   5              		.eabi_attribute 20, 1
   6              		.eabi_attribute 21, 1
   7              		.eabi_attribute 23, 3
   8              		.eabi_attribute 24, 1
   9              		.eabi_attribute 25, 1
  10              		.eabi_attribute 26, 1
  11              		.eabi_attribute 30, 6
  12              		.eabi_attribute 34, 1
  13              		.eabi_attribute 18, 4
  14              		.file	"stm32h7xx_hal_fdcan.c"
  15              		.text
  16              	.Ltext0:
  17              		.cfi_sections	.debug_frame
  18              		.section	.rodata.DLCtoBytes,"a"
  19              		.align	2
  22              	DLCtoBytes:
  23 0000 00010203 		.ascii	"\000\001\002\003\004\005\006\007\010\014\020\024\030"
  23      04050607 
  23      080C1014 
  23      18
  24 000d 203040   		.ascii	" 0@"
  25              		.section	.rodata
  26              		.align	2
  27              	.LC0:
  28 0000 00000000 		.word	0
  29 0004 00000000 		.word	0
  30 0008 00000000 		.word	0
  31 000c 00000000 		.word	0
  32 0010 00000000 		.word	0
  33 0014 01000000 		.word	1
  34 0018 02000000 		.word	2
  35 001c 03000000 		.word	3
  36 0020 04000000 		.word	4
  37 0024 00000000 		.word	0
  38 0028 05000000 		.word	5
  39 002c 00000000 		.word	0
  40 0030 00000000 		.word	0
  41 0034 00000000 		.word	0
  42 0038 06000000 		.word	6
  43 003c 00000000 		.word	0
  44 0040 00000000 		.word	0
  45 0044 00000000 		.word	0
  46 0048 07000000 		.word	7
  47              		.section	.text.HAL_FDCAN_Init,"ax",%progbits
  48              		.align	1
  49              		.global	HAL_FDCAN_Init
  50              		.syntax unified
  51              		.thumb
  52              		.thumb_func
  54              	HAL_FDCAN_Init:
  55              	.LFB144:
  56              		.file 1 "Drivers/STM32H7xx_HAL_Driver/Src/stm32h7xx_hal_fdcan.c"
   1:Drivers/STM32H7xx_HAL_Driver/Src/stm32h7xx_hal_fdcan.c **** /**
ARM GAS  C:\Users\Su\AppData\Local\Temp\ccsFXyek.s 			page 2


   2:Drivers/STM32H7xx_HAL_Driver/Src/stm32h7xx_hal_fdcan.c ****   ******************************************************************************
   3:Drivers/STM32H7xx_HAL_Driver/Src/stm32h7xx_hal_fdcan.c ****   * @file    stm32h7xx_hal_fdcan.c
   4:Drivers/STM32H7xx_HAL_Driver/Src/stm32h7xx_hal_fdcan.c ****   * @author  MCD Application Team
   5:Drivers/STM32H7xx_HAL_Driver/Src/stm32h7xx_hal_fdcan.c ****   * @brief   FDCAN HAL module driver.
   6:Drivers/STM32H7xx_HAL_Driver/Src/stm32h7xx_hal_fdcan.c ****   *          This file provides firmware functions to manage the following
   7:Drivers/STM32H7xx_HAL_Driver/Src/stm32h7xx_hal_fdcan.c ****   *          functionalities of the Flexible DataRate Controller Area Network
   8:Drivers/STM32H7xx_HAL_Driver/Src/stm32h7xx_hal_fdcan.c ****   *          (FDCAN) peripheral:
   9:Drivers/STM32H7xx_HAL_Driver/Src/stm32h7xx_hal_fdcan.c ****   *           + Initialization and de-initialization functions
  10:Drivers/STM32H7xx_HAL_Driver/Src/stm32h7xx_hal_fdcan.c ****   *           + IO operation functions
  11:Drivers/STM32H7xx_HAL_Driver/Src/stm32h7xx_hal_fdcan.c ****   *           + Peripheral Configuration and Control functions
  12:Drivers/STM32H7xx_HAL_Driver/Src/stm32h7xx_hal_fdcan.c ****   *           + Peripheral State and Error functions
  13:Drivers/STM32H7xx_HAL_Driver/Src/stm32h7xx_hal_fdcan.c ****   *
  14:Drivers/STM32H7xx_HAL_Driver/Src/stm32h7xx_hal_fdcan.c ****   ******************************************************************************
  15:Drivers/STM32H7xx_HAL_Driver/Src/stm32h7xx_hal_fdcan.c ****   * @attention
  16:Drivers/STM32H7xx_HAL_Driver/Src/stm32h7xx_hal_fdcan.c ****   *
  17:Drivers/STM32H7xx_HAL_Driver/Src/stm32h7xx_hal_fdcan.c ****   * Copyright (c) 2017 STMicroelectronics.
  18:Drivers/STM32H7xx_HAL_Driver/Src/stm32h7xx_hal_fdcan.c ****   * All rights reserved.
  19:Drivers/STM32H7xx_HAL_Driver/Src/stm32h7xx_hal_fdcan.c ****   *
  20:Drivers/STM32H7xx_HAL_Driver/Src/stm32h7xx_hal_fdcan.c ****   * This software is licensed under terms that can be found in the LICENSE file
  21:Drivers/STM32H7xx_HAL_Driver/Src/stm32h7xx_hal_fdcan.c ****   * in the root directory of this software component.
  22:Drivers/STM32H7xx_HAL_Driver/Src/stm32h7xx_hal_fdcan.c ****   * If no LICENSE file comes with this software, it is provided AS-IS.
  23:Drivers/STM32H7xx_HAL_Driver/Src/stm32h7xx_hal_fdcan.c ****   *
  24:Drivers/STM32H7xx_HAL_Driver/Src/stm32h7xx_hal_fdcan.c ****   ******************************************************************************
  25:Drivers/STM32H7xx_HAL_Driver/Src/stm32h7xx_hal_fdcan.c ****   @verbatim
  26:Drivers/STM32H7xx_HAL_Driver/Src/stm32h7xx_hal_fdcan.c ****   ==============================================================================
  27:Drivers/STM32H7xx_HAL_Driver/Src/stm32h7xx_hal_fdcan.c ****                         ##### How to use this driver #####
  28:Drivers/STM32H7xx_HAL_Driver/Src/stm32h7xx_hal_fdcan.c ****   ==============================================================================
  29:Drivers/STM32H7xx_HAL_Driver/Src/stm32h7xx_hal_fdcan.c ****     [..]
  30:Drivers/STM32H7xx_HAL_Driver/Src/stm32h7xx_hal_fdcan.c ****       (#) Initialize the FDCAN peripheral using HAL_FDCAN_Init function.
  31:Drivers/STM32H7xx_HAL_Driver/Src/stm32h7xx_hal_fdcan.c **** 
  32:Drivers/STM32H7xx_HAL_Driver/Src/stm32h7xx_hal_fdcan.c ****       (#) If needed , configure the reception filters and optional features using
  33:Drivers/STM32H7xx_HAL_Driver/Src/stm32h7xx_hal_fdcan.c ****           the following configuration functions:
  34:Drivers/STM32H7xx_HAL_Driver/Src/stm32h7xx_hal_fdcan.c ****             (++) HAL_FDCAN_ConfigClockCalibration
  35:Drivers/STM32H7xx_HAL_Driver/Src/stm32h7xx_hal_fdcan.c ****             (++) HAL_FDCAN_ConfigFilter
  36:Drivers/STM32H7xx_HAL_Driver/Src/stm32h7xx_hal_fdcan.c ****             (++) HAL_FDCAN_ConfigGlobalFilter
  37:Drivers/STM32H7xx_HAL_Driver/Src/stm32h7xx_hal_fdcan.c ****             (++) HAL_FDCAN_ConfigExtendedIdMask
  38:Drivers/STM32H7xx_HAL_Driver/Src/stm32h7xx_hal_fdcan.c ****             (++) HAL_FDCAN_ConfigRxFifoOverwrite
  39:Drivers/STM32H7xx_HAL_Driver/Src/stm32h7xx_hal_fdcan.c ****             (++) HAL_FDCAN_ConfigFifoWatermark
  40:Drivers/STM32H7xx_HAL_Driver/Src/stm32h7xx_hal_fdcan.c ****             (++) HAL_FDCAN_ConfigRamWatchdog
  41:Drivers/STM32H7xx_HAL_Driver/Src/stm32h7xx_hal_fdcan.c ****             (++) HAL_FDCAN_ConfigTimestampCounter
  42:Drivers/STM32H7xx_HAL_Driver/Src/stm32h7xx_hal_fdcan.c ****             (++) HAL_FDCAN_EnableTimestampCounter
  43:Drivers/STM32H7xx_HAL_Driver/Src/stm32h7xx_hal_fdcan.c ****             (++) HAL_FDCAN_DisableTimestampCounter
  44:Drivers/STM32H7xx_HAL_Driver/Src/stm32h7xx_hal_fdcan.c ****             (++) HAL_FDCAN_ConfigTimeoutCounter
  45:Drivers/STM32H7xx_HAL_Driver/Src/stm32h7xx_hal_fdcan.c ****             (++) HAL_FDCAN_EnableTimeoutCounter
  46:Drivers/STM32H7xx_HAL_Driver/Src/stm32h7xx_hal_fdcan.c ****             (++) HAL_FDCAN_DisableTimeoutCounter
  47:Drivers/STM32H7xx_HAL_Driver/Src/stm32h7xx_hal_fdcan.c ****             (++) HAL_FDCAN_ConfigTxDelayCompensation
  48:Drivers/STM32H7xx_HAL_Driver/Src/stm32h7xx_hal_fdcan.c ****             (++) HAL_FDCAN_EnableTxDelayCompensation
  49:Drivers/STM32H7xx_HAL_Driver/Src/stm32h7xx_hal_fdcan.c ****             (++) HAL_FDCAN_DisableTxDelayCompensation
  50:Drivers/STM32H7xx_HAL_Driver/Src/stm32h7xx_hal_fdcan.c ****             (++) HAL_FDCAN_EnableISOMode
  51:Drivers/STM32H7xx_HAL_Driver/Src/stm32h7xx_hal_fdcan.c ****             (++) HAL_FDCAN_DisableISOMode
  52:Drivers/STM32H7xx_HAL_Driver/Src/stm32h7xx_hal_fdcan.c ****             (++) HAL_FDCAN_EnableEdgeFiltering
  53:Drivers/STM32H7xx_HAL_Driver/Src/stm32h7xx_hal_fdcan.c ****             (++) HAL_FDCAN_DisableEdgeFiltering
  54:Drivers/STM32H7xx_HAL_Driver/Src/stm32h7xx_hal_fdcan.c ****             (++) HAL_FDCAN_TT_ConfigOperation
  55:Drivers/STM32H7xx_HAL_Driver/Src/stm32h7xx_hal_fdcan.c ****             (++) HAL_FDCAN_TT_ConfigReferenceMessage
  56:Drivers/STM32H7xx_HAL_Driver/Src/stm32h7xx_hal_fdcan.c ****             (++) HAL_FDCAN_TT_ConfigTrigger
  57:Drivers/STM32H7xx_HAL_Driver/Src/stm32h7xx_hal_fdcan.c **** 
  58:Drivers/STM32H7xx_HAL_Driver/Src/stm32h7xx_hal_fdcan.c ****       (#) Start the FDCAN module using HAL_FDCAN_Start function. At this level
ARM GAS  C:\Users\Su\AppData\Local\Temp\ccsFXyek.s 			page 3


  59:Drivers/STM32H7xx_HAL_Driver/Src/stm32h7xx_hal_fdcan.c ****           the node is active on the bus: it can send and receive messages.
  60:Drivers/STM32H7xx_HAL_Driver/Src/stm32h7xx_hal_fdcan.c **** 
  61:Drivers/STM32H7xx_HAL_Driver/Src/stm32h7xx_hal_fdcan.c ****       (#) The following Tx control functions can only be called when the FDCAN
  62:Drivers/STM32H7xx_HAL_Driver/Src/stm32h7xx_hal_fdcan.c ****           module is started:
  63:Drivers/STM32H7xx_HAL_Driver/Src/stm32h7xx_hal_fdcan.c ****             (++) HAL_FDCAN_AddMessageToTxFifoQ
  64:Drivers/STM32H7xx_HAL_Driver/Src/stm32h7xx_hal_fdcan.c ****             (++) HAL_FDCAN_EnableTxBufferRequest
  65:Drivers/STM32H7xx_HAL_Driver/Src/stm32h7xx_hal_fdcan.c ****             (++) HAL_FDCAN_AbortTxRequest
  66:Drivers/STM32H7xx_HAL_Driver/Src/stm32h7xx_hal_fdcan.c **** 
  67:Drivers/STM32H7xx_HAL_Driver/Src/stm32h7xx_hal_fdcan.c ****       (#) After having submitted a Tx request in Tx Fifo or Queue, it is possible to
  68:Drivers/STM32H7xx_HAL_Driver/Src/stm32h7xx_hal_fdcan.c ****           get Tx buffer location used to place the Tx request thanks to
  69:Drivers/STM32H7xx_HAL_Driver/Src/stm32h7xx_hal_fdcan.c ****           HAL_FDCAN_GetLatestTxFifoQRequestBuffer API.
  70:Drivers/STM32H7xx_HAL_Driver/Src/stm32h7xx_hal_fdcan.c ****           It is then possible to abort later on the corresponding Tx Request using
  71:Drivers/STM32H7xx_HAL_Driver/Src/stm32h7xx_hal_fdcan.c ****           HAL_FDCAN_AbortTxRequest API.
  72:Drivers/STM32H7xx_HAL_Driver/Src/stm32h7xx_hal_fdcan.c **** 
  73:Drivers/STM32H7xx_HAL_Driver/Src/stm32h7xx_hal_fdcan.c ****       (#) When a message is received into the FDCAN message RAM, it can be
  74:Drivers/STM32H7xx_HAL_Driver/Src/stm32h7xx_hal_fdcan.c ****           retrieved using the HAL_FDCAN_GetRxMessage function.
  75:Drivers/STM32H7xx_HAL_Driver/Src/stm32h7xx_hal_fdcan.c **** 
  76:Drivers/STM32H7xx_HAL_Driver/Src/stm32h7xx_hal_fdcan.c ****       (#) Calling the HAL_FDCAN_Stop function stops the FDCAN module by entering
  77:Drivers/STM32H7xx_HAL_Driver/Src/stm32h7xx_hal_fdcan.c ****           it to initialization mode and re-enabling access to configuration
  78:Drivers/STM32H7xx_HAL_Driver/Src/stm32h7xx_hal_fdcan.c ****           registers through the configuration functions listed here above.
  79:Drivers/STM32H7xx_HAL_Driver/Src/stm32h7xx_hal_fdcan.c **** 
  80:Drivers/STM32H7xx_HAL_Driver/Src/stm32h7xx_hal_fdcan.c ****       (#) All other control functions can be called any time after initialization
  81:Drivers/STM32H7xx_HAL_Driver/Src/stm32h7xx_hal_fdcan.c ****           phase, no matter if the FDCAN module is started or stopped.
  82:Drivers/STM32H7xx_HAL_Driver/Src/stm32h7xx_hal_fdcan.c **** 
  83:Drivers/STM32H7xx_HAL_Driver/Src/stm32h7xx_hal_fdcan.c ****       *** Polling mode operation ***
  84:Drivers/STM32H7xx_HAL_Driver/Src/stm32h7xx_hal_fdcan.c ****       ==============================
  85:Drivers/STM32H7xx_HAL_Driver/Src/stm32h7xx_hal_fdcan.c **** 
  86:Drivers/STM32H7xx_HAL_Driver/Src/stm32h7xx_hal_fdcan.c ****     [..]
  87:Drivers/STM32H7xx_HAL_Driver/Src/stm32h7xx_hal_fdcan.c ****         (#) Reception and transmission states can be monitored via the following
  88:Drivers/STM32H7xx_HAL_Driver/Src/stm32h7xx_hal_fdcan.c ****             functions:
  89:Drivers/STM32H7xx_HAL_Driver/Src/stm32h7xx_hal_fdcan.c ****               (++) HAL_FDCAN_IsRxBufferMessageAvailable
  90:Drivers/STM32H7xx_HAL_Driver/Src/stm32h7xx_hal_fdcan.c ****               (++) HAL_FDCAN_IsTxBufferMessagePending
  91:Drivers/STM32H7xx_HAL_Driver/Src/stm32h7xx_hal_fdcan.c ****               (++) HAL_FDCAN_GetRxFifoFillLevel
  92:Drivers/STM32H7xx_HAL_Driver/Src/stm32h7xx_hal_fdcan.c ****               (++) HAL_FDCAN_GetTxFifoFreeLevel
  93:Drivers/STM32H7xx_HAL_Driver/Src/stm32h7xx_hal_fdcan.c **** 
  94:Drivers/STM32H7xx_HAL_Driver/Src/stm32h7xx_hal_fdcan.c ****       *** Interrupt mode operation ***
  95:Drivers/STM32H7xx_HAL_Driver/Src/stm32h7xx_hal_fdcan.c ****       ================================
  96:Drivers/STM32H7xx_HAL_Driver/Src/stm32h7xx_hal_fdcan.c ****       [..]
  97:Drivers/STM32H7xx_HAL_Driver/Src/stm32h7xx_hal_fdcan.c ****         (#) There are two interrupt lines: line 0 and 1.
  98:Drivers/STM32H7xx_HAL_Driver/Src/stm32h7xx_hal_fdcan.c ****             By default, all interrupts are assigned to line 0. Interrupt lines
  99:Drivers/STM32H7xx_HAL_Driver/Src/stm32h7xx_hal_fdcan.c ****             can be configured using HAL_FDCAN_ConfigInterruptLines function.
 100:Drivers/STM32H7xx_HAL_Driver/Src/stm32h7xx_hal_fdcan.c **** 
 101:Drivers/STM32H7xx_HAL_Driver/Src/stm32h7xx_hal_fdcan.c ****         (#) Notifications are activated using HAL_FDCAN_ActivateNotification
 102:Drivers/STM32H7xx_HAL_Driver/Src/stm32h7xx_hal_fdcan.c ****             function. Then, the process can be controlled through one of the
 103:Drivers/STM32H7xx_HAL_Driver/Src/stm32h7xx_hal_fdcan.c ****             available user callbacks: HAL_FDCAN_xxxCallback.
 104:Drivers/STM32H7xx_HAL_Driver/Src/stm32h7xx_hal_fdcan.c **** 
 105:Drivers/STM32H7xx_HAL_Driver/Src/stm32h7xx_hal_fdcan.c ****   *** Callback registration ***
 106:Drivers/STM32H7xx_HAL_Driver/Src/stm32h7xx_hal_fdcan.c ****   =============================================
 107:Drivers/STM32H7xx_HAL_Driver/Src/stm32h7xx_hal_fdcan.c **** 
 108:Drivers/STM32H7xx_HAL_Driver/Src/stm32h7xx_hal_fdcan.c ****   The compilation define USE_HAL_FDCAN_REGISTER_CALLBACKS when set to 1
 109:Drivers/STM32H7xx_HAL_Driver/Src/stm32h7xx_hal_fdcan.c ****   allows the user to configure dynamically the driver callbacks.
 110:Drivers/STM32H7xx_HAL_Driver/Src/stm32h7xx_hal_fdcan.c ****   Use Function HAL_FDCAN_RegisterCallback() or HAL_FDCAN_RegisterXXXCallback()
 111:Drivers/STM32H7xx_HAL_Driver/Src/stm32h7xx_hal_fdcan.c ****   to register an interrupt callback.
 112:Drivers/STM32H7xx_HAL_Driver/Src/stm32h7xx_hal_fdcan.c **** 
 113:Drivers/STM32H7xx_HAL_Driver/Src/stm32h7xx_hal_fdcan.c ****   Function HAL_FDCAN_RegisterCallback() allows to register following callbacks:
 114:Drivers/STM32H7xx_HAL_Driver/Src/stm32h7xx_hal_fdcan.c ****     (+) TxFifoEmptyCallback          : Tx Fifo Empty Callback.
 115:Drivers/STM32H7xx_HAL_Driver/Src/stm32h7xx_hal_fdcan.c ****     (+) RxBufferNewMessageCallback   : Rx Buffer New Message Callback.
ARM GAS  C:\Users\Su\AppData\Local\Temp\ccsFXyek.s 			page 4


 116:Drivers/STM32H7xx_HAL_Driver/Src/stm32h7xx_hal_fdcan.c ****     (+) HighPriorityMessageCallback  : High Priority Message Callback.
 117:Drivers/STM32H7xx_HAL_Driver/Src/stm32h7xx_hal_fdcan.c ****     (+) TimestampWraparoundCallback  : Timestamp Wraparound Callback.
 118:Drivers/STM32H7xx_HAL_Driver/Src/stm32h7xx_hal_fdcan.c ****     (+) TimeoutOccurredCallback      : Timeout Occurred Callback.
 119:Drivers/STM32H7xx_HAL_Driver/Src/stm32h7xx_hal_fdcan.c ****     (+) ErrorCallback                : Error Callback.
 120:Drivers/STM32H7xx_HAL_Driver/Src/stm32h7xx_hal_fdcan.c ****     (+) MspInitCallback              : FDCAN MspInit.
 121:Drivers/STM32H7xx_HAL_Driver/Src/stm32h7xx_hal_fdcan.c ****     (+) MspDeInitCallback            : FDCAN MspDeInit.
 122:Drivers/STM32H7xx_HAL_Driver/Src/stm32h7xx_hal_fdcan.c ****   This function takes as parameters the HAL peripheral handle, the Callback ID
 123:Drivers/STM32H7xx_HAL_Driver/Src/stm32h7xx_hal_fdcan.c ****   and a pointer to the user callback function.
 124:Drivers/STM32H7xx_HAL_Driver/Src/stm32h7xx_hal_fdcan.c **** 
 125:Drivers/STM32H7xx_HAL_Driver/Src/stm32h7xx_hal_fdcan.c ****   For specific callbacks ClockCalibrationCallback, TxEventFifoCallback, RxFifo0Callback, RxFifo1Cal
 126:Drivers/STM32H7xx_HAL_Driver/Src/stm32h7xx_hal_fdcan.c ****   TxBufferCompleteCallback, TxBufferAbortCallback, ErrorStatusCallback, TT_ScheduleSyncCallback, TT
 127:Drivers/STM32H7xx_HAL_Driver/Src/stm32h7xx_hal_fdcan.c ****   TT_StopWatchCallback and TT_GlobalTimeCallback, use dedicated register callbacks :
 128:Drivers/STM32H7xx_HAL_Driver/Src/stm32h7xx_hal_fdcan.c ****   respectively HAL_FDCAN_RegisterClockCalibrationCallback(), HAL_FDCAN_RegisterTxEventFifoCallback(
 129:Drivers/STM32H7xx_HAL_Driver/Src/stm32h7xx_hal_fdcan.c ****   HAL_FDCAN_RegisterRxFifo0Callback(), HAL_FDCAN_RegisterRxFifo1Callback(),
 130:Drivers/STM32H7xx_HAL_Driver/Src/stm32h7xx_hal_fdcan.c ****   HAL_FDCAN_RegisterTxBufferCompleCallback(), HAL_FDCAN_RegisterTxBufferAbortCallback(),
 131:Drivers/STM32H7xx_HAL_Driver/Src/stm32h7xx_hal_fdcan.c ****   HAL_FDCAN_RegisterErrorStatusCallback(), HAL_FDCAN_TT_RegisterScheduleSyncCallback(),
 132:Drivers/STM32H7xx_HAL_Driver/Src/stm32h7xx_hal_fdcan.c ****   HAL_FDCAN_TT_RegisterTimeMarkCallback(), HAL_FDCAN_TT_RegisterStopWatchCallback() and
 133:Drivers/STM32H7xx_HAL_Driver/Src/stm32h7xx_hal_fdcan.c ****   HAL_FDCAN_TT_RegisterGlobalTimeCallback().
 134:Drivers/STM32H7xx_HAL_Driver/Src/stm32h7xx_hal_fdcan.c **** 
 135:Drivers/STM32H7xx_HAL_Driver/Src/stm32h7xx_hal_fdcan.c ****   Use function HAL_FDCAN_UnRegisterCallback() to reset a callback to the default
 136:Drivers/STM32H7xx_HAL_Driver/Src/stm32h7xx_hal_fdcan.c ****   weak function.
 137:Drivers/STM32H7xx_HAL_Driver/Src/stm32h7xx_hal_fdcan.c ****   HAL_FDCAN_UnRegisterCallback takes as parameters the HAL peripheral handle,
 138:Drivers/STM32H7xx_HAL_Driver/Src/stm32h7xx_hal_fdcan.c ****   and the Callback ID.
 139:Drivers/STM32H7xx_HAL_Driver/Src/stm32h7xx_hal_fdcan.c ****   This function allows to reset following callbacks:
 140:Drivers/STM32H7xx_HAL_Driver/Src/stm32h7xx_hal_fdcan.c ****     (+) TxFifoEmptyCallback          : Tx Fifo Empty Callback.
 141:Drivers/STM32H7xx_HAL_Driver/Src/stm32h7xx_hal_fdcan.c ****     (+) RxBufferNewMessageCallback   : Rx Buffer New Message Callback.
 142:Drivers/STM32H7xx_HAL_Driver/Src/stm32h7xx_hal_fdcan.c ****     (+) HighPriorityMessageCallback  : High Priority Message Callback.
 143:Drivers/STM32H7xx_HAL_Driver/Src/stm32h7xx_hal_fdcan.c ****     (+) TimestampWraparoundCallback  : Timestamp Wraparound Callback.
 144:Drivers/STM32H7xx_HAL_Driver/Src/stm32h7xx_hal_fdcan.c ****     (+) TimeoutOccurredCallback      : Timeout Occurred Callback.
 145:Drivers/STM32H7xx_HAL_Driver/Src/stm32h7xx_hal_fdcan.c ****     (+) ErrorCallback                : Error Callback.
 146:Drivers/STM32H7xx_HAL_Driver/Src/stm32h7xx_hal_fdcan.c ****     (+) MspInitCallback              : FDCAN MspInit.
 147:Drivers/STM32H7xx_HAL_Driver/Src/stm32h7xx_hal_fdcan.c ****     (+) MspDeInitCallback            : FDCAN MspDeInit.
 148:Drivers/STM32H7xx_HAL_Driver/Src/stm32h7xx_hal_fdcan.c **** 
 149:Drivers/STM32H7xx_HAL_Driver/Src/stm32h7xx_hal_fdcan.c ****   For specific callbacks ClockCalibrationCallback, TxEventFifoCallback, RxFifo0Callback,
 150:Drivers/STM32H7xx_HAL_Driver/Src/stm32h7xx_hal_fdcan.c ****   RxFifo1Callback, TxBufferCompleteCallback, TxBufferAbortCallback, TT_ScheduleSyncCallback,
 151:Drivers/STM32H7xx_HAL_Driver/Src/stm32h7xx_hal_fdcan.c ****   TT_TimeMarkCallback, TT_StopWatchCallback and TT_GlobalTimeCallback, use dedicated
 152:Drivers/STM32H7xx_HAL_Driver/Src/stm32h7xx_hal_fdcan.c ****   register callbacks : respectively HAL_FDCAN_UnRegisterClockCalibrationCallback(),
 153:Drivers/STM32H7xx_HAL_Driver/Src/stm32h7xx_hal_fdcan.c ****   HAL_FDCAN_UnRegisterTxEventFifoCallback(), HAL_FDCAN_UnRegisterRxFifo0Callback(),
 154:Drivers/STM32H7xx_HAL_Driver/Src/stm32h7xx_hal_fdcan.c ****   HAL_FDCAN_UnRegisterRxFifo1Callback(), HAL_FDCAN_UnRegisterTxBufferCompleCallback(),
 155:Drivers/STM32H7xx_HAL_Driver/Src/stm32h7xx_hal_fdcan.c ****   HAL_FDCAN_UnRegisterTxBufferAbortCallback(), HAL_FDCAN_UnRegisterErrorStatusCallback(),
 156:Drivers/STM32H7xx_HAL_Driver/Src/stm32h7xx_hal_fdcan.c ****   HAL_FDCAN_TT_UnRegisterScheduleSyncCallback(), HAL_FDCAN_TT_UnRegisterTimeMarkCallback(),
 157:Drivers/STM32H7xx_HAL_Driver/Src/stm32h7xx_hal_fdcan.c ****   HAL_FDCAN_TT_UnRegisterStopWatchCallback() and HAL_FDCAN_TT_UnRegisterGlobalTimeCallback().
 158:Drivers/STM32H7xx_HAL_Driver/Src/stm32h7xx_hal_fdcan.c **** 
 159:Drivers/STM32H7xx_HAL_Driver/Src/stm32h7xx_hal_fdcan.c ****   By default, after the HAL_FDCAN_Init() and when the state is HAL_FDCAN_STATE_RESET,
 160:Drivers/STM32H7xx_HAL_Driver/Src/stm32h7xx_hal_fdcan.c ****   all callbacks are set to the corresponding weak functions:
 161:Drivers/STM32H7xx_HAL_Driver/Src/stm32h7xx_hal_fdcan.c ****   examples HAL_FDCAN_ErrorCallback().
 162:Drivers/STM32H7xx_HAL_Driver/Src/stm32h7xx_hal_fdcan.c ****   Exception done for MspInit and MspDeInit functions that are
 163:Drivers/STM32H7xx_HAL_Driver/Src/stm32h7xx_hal_fdcan.c ****   reset to the legacy weak function in the HAL_FDCAN_Init()/ HAL_FDCAN_DeInit() only when
 164:Drivers/STM32H7xx_HAL_Driver/Src/stm32h7xx_hal_fdcan.c ****   these callbacks are null (not registered beforehand).
 165:Drivers/STM32H7xx_HAL_Driver/Src/stm32h7xx_hal_fdcan.c ****   if not, MspInit or MspDeInit are not null, the HAL_FDCAN_Init()/ HAL_FDCAN_DeInit()
 166:Drivers/STM32H7xx_HAL_Driver/Src/stm32h7xx_hal_fdcan.c ****   keep and use the user MspInit/MspDeInit callbacks (registered beforehand)
 167:Drivers/STM32H7xx_HAL_Driver/Src/stm32h7xx_hal_fdcan.c **** 
 168:Drivers/STM32H7xx_HAL_Driver/Src/stm32h7xx_hal_fdcan.c ****   Callbacks can be registered/unregistered in HAL_FDCAN_STATE_READY state only.
 169:Drivers/STM32H7xx_HAL_Driver/Src/stm32h7xx_hal_fdcan.c ****   Exception done MspInit/MspDeInit that can be registered/unregistered
 170:Drivers/STM32H7xx_HAL_Driver/Src/stm32h7xx_hal_fdcan.c ****   in HAL_FDCAN_STATE_READY or HAL_FDCAN_STATE_RESET state,
 171:Drivers/STM32H7xx_HAL_Driver/Src/stm32h7xx_hal_fdcan.c ****   thus registered (user) MspInit/DeInit callbacks can be used during the Init/DeInit.
 172:Drivers/STM32H7xx_HAL_Driver/Src/stm32h7xx_hal_fdcan.c ****   In that case first register the MspInit/MspDeInit user callbacks
ARM GAS  C:\Users\Su\AppData\Local\Temp\ccsFXyek.s 			page 5


 173:Drivers/STM32H7xx_HAL_Driver/Src/stm32h7xx_hal_fdcan.c ****   using HAL_FDCAN_RegisterCallback() before calling HAL_FDCAN_DeInit()
 174:Drivers/STM32H7xx_HAL_Driver/Src/stm32h7xx_hal_fdcan.c ****   or HAL_FDCAN_Init() function.
 175:Drivers/STM32H7xx_HAL_Driver/Src/stm32h7xx_hal_fdcan.c **** 
 176:Drivers/STM32H7xx_HAL_Driver/Src/stm32h7xx_hal_fdcan.c ****   When The compilation define USE_HAL_FDCAN_REGISTER_CALLBACKS is set to 0 or
 177:Drivers/STM32H7xx_HAL_Driver/Src/stm32h7xx_hal_fdcan.c ****   not defined, the callback registration feature is not available and all callbacks
 178:Drivers/STM32H7xx_HAL_Driver/Src/stm32h7xx_hal_fdcan.c ****   are set to the corresponding weak functions.
 179:Drivers/STM32H7xx_HAL_Driver/Src/stm32h7xx_hal_fdcan.c **** 
 180:Drivers/STM32H7xx_HAL_Driver/Src/stm32h7xx_hal_fdcan.c ****   @endverbatim
 181:Drivers/STM32H7xx_HAL_Driver/Src/stm32h7xx_hal_fdcan.c ****   ******************************************************************************
 182:Drivers/STM32H7xx_HAL_Driver/Src/stm32h7xx_hal_fdcan.c ****   */
 183:Drivers/STM32H7xx_HAL_Driver/Src/stm32h7xx_hal_fdcan.c **** 
 184:Drivers/STM32H7xx_HAL_Driver/Src/stm32h7xx_hal_fdcan.c **** /* Includes ------------------------------------------------------------------*/
 185:Drivers/STM32H7xx_HAL_Driver/Src/stm32h7xx_hal_fdcan.c **** #include "stm32h7xx_hal.h"
 186:Drivers/STM32H7xx_HAL_Driver/Src/stm32h7xx_hal_fdcan.c **** 
 187:Drivers/STM32H7xx_HAL_Driver/Src/stm32h7xx_hal_fdcan.c **** #if defined(FDCAN1)
 188:Drivers/STM32H7xx_HAL_Driver/Src/stm32h7xx_hal_fdcan.c **** 
 189:Drivers/STM32H7xx_HAL_Driver/Src/stm32h7xx_hal_fdcan.c **** /** @addtogroup STM32H7xx_HAL_Driver
 190:Drivers/STM32H7xx_HAL_Driver/Src/stm32h7xx_hal_fdcan.c ****   * @{
 191:Drivers/STM32H7xx_HAL_Driver/Src/stm32h7xx_hal_fdcan.c ****   */
 192:Drivers/STM32H7xx_HAL_Driver/Src/stm32h7xx_hal_fdcan.c **** 
 193:Drivers/STM32H7xx_HAL_Driver/Src/stm32h7xx_hal_fdcan.c **** /** @defgroup FDCAN FDCAN
 194:Drivers/STM32H7xx_HAL_Driver/Src/stm32h7xx_hal_fdcan.c ****   * @brief FDCAN HAL module driver
 195:Drivers/STM32H7xx_HAL_Driver/Src/stm32h7xx_hal_fdcan.c ****   * @{
 196:Drivers/STM32H7xx_HAL_Driver/Src/stm32h7xx_hal_fdcan.c ****   */
 197:Drivers/STM32H7xx_HAL_Driver/Src/stm32h7xx_hal_fdcan.c **** 
 198:Drivers/STM32H7xx_HAL_Driver/Src/stm32h7xx_hal_fdcan.c **** #ifdef HAL_FDCAN_MODULE_ENABLED
 199:Drivers/STM32H7xx_HAL_Driver/Src/stm32h7xx_hal_fdcan.c **** 
 200:Drivers/STM32H7xx_HAL_Driver/Src/stm32h7xx_hal_fdcan.c **** /* Private typedef -----------------------------------------------------------*/
 201:Drivers/STM32H7xx_HAL_Driver/Src/stm32h7xx_hal_fdcan.c **** /* Private define ------------------------------------------------------------*/
 202:Drivers/STM32H7xx_HAL_Driver/Src/stm32h7xx_hal_fdcan.c **** /** @addtogroup FDCAN_Private_Constants
 203:Drivers/STM32H7xx_HAL_Driver/Src/stm32h7xx_hal_fdcan.c ****   * @{
 204:Drivers/STM32H7xx_HAL_Driver/Src/stm32h7xx_hal_fdcan.c ****   */
 205:Drivers/STM32H7xx_HAL_Driver/Src/stm32h7xx_hal_fdcan.c **** #define FDCAN_TIMEOUT_VALUE 10U
 206:Drivers/STM32H7xx_HAL_Driver/Src/stm32h7xx_hal_fdcan.c **** #define FDCAN_TIMEOUT_COUNT 50U
 207:Drivers/STM32H7xx_HAL_Driver/Src/stm32h7xx_hal_fdcan.c **** 
 208:Drivers/STM32H7xx_HAL_Driver/Src/stm32h7xx_hal_fdcan.c **** #define FDCAN_TX_EVENT_FIFO_MASK (FDCAN_IR_TEFL | FDCAN_IR_TEFF | FDCAN_IR_TEFW | FDCAN_IR_TEFN)
 209:Drivers/STM32H7xx_HAL_Driver/Src/stm32h7xx_hal_fdcan.c **** #define FDCAN_RX_FIFO0_MASK (FDCAN_IR_RF0L | FDCAN_IR_RF0F | FDCAN_IR_RF0W | FDCAN_IR_RF0N)
 210:Drivers/STM32H7xx_HAL_Driver/Src/stm32h7xx_hal_fdcan.c **** #define FDCAN_RX_FIFO1_MASK (FDCAN_IR_RF1L | FDCAN_IR_RF1F | FDCAN_IR_RF1W | FDCAN_IR_RF1N)
 211:Drivers/STM32H7xx_HAL_Driver/Src/stm32h7xx_hal_fdcan.c **** #define FDCAN_ERROR_MASK (FDCAN_IR_ELO | FDCAN_IR_WDI | FDCAN_IR_PEA | FDCAN_IR_PED | FDCAN_IR_ARA)
 212:Drivers/STM32H7xx_HAL_Driver/Src/stm32h7xx_hal_fdcan.c **** #define FDCAN_ERROR_STATUS_MASK (FDCAN_IR_EP | FDCAN_IR_EW | FDCAN_IR_BO)
 213:Drivers/STM32H7xx_HAL_Driver/Src/stm32h7xx_hal_fdcan.c **** #define FDCAN_TT_SCHEDULE_SYNC_MASK (FDCAN_TTIR_SBC | FDCAN_TTIR_SMC | FDCAN_TTIR_CSM | FDCAN_TTIR_
 214:Drivers/STM32H7xx_HAL_Driver/Src/stm32h7xx_hal_fdcan.c **** #define FDCAN_TT_TIME_MARK_MASK (FDCAN_TTIR_RTMI | FDCAN_TTIR_TTMI)
 215:Drivers/STM32H7xx_HAL_Driver/Src/stm32h7xx_hal_fdcan.c **** #define FDCAN_TT_GLOBAL_TIME_MASK (FDCAN_TTIR_GTW | FDCAN_TTIR_GTD)
 216:Drivers/STM32H7xx_HAL_Driver/Src/stm32h7xx_hal_fdcan.c **** #define FDCAN_TT_DISTURBING_ERROR_MASK (FDCAN_TTIR_GTE | FDCAN_TTIR_TXU | FDCAN_TTIR_TXO | \
 217:Drivers/STM32H7xx_HAL_Driver/Src/stm32h7xx_hal_fdcan.c ****                                         FDCAN_TTIR_SE1 | FDCAN_TTIR_SE2 | FDCAN_TTIR_ELC)
 218:Drivers/STM32H7xx_HAL_Driver/Src/stm32h7xx_hal_fdcan.c **** #define FDCAN_TT_FATAL_ERROR_MASK (FDCAN_TTIR_IWT | FDCAN_TTIR_WT | FDCAN_TTIR_AW | FDCAN_TTIR_CER)
 219:Drivers/STM32H7xx_HAL_Driver/Src/stm32h7xx_hal_fdcan.c **** 
 220:Drivers/STM32H7xx_HAL_Driver/Src/stm32h7xx_hal_fdcan.c **** #define FDCAN_ELEMENT_MASK_STDID ((uint32_t)0x1FFC0000U) /* Standard Identifier         */
 221:Drivers/STM32H7xx_HAL_Driver/Src/stm32h7xx_hal_fdcan.c **** #define FDCAN_ELEMENT_MASK_EXTID ((uint32_t)0x1FFFFFFFU) /* Extended Identifier         */
 222:Drivers/STM32H7xx_HAL_Driver/Src/stm32h7xx_hal_fdcan.c **** #define FDCAN_ELEMENT_MASK_RTR   ((uint32_t)0x20000000U) /* Remote Transmission Request */
 223:Drivers/STM32H7xx_HAL_Driver/Src/stm32h7xx_hal_fdcan.c **** #define FDCAN_ELEMENT_MASK_XTD   ((uint32_t)0x40000000U) /* Extended Identifier         */
 224:Drivers/STM32H7xx_HAL_Driver/Src/stm32h7xx_hal_fdcan.c **** #define FDCAN_ELEMENT_MASK_ESI   ((uint32_t)0x80000000U) /* Error State Indicator       */
 225:Drivers/STM32H7xx_HAL_Driver/Src/stm32h7xx_hal_fdcan.c **** #define FDCAN_ELEMENT_MASK_TS    ((uint32_t)0x0000FFFFU) /* Timestamp                   */
 226:Drivers/STM32H7xx_HAL_Driver/Src/stm32h7xx_hal_fdcan.c **** #define FDCAN_ELEMENT_MASK_DLC   ((uint32_t)0x000F0000U) /* Data Length Code            */
 227:Drivers/STM32H7xx_HAL_Driver/Src/stm32h7xx_hal_fdcan.c **** #define FDCAN_ELEMENT_MASK_BRS   ((uint32_t)0x00100000U) /* Bit Rate Switch             */
 228:Drivers/STM32H7xx_HAL_Driver/Src/stm32h7xx_hal_fdcan.c **** #define FDCAN_ELEMENT_MASK_FDF   ((uint32_t)0x00200000U) /* FD Format                   */
 229:Drivers/STM32H7xx_HAL_Driver/Src/stm32h7xx_hal_fdcan.c **** #define FDCAN_ELEMENT_MASK_EFC   ((uint32_t)0x00800000U) /* Event FIFO Control          */
ARM GAS  C:\Users\Su\AppData\Local\Temp\ccsFXyek.s 			page 6


 230:Drivers/STM32H7xx_HAL_Driver/Src/stm32h7xx_hal_fdcan.c **** #define FDCAN_ELEMENT_MASK_MM    ((uint32_t)0xFF000000U) /* Message Marker              */
 231:Drivers/STM32H7xx_HAL_Driver/Src/stm32h7xx_hal_fdcan.c **** #define FDCAN_ELEMENT_MASK_FIDX  ((uint32_t)0x7F000000U) /* Filter Index                */
 232:Drivers/STM32H7xx_HAL_Driver/Src/stm32h7xx_hal_fdcan.c **** #define FDCAN_ELEMENT_MASK_ANMF  ((uint32_t)0x80000000U) /* Accepted Non-matching Frame */
 233:Drivers/STM32H7xx_HAL_Driver/Src/stm32h7xx_hal_fdcan.c **** #define FDCAN_ELEMENT_MASK_ET    ((uint32_t)0x00C00000U) /* Event type                  */
 234:Drivers/STM32H7xx_HAL_Driver/Src/stm32h7xx_hal_fdcan.c **** 
 235:Drivers/STM32H7xx_HAL_Driver/Src/stm32h7xx_hal_fdcan.c **** #define FDCAN_MESSAGE_RAM_SIZE 0x2800U
 236:Drivers/STM32H7xx_HAL_Driver/Src/stm32h7xx_hal_fdcan.c **** #define FDCAN_MESSAGE_RAM_END_ADDRESS (SRAMCAN_BASE + FDCAN_MESSAGE_RAM_SIZE - 0x4U) /* The Message
 237:Drivers/STM32H7xx_HAL_Driver/Src/stm32h7xx_hal_fdcan.c **** 
 238:Drivers/STM32H7xx_HAL_Driver/Src/stm32h7xx_hal_fdcan.c **** /**
 239:Drivers/STM32H7xx_HAL_Driver/Src/stm32h7xx_hal_fdcan.c ****   * @}
 240:Drivers/STM32H7xx_HAL_Driver/Src/stm32h7xx_hal_fdcan.c ****   */
 241:Drivers/STM32H7xx_HAL_Driver/Src/stm32h7xx_hal_fdcan.c **** 
 242:Drivers/STM32H7xx_HAL_Driver/Src/stm32h7xx_hal_fdcan.c **** /* Private macro -------------------------------------------------------------*/
 243:Drivers/STM32H7xx_HAL_Driver/Src/stm32h7xx_hal_fdcan.c **** /* Private variables ---------------------------------------------------------*/
 244:Drivers/STM32H7xx_HAL_Driver/Src/stm32h7xx_hal_fdcan.c **** static const uint8_t DLCtoBytes[] = {0, 1, 2, 3, 4, 5, 6, 7, 8, 12, 16, 20, 24, 32, 48, 64};
 245:Drivers/STM32H7xx_HAL_Driver/Src/stm32h7xx_hal_fdcan.c **** 
 246:Drivers/STM32H7xx_HAL_Driver/Src/stm32h7xx_hal_fdcan.c **** /* Private function prototypes -----------------------------------------------*/
 247:Drivers/STM32H7xx_HAL_Driver/Src/stm32h7xx_hal_fdcan.c **** /** @addtogroup FDCAN_Private_Functions_Prototypes
 248:Drivers/STM32H7xx_HAL_Driver/Src/stm32h7xx_hal_fdcan.c ****   * @{
 249:Drivers/STM32H7xx_HAL_Driver/Src/stm32h7xx_hal_fdcan.c ****   */
 250:Drivers/STM32H7xx_HAL_Driver/Src/stm32h7xx_hal_fdcan.c **** static HAL_StatusTypeDef FDCAN_CalcultateRamBlockAddresses(FDCAN_HandleTypeDef *hfdcan);
 251:Drivers/STM32H7xx_HAL_Driver/Src/stm32h7xx_hal_fdcan.c **** static void FDCAN_CopyMessageToRAM(FDCAN_HandleTypeDef *hfdcan, FDCAN_TxHeaderTypeDef *pTxHeader, u
 252:Drivers/STM32H7xx_HAL_Driver/Src/stm32h7xx_hal_fdcan.c **** /**
 253:Drivers/STM32H7xx_HAL_Driver/Src/stm32h7xx_hal_fdcan.c ****   * @}
 254:Drivers/STM32H7xx_HAL_Driver/Src/stm32h7xx_hal_fdcan.c ****   */
 255:Drivers/STM32H7xx_HAL_Driver/Src/stm32h7xx_hal_fdcan.c **** 
 256:Drivers/STM32H7xx_HAL_Driver/Src/stm32h7xx_hal_fdcan.c **** /* Exported functions --------------------------------------------------------*/
 257:Drivers/STM32H7xx_HAL_Driver/Src/stm32h7xx_hal_fdcan.c **** /** @defgroup FDCAN_Exported_Functions FDCAN Exported Functions
 258:Drivers/STM32H7xx_HAL_Driver/Src/stm32h7xx_hal_fdcan.c ****   * @{
 259:Drivers/STM32H7xx_HAL_Driver/Src/stm32h7xx_hal_fdcan.c ****   */
 260:Drivers/STM32H7xx_HAL_Driver/Src/stm32h7xx_hal_fdcan.c **** 
 261:Drivers/STM32H7xx_HAL_Driver/Src/stm32h7xx_hal_fdcan.c **** /** @defgroup FDCAN_Exported_Functions_Group1 Initialization and de-initialization functions
 262:Drivers/STM32H7xx_HAL_Driver/Src/stm32h7xx_hal_fdcan.c ****  *  @brief    Initialization and Configuration functions
 263:Drivers/STM32H7xx_HAL_Driver/Src/stm32h7xx_hal_fdcan.c ****  *
 264:Drivers/STM32H7xx_HAL_Driver/Src/stm32h7xx_hal_fdcan.c **** @verbatim
 265:Drivers/STM32H7xx_HAL_Driver/Src/stm32h7xx_hal_fdcan.c ****   ==============================================================================
 266:Drivers/STM32H7xx_HAL_Driver/Src/stm32h7xx_hal_fdcan.c ****               ##### Initialization and de-initialization functions #####
 267:Drivers/STM32H7xx_HAL_Driver/Src/stm32h7xx_hal_fdcan.c ****   ==============================================================================
 268:Drivers/STM32H7xx_HAL_Driver/Src/stm32h7xx_hal_fdcan.c ****     [..]  This section provides functions allowing to:
 269:Drivers/STM32H7xx_HAL_Driver/Src/stm32h7xx_hal_fdcan.c ****       (+) Initialize and configure the FDCAN.
 270:Drivers/STM32H7xx_HAL_Driver/Src/stm32h7xx_hal_fdcan.c ****       (+) De-initialize the FDCAN.
 271:Drivers/STM32H7xx_HAL_Driver/Src/stm32h7xx_hal_fdcan.c ****       (+) Enter FDCAN peripheral in power down mode.
 272:Drivers/STM32H7xx_HAL_Driver/Src/stm32h7xx_hal_fdcan.c ****       (+) Exit power down mode.
 273:Drivers/STM32H7xx_HAL_Driver/Src/stm32h7xx_hal_fdcan.c ****       (+) Register callbacks.
 274:Drivers/STM32H7xx_HAL_Driver/Src/stm32h7xx_hal_fdcan.c ****       (+) Unregister callbacks.
 275:Drivers/STM32H7xx_HAL_Driver/Src/stm32h7xx_hal_fdcan.c **** 
 276:Drivers/STM32H7xx_HAL_Driver/Src/stm32h7xx_hal_fdcan.c **** @endverbatim
 277:Drivers/STM32H7xx_HAL_Driver/Src/stm32h7xx_hal_fdcan.c ****   * @{
 278:Drivers/STM32H7xx_HAL_Driver/Src/stm32h7xx_hal_fdcan.c ****   */
 279:Drivers/STM32H7xx_HAL_Driver/Src/stm32h7xx_hal_fdcan.c **** 
 280:Drivers/STM32H7xx_HAL_Driver/Src/stm32h7xx_hal_fdcan.c **** /**
 281:Drivers/STM32H7xx_HAL_Driver/Src/stm32h7xx_hal_fdcan.c ****   * @brief  Initializes the FDCAN peripheral according to the specified
 282:Drivers/STM32H7xx_HAL_Driver/Src/stm32h7xx_hal_fdcan.c ****   *         parameters in the FDCAN_InitTypeDef structure.
 283:Drivers/STM32H7xx_HAL_Driver/Src/stm32h7xx_hal_fdcan.c ****   * @param  hfdcan pointer to an FDCAN_HandleTypeDef structure that contains
 284:Drivers/STM32H7xx_HAL_Driver/Src/stm32h7xx_hal_fdcan.c ****   *         the configuration information for the specified FDCAN.
 285:Drivers/STM32H7xx_HAL_Driver/Src/stm32h7xx_hal_fdcan.c ****   * @retval HAL status
 286:Drivers/STM32H7xx_HAL_Driver/Src/stm32h7xx_hal_fdcan.c ****   */
ARM GAS  C:\Users\Su\AppData\Local\Temp\ccsFXyek.s 			page 7


 287:Drivers/STM32H7xx_HAL_Driver/Src/stm32h7xx_hal_fdcan.c **** HAL_StatusTypeDef HAL_FDCAN_Init(FDCAN_HandleTypeDef *hfdcan)
 288:Drivers/STM32H7xx_HAL_Driver/Src/stm32h7xx_hal_fdcan.c **** {
  57              		.loc 1 288 1
  58              		.cfi_startproc
  59              		@ args = 0, pretend = 0, frame = 96
  60              		@ frame_needed = 1, uses_anonymous_args = 0
  61 0000 80B5     		push	{r7, lr}
  62              	.LCFI0:
  63              		.cfi_def_cfa_offset 8
  64              		.cfi_offset 7, -8
  65              		.cfi_offset 14, -4
  66 0002 98B0     		sub	sp, sp, #96
  67              	.LCFI1:
  68              		.cfi_def_cfa_offset 104
  69 0004 00AF     		add	r7, sp, #0
  70              	.LCFI2:
  71              		.cfi_def_cfa_register 7
  72 0006 7860     		str	r0, [r7, #4]
 289:Drivers/STM32H7xx_HAL_Driver/Src/stm32h7xx_hal_fdcan.c ****   uint32_t tickstart;
 290:Drivers/STM32H7xx_HAL_Driver/Src/stm32h7xx_hal_fdcan.c ****   HAL_StatusTypeDef status;
 291:Drivers/STM32H7xx_HAL_Driver/Src/stm32h7xx_hal_fdcan.c ****   const uint32_t CvtEltSize[] = {0, 0, 0, 0, 0, 1, 2, 3, 4, 0, 5, 0, 0, 0, 6, 0, 0, 0, 7};
  73              		.loc 1 291 18
  74 0008 844A     		ldr	r2, .L27
  75 000a 07F10C03 		add	r3, r7, #12
  76 000e 1146     		mov	r1, r2
  77 0010 4C22     		movs	r2, #76
  78 0012 1846     		mov	r0, r3
  79 0014 FFF7FEFF 		bl	memcpy
 292:Drivers/STM32H7xx_HAL_Driver/Src/stm32h7xx_hal_fdcan.c **** 
 293:Drivers/STM32H7xx_HAL_Driver/Src/stm32h7xx_hal_fdcan.c ****   /* Check FDCAN handle */
 294:Drivers/STM32H7xx_HAL_Driver/Src/stm32h7xx_hal_fdcan.c ****   if (hfdcan == NULL)
  80              		.loc 1 294 6
  81 0018 7B68     		ldr	r3, [r7, #4]
  82 001a 002B     		cmp	r3, #0
  83 001c 01D1     		bne	.L2
 295:Drivers/STM32H7xx_HAL_Driver/Src/stm32h7xx_hal_fdcan.c ****   {
 296:Drivers/STM32H7xx_HAL_Driver/Src/stm32h7xx_hal_fdcan.c ****     return HAL_ERROR;
  84              		.loc 1 296 12
  85 001e 0123     		movs	r3, #1
  86 0020 C6E1     		b	.L26
  87              	.L2:
 297:Drivers/STM32H7xx_HAL_Driver/Src/stm32h7xx_hal_fdcan.c ****   }
 298:Drivers/STM32H7xx_HAL_Driver/Src/stm32h7xx_hal_fdcan.c **** 
 299:Drivers/STM32H7xx_HAL_Driver/Src/stm32h7xx_hal_fdcan.c ****   /* Check FDCAN instance */
 300:Drivers/STM32H7xx_HAL_Driver/Src/stm32h7xx_hal_fdcan.c ****   if (hfdcan->Instance == FDCAN1)
  88              		.loc 1 300 13
  89 0022 7B68     		ldr	r3, [r7, #4]
  90 0024 1B68     		ldr	r3, [r3]
  91              		.loc 1 300 6
  92 0026 7E4A     		ldr	r2, .L27+4
  93 0028 9342     		cmp	r3, r2
  94 002a 06D1     		bne	.L4
 301:Drivers/STM32H7xx_HAL_Driver/Src/stm32h7xx_hal_fdcan.c ****   {
 302:Drivers/STM32H7xx_HAL_Driver/Src/stm32h7xx_hal_fdcan.c ****     hfdcan->ttcan = (TTCAN_TypeDef *)((uint32_t)hfdcan->Instance + 0x100U);
  95              		.loc 1 302 55
  96 002c 7B68     		ldr	r3, [r7, #4]
  97 002e 1B68     		ldr	r3, [r3]
ARM GAS  C:\Users\Su\AppData\Local\Temp\ccsFXyek.s 			page 8


  98              		.loc 1 302 66
  99 0030 03F58073 		add	r3, r3, #256
 100              		.loc 1 302 21
 101 0034 1A46     		mov	r2, r3
 102              		.loc 1 302 19
 103 0036 7B68     		ldr	r3, [r7, #4]
 104 0038 5A60     		str	r2, [r3, #4]
 105              	.L4:
 303:Drivers/STM32H7xx_HAL_Driver/Src/stm32h7xx_hal_fdcan.c ****   }
 304:Drivers/STM32H7xx_HAL_Driver/Src/stm32h7xx_hal_fdcan.c **** 
 305:Drivers/STM32H7xx_HAL_Driver/Src/stm32h7xx_hal_fdcan.c ****   /* Check function parameters */
 306:Drivers/STM32H7xx_HAL_Driver/Src/stm32h7xx_hal_fdcan.c ****   assert_param(IS_FDCAN_ALL_INSTANCE(hfdcan->Instance));
 307:Drivers/STM32H7xx_HAL_Driver/Src/stm32h7xx_hal_fdcan.c ****   assert_param(IS_FDCAN_FRAME_FORMAT(hfdcan->Init.FrameFormat));
 308:Drivers/STM32H7xx_HAL_Driver/Src/stm32h7xx_hal_fdcan.c ****   assert_param(IS_FDCAN_MODE(hfdcan->Init.Mode));
 309:Drivers/STM32H7xx_HAL_Driver/Src/stm32h7xx_hal_fdcan.c ****   assert_param(IS_FUNCTIONAL_STATE(hfdcan->Init.AutoRetransmission));
 310:Drivers/STM32H7xx_HAL_Driver/Src/stm32h7xx_hal_fdcan.c ****   assert_param(IS_FUNCTIONAL_STATE(hfdcan->Init.TransmitPause));
 311:Drivers/STM32H7xx_HAL_Driver/Src/stm32h7xx_hal_fdcan.c ****   assert_param(IS_FUNCTIONAL_STATE(hfdcan->Init.ProtocolException));
 312:Drivers/STM32H7xx_HAL_Driver/Src/stm32h7xx_hal_fdcan.c ****   assert_param(IS_FDCAN_NOMINAL_PRESCALER(hfdcan->Init.NominalPrescaler));
 313:Drivers/STM32H7xx_HAL_Driver/Src/stm32h7xx_hal_fdcan.c ****   assert_param(IS_FDCAN_NOMINAL_SJW(hfdcan->Init.NominalSyncJumpWidth));
 314:Drivers/STM32H7xx_HAL_Driver/Src/stm32h7xx_hal_fdcan.c ****   assert_param(IS_FDCAN_NOMINAL_TSEG1(hfdcan->Init.NominalTimeSeg1));
 315:Drivers/STM32H7xx_HAL_Driver/Src/stm32h7xx_hal_fdcan.c ****   assert_param(IS_FDCAN_NOMINAL_TSEG2(hfdcan->Init.NominalTimeSeg2));
 316:Drivers/STM32H7xx_HAL_Driver/Src/stm32h7xx_hal_fdcan.c ****   if (hfdcan->Init.FrameFormat == FDCAN_FRAME_FD_BRS)
 317:Drivers/STM32H7xx_HAL_Driver/Src/stm32h7xx_hal_fdcan.c ****   {
 318:Drivers/STM32H7xx_HAL_Driver/Src/stm32h7xx_hal_fdcan.c ****     assert_param(IS_FDCAN_DATA_PRESCALER(hfdcan->Init.DataPrescaler));
 319:Drivers/STM32H7xx_HAL_Driver/Src/stm32h7xx_hal_fdcan.c ****     assert_param(IS_FDCAN_DATA_SJW(hfdcan->Init.DataSyncJumpWidth));
 320:Drivers/STM32H7xx_HAL_Driver/Src/stm32h7xx_hal_fdcan.c ****     assert_param(IS_FDCAN_DATA_TSEG1(hfdcan->Init.DataTimeSeg1));
 321:Drivers/STM32H7xx_HAL_Driver/Src/stm32h7xx_hal_fdcan.c ****     assert_param(IS_FDCAN_DATA_TSEG2(hfdcan->Init.DataTimeSeg2));
 322:Drivers/STM32H7xx_HAL_Driver/Src/stm32h7xx_hal_fdcan.c ****   }
 323:Drivers/STM32H7xx_HAL_Driver/Src/stm32h7xx_hal_fdcan.c ****   assert_param(IS_FDCAN_MAX_VALUE(hfdcan->Init.StdFiltersNbr, 128U));
 324:Drivers/STM32H7xx_HAL_Driver/Src/stm32h7xx_hal_fdcan.c ****   assert_param(IS_FDCAN_MAX_VALUE(hfdcan->Init.ExtFiltersNbr, 64U));
 325:Drivers/STM32H7xx_HAL_Driver/Src/stm32h7xx_hal_fdcan.c ****   assert_param(IS_FDCAN_MAX_VALUE(hfdcan->Init.RxFifo0ElmtsNbr, 64U));
 326:Drivers/STM32H7xx_HAL_Driver/Src/stm32h7xx_hal_fdcan.c ****   if (hfdcan->Init.RxFifo0ElmtsNbr > 0U)
 327:Drivers/STM32H7xx_HAL_Driver/Src/stm32h7xx_hal_fdcan.c ****   {
 328:Drivers/STM32H7xx_HAL_Driver/Src/stm32h7xx_hal_fdcan.c ****     assert_param(IS_FDCAN_DATA_SIZE(hfdcan->Init.RxFifo0ElmtSize));
 329:Drivers/STM32H7xx_HAL_Driver/Src/stm32h7xx_hal_fdcan.c ****   }
 330:Drivers/STM32H7xx_HAL_Driver/Src/stm32h7xx_hal_fdcan.c ****   assert_param(IS_FDCAN_MAX_VALUE(hfdcan->Init.RxFifo1ElmtsNbr, 64U));
 331:Drivers/STM32H7xx_HAL_Driver/Src/stm32h7xx_hal_fdcan.c ****   if (hfdcan->Init.RxFifo1ElmtsNbr > 0U)
 332:Drivers/STM32H7xx_HAL_Driver/Src/stm32h7xx_hal_fdcan.c ****   {
 333:Drivers/STM32H7xx_HAL_Driver/Src/stm32h7xx_hal_fdcan.c ****     assert_param(IS_FDCAN_DATA_SIZE(hfdcan->Init.RxFifo1ElmtSize));
 334:Drivers/STM32H7xx_HAL_Driver/Src/stm32h7xx_hal_fdcan.c ****   }
 335:Drivers/STM32H7xx_HAL_Driver/Src/stm32h7xx_hal_fdcan.c ****   assert_param(IS_FDCAN_MAX_VALUE(hfdcan->Init.RxBuffersNbr, 64U));
 336:Drivers/STM32H7xx_HAL_Driver/Src/stm32h7xx_hal_fdcan.c ****   if (hfdcan->Init.RxBuffersNbr > 0U)
 337:Drivers/STM32H7xx_HAL_Driver/Src/stm32h7xx_hal_fdcan.c ****   {
 338:Drivers/STM32H7xx_HAL_Driver/Src/stm32h7xx_hal_fdcan.c ****     assert_param(IS_FDCAN_DATA_SIZE(hfdcan->Init.RxBufferSize));
 339:Drivers/STM32H7xx_HAL_Driver/Src/stm32h7xx_hal_fdcan.c ****   }
 340:Drivers/STM32H7xx_HAL_Driver/Src/stm32h7xx_hal_fdcan.c ****   assert_param(IS_FDCAN_MAX_VALUE(hfdcan->Init.TxEventsNbr, 32U));
 341:Drivers/STM32H7xx_HAL_Driver/Src/stm32h7xx_hal_fdcan.c ****   assert_param(IS_FDCAN_MAX_VALUE((hfdcan->Init.TxBuffersNbr + hfdcan->Init.TxFifoQueueElmtsNbr), 3
 342:Drivers/STM32H7xx_HAL_Driver/Src/stm32h7xx_hal_fdcan.c ****   if (hfdcan->Init.TxFifoQueueElmtsNbr > 0U)
 343:Drivers/STM32H7xx_HAL_Driver/Src/stm32h7xx_hal_fdcan.c ****   {
 344:Drivers/STM32H7xx_HAL_Driver/Src/stm32h7xx_hal_fdcan.c ****     assert_param(IS_FDCAN_TX_FIFO_QUEUE_MODE(hfdcan->Init.TxFifoQueueMode));
 345:Drivers/STM32H7xx_HAL_Driver/Src/stm32h7xx_hal_fdcan.c ****   }
 346:Drivers/STM32H7xx_HAL_Driver/Src/stm32h7xx_hal_fdcan.c ****   if ((hfdcan->Init.TxBuffersNbr + hfdcan->Init.TxFifoQueueElmtsNbr) > 0U)
 347:Drivers/STM32H7xx_HAL_Driver/Src/stm32h7xx_hal_fdcan.c ****   {
 348:Drivers/STM32H7xx_HAL_Driver/Src/stm32h7xx_hal_fdcan.c ****     assert_param(IS_FDCAN_DATA_SIZE(hfdcan->Init.TxElmtSize));
 349:Drivers/STM32H7xx_HAL_Driver/Src/stm32h7xx_hal_fdcan.c ****   }
 350:Drivers/STM32H7xx_HAL_Driver/Src/stm32h7xx_hal_fdcan.c **** 
 351:Drivers/STM32H7xx_HAL_Driver/Src/stm32h7xx_hal_fdcan.c **** #if USE_HAL_FDCAN_REGISTER_CALLBACKS == 1
ARM GAS  C:\Users\Su\AppData\Local\Temp\ccsFXyek.s 			page 9


 352:Drivers/STM32H7xx_HAL_Driver/Src/stm32h7xx_hal_fdcan.c ****   if (hfdcan->State == HAL_FDCAN_STATE_RESET)
 353:Drivers/STM32H7xx_HAL_Driver/Src/stm32h7xx_hal_fdcan.c ****   {
 354:Drivers/STM32H7xx_HAL_Driver/Src/stm32h7xx_hal_fdcan.c ****     /* Allocate lock resource and initialize it */
 355:Drivers/STM32H7xx_HAL_Driver/Src/stm32h7xx_hal_fdcan.c ****     hfdcan->Lock = HAL_UNLOCKED;
 356:Drivers/STM32H7xx_HAL_Driver/Src/stm32h7xx_hal_fdcan.c **** 
 357:Drivers/STM32H7xx_HAL_Driver/Src/stm32h7xx_hal_fdcan.c ****     /* Reset callbacks to legacy functions */
 358:Drivers/STM32H7xx_HAL_Driver/Src/stm32h7xx_hal_fdcan.c ****     hfdcan->ClockCalibrationCallback    = HAL_FDCAN_ClockCalibrationCallback;    /* Legacy weak Clo
 359:Drivers/STM32H7xx_HAL_Driver/Src/stm32h7xx_hal_fdcan.c ****     hfdcan->TxEventFifoCallback         = HAL_FDCAN_TxEventFifoCallback;         /* Legacy weak TxE
 360:Drivers/STM32H7xx_HAL_Driver/Src/stm32h7xx_hal_fdcan.c ****     hfdcan->RxFifo0Callback             = HAL_FDCAN_RxFifo0Callback;             /* Legacy weak RxF
 361:Drivers/STM32H7xx_HAL_Driver/Src/stm32h7xx_hal_fdcan.c ****     hfdcan->RxFifo1Callback             = HAL_FDCAN_RxFifo1Callback;             /* Legacy weak RxF
 362:Drivers/STM32H7xx_HAL_Driver/Src/stm32h7xx_hal_fdcan.c ****     hfdcan->TxFifoEmptyCallback         = HAL_FDCAN_TxFifoEmptyCallback;         /* Legacy weak TxF
 363:Drivers/STM32H7xx_HAL_Driver/Src/stm32h7xx_hal_fdcan.c ****     hfdcan->TxBufferCompleteCallback    = HAL_FDCAN_TxBufferCompleteCallback;    /* Legacy weak TxB
 364:Drivers/STM32H7xx_HAL_Driver/Src/stm32h7xx_hal_fdcan.c ****     hfdcan->TxBufferAbortCallback       = HAL_FDCAN_TxBufferAbortCallback;       /* Legacy weak TxB
 365:Drivers/STM32H7xx_HAL_Driver/Src/stm32h7xx_hal_fdcan.c ****     hfdcan->RxBufferNewMessageCallback  = HAL_FDCAN_RxBufferNewMessageCallback;  /* Legacy weak RxB
 366:Drivers/STM32H7xx_HAL_Driver/Src/stm32h7xx_hal_fdcan.c ****     hfdcan->HighPriorityMessageCallback = HAL_FDCAN_HighPriorityMessageCallback; /* Legacy weak Hig
 367:Drivers/STM32H7xx_HAL_Driver/Src/stm32h7xx_hal_fdcan.c ****     hfdcan->TimestampWraparoundCallback = HAL_FDCAN_TimestampWraparoundCallback; /* Legacy weak Tim
 368:Drivers/STM32H7xx_HAL_Driver/Src/stm32h7xx_hal_fdcan.c ****     hfdcan->TimeoutOccurredCallback     = HAL_FDCAN_TimeoutOccurredCallback;     /* Legacy weak Tim
 369:Drivers/STM32H7xx_HAL_Driver/Src/stm32h7xx_hal_fdcan.c ****     hfdcan->ErrorCallback               = HAL_FDCAN_ErrorCallback;               /* Legacy weak Err
 370:Drivers/STM32H7xx_HAL_Driver/Src/stm32h7xx_hal_fdcan.c ****     hfdcan->ErrorStatusCallback         = HAL_FDCAN_ErrorStatusCallback;         /* Legacy weak Err
 371:Drivers/STM32H7xx_HAL_Driver/Src/stm32h7xx_hal_fdcan.c ****     hfdcan->TT_ScheduleSyncCallback     = HAL_FDCAN_TT_ScheduleSyncCallback;     /* Legacy weak TT_
 372:Drivers/STM32H7xx_HAL_Driver/Src/stm32h7xx_hal_fdcan.c ****     hfdcan->TT_TimeMarkCallback         = HAL_FDCAN_TT_TimeMarkCallback;         /* Legacy weak TT_
 373:Drivers/STM32H7xx_HAL_Driver/Src/stm32h7xx_hal_fdcan.c ****     hfdcan->TT_StopWatchCallback        = HAL_FDCAN_TT_StopWatchCallback;        /* Legacy weak TT_
 374:Drivers/STM32H7xx_HAL_Driver/Src/stm32h7xx_hal_fdcan.c ****     hfdcan->TT_GlobalTimeCallback       = HAL_FDCAN_TT_GlobalTimeCallback;       /* Legacy weak TT_
 375:Drivers/STM32H7xx_HAL_Driver/Src/stm32h7xx_hal_fdcan.c **** 
 376:Drivers/STM32H7xx_HAL_Driver/Src/stm32h7xx_hal_fdcan.c ****     if (hfdcan->MspInitCallback == NULL)
 377:Drivers/STM32H7xx_HAL_Driver/Src/stm32h7xx_hal_fdcan.c ****     {
 378:Drivers/STM32H7xx_HAL_Driver/Src/stm32h7xx_hal_fdcan.c ****       hfdcan->MspInitCallback = HAL_FDCAN_MspInit;  /* Legacy weak MspInit */
 379:Drivers/STM32H7xx_HAL_Driver/Src/stm32h7xx_hal_fdcan.c ****     }
 380:Drivers/STM32H7xx_HAL_Driver/Src/stm32h7xx_hal_fdcan.c **** 
 381:Drivers/STM32H7xx_HAL_Driver/Src/stm32h7xx_hal_fdcan.c ****     /* Init the low level hardware: CLOCK, NVIC */
 382:Drivers/STM32H7xx_HAL_Driver/Src/stm32h7xx_hal_fdcan.c ****     hfdcan->MspInitCallback(hfdcan);
 383:Drivers/STM32H7xx_HAL_Driver/Src/stm32h7xx_hal_fdcan.c ****   }
 384:Drivers/STM32H7xx_HAL_Driver/Src/stm32h7xx_hal_fdcan.c **** #else
 385:Drivers/STM32H7xx_HAL_Driver/Src/stm32h7xx_hal_fdcan.c ****   if (hfdcan->State == HAL_FDCAN_STATE_RESET)
 106              		.loc 1 385 13
 107 003a 7B68     		ldr	r3, [r7, #4]
 108 003c 93F89830 		ldrb	r3, [r3, #152]
 109 0040 DBB2     		uxtb	r3, r3
 110              		.loc 1 385 6
 111 0042 002B     		cmp	r3, #0
 112 0044 06D1     		bne	.L5
 386:Drivers/STM32H7xx_HAL_Driver/Src/stm32h7xx_hal_fdcan.c ****   {
 387:Drivers/STM32H7xx_HAL_Driver/Src/stm32h7xx_hal_fdcan.c ****     /* Allocate lock resource and initialize it */
 388:Drivers/STM32H7xx_HAL_Driver/Src/stm32h7xx_hal_fdcan.c ****     hfdcan->Lock = HAL_UNLOCKED;
 113              		.loc 1 388 18
 114 0046 7B68     		ldr	r3, [r7, #4]
 115 0048 0022     		movs	r2, #0
 116 004a 83F89920 		strb	r2, [r3, #153]
 389:Drivers/STM32H7xx_HAL_Driver/Src/stm32h7xx_hal_fdcan.c **** 
 390:Drivers/STM32H7xx_HAL_Driver/Src/stm32h7xx_hal_fdcan.c ****     /* Init the low level hardware: CLOCK, NVIC */
 391:Drivers/STM32H7xx_HAL_Driver/Src/stm32h7xx_hal_fdcan.c ****     HAL_FDCAN_MspInit(hfdcan);
 117              		.loc 1 391 5
 118 004e 7868     		ldr	r0, [r7, #4]
 119 0050 FFF7FEFF 		bl	HAL_FDCAN_MspInit
 120              	.L5:
 392:Drivers/STM32H7xx_HAL_Driver/Src/stm32h7xx_hal_fdcan.c ****   }
 393:Drivers/STM32H7xx_HAL_Driver/Src/stm32h7xx_hal_fdcan.c **** #endif /* USE_HAL_FDCAN_REGISTER_CALLBACKS */
ARM GAS  C:\Users\Su\AppData\Local\Temp\ccsFXyek.s 			page 10


 394:Drivers/STM32H7xx_HAL_Driver/Src/stm32h7xx_hal_fdcan.c **** 
 395:Drivers/STM32H7xx_HAL_Driver/Src/stm32h7xx_hal_fdcan.c ****   /* Exit from Sleep mode */
 396:Drivers/STM32H7xx_HAL_Driver/Src/stm32h7xx_hal_fdcan.c ****   CLEAR_BIT(hfdcan->Instance->CCCR, FDCAN_CCCR_CSR);
 121              		.loc 1 396 3
 122 0054 7B68     		ldr	r3, [r7, #4]
 123 0056 1B68     		ldr	r3, [r3]
 124 0058 9A69     		ldr	r2, [r3, #24]
 125 005a 7B68     		ldr	r3, [r7, #4]
 126 005c 1B68     		ldr	r3, [r3]
 127 005e 22F01002 		bic	r2, r2, #16
 128 0062 9A61     		str	r2, [r3, #24]
 397:Drivers/STM32H7xx_HAL_Driver/Src/stm32h7xx_hal_fdcan.c **** 
 398:Drivers/STM32H7xx_HAL_Driver/Src/stm32h7xx_hal_fdcan.c ****   /* Get tick */
 399:Drivers/STM32H7xx_HAL_Driver/Src/stm32h7xx_hal_fdcan.c ****   tickstart = HAL_GetTick();
 129              		.loc 1 399 15
 130 0064 FFF7FEFF 		bl	HAL_GetTick
 131 0068 F865     		str	r0, [r7, #92]
 400:Drivers/STM32H7xx_HAL_Driver/Src/stm32h7xx_hal_fdcan.c **** 
 401:Drivers/STM32H7xx_HAL_Driver/Src/stm32h7xx_hal_fdcan.c ****   /* Check Sleep mode acknowledge */
 402:Drivers/STM32H7xx_HAL_Driver/Src/stm32h7xx_hal_fdcan.c ****   while ((hfdcan->Instance->CCCR & FDCAN_CCCR_CSA) == FDCAN_CCCR_CSA)
 132              		.loc 1 402 9
 133 006a 14E0     		b	.L6
 134              	.L7:
 403:Drivers/STM32H7xx_HAL_Driver/Src/stm32h7xx_hal_fdcan.c ****   {
 404:Drivers/STM32H7xx_HAL_Driver/Src/stm32h7xx_hal_fdcan.c ****     if ((HAL_GetTick() - tickstart) > FDCAN_TIMEOUT_VALUE)
 135              		.loc 1 404 10
 136 006c FFF7FEFF 		bl	HAL_GetTick
 137 0070 0246     		mov	r2, r0
 138              		.loc 1 404 24
 139 0072 FB6D     		ldr	r3, [r7, #92]
 140 0074 D31A     		subs	r3, r2, r3
 141              		.loc 1 404 8
 142 0076 0A2B     		cmp	r3, #10
 143 0078 0DD9     		bls	.L6
 405:Drivers/STM32H7xx_HAL_Driver/Src/stm32h7xx_hal_fdcan.c ****     {
 406:Drivers/STM32H7xx_HAL_Driver/Src/stm32h7xx_hal_fdcan.c ****       /* Update error code */
 407:Drivers/STM32H7xx_HAL_Driver/Src/stm32h7xx_hal_fdcan.c ****       hfdcan->ErrorCode |= HAL_FDCAN_ERROR_TIMEOUT;
 144              		.loc 1 407 25
 145 007a 7B68     		ldr	r3, [r7, #4]
 146 007c D3F89C30 		ldr	r3, [r3, #156]
 147 0080 43F00102 		orr	r2, r3, #1
 148 0084 7B68     		ldr	r3, [r7, #4]
 149 0086 C3F89C20 		str	r2, [r3, #156]
 408:Drivers/STM32H7xx_HAL_Driver/Src/stm32h7xx_hal_fdcan.c **** 
 409:Drivers/STM32H7xx_HAL_Driver/Src/stm32h7xx_hal_fdcan.c ****       /* Change FDCAN state */
 410:Drivers/STM32H7xx_HAL_Driver/Src/stm32h7xx_hal_fdcan.c ****       hfdcan->State = HAL_FDCAN_STATE_ERROR;
 150              		.loc 1 410 21
 151 008a 7B68     		ldr	r3, [r7, #4]
 152 008c 0322     		movs	r2, #3
 153 008e 83F89820 		strb	r2, [r3, #152]
 411:Drivers/STM32H7xx_HAL_Driver/Src/stm32h7xx_hal_fdcan.c **** 
 412:Drivers/STM32H7xx_HAL_Driver/Src/stm32h7xx_hal_fdcan.c ****       return HAL_ERROR;
 154              		.loc 1 412 14
 155 0092 0123     		movs	r3, #1
 156 0094 8CE1     		b	.L26
 157              	.L6:
 402:Drivers/STM32H7xx_HAL_Driver/Src/stm32h7xx_hal_fdcan.c ****   {
ARM GAS  C:\Users\Su\AppData\Local\Temp\ccsFXyek.s 			page 11


 158              		.loc 1 402 17
 159 0096 7B68     		ldr	r3, [r7, #4]
 160 0098 1B68     		ldr	r3, [r3]
 402:Drivers/STM32H7xx_HAL_Driver/Src/stm32h7xx_hal_fdcan.c ****   {
 161              		.loc 1 402 27
 162 009a 9B69     		ldr	r3, [r3, #24]
 402:Drivers/STM32H7xx_HAL_Driver/Src/stm32h7xx_hal_fdcan.c ****   {
 163              		.loc 1 402 34
 164 009c 03F00803 		and	r3, r3, #8
 402:Drivers/STM32H7xx_HAL_Driver/Src/stm32h7xx_hal_fdcan.c ****   {
 165              		.loc 1 402 9
 166 00a0 082B     		cmp	r3, #8
 167 00a2 E3D0     		beq	.L7
 413:Drivers/STM32H7xx_HAL_Driver/Src/stm32h7xx_hal_fdcan.c ****     }
 414:Drivers/STM32H7xx_HAL_Driver/Src/stm32h7xx_hal_fdcan.c ****   }
 415:Drivers/STM32H7xx_HAL_Driver/Src/stm32h7xx_hal_fdcan.c **** 
 416:Drivers/STM32H7xx_HAL_Driver/Src/stm32h7xx_hal_fdcan.c ****   /* Request initialisation */
 417:Drivers/STM32H7xx_HAL_Driver/Src/stm32h7xx_hal_fdcan.c ****   SET_BIT(hfdcan->Instance->CCCR, FDCAN_CCCR_INIT);
 168              		.loc 1 417 3
 169 00a4 7B68     		ldr	r3, [r7, #4]
 170 00a6 1B68     		ldr	r3, [r3]
 171 00a8 9A69     		ldr	r2, [r3, #24]
 172 00aa 7B68     		ldr	r3, [r7, #4]
 173 00ac 1B68     		ldr	r3, [r3]
 174 00ae 42F00102 		orr	r2, r2, #1
 175 00b2 9A61     		str	r2, [r3, #24]
 418:Drivers/STM32H7xx_HAL_Driver/Src/stm32h7xx_hal_fdcan.c **** 
 419:Drivers/STM32H7xx_HAL_Driver/Src/stm32h7xx_hal_fdcan.c ****   /* Get tick */
 420:Drivers/STM32H7xx_HAL_Driver/Src/stm32h7xx_hal_fdcan.c ****   tickstart = HAL_GetTick();
 176              		.loc 1 420 15
 177 00b4 FFF7FEFF 		bl	HAL_GetTick
 178 00b8 F865     		str	r0, [r7, #92]
 421:Drivers/STM32H7xx_HAL_Driver/Src/stm32h7xx_hal_fdcan.c **** 
 422:Drivers/STM32H7xx_HAL_Driver/Src/stm32h7xx_hal_fdcan.c ****   /* Wait until the INIT bit into CCCR register is set */
 423:Drivers/STM32H7xx_HAL_Driver/Src/stm32h7xx_hal_fdcan.c ****   while ((hfdcan->Instance->CCCR & FDCAN_CCCR_INIT) == 0U)
 179              		.loc 1 423 9
 180 00ba 14E0     		b	.L8
 181              	.L9:
 424:Drivers/STM32H7xx_HAL_Driver/Src/stm32h7xx_hal_fdcan.c ****   {
 425:Drivers/STM32H7xx_HAL_Driver/Src/stm32h7xx_hal_fdcan.c ****     /* Check for the Timeout */
 426:Drivers/STM32H7xx_HAL_Driver/Src/stm32h7xx_hal_fdcan.c ****     if ((HAL_GetTick() - tickstart) > FDCAN_TIMEOUT_VALUE)
 182              		.loc 1 426 10
 183 00bc FFF7FEFF 		bl	HAL_GetTick
 184 00c0 0246     		mov	r2, r0
 185              		.loc 1 426 24
 186 00c2 FB6D     		ldr	r3, [r7, #92]
 187 00c4 D31A     		subs	r3, r2, r3
 188              		.loc 1 426 8
 189 00c6 0A2B     		cmp	r3, #10
 190 00c8 0DD9     		bls	.L8
 427:Drivers/STM32H7xx_HAL_Driver/Src/stm32h7xx_hal_fdcan.c ****     {
 428:Drivers/STM32H7xx_HAL_Driver/Src/stm32h7xx_hal_fdcan.c ****       /* Update error code */
 429:Drivers/STM32H7xx_HAL_Driver/Src/stm32h7xx_hal_fdcan.c ****       hfdcan->ErrorCode |= HAL_FDCAN_ERROR_TIMEOUT;
 191              		.loc 1 429 25
 192 00ca 7B68     		ldr	r3, [r7, #4]
 193 00cc D3F89C30 		ldr	r3, [r3, #156]
 194 00d0 43F00102 		orr	r2, r3, #1
ARM GAS  C:\Users\Su\AppData\Local\Temp\ccsFXyek.s 			page 12


 195 00d4 7B68     		ldr	r3, [r7, #4]
 196 00d6 C3F89C20 		str	r2, [r3, #156]
 430:Drivers/STM32H7xx_HAL_Driver/Src/stm32h7xx_hal_fdcan.c **** 
 431:Drivers/STM32H7xx_HAL_Driver/Src/stm32h7xx_hal_fdcan.c ****       /* Change FDCAN state */
 432:Drivers/STM32H7xx_HAL_Driver/Src/stm32h7xx_hal_fdcan.c ****       hfdcan->State = HAL_FDCAN_STATE_ERROR;
 197              		.loc 1 432 21
 198 00da 7B68     		ldr	r3, [r7, #4]
 199 00dc 0322     		movs	r2, #3
 200 00de 83F89820 		strb	r2, [r3, #152]
 433:Drivers/STM32H7xx_HAL_Driver/Src/stm32h7xx_hal_fdcan.c **** 
 434:Drivers/STM32H7xx_HAL_Driver/Src/stm32h7xx_hal_fdcan.c ****       return HAL_ERROR;
 201              		.loc 1 434 14
 202 00e2 0123     		movs	r3, #1
 203 00e4 64E1     		b	.L26
 204              	.L8:
 423:Drivers/STM32H7xx_HAL_Driver/Src/stm32h7xx_hal_fdcan.c ****   {
 205              		.loc 1 423 17
 206 00e6 7B68     		ldr	r3, [r7, #4]
 207 00e8 1B68     		ldr	r3, [r3]
 423:Drivers/STM32H7xx_HAL_Driver/Src/stm32h7xx_hal_fdcan.c ****   {
 208              		.loc 1 423 27
 209 00ea 9B69     		ldr	r3, [r3, #24]
 423:Drivers/STM32H7xx_HAL_Driver/Src/stm32h7xx_hal_fdcan.c ****   {
 210              		.loc 1 423 34
 211 00ec 03F00103 		and	r3, r3, #1
 423:Drivers/STM32H7xx_HAL_Driver/Src/stm32h7xx_hal_fdcan.c ****   {
 212              		.loc 1 423 9
 213 00f0 002B     		cmp	r3, #0
 214 00f2 E3D0     		beq	.L9
 435:Drivers/STM32H7xx_HAL_Driver/Src/stm32h7xx_hal_fdcan.c ****     }
 436:Drivers/STM32H7xx_HAL_Driver/Src/stm32h7xx_hal_fdcan.c ****   }
 437:Drivers/STM32H7xx_HAL_Driver/Src/stm32h7xx_hal_fdcan.c **** 
 438:Drivers/STM32H7xx_HAL_Driver/Src/stm32h7xx_hal_fdcan.c ****   /* Enable configuration change */
 439:Drivers/STM32H7xx_HAL_Driver/Src/stm32h7xx_hal_fdcan.c ****   SET_BIT(hfdcan->Instance->CCCR, FDCAN_CCCR_CCE);
 215              		.loc 1 439 3
 216 00f4 7B68     		ldr	r3, [r7, #4]
 217 00f6 1B68     		ldr	r3, [r3]
 218 00f8 9A69     		ldr	r2, [r3, #24]
 219 00fa 7B68     		ldr	r3, [r7, #4]
 220 00fc 1B68     		ldr	r3, [r3]
 221 00fe 42F00202 		orr	r2, r2, #2
 222 0102 9A61     		str	r2, [r3, #24]
 440:Drivers/STM32H7xx_HAL_Driver/Src/stm32h7xx_hal_fdcan.c **** 
 441:Drivers/STM32H7xx_HAL_Driver/Src/stm32h7xx_hal_fdcan.c ****   /* Set the no automatic retransmission */
 442:Drivers/STM32H7xx_HAL_Driver/Src/stm32h7xx_hal_fdcan.c ****   if (hfdcan->Init.AutoRetransmission == ENABLE)
 223              		.loc 1 442 19
 224 0104 7B68     		ldr	r3, [r7, #4]
 225 0106 1B7C     		ldrb	r3, [r3, #16]	@ zero_extendqisi2
 226              		.loc 1 442 6
 227 0108 012B     		cmp	r3, #1
 228 010a 08D1     		bne	.L10
 443:Drivers/STM32H7xx_HAL_Driver/Src/stm32h7xx_hal_fdcan.c ****   {
 444:Drivers/STM32H7xx_HAL_Driver/Src/stm32h7xx_hal_fdcan.c ****     CLEAR_BIT(hfdcan->Instance->CCCR, FDCAN_CCCR_DAR);
 229              		.loc 1 444 5
 230 010c 7B68     		ldr	r3, [r7, #4]
 231 010e 1B68     		ldr	r3, [r3]
 232 0110 9A69     		ldr	r2, [r3, #24]
ARM GAS  C:\Users\Su\AppData\Local\Temp\ccsFXyek.s 			page 13


 233 0112 7B68     		ldr	r3, [r7, #4]
 234 0114 1B68     		ldr	r3, [r3]
 235 0116 22F04002 		bic	r2, r2, #64
 236 011a 9A61     		str	r2, [r3, #24]
 237 011c 07E0     		b	.L11
 238              	.L10:
 445:Drivers/STM32H7xx_HAL_Driver/Src/stm32h7xx_hal_fdcan.c ****   }
 446:Drivers/STM32H7xx_HAL_Driver/Src/stm32h7xx_hal_fdcan.c ****   else
 447:Drivers/STM32H7xx_HAL_Driver/Src/stm32h7xx_hal_fdcan.c ****   {
 448:Drivers/STM32H7xx_HAL_Driver/Src/stm32h7xx_hal_fdcan.c ****     SET_BIT(hfdcan->Instance->CCCR, FDCAN_CCCR_DAR);
 239              		.loc 1 448 5
 240 011e 7B68     		ldr	r3, [r7, #4]
 241 0120 1B68     		ldr	r3, [r3]
 242 0122 9A69     		ldr	r2, [r3, #24]
 243 0124 7B68     		ldr	r3, [r7, #4]
 244 0126 1B68     		ldr	r3, [r3]
 245 0128 42F04002 		orr	r2, r2, #64
 246 012c 9A61     		str	r2, [r3, #24]
 247              	.L11:
 449:Drivers/STM32H7xx_HAL_Driver/Src/stm32h7xx_hal_fdcan.c ****   }
 450:Drivers/STM32H7xx_HAL_Driver/Src/stm32h7xx_hal_fdcan.c **** 
 451:Drivers/STM32H7xx_HAL_Driver/Src/stm32h7xx_hal_fdcan.c ****   /* Set the transmit pause feature */
 452:Drivers/STM32H7xx_HAL_Driver/Src/stm32h7xx_hal_fdcan.c ****   if (hfdcan->Init.TransmitPause == ENABLE)
 248              		.loc 1 452 19
 249 012e 7B68     		ldr	r3, [r7, #4]
 250 0130 5B7C     		ldrb	r3, [r3, #17]	@ zero_extendqisi2
 251              		.loc 1 452 6
 252 0132 012B     		cmp	r3, #1
 253 0134 08D1     		bne	.L12
 453:Drivers/STM32H7xx_HAL_Driver/Src/stm32h7xx_hal_fdcan.c ****   {
 454:Drivers/STM32H7xx_HAL_Driver/Src/stm32h7xx_hal_fdcan.c ****     SET_BIT(hfdcan->Instance->CCCR, FDCAN_CCCR_TXP);
 254              		.loc 1 454 5
 255 0136 7B68     		ldr	r3, [r7, #4]
 256 0138 1B68     		ldr	r3, [r3]
 257 013a 9A69     		ldr	r2, [r3, #24]
 258 013c 7B68     		ldr	r3, [r7, #4]
 259 013e 1B68     		ldr	r3, [r3]
 260 0140 42F48042 		orr	r2, r2, #16384
 261 0144 9A61     		str	r2, [r3, #24]
 262 0146 07E0     		b	.L13
 263              	.L12:
 455:Drivers/STM32H7xx_HAL_Driver/Src/stm32h7xx_hal_fdcan.c ****   }
 456:Drivers/STM32H7xx_HAL_Driver/Src/stm32h7xx_hal_fdcan.c ****   else
 457:Drivers/STM32H7xx_HAL_Driver/Src/stm32h7xx_hal_fdcan.c ****   {
 458:Drivers/STM32H7xx_HAL_Driver/Src/stm32h7xx_hal_fdcan.c ****     CLEAR_BIT(hfdcan->Instance->CCCR, FDCAN_CCCR_TXP);
 264              		.loc 1 458 5
 265 0148 7B68     		ldr	r3, [r7, #4]
 266 014a 1B68     		ldr	r3, [r3]
 267 014c 9A69     		ldr	r2, [r3, #24]
 268 014e 7B68     		ldr	r3, [r7, #4]
 269 0150 1B68     		ldr	r3, [r3]
 270 0152 22F48042 		bic	r2, r2, #16384
 271 0156 9A61     		str	r2, [r3, #24]
 272              	.L13:
 459:Drivers/STM32H7xx_HAL_Driver/Src/stm32h7xx_hal_fdcan.c ****   }
 460:Drivers/STM32H7xx_HAL_Driver/Src/stm32h7xx_hal_fdcan.c **** 
 461:Drivers/STM32H7xx_HAL_Driver/Src/stm32h7xx_hal_fdcan.c ****   /* Set the Protocol Exception Handling */
ARM GAS  C:\Users\Su\AppData\Local\Temp\ccsFXyek.s 			page 14


 462:Drivers/STM32H7xx_HAL_Driver/Src/stm32h7xx_hal_fdcan.c ****   if (hfdcan->Init.ProtocolException == ENABLE)
 273              		.loc 1 462 19
 274 0158 7B68     		ldr	r3, [r7, #4]
 275 015a 9B7C     		ldrb	r3, [r3, #18]	@ zero_extendqisi2
 276              		.loc 1 462 6
 277 015c 012B     		cmp	r3, #1
 278 015e 08D1     		bne	.L14
 463:Drivers/STM32H7xx_HAL_Driver/Src/stm32h7xx_hal_fdcan.c ****   {
 464:Drivers/STM32H7xx_HAL_Driver/Src/stm32h7xx_hal_fdcan.c ****     CLEAR_BIT(hfdcan->Instance->CCCR, FDCAN_CCCR_PXHD);
 279              		.loc 1 464 5
 280 0160 7B68     		ldr	r3, [r7, #4]
 281 0162 1B68     		ldr	r3, [r3]
 282 0164 9A69     		ldr	r2, [r3, #24]
 283 0166 7B68     		ldr	r3, [r7, #4]
 284 0168 1B68     		ldr	r3, [r3]
 285 016a 22F48052 		bic	r2, r2, #4096
 286 016e 9A61     		str	r2, [r3, #24]
 287 0170 07E0     		b	.L15
 288              	.L14:
 465:Drivers/STM32H7xx_HAL_Driver/Src/stm32h7xx_hal_fdcan.c ****   }
 466:Drivers/STM32H7xx_HAL_Driver/Src/stm32h7xx_hal_fdcan.c ****   else
 467:Drivers/STM32H7xx_HAL_Driver/Src/stm32h7xx_hal_fdcan.c ****   {
 468:Drivers/STM32H7xx_HAL_Driver/Src/stm32h7xx_hal_fdcan.c ****     SET_BIT(hfdcan->Instance->CCCR, FDCAN_CCCR_PXHD);
 289              		.loc 1 468 5
 290 0172 7B68     		ldr	r3, [r7, #4]
 291 0174 1B68     		ldr	r3, [r3]
 292 0176 9A69     		ldr	r2, [r3, #24]
 293 0178 7B68     		ldr	r3, [r7, #4]
 294 017a 1B68     		ldr	r3, [r3]
 295 017c 42F48052 		orr	r2, r2, #4096
 296 0180 9A61     		str	r2, [r3, #24]
 297              	.L15:
 469:Drivers/STM32H7xx_HAL_Driver/Src/stm32h7xx_hal_fdcan.c ****   }
 470:Drivers/STM32H7xx_HAL_Driver/Src/stm32h7xx_hal_fdcan.c **** 
 471:Drivers/STM32H7xx_HAL_Driver/Src/stm32h7xx_hal_fdcan.c ****   /* Set FDCAN Frame Format */
 472:Drivers/STM32H7xx_HAL_Driver/Src/stm32h7xx_hal_fdcan.c ****   MODIFY_REG(hfdcan->Instance->CCCR, FDCAN_FRAME_FD_BRS, hfdcan->Init.FrameFormat);
 298              		.loc 1 472 3
 299 0182 7B68     		ldr	r3, [r7, #4]
 300 0184 1B68     		ldr	r3, [r3]
 301 0186 9B69     		ldr	r3, [r3, #24]
 302 0188 23F44071 		bic	r1, r3, #768
 303 018c 7B68     		ldr	r3, [r7, #4]
 304 018e 9A68     		ldr	r2, [r3, #8]
 305 0190 7B68     		ldr	r3, [r7, #4]
 306 0192 1B68     		ldr	r3, [r3]
 307 0194 0A43     		orrs	r2, r2, r1
 308 0196 9A61     		str	r2, [r3, #24]
 473:Drivers/STM32H7xx_HAL_Driver/Src/stm32h7xx_hal_fdcan.c **** 
 474:Drivers/STM32H7xx_HAL_Driver/Src/stm32h7xx_hal_fdcan.c ****   /* Reset FDCAN Operation Mode */
 475:Drivers/STM32H7xx_HAL_Driver/Src/stm32h7xx_hal_fdcan.c ****   CLEAR_BIT(hfdcan->Instance->CCCR, (FDCAN_CCCR_TEST | FDCAN_CCCR_MON | FDCAN_CCCR_ASM));
 309              		.loc 1 475 3
 310 0198 7B68     		ldr	r3, [r7, #4]
 311 019a 1B68     		ldr	r3, [r3]
 312 019c 9A69     		ldr	r2, [r3, #24]
 313 019e 7B68     		ldr	r3, [r7, #4]
 314 01a0 1B68     		ldr	r3, [r3]
 315 01a2 22F0A402 		bic	r2, r2, #164
ARM GAS  C:\Users\Su\AppData\Local\Temp\ccsFXyek.s 			page 15


 316 01a6 9A61     		str	r2, [r3, #24]
 476:Drivers/STM32H7xx_HAL_Driver/Src/stm32h7xx_hal_fdcan.c ****   CLEAR_BIT(hfdcan->Instance->TEST, FDCAN_TEST_LBCK);
 317              		.loc 1 476 3
 318 01a8 7B68     		ldr	r3, [r7, #4]
 319 01aa 1B68     		ldr	r3, [r3]
 320 01ac 1A69     		ldr	r2, [r3, #16]
 321 01ae 7B68     		ldr	r3, [r7, #4]
 322 01b0 1B68     		ldr	r3, [r3]
 323 01b2 22F01002 		bic	r2, r2, #16
 324 01b6 1A61     		str	r2, [r3, #16]
 477:Drivers/STM32H7xx_HAL_Driver/Src/stm32h7xx_hal_fdcan.c **** 
 478:Drivers/STM32H7xx_HAL_Driver/Src/stm32h7xx_hal_fdcan.c ****   /* Set FDCAN Operating Mode:
 479:Drivers/STM32H7xx_HAL_Driver/Src/stm32h7xx_hal_fdcan.c ****                | Normal | Restricted |    Bus     | Internal | External
 480:Drivers/STM32H7xx_HAL_Driver/Src/stm32h7xx_hal_fdcan.c ****                |        | Operation  | Monitoring | LoopBack | LoopBack
 481:Drivers/STM32H7xx_HAL_Driver/Src/stm32h7xx_hal_fdcan.c ****      CCCR.TEST |   0    |     0      |     0      |    1     |    1
 482:Drivers/STM32H7xx_HAL_Driver/Src/stm32h7xx_hal_fdcan.c ****      CCCR.MON  |   0    |     0      |     1      |    1     |    0
 483:Drivers/STM32H7xx_HAL_Driver/Src/stm32h7xx_hal_fdcan.c ****      TEST.LBCK |   0    |     0      |     0      |    1     |    1
 484:Drivers/STM32H7xx_HAL_Driver/Src/stm32h7xx_hal_fdcan.c ****      CCCR.ASM  |   0    |     1      |     0      |    0     |    0
 485:Drivers/STM32H7xx_HAL_Driver/Src/stm32h7xx_hal_fdcan.c ****   */
 486:Drivers/STM32H7xx_HAL_Driver/Src/stm32h7xx_hal_fdcan.c ****   if (hfdcan->Init.Mode == FDCAN_MODE_RESTRICTED_OPERATION)
 325              		.loc 1 486 19
 326 01b8 7B68     		ldr	r3, [r7, #4]
 327 01ba DB68     		ldr	r3, [r3, #12]
 328              		.loc 1 486 6
 329 01bc 012B     		cmp	r3, #1
 330 01be 08D1     		bne	.L16
 487:Drivers/STM32H7xx_HAL_Driver/Src/stm32h7xx_hal_fdcan.c ****   {
 488:Drivers/STM32H7xx_HAL_Driver/Src/stm32h7xx_hal_fdcan.c ****     /* Enable Restricted Operation mode */
 489:Drivers/STM32H7xx_HAL_Driver/Src/stm32h7xx_hal_fdcan.c ****     SET_BIT(hfdcan->Instance->CCCR, FDCAN_CCCR_ASM);
 331              		.loc 1 489 5
 332 01c0 7B68     		ldr	r3, [r7, #4]
 333 01c2 1B68     		ldr	r3, [r3]
 334 01c4 9A69     		ldr	r2, [r3, #24]
 335 01c6 7B68     		ldr	r3, [r7, #4]
 336 01c8 1B68     		ldr	r3, [r3]
 337 01ca 42F00402 		orr	r2, r2, #4
 338 01ce 9A61     		str	r2, [r3, #24]
 339 01d0 30E0     		b	.L17
 340              	.L16:
 490:Drivers/STM32H7xx_HAL_Driver/Src/stm32h7xx_hal_fdcan.c ****   }
 491:Drivers/STM32H7xx_HAL_Driver/Src/stm32h7xx_hal_fdcan.c ****   else if (hfdcan->Init.Mode != FDCAN_MODE_NORMAL)
 341              		.loc 1 491 24
 342 01d2 7B68     		ldr	r3, [r7, #4]
 343 01d4 DB68     		ldr	r3, [r3, #12]
 344              		.loc 1 491 11
 345 01d6 002B     		cmp	r3, #0
 346 01d8 2CD0     		beq	.L17
 492:Drivers/STM32H7xx_HAL_Driver/Src/stm32h7xx_hal_fdcan.c ****   {
 493:Drivers/STM32H7xx_HAL_Driver/Src/stm32h7xx_hal_fdcan.c ****     if (hfdcan->Init.Mode != FDCAN_MODE_BUS_MONITORING)
 347              		.loc 1 493 21
 348 01da 7B68     		ldr	r3, [r7, #4]
 349 01dc DB68     		ldr	r3, [r3, #12]
 350              		.loc 1 493 8
 351 01de 022B     		cmp	r3, #2
 352 01e0 20D0     		beq	.L18
 494:Drivers/STM32H7xx_HAL_Driver/Src/stm32h7xx_hal_fdcan.c ****     {
 495:Drivers/STM32H7xx_HAL_Driver/Src/stm32h7xx_hal_fdcan.c ****       /* Enable write access to TEST register */
ARM GAS  C:\Users\Su\AppData\Local\Temp\ccsFXyek.s 			page 16


 496:Drivers/STM32H7xx_HAL_Driver/Src/stm32h7xx_hal_fdcan.c ****       SET_BIT(hfdcan->Instance->CCCR, FDCAN_CCCR_TEST);
 353              		.loc 1 496 7
 354 01e2 7B68     		ldr	r3, [r7, #4]
 355 01e4 1B68     		ldr	r3, [r3]
 356 01e6 9A69     		ldr	r2, [r3, #24]
 357 01e8 7B68     		ldr	r3, [r7, #4]
 358 01ea 1B68     		ldr	r3, [r3]
 359 01ec 42F08002 		orr	r2, r2, #128
 360 01f0 9A61     		str	r2, [r3, #24]
 497:Drivers/STM32H7xx_HAL_Driver/Src/stm32h7xx_hal_fdcan.c **** 
 498:Drivers/STM32H7xx_HAL_Driver/Src/stm32h7xx_hal_fdcan.c ****       /* Enable LoopBack mode */
 499:Drivers/STM32H7xx_HAL_Driver/Src/stm32h7xx_hal_fdcan.c ****       SET_BIT(hfdcan->Instance->TEST, FDCAN_TEST_LBCK);
 361              		.loc 1 499 7
 362 01f2 7B68     		ldr	r3, [r7, #4]
 363 01f4 1B68     		ldr	r3, [r3]
 364 01f6 1A69     		ldr	r2, [r3, #16]
 365 01f8 7B68     		ldr	r3, [r7, #4]
 366 01fa 1B68     		ldr	r3, [r3]
 367 01fc 42F01002 		orr	r2, r2, #16
 368 0200 1A61     		str	r2, [r3, #16]
 500:Drivers/STM32H7xx_HAL_Driver/Src/stm32h7xx_hal_fdcan.c **** 
 501:Drivers/STM32H7xx_HAL_Driver/Src/stm32h7xx_hal_fdcan.c ****       if (hfdcan->Init.Mode == FDCAN_MODE_INTERNAL_LOOPBACK)
 369              		.loc 1 501 23
 370 0202 7B68     		ldr	r3, [r7, #4]
 371 0204 DB68     		ldr	r3, [r3, #12]
 372              		.loc 1 501 10
 373 0206 032B     		cmp	r3, #3
 374 0208 14D1     		bne	.L17
 502:Drivers/STM32H7xx_HAL_Driver/Src/stm32h7xx_hal_fdcan.c ****       {
 503:Drivers/STM32H7xx_HAL_Driver/Src/stm32h7xx_hal_fdcan.c ****         SET_BIT(hfdcan->Instance->CCCR, FDCAN_CCCR_MON);
 375              		.loc 1 503 9
 376 020a 7B68     		ldr	r3, [r7, #4]
 377 020c 1B68     		ldr	r3, [r3]
 378 020e 9A69     		ldr	r2, [r3, #24]
 379 0210 7B68     		ldr	r3, [r7, #4]
 380 0212 1B68     		ldr	r3, [r3]
 381 0214 42F02002 		orr	r2, r2, #32
 382 0218 9A61     		str	r2, [r3, #24]
 383 021a 0BE0     		b	.L17
 384              	.L28:
 385              		.align	2
 386              	.L27:
 387 021c 00000000 		.word	.LC0
 388 0220 00A00040 		.word	1073782784
 389              	.L18:
 504:Drivers/STM32H7xx_HAL_Driver/Src/stm32h7xx_hal_fdcan.c ****       }
 505:Drivers/STM32H7xx_HAL_Driver/Src/stm32h7xx_hal_fdcan.c ****     }
 506:Drivers/STM32H7xx_HAL_Driver/Src/stm32h7xx_hal_fdcan.c ****     else
 507:Drivers/STM32H7xx_HAL_Driver/Src/stm32h7xx_hal_fdcan.c ****     {
 508:Drivers/STM32H7xx_HAL_Driver/Src/stm32h7xx_hal_fdcan.c ****       /* Enable bus monitoring mode */
 509:Drivers/STM32H7xx_HAL_Driver/Src/stm32h7xx_hal_fdcan.c ****       SET_BIT(hfdcan->Instance->CCCR, FDCAN_CCCR_MON);
 390              		.loc 1 509 7
 391 0224 7B68     		ldr	r3, [r7, #4]
 392 0226 1B68     		ldr	r3, [r3]
 393 0228 9A69     		ldr	r2, [r3, #24]
 394 022a 7B68     		ldr	r3, [r7, #4]
 395 022c 1B68     		ldr	r3, [r3]
ARM GAS  C:\Users\Su\AppData\Local\Temp\ccsFXyek.s 			page 17


 396 022e 42F02002 		orr	r2, r2, #32
 397 0232 9A61     		str	r2, [r3, #24]
 398              	.L17:
 510:Drivers/STM32H7xx_HAL_Driver/Src/stm32h7xx_hal_fdcan.c ****     }
 511:Drivers/STM32H7xx_HAL_Driver/Src/stm32h7xx_hal_fdcan.c ****   }
 512:Drivers/STM32H7xx_HAL_Driver/Src/stm32h7xx_hal_fdcan.c ****   else
 513:Drivers/STM32H7xx_HAL_Driver/Src/stm32h7xx_hal_fdcan.c ****   {
 514:Drivers/STM32H7xx_HAL_Driver/Src/stm32h7xx_hal_fdcan.c ****     /* Nothing to do: normal mode */
 515:Drivers/STM32H7xx_HAL_Driver/Src/stm32h7xx_hal_fdcan.c ****   }
 516:Drivers/STM32H7xx_HAL_Driver/Src/stm32h7xx_hal_fdcan.c **** 
 517:Drivers/STM32H7xx_HAL_Driver/Src/stm32h7xx_hal_fdcan.c ****   /* Set the nominal bit timing register */
 518:Drivers/STM32H7xx_HAL_Driver/Src/stm32h7xx_hal_fdcan.c ****   hfdcan->Instance->NBTP = ((((uint32_t)hfdcan->Init.NominalSyncJumpWidth - 1U) << FDCAN_NBTP_NSJW_
 399              		.loc 1 518 53
 400 0234 7B68     		ldr	r3, [r7, #4]
 401 0236 9B69     		ldr	r3, [r3, #24]
 402              		.loc 1 518 75
 403 0238 013B     		subs	r3, r3, #1
 404              		.loc 1 518 81
 405 023a 5A06     		lsls	r2, r3, #25
 519:Drivers/STM32H7xx_HAL_Driver/Src/stm32h7xx_hal_fdcan.c ****                             (((uint32_t)hfdcan->Init.NominalTimeSeg1 - 1U) << FDCAN_NBTP_NTSEG1_Pos
 406              		.loc 1 519 53
 407 023c 7B68     		ldr	r3, [r7, #4]
 408 023e DB69     		ldr	r3, [r3, #28]
 409              		.loc 1 519 70
 410 0240 013B     		subs	r3, r3, #1
 411              		.loc 1 519 76
 412 0242 1B02     		lsls	r3, r3, #8
 518:Drivers/STM32H7xx_HAL_Driver/Src/stm32h7xx_hal_fdcan.c ****                             (((uint32_t)hfdcan->Init.NominalTimeSeg1 - 1U) << FDCAN_NBTP_NTSEG1_Pos
 413              		.loc 1 518 105
 414 0244 1A43     		orrs	r2, r2, r3
 520:Drivers/STM32H7xx_HAL_Driver/Src/stm32h7xx_hal_fdcan.c ****                             (((uint32_t)hfdcan->Init.NominalTimeSeg2 - 1U) << FDCAN_NBTP_NTSEG2_Pos
 415              		.loc 1 520 53
 416 0246 7B68     		ldr	r3, [r7, #4]
 417 0248 1B6A     		ldr	r3, [r3, #32]
 418              		.loc 1 520 76
 419 024a 013B     		subs	r3, r3, #1
 519:Drivers/STM32H7xx_HAL_Driver/Src/stm32h7xx_hal_fdcan.c ****                             (((uint32_t)hfdcan->Init.NominalTimeSeg1 - 1U) << FDCAN_NBTP_NTSEG1_Pos
 420              		.loc 1 519 105
 421 024c 42EA0301 		orr	r1, r2, r3
 521:Drivers/STM32H7xx_HAL_Driver/Src/stm32h7xx_hal_fdcan.c ****                             (((uint32_t)hfdcan->Init.NominalPrescaler - 1U) << FDCAN_NBTP_NBRP_Pos)
 422              		.loc 1 521 53
 423 0250 7B68     		ldr	r3, [r7, #4]
 424 0252 5B69     		ldr	r3, [r3, #20]
 425              		.loc 1 521 71
 426 0254 013B     		subs	r3, r3, #1
 427              		.loc 1 521 77
 428 0256 1A04     		lsls	r2, r3, #16
 518:Drivers/STM32H7xx_HAL_Driver/Src/stm32h7xx_hal_fdcan.c ****                             (((uint32_t)hfdcan->Init.NominalTimeSeg1 - 1U) << FDCAN_NBTP_NTSEG1_Pos
 429              		.loc 1 518 9
 430 0258 7B68     		ldr	r3, [r7, #4]
 431 025a 1B68     		ldr	r3, [r3]
 520:Drivers/STM32H7xx_HAL_Driver/Src/stm32h7xx_hal_fdcan.c ****                             (((uint32_t)hfdcan->Init.NominalTimeSeg2 - 1U) << FDCAN_NBTP_NTSEG2_Pos
 432              		.loc 1 520 105
 433 025c 0A43     		orrs	r2, r2, r1
 518:Drivers/STM32H7xx_HAL_Driver/Src/stm32h7xx_hal_fdcan.c ****                             (((uint32_t)hfdcan->Init.NominalTimeSeg1 - 1U) << FDCAN_NBTP_NTSEG1_Pos
 434              		.loc 1 518 26
 435 025e DA61     		str	r2, [r3, #28]
ARM GAS  C:\Users\Su\AppData\Local\Temp\ccsFXyek.s 			page 18


 522:Drivers/STM32H7xx_HAL_Driver/Src/stm32h7xx_hal_fdcan.c **** 
 523:Drivers/STM32H7xx_HAL_Driver/Src/stm32h7xx_hal_fdcan.c ****   /* If FD operation with BRS is selected, set the data bit timing register */
 524:Drivers/STM32H7xx_HAL_Driver/Src/stm32h7xx_hal_fdcan.c ****   if (hfdcan->Init.FrameFormat == FDCAN_FRAME_FD_BRS)
 436              		.loc 1 524 19
 437 0260 7B68     		ldr	r3, [r7, #4]
 438 0262 9B68     		ldr	r3, [r3, #8]
 439              		.loc 1 524 6
 440 0264 B3F5407F 		cmp	r3, #768
 441 0268 15D1     		bne	.L19
 525:Drivers/STM32H7xx_HAL_Driver/Src/stm32h7xx_hal_fdcan.c ****   {
 526:Drivers/STM32H7xx_HAL_Driver/Src/stm32h7xx_hal_fdcan.c ****     hfdcan->Instance->DBTP = ((((uint32_t)hfdcan->Init.DataSyncJumpWidth - 1U) << FDCAN_DBTP_DSJW_P
 442              		.loc 1 526 55
 443 026a 7B68     		ldr	r3, [r7, #4]
 444 026c 9B6A     		ldr	r3, [r3, #40]
 445              		.loc 1 526 80
 446 026e 5A1E     		subs	r2, r3, #1
 527:Drivers/STM32H7xx_HAL_Driver/Src/stm32h7xx_hal_fdcan.c ****                               (((uint32_t)hfdcan->Init.DataTimeSeg1 - 1U) << FDCAN_DBTP_DTSEG1_Pos)
 447              		.loc 1 527 55
 448 0270 7B68     		ldr	r3, [r7, #4]
 449 0272 DB6A     		ldr	r3, [r3, #44]
 450              		.loc 1 527 69
 451 0274 013B     		subs	r3, r3, #1
 452              		.loc 1 527 75
 453 0276 1B02     		lsls	r3, r3, #8
 526:Drivers/STM32H7xx_HAL_Driver/Src/stm32h7xx_hal_fdcan.c ****                               (((uint32_t)hfdcan->Init.DataTimeSeg1 - 1U) << FDCAN_DBTP_DTSEG1_Pos)
 454              		.loc 1 526 104
 455 0278 1A43     		orrs	r2, r2, r3
 528:Drivers/STM32H7xx_HAL_Driver/Src/stm32h7xx_hal_fdcan.c ****                               (((uint32_t)hfdcan->Init.DataTimeSeg2 - 1U) << FDCAN_DBTP_DTSEG2_Pos)
 456              		.loc 1 528 55
 457 027a 7B68     		ldr	r3, [r7, #4]
 458 027c 1B6B     		ldr	r3, [r3, #48]
 459              		.loc 1 528 69
 460 027e 013B     		subs	r3, r3, #1
 461              		.loc 1 528 75
 462 0280 1B01     		lsls	r3, r3, #4
 527:Drivers/STM32H7xx_HAL_Driver/Src/stm32h7xx_hal_fdcan.c ****                               (((uint32_t)hfdcan->Init.DataTimeSeg1 - 1U) << FDCAN_DBTP_DTSEG1_Pos)
 463              		.loc 1 527 104
 464 0282 42EA0301 		orr	r1, r2, r3
 529:Drivers/STM32H7xx_HAL_Driver/Src/stm32h7xx_hal_fdcan.c ****                               (((uint32_t)hfdcan->Init.DataPrescaler - 1U) << FDCAN_DBTP_DBRP_Pos))
 465              		.loc 1 529 55
 466 0286 7B68     		ldr	r3, [r7, #4]
 467 0288 5B6A     		ldr	r3, [r3, #36]
 468              		.loc 1 529 70
 469 028a 013B     		subs	r3, r3, #1
 470              		.loc 1 529 76
 471 028c 1A04     		lsls	r2, r3, #16
 526:Drivers/STM32H7xx_HAL_Driver/Src/stm32h7xx_hal_fdcan.c ****                               (((uint32_t)hfdcan->Init.DataTimeSeg1 - 1U) << FDCAN_DBTP_DTSEG1_Pos)
 472              		.loc 1 526 11
 473 028e 7B68     		ldr	r3, [r7, #4]
 474 0290 1B68     		ldr	r3, [r3]
 528:Drivers/STM32H7xx_HAL_Driver/Src/stm32h7xx_hal_fdcan.c ****                               (((uint32_t)hfdcan->Init.DataTimeSeg2 - 1U) << FDCAN_DBTP_DTSEG2_Pos)
 475              		.loc 1 528 104
 476 0292 0A43     		orrs	r2, r2, r1
 526:Drivers/STM32H7xx_HAL_Driver/Src/stm32h7xx_hal_fdcan.c ****                               (((uint32_t)hfdcan->Init.DataTimeSeg1 - 1U) << FDCAN_DBTP_DTSEG1_Pos)
 477              		.loc 1 526 28
 478 0294 DA60     		str	r2, [r3, #12]
 479              	.L19:
ARM GAS  C:\Users\Su\AppData\Local\Temp\ccsFXyek.s 			page 19


 530:Drivers/STM32H7xx_HAL_Driver/Src/stm32h7xx_hal_fdcan.c ****   }
 531:Drivers/STM32H7xx_HAL_Driver/Src/stm32h7xx_hal_fdcan.c **** 
 532:Drivers/STM32H7xx_HAL_Driver/Src/stm32h7xx_hal_fdcan.c ****   if (hfdcan->Init.TxFifoQueueElmtsNbr > 0U)
 480              		.loc 1 532 19
 481 0296 7B68     		ldr	r3, [r7, #4]
 482 0298 1B6E     		ldr	r3, [r3, #96]
 483              		.loc 1 532 6
 484 029a 002B     		cmp	r3, #0
 485 029c 0AD0     		beq	.L20
 533:Drivers/STM32H7xx_HAL_Driver/Src/stm32h7xx_hal_fdcan.c ****   {
 534:Drivers/STM32H7xx_HAL_Driver/Src/stm32h7xx_hal_fdcan.c ****     /* Select between Tx FIFO and Tx Queue operation modes */
 535:Drivers/STM32H7xx_HAL_Driver/Src/stm32h7xx_hal_fdcan.c ****     SET_BIT(hfdcan->Instance->TXBC, hfdcan->Init.TxFifoQueueMode);
 486              		.loc 1 535 5
 487 029e 7B68     		ldr	r3, [r7, #4]
 488 02a0 1B68     		ldr	r3, [r3]
 489 02a2 D3F8C010 		ldr	r1, [r3, #192]
 490 02a6 7B68     		ldr	r3, [r7, #4]
 491 02a8 5A6E     		ldr	r2, [r3, #100]
 492 02aa 7B68     		ldr	r3, [r7, #4]
 493 02ac 1B68     		ldr	r3, [r3]
 494 02ae 0A43     		orrs	r2, r2, r1
 495 02b0 C3F8C020 		str	r2, [r3, #192]
 496              	.L20:
 536:Drivers/STM32H7xx_HAL_Driver/Src/stm32h7xx_hal_fdcan.c ****   }
 537:Drivers/STM32H7xx_HAL_Driver/Src/stm32h7xx_hal_fdcan.c **** 
 538:Drivers/STM32H7xx_HAL_Driver/Src/stm32h7xx_hal_fdcan.c ****   /* Configure Tx element size */
 539:Drivers/STM32H7xx_HAL_Driver/Src/stm32h7xx_hal_fdcan.c ****   if ((hfdcan->Init.TxBuffersNbr + hfdcan->Init.TxFifoQueueElmtsNbr) > 0U)
 497              		.loc 1 539 20
 498 02b4 7B68     		ldr	r3, [r7, #4]
 499 02b6 DA6D     		ldr	r2, [r3, #92]
 500              		.loc 1 539 48
 501 02b8 7B68     		ldr	r3, [r7, #4]
 502 02ba 1B6E     		ldr	r3, [r3, #96]
 503              		.loc 1 539 34
 504 02bc 1344     		add	r3, r3, r2
 505              		.loc 1 539 6
 506 02be 002B     		cmp	r3, #0
 507 02c0 11D0     		beq	.L21
 540:Drivers/STM32H7xx_HAL_Driver/Src/stm32h7xx_hal_fdcan.c ****   {
 541:Drivers/STM32H7xx_HAL_Driver/Src/stm32h7xx_hal_fdcan.c ****     MODIFY_REG(hfdcan->Instance->TXESC, FDCAN_TXESC_TBDS, CvtEltSize[hfdcan->Init.TxElmtSize]);
 508              		.loc 1 541 5
 509 02c2 7B68     		ldr	r3, [r7, #4]
 510 02c4 1B68     		ldr	r3, [r3]
 511 02c6 D3F8C830 		ldr	r3, [r3, #200]
 512 02ca 23F00701 		bic	r1, r3, #7
 513 02ce 7B68     		ldr	r3, [r7, #4]
 514 02d0 9B6E     		ldr	r3, [r3, #104]
 515 02d2 9B00     		lsls	r3, r3, #2
 516 02d4 6033     		adds	r3, r3, #96
 517 02d6 3B44     		add	r3, r3, r7
 518 02d8 53F8542C 		ldr	r2, [r3, #-84]
 519 02dc 7B68     		ldr	r3, [r7, #4]
 520 02de 1B68     		ldr	r3, [r3]
 521 02e0 0A43     		orrs	r2, r2, r1
 522 02e2 C3F8C820 		str	r2, [r3, #200]
 523              	.L21:
 542:Drivers/STM32H7xx_HAL_Driver/Src/stm32h7xx_hal_fdcan.c ****   }
ARM GAS  C:\Users\Su\AppData\Local\Temp\ccsFXyek.s 			page 20


 543:Drivers/STM32H7xx_HAL_Driver/Src/stm32h7xx_hal_fdcan.c **** 
 544:Drivers/STM32H7xx_HAL_Driver/Src/stm32h7xx_hal_fdcan.c ****   /* Configure Rx FIFO 0 element size */
 545:Drivers/STM32H7xx_HAL_Driver/Src/stm32h7xx_hal_fdcan.c ****   if (hfdcan->Init.RxFifo0ElmtsNbr > 0U)
 524              		.loc 1 545 19
 525 02e6 7B68     		ldr	r3, [r7, #4]
 526 02e8 1B6C     		ldr	r3, [r3, #64]
 527              		.loc 1 545 6
 528 02ea 002B     		cmp	r3, #0
 529 02ec 11D0     		beq	.L22
 546:Drivers/STM32H7xx_HAL_Driver/Src/stm32h7xx_hal_fdcan.c ****   {
 547:Drivers/STM32H7xx_HAL_Driver/Src/stm32h7xx_hal_fdcan.c ****     MODIFY_REG(hfdcan->Instance->RXESC, FDCAN_RXESC_F0DS, (CvtEltSize[hfdcan->Init.RxFifo0ElmtSize]
 530              		.loc 1 547 5
 531 02ee 7B68     		ldr	r3, [r7, #4]
 532 02f0 1B68     		ldr	r3, [r3]
 533 02f2 D3F8BC30 		ldr	r3, [r3, #188]
 534 02f6 23F00701 		bic	r1, r3, #7
 535 02fa 7B68     		ldr	r3, [r7, #4]
 536 02fc 5B6C     		ldr	r3, [r3, #68]
 537 02fe 9B00     		lsls	r3, r3, #2
 538 0300 6033     		adds	r3, r3, #96
 539 0302 3B44     		add	r3, r3, r7
 540 0304 53F8542C 		ldr	r2, [r3, #-84]
 541 0308 7B68     		ldr	r3, [r7, #4]
 542 030a 1B68     		ldr	r3, [r3]
 543 030c 0A43     		orrs	r2, r2, r1
 544 030e C3F8BC20 		str	r2, [r3, #188]
 545              	.L22:
 548:Drivers/STM32H7xx_HAL_Driver/Src/stm32h7xx_hal_fdcan.c ****   }
 549:Drivers/STM32H7xx_HAL_Driver/Src/stm32h7xx_hal_fdcan.c **** 
 550:Drivers/STM32H7xx_HAL_Driver/Src/stm32h7xx_hal_fdcan.c ****   /* Configure Rx FIFO 1 element size */
 551:Drivers/STM32H7xx_HAL_Driver/Src/stm32h7xx_hal_fdcan.c ****   if (hfdcan->Init.RxFifo1ElmtsNbr > 0U)
 546              		.loc 1 551 19
 547 0312 7B68     		ldr	r3, [r7, #4]
 548 0314 9B6C     		ldr	r3, [r3, #72]
 549              		.loc 1 551 6
 550 0316 002B     		cmp	r3, #0
 551 0318 12D0     		beq	.L23
 552:Drivers/STM32H7xx_HAL_Driver/Src/stm32h7xx_hal_fdcan.c ****   {
 553:Drivers/STM32H7xx_HAL_Driver/Src/stm32h7xx_hal_fdcan.c ****     MODIFY_REG(hfdcan->Instance->RXESC, FDCAN_RXESC_F1DS, (CvtEltSize[hfdcan->Init.RxFifo1ElmtSize]
 552              		.loc 1 553 5
 553 031a 7B68     		ldr	r3, [r7, #4]
 554 031c 1B68     		ldr	r3, [r3]
 555 031e D3F8BC30 		ldr	r3, [r3, #188]
 556 0322 23F07001 		bic	r1, r3, #112
 557 0326 7B68     		ldr	r3, [r7, #4]
 558 0328 DB6C     		ldr	r3, [r3, #76]
 559 032a 9B00     		lsls	r3, r3, #2
 560 032c 6033     		adds	r3, r3, #96
 561 032e 3B44     		add	r3, r3, r7
 562 0330 53F8543C 		ldr	r3, [r3, #-84]
 563 0334 1A01     		lsls	r2, r3, #4
 564 0336 7B68     		ldr	r3, [r7, #4]
 565 0338 1B68     		ldr	r3, [r3]
 566 033a 0A43     		orrs	r2, r2, r1
 567 033c C3F8BC20 		str	r2, [r3, #188]
 568              	.L23:
 554:Drivers/STM32H7xx_HAL_Driver/Src/stm32h7xx_hal_fdcan.c ****   }
ARM GAS  C:\Users\Su\AppData\Local\Temp\ccsFXyek.s 			page 21


 555:Drivers/STM32H7xx_HAL_Driver/Src/stm32h7xx_hal_fdcan.c **** 
 556:Drivers/STM32H7xx_HAL_Driver/Src/stm32h7xx_hal_fdcan.c ****   /* Configure Rx buffer element size */
 557:Drivers/STM32H7xx_HAL_Driver/Src/stm32h7xx_hal_fdcan.c ****   if (hfdcan->Init.RxBuffersNbr > 0U)
 569              		.loc 1 557 19
 570 0340 7B68     		ldr	r3, [r7, #4]
 571 0342 1B6D     		ldr	r3, [r3, #80]
 572              		.loc 1 557 6
 573 0344 002B     		cmp	r3, #0
 574 0346 12D0     		beq	.L24
 558:Drivers/STM32H7xx_HAL_Driver/Src/stm32h7xx_hal_fdcan.c ****   {
 559:Drivers/STM32H7xx_HAL_Driver/Src/stm32h7xx_hal_fdcan.c ****     MODIFY_REG(hfdcan->Instance->RXESC, FDCAN_RXESC_RBDS, (CvtEltSize[hfdcan->Init.RxBufferSize] <<
 575              		.loc 1 559 5
 576 0348 7B68     		ldr	r3, [r7, #4]
 577 034a 1B68     		ldr	r3, [r3]
 578 034c D3F8BC30 		ldr	r3, [r3, #188]
 579 0350 23F4E061 		bic	r1, r3, #1792
 580 0354 7B68     		ldr	r3, [r7, #4]
 581 0356 5B6D     		ldr	r3, [r3, #84]
 582 0358 9B00     		lsls	r3, r3, #2
 583 035a 6033     		adds	r3, r3, #96
 584 035c 3B44     		add	r3, r3, r7
 585 035e 53F8543C 		ldr	r3, [r3, #-84]
 586 0362 1A02     		lsls	r2, r3, #8
 587 0364 7B68     		ldr	r3, [r7, #4]
 588 0366 1B68     		ldr	r3, [r3]
 589 0368 0A43     		orrs	r2, r2, r1
 590 036a C3F8BC20 		str	r2, [r3, #188]
 591              	.L24:
 560:Drivers/STM32H7xx_HAL_Driver/Src/stm32h7xx_hal_fdcan.c ****   }
 561:Drivers/STM32H7xx_HAL_Driver/Src/stm32h7xx_hal_fdcan.c **** 
 562:Drivers/STM32H7xx_HAL_Driver/Src/stm32h7xx_hal_fdcan.c ****   /* By default operation mode is set to Event-driven communication.
 563:Drivers/STM32H7xx_HAL_Driver/Src/stm32h7xx_hal_fdcan.c ****      If Time-triggered communication is needed, user should call the
 564:Drivers/STM32H7xx_HAL_Driver/Src/stm32h7xx_hal_fdcan.c ****      HAL_FDCAN_TT_ConfigOperation function just after the HAL_FDCAN_Init */
 565:Drivers/STM32H7xx_HAL_Driver/Src/stm32h7xx_hal_fdcan.c ****   if (hfdcan->Instance == FDCAN1)
 592              		.loc 1 565 13
 593 036e 7B68     		ldr	r3, [r7, #4]
 594 0370 1B68     		ldr	r3, [r3]
 595              		.loc 1 565 6
 596 0372 114A     		ldr	r2, .L29
 597 0374 9342     		cmp	r3, r2
 598 0376 07D1     		bne	.L25
 566:Drivers/STM32H7xx_HAL_Driver/Src/stm32h7xx_hal_fdcan.c ****   {
 567:Drivers/STM32H7xx_HAL_Driver/Src/stm32h7xx_hal_fdcan.c ****     CLEAR_BIT(hfdcan->ttcan->TTOCF, FDCAN_TTOCF_OM);
 599              		.loc 1 567 5
 600 0378 7B68     		ldr	r3, [r7, #4]
 601 037a 5B68     		ldr	r3, [r3, #4]
 602 037c 9A68     		ldr	r2, [r3, #8]
 603 037e 7B68     		ldr	r3, [r7, #4]
 604 0380 5B68     		ldr	r3, [r3, #4]
 605 0382 22F00302 		bic	r2, r2, #3
 606 0386 9A60     		str	r2, [r3, #8]
 607              	.L25:
 568:Drivers/STM32H7xx_HAL_Driver/Src/stm32h7xx_hal_fdcan.c ****   }
 569:Drivers/STM32H7xx_HAL_Driver/Src/stm32h7xx_hal_fdcan.c **** 
 570:Drivers/STM32H7xx_HAL_Driver/Src/stm32h7xx_hal_fdcan.c ****   /* Initialize the Latest Tx FIFO/Queue request buffer index */
 571:Drivers/STM32H7xx_HAL_Driver/Src/stm32h7xx_hal_fdcan.c ****   hfdcan->LatestTxFifoQRequest = 0U;
 608              		.loc 1 571 32
ARM GAS  C:\Users\Su\AppData\Local\Temp\ccsFXyek.s 			page 22


 609 0388 7B68     		ldr	r3, [r7, #4]
 610 038a 0022     		movs	r2, #0
 611 038c C3F89420 		str	r2, [r3, #148]
 572:Drivers/STM32H7xx_HAL_Driver/Src/stm32h7xx_hal_fdcan.c **** 
 573:Drivers/STM32H7xx_HAL_Driver/Src/stm32h7xx_hal_fdcan.c ****   /* Initialize the error code */
 574:Drivers/STM32H7xx_HAL_Driver/Src/stm32h7xx_hal_fdcan.c ****   hfdcan->ErrorCode = HAL_FDCAN_ERROR_NONE;
 612              		.loc 1 574 21
 613 0390 7B68     		ldr	r3, [r7, #4]
 614 0392 0022     		movs	r2, #0
 615 0394 C3F89C20 		str	r2, [r3, #156]
 575:Drivers/STM32H7xx_HAL_Driver/Src/stm32h7xx_hal_fdcan.c **** 
 576:Drivers/STM32H7xx_HAL_Driver/Src/stm32h7xx_hal_fdcan.c ****   /* Initialize the FDCAN state */
 577:Drivers/STM32H7xx_HAL_Driver/Src/stm32h7xx_hal_fdcan.c ****   hfdcan->State = HAL_FDCAN_STATE_READY;
 616              		.loc 1 577 17
 617 0398 7B68     		ldr	r3, [r7, #4]
 618 039a 0122     		movs	r2, #1
 619 039c 83F89820 		strb	r2, [r3, #152]
 578:Drivers/STM32H7xx_HAL_Driver/Src/stm32h7xx_hal_fdcan.c **** 
 579:Drivers/STM32H7xx_HAL_Driver/Src/stm32h7xx_hal_fdcan.c ****   /* Calculate each RAM block address */
 580:Drivers/STM32H7xx_HAL_Driver/Src/stm32h7xx_hal_fdcan.c ****   status = FDCAN_CalcultateRamBlockAddresses(hfdcan);
 620              		.loc 1 580 12
 621 03a0 7868     		ldr	r0, [r7, #4]
 622 03a2 FFF7FEFF 		bl	FDCAN_CalcultateRamBlockAddresses
 623 03a6 0346     		mov	r3, r0
 624 03a8 87F85B30 		strb	r3, [r7, #91]
 581:Drivers/STM32H7xx_HAL_Driver/Src/stm32h7xx_hal_fdcan.c **** 
 582:Drivers/STM32H7xx_HAL_Driver/Src/stm32h7xx_hal_fdcan.c ****   /* Return function status */
 583:Drivers/STM32H7xx_HAL_Driver/Src/stm32h7xx_hal_fdcan.c ****   return status;
 625              		.loc 1 583 10
 626 03ac 97F85B30 		ldrb	r3, [r7, #91]	@ zero_extendqisi2
 627              	.L26:
 584:Drivers/STM32H7xx_HAL_Driver/Src/stm32h7xx_hal_fdcan.c **** }
 628              		.loc 1 584 1 discriminator 2
 629 03b0 1846     		mov	r0, r3
 630 03b2 6037     		adds	r7, r7, #96
 631              	.LCFI3:
 632              		.cfi_def_cfa_offset 8
 633 03b4 BD46     		mov	sp, r7
 634              	.LCFI4:
 635              		.cfi_def_cfa_register 13
 636              		@ sp needed
 637 03b6 80BD     		pop	{r7, pc}
 638              	.L30:
 639              		.align	2
 640              	.L29:
 641 03b8 00A00040 		.word	1073782784
 642              		.cfi_endproc
 643              	.LFE144:
 645              		.section	.text.HAL_FDCAN_DeInit,"ax",%progbits
 646              		.align	1
 647              		.global	HAL_FDCAN_DeInit
 648              		.syntax unified
 649              		.thumb
 650              		.thumb_func
 652              	HAL_FDCAN_DeInit:
 653              	.LFB145:
 585:Drivers/STM32H7xx_HAL_Driver/Src/stm32h7xx_hal_fdcan.c **** 
ARM GAS  C:\Users\Su\AppData\Local\Temp\ccsFXyek.s 			page 23


 586:Drivers/STM32H7xx_HAL_Driver/Src/stm32h7xx_hal_fdcan.c **** /**
 587:Drivers/STM32H7xx_HAL_Driver/Src/stm32h7xx_hal_fdcan.c ****   * @brief  Deinitializes the FDCAN peripheral registers to their default reset values.
 588:Drivers/STM32H7xx_HAL_Driver/Src/stm32h7xx_hal_fdcan.c ****   * @param  hfdcan pointer to an FDCAN_HandleTypeDef structure that contains
 589:Drivers/STM32H7xx_HAL_Driver/Src/stm32h7xx_hal_fdcan.c ****   *         the configuration information for the specified FDCAN.
 590:Drivers/STM32H7xx_HAL_Driver/Src/stm32h7xx_hal_fdcan.c ****   * @retval HAL status
 591:Drivers/STM32H7xx_HAL_Driver/Src/stm32h7xx_hal_fdcan.c ****   */
 592:Drivers/STM32H7xx_HAL_Driver/Src/stm32h7xx_hal_fdcan.c **** HAL_StatusTypeDef HAL_FDCAN_DeInit(FDCAN_HandleTypeDef *hfdcan)
 593:Drivers/STM32H7xx_HAL_Driver/Src/stm32h7xx_hal_fdcan.c **** {
 654              		.loc 1 593 1
 655              		.cfi_startproc
 656              		@ args = 0, pretend = 0, frame = 8
 657              		@ frame_needed = 1, uses_anonymous_args = 0
 658 0000 80B5     		push	{r7, lr}
 659              	.LCFI5:
 660              		.cfi_def_cfa_offset 8
 661              		.cfi_offset 7, -8
 662              		.cfi_offset 14, -4
 663 0002 82B0     		sub	sp, sp, #8
 664              	.LCFI6:
 665              		.cfi_def_cfa_offset 16
 666 0004 00AF     		add	r7, sp, #0
 667              	.LCFI7:
 668              		.cfi_def_cfa_register 7
 669 0006 7860     		str	r0, [r7, #4]
 594:Drivers/STM32H7xx_HAL_Driver/Src/stm32h7xx_hal_fdcan.c ****   /* Check FDCAN handle */
 595:Drivers/STM32H7xx_HAL_Driver/Src/stm32h7xx_hal_fdcan.c ****   if (hfdcan == NULL)
 670              		.loc 1 595 6
 671 0008 7B68     		ldr	r3, [r7, #4]
 672 000a 002B     		cmp	r3, #0
 673 000c 01D1     		bne	.L32
 596:Drivers/STM32H7xx_HAL_Driver/Src/stm32h7xx_hal_fdcan.c ****   {
 597:Drivers/STM32H7xx_HAL_Driver/Src/stm32h7xx_hal_fdcan.c ****     return HAL_ERROR;
 674              		.loc 1 597 12
 675 000e 0123     		movs	r3, #1
 676 0010 16E0     		b	.L33
 677              	.L32:
 598:Drivers/STM32H7xx_HAL_Driver/Src/stm32h7xx_hal_fdcan.c ****   }
 599:Drivers/STM32H7xx_HAL_Driver/Src/stm32h7xx_hal_fdcan.c **** 
 600:Drivers/STM32H7xx_HAL_Driver/Src/stm32h7xx_hal_fdcan.c ****   /* Check function parameters */
 601:Drivers/STM32H7xx_HAL_Driver/Src/stm32h7xx_hal_fdcan.c ****   assert_param(IS_FDCAN_ALL_INSTANCE(hfdcan->Instance));
 602:Drivers/STM32H7xx_HAL_Driver/Src/stm32h7xx_hal_fdcan.c **** 
 603:Drivers/STM32H7xx_HAL_Driver/Src/stm32h7xx_hal_fdcan.c ****   /* Stop the FDCAN module: return value is voluntary ignored */
 604:Drivers/STM32H7xx_HAL_Driver/Src/stm32h7xx_hal_fdcan.c ****   (void)HAL_FDCAN_Stop(hfdcan);
 678              		.loc 1 604 9
 679 0012 7868     		ldr	r0, [r7, #4]
 680 0014 FFF7FEFF 		bl	HAL_FDCAN_Stop
 605:Drivers/STM32H7xx_HAL_Driver/Src/stm32h7xx_hal_fdcan.c **** 
 606:Drivers/STM32H7xx_HAL_Driver/Src/stm32h7xx_hal_fdcan.c ****   /* Disable Interrupt lines */
 607:Drivers/STM32H7xx_HAL_Driver/Src/stm32h7xx_hal_fdcan.c ****   CLEAR_BIT(hfdcan->Instance->ILE, (FDCAN_INTERRUPT_LINE0 | FDCAN_INTERRUPT_LINE1));
 681              		.loc 1 607 3
 682 0018 7B68     		ldr	r3, [r7, #4]
 683 001a 1B68     		ldr	r3, [r3]
 684 001c DA6D     		ldr	r2, [r3, #92]
 685 001e 7B68     		ldr	r3, [r7, #4]
 686 0020 1B68     		ldr	r3, [r3]
 687 0022 22F00302 		bic	r2, r2, #3
 688 0026 DA65     		str	r2, [r3, #92]
ARM GAS  C:\Users\Su\AppData\Local\Temp\ccsFXyek.s 			page 24


 608:Drivers/STM32H7xx_HAL_Driver/Src/stm32h7xx_hal_fdcan.c **** 
 609:Drivers/STM32H7xx_HAL_Driver/Src/stm32h7xx_hal_fdcan.c **** #if USE_HAL_FDCAN_REGISTER_CALLBACKS == 1
 610:Drivers/STM32H7xx_HAL_Driver/Src/stm32h7xx_hal_fdcan.c ****   if (hfdcan->MspDeInitCallback == NULL)
 611:Drivers/STM32H7xx_HAL_Driver/Src/stm32h7xx_hal_fdcan.c ****   {
 612:Drivers/STM32H7xx_HAL_Driver/Src/stm32h7xx_hal_fdcan.c ****     hfdcan->MspDeInitCallback = HAL_FDCAN_MspDeInit; /* Legacy weak MspDeInit */
 613:Drivers/STM32H7xx_HAL_Driver/Src/stm32h7xx_hal_fdcan.c ****   }
 614:Drivers/STM32H7xx_HAL_Driver/Src/stm32h7xx_hal_fdcan.c **** 
 615:Drivers/STM32H7xx_HAL_Driver/Src/stm32h7xx_hal_fdcan.c ****   /* DeInit the low level hardware: CLOCK, NVIC */
 616:Drivers/STM32H7xx_HAL_Driver/Src/stm32h7xx_hal_fdcan.c ****   hfdcan->MspDeInitCallback(hfdcan);
 617:Drivers/STM32H7xx_HAL_Driver/Src/stm32h7xx_hal_fdcan.c **** #else
 618:Drivers/STM32H7xx_HAL_Driver/Src/stm32h7xx_hal_fdcan.c ****   /* DeInit the low level hardware: CLOCK, NVIC */
 619:Drivers/STM32H7xx_HAL_Driver/Src/stm32h7xx_hal_fdcan.c ****   HAL_FDCAN_MspDeInit(hfdcan);
 689              		.loc 1 619 3
 690 0028 7868     		ldr	r0, [r7, #4]
 691 002a FFF7FEFF 		bl	HAL_FDCAN_MspDeInit
 620:Drivers/STM32H7xx_HAL_Driver/Src/stm32h7xx_hal_fdcan.c **** #endif /* USE_HAL_FDCAN_REGISTER_CALLBACKS */
 621:Drivers/STM32H7xx_HAL_Driver/Src/stm32h7xx_hal_fdcan.c **** 
 622:Drivers/STM32H7xx_HAL_Driver/Src/stm32h7xx_hal_fdcan.c ****   /* Reset the FDCAN ErrorCode */
 623:Drivers/STM32H7xx_HAL_Driver/Src/stm32h7xx_hal_fdcan.c ****   hfdcan->ErrorCode = HAL_FDCAN_ERROR_NONE;
 692              		.loc 1 623 21
 693 002e 7B68     		ldr	r3, [r7, #4]
 694 0030 0022     		movs	r2, #0
 695 0032 C3F89C20 		str	r2, [r3, #156]
 624:Drivers/STM32H7xx_HAL_Driver/Src/stm32h7xx_hal_fdcan.c **** 
 625:Drivers/STM32H7xx_HAL_Driver/Src/stm32h7xx_hal_fdcan.c ****   /* Change FDCAN state */
 626:Drivers/STM32H7xx_HAL_Driver/Src/stm32h7xx_hal_fdcan.c ****   hfdcan->State = HAL_FDCAN_STATE_RESET;
 696              		.loc 1 626 17
 697 0036 7B68     		ldr	r3, [r7, #4]
 698 0038 0022     		movs	r2, #0
 699 003a 83F89820 		strb	r2, [r3, #152]
 627:Drivers/STM32H7xx_HAL_Driver/Src/stm32h7xx_hal_fdcan.c **** 
 628:Drivers/STM32H7xx_HAL_Driver/Src/stm32h7xx_hal_fdcan.c ****   /* Return function status */
 629:Drivers/STM32H7xx_HAL_Driver/Src/stm32h7xx_hal_fdcan.c ****   return HAL_OK;
 700              		.loc 1 629 10
 701 003e 0023     		movs	r3, #0
 702              	.L33:
 630:Drivers/STM32H7xx_HAL_Driver/Src/stm32h7xx_hal_fdcan.c **** }
 703              		.loc 1 630 1
 704 0040 1846     		mov	r0, r3
 705 0042 0837     		adds	r7, r7, #8
 706              	.LCFI8:
 707              		.cfi_def_cfa_offset 8
 708 0044 BD46     		mov	sp, r7
 709              	.LCFI9:
 710              		.cfi_def_cfa_register 13
 711              		@ sp needed
 712 0046 80BD     		pop	{r7, pc}
 713              		.cfi_endproc
 714              	.LFE145:
 716              		.section	.text.HAL_FDCAN_MspInit,"ax",%progbits
 717              		.align	1
 718              		.weak	HAL_FDCAN_MspInit
 719              		.syntax unified
 720              		.thumb
 721              		.thumb_func
 723              	HAL_FDCAN_MspInit:
 724              	.LFB146:
ARM GAS  C:\Users\Su\AppData\Local\Temp\ccsFXyek.s 			page 25


 631:Drivers/STM32H7xx_HAL_Driver/Src/stm32h7xx_hal_fdcan.c **** 
 632:Drivers/STM32H7xx_HAL_Driver/Src/stm32h7xx_hal_fdcan.c **** /**
 633:Drivers/STM32H7xx_HAL_Driver/Src/stm32h7xx_hal_fdcan.c ****   * @brief  Initializes the FDCAN MSP.
 634:Drivers/STM32H7xx_HAL_Driver/Src/stm32h7xx_hal_fdcan.c ****   * @param  hfdcan pointer to an FDCAN_HandleTypeDef structure that contains
 635:Drivers/STM32H7xx_HAL_Driver/Src/stm32h7xx_hal_fdcan.c ****   *         the configuration information for the specified FDCAN.
 636:Drivers/STM32H7xx_HAL_Driver/Src/stm32h7xx_hal_fdcan.c ****   * @retval None
 637:Drivers/STM32H7xx_HAL_Driver/Src/stm32h7xx_hal_fdcan.c ****   */
 638:Drivers/STM32H7xx_HAL_Driver/Src/stm32h7xx_hal_fdcan.c **** __weak void HAL_FDCAN_MspInit(FDCAN_HandleTypeDef *hfdcan)
 639:Drivers/STM32H7xx_HAL_Driver/Src/stm32h7xx_hal_fdcan.c **** {
 725              		.loc 1 639 1
 726              		.cfi_startproc
 727              		@ args = 0, pretend = 0, frame = 8
 728              		@ frame_needed = 1, uses_anonymous_args = 0
 729              		@ link register save eliminated.
 730 0000 80B4     		push	{r7}
 731              	.LCFI10:
 732              		.cfi_def_cfa_offset 4
 733              		.cfi_offset 7, -4
 734 0002 83B0     		sub	sp, sp, #12
 735              	.LCFI11:
 736              		.cfi_def_cfa_offset 16
 737 0004 00AF     		add	r7, sp, #0
 738              	.LCFI12:
 739              		.cfi_def_cfa_register 7
 740 0006 7860     		str	r0, [r7, #4]
 640:Drivers/STM32H7xx_HAL_Driver/Src/stm32h7xx_hal_fdcan.c ****   /* Prevent unused argument(s) compilation warning */
 641:Drivers/STM32H7xx_HAL_Driver/Src/stm32h7xx_hal_fdcan.c ****   UNUSED(hfdcan);
 642:Drivers/STM32H7xx_HAL_Driver/Src/stm32h7xx_hal_fdcan.c ****   /* NOTE : This function Should not be modified, when the callback is needed,
 643:Drivers/STM32H7xx_HAL_Driver/Src/stm32h7xx_hal_fdcan.c ****             the HAL_FDCAN_MspInit could be implemented in the user file
 644:Drivers/STM32H7xx_HAL_Driver/Src/stm32h7xx_hal_fdcan.c ****    */
 645:Drivers/STM32H7xx_HAL_Driver/Src/stm32h7xx_hal_fdcan.c **** }
 741              		.loc 1 645 1
 742 0008 00BF     		nop
 743 000a 0C37     		adds	r7, r7, #12
 744              	.LCFI13:
 745              		.cfi_def_cfa_offset 4
 746 000c BD46     		mov	sp, r7
 747              	.LCFI14:
 748              		.cfi_def_cfa_register 13
 749              		@ sp needed
 750 000e 5DF8047B 		ldr	r7, [sp], #4
 751              	.LCFI15:
 752              		.cfi_restore 7
 753              		.cfi_def_cfa_offset 0
 754 0012 7047     		bx	lr
 755              		.cfi_endproc
 756              	.LFE146:
 758              		.section	.text.HAL_FDCAN_MspDeInit,"ax",%progbits
 759              		.align	1
 760              		.weak	HAL_FDCAN_MspDeInit
 761              		.syntax unified
 762              		.thumb
 763              		.thumb_func
 765              	HAL_FDCAN_MspDeInit:
 766              	.LFB147:
 646:Drivers/STM32H7xx_HAL_Driver/Src/stm32h7xx_hal_fdcan.c **** 
 647:Drivers/STM32H7xx_HAL_Driver/Src/stm32h7xx_hal_fdcan.c **** /**
ARM GAS  C:\Users\Su\AppData\Local\Temp\ccsFXyek.s 			page 26


 648:Drivers/STM32H7xx_HAL_Driver/Src/stm32h7xx_hal_fdcan.c ****   * @brief  DeInitializes the FDCAN MSP.
 649:Drivers/STM32H7xx_HAL_Driver/Src/stm32h7xx_hal_fdcan.c ****   * @param  hfdcan pointer to an FDCAN_HandleTypeDef structure that contains
 650:Drivers/STM32H7xx_HAL_Driver/Src/stm32h7xx_hal_fdcan.c ****   *         the configuration information for the specified FDCAN.
 651:Drivers/STM32H7xx_HAL_Driver/Src/stm32h7xx_hal_fdcan.c ****   * @retval None
 652:Drivers/STM32H7xx_HAL_Driver/Src/stm32h7xx_hal_fdcan.c ****   */
 653:Drivers/STM32H7xx_HAL_Driver/Src/stm32h7xx_hal_fdcan.c **** __weak void HAL_FDCAN_MspDeInit(FDCAN_HandleTypeDef *hfdcan)
 654:Drivers/STM32H7xx_HAL_Driver/Src/stm32h7xx_hal_fdcan.c **** {
 767              		.loc 1 654 1
 768              		.cfi_startproc
 769              		@ args = 0, pretend = 0, frame = 8
 770              		@ frame_needed = 1, uses_anonymous_args = 0
 771              		@ link register save eliminated.
 772 0000 80B4     		push	{r7}
 773              	.LCFI16:
 774              		.cfi_def_cfa_offset 4
 775              		.cfi_offset 7, -4
 776 0002 83B0     		sub	sp, sp, #12
 777              	.LCFI17:
 778              		.cfi_def_cfa_offset 16
 779 0004 00AF     		add	r7, sp, #0
 780              	.LCFI18:
 781              		.cfi_def_cfa_register 7
 782 0006 7860     		str	r0, [r7, #4]
 655:Drivers/STM32H7xx_HAL_Driver/Src/stm32h7xx_hal_fdcan.c ****   /* Prevent unused argument(s) compilation warning */
 656:Drivers/STM32H7xx_HAL_Driver/Src/stm32h7xx_hal_fdcan.c ****   UNUSED(hfdcan);
 657:Drivers/STM32H7xx_HAL_Driver/Src/stm32h7xx_hal_fdcan.c ****   /* NOTE : This function Should not be modified, when the callback is needed,
 658:Drivers/STM32H7xx_HAL_Driver/Src/stm32h7xx_hal_fdcan.c ****             the HAL_FDCAN_MspDeInit could be implemented in the user file
 659:Drivers/STM32H7xx_HAL_Driver/Src/stm32h7xx_hal_fdcan.c ****    */
 660:Drivers/STM32H7xx_HAL_Driver/Src/stm32h7xx_hal_fdcan.c **** }
 783              		.loc 1 660 1
 784 0008 00BF     		nop
 785 000a 0C37     		adds	r7, r7, #12
 786              	.LCFI19:
 787              		.cfi_def_cfa_offset 4
 788 000c BD46     		mov	sp, r7
 789              	.LCFI20:
 790              		.cfi_def_cfa_register 13
 791              		@ sp needed
 792 000e 5DF8047B 		ldr	r7, [sp], #4
 793              	.LCFI21:
 794              		.cfi_restore 7
 795              		.cfi_def_cfa_offset 0
 796 0012 7047     		bx	lr
 797              		.cfi_endproc
 798              	.LFE147:
 800              		.section	.text.HAL_FDCAN_EnterPowerDownMode,"ax",%progbits
 801              		.align	1
 802              		.global	HAL_FDCAN_EnterPowerDownMode
 803              		.syntax unified
 804              		.thumb
 805              		.thumb_func
 807              	HAL_FDCAN_EnterPowerDownMode:
 808              	.LFB148:
 661:Drivers/STM32H7xx_HAL_Driver/Src/stm32h7xx_hal_fdcan.c **** 
 662:Drivers/STM32H7xx_HAL_Driver/Src/stm32h7xx_hal_fdcan.c **** /**
 663:Drivers/STM32H7xx_HAL_Driver/Src/stm32h7xx_hal_fdcan.c ****   * @brief  Enter FDCAN peripheral in sleep mode.
 664:Drivers/STM32H7xx_HAL_Driver/Src/stm32h7xx_hal_fdcan.c ****   * @param  hfdcan pointer to an FDCAN_HandleTypeDef structure that contains
ARM GAS  C:\Users\Su\AppData\Local\Temp\ccsFXyek.s 			page 27


 665:Drivers/STM32H7xx_HAL_Driver/Src/stm32h7xx_hal_fdcan.c ****   *         the configuration information for the specified FDCAN.
 666:Drivers/STM32H7xx_HAL_Driver/Src/stm32h7xx_hal_fdcan.c ****   * @retval HAL status
 667:Drivers/STM32H7xx_HAL_Driver/Src/stm32h7xx_hal_fdcan.c ****   */
 668:Drivers/STM32H7xx_HAL_Driver/Src/stm32h7xx_hal_fdcan.c **** HAL_StatusTypeDef HAL_FDCAN_EnterPowerDownMode(FDCAN_HandleTypeDef *hfdcan)
 669:Drivers/STM32H7xx_HAL_Driver/Src/stm32h7xx_hal_fdcan.c **** {
 809              		.loc 1 669 1
 810              		.cfi_startproc
 811              		@ args = 0, pretend = 0, frame = 16
 812              		@ frame_needed = 1, uses_anonymous_args = 0
 813 0000 80B5     		push	{r7, lr}
 814              	.LCFI22:
 815              		.cfi_def_cfa_offset 8
 816              		.cfi_offset 7, -8
 817              		.cfi_offset 14, -4
 818 0002 84B0     		sub	sp, sp, #16
 819              	.LCFI23:
 820              		.cfi_def_cfa_offset 24
 821 0004 00AF     		add	r7, sp, #0
 822              	.LCFI24:
 823              		.cfi_def_cfa_register 7
 824 0006 7860     		str	r0, [r7, #4]
 670:Drivers/STM32H7xx_HAL_Driver/Src/stm32h7xx_hal_fdcan.c ****   uint32_t tickstart;
 671:Drivers/STM32H7xx_HAL_Driver/Src/stm32h7xx_hal_fdcan.c **** 
 672:Drivers/STM32H7xx_HAL_Driver/Src/stm32h7xx_hal_fdcan.c ****   /* Request clock stop */
 673:Drivers/STM32H7xx_HAL_Driver/Src/stm32h7xx_hal_fdcan.c ****   SET_BIT(hfdcan->Instance->CCCR, FDCAN_CCCR_CSR);
 825              		.loc 1 673 3
 826 0008 7B68     		ldr	r3, [r7, #4]
 827 000a 1B68     		ldr	r3, [r3]
 828 000c 9A69     		ldr	r2, [r3, #24]
 829 000e 7B68     		ldr	r3, [r7, #4]
 830 0010 1B68     		ldr	r3, [r3]
 831 0012 42F01002 		orr	r2, r2, #16
 832 0016 9A61     		str	r2, [r3, #24]
 674:Drivers/STM32H7xx_HAL_Driver/Src/stm32h7xx_hal_fdcan.c **** 
 675:Drivers/STM32H7xx_HAL_Driver/Src/stm32h7xx_hal_fdcan.c ****   /* Get tick */
 676:Drivers/STM32H7xx_HAL_Driver/Src/stm32h7xx_hal_fdcan.c ****   tickstart = HAL_GetTick();
 833              		.loc 1 676 15
 834 0018 FFF7FEFF 		bl	HAL_GetTick
 835 001c F860     		str	r0, [r7, #12]
 677:Drivers/STM32H7xx_HAL_Driver/Src/stm32h7xx_hal_fdcan.c **** 
 678:Drivers/STM32H7xx_HAL_Driver/Src/stm32h7xx_hal_fdcan.c ****   /* Wait until FDCAN is ready for power down */
 679:Drivers/STM32H7xx_HAL_Driver/Src/stm32h7xx_hal_fdcan.c ****   while ((hfdcan->Instance->CCCR & FDCAN_CCCR_CSA) == 0U)
 836              		.loc 1 679 9
 837 001e 14E0     		b	.L37
 838              	.L39:
 680:Drivers/STM32H7xx_HAL_Driver/Src/stm32h7xx_hal_fdcan.c ****   {
 681:Drivers/STM32H7xx_HAL_Driver/Src/stm32h7xx_hal_fdcan.c ****     if ((HAL_GetTick() - tickstart) > FDCAN_TIMEOUT_VALUE)
 839              		.loc 1 681 10
 840 0020 FFF7FEFF 		bl	HAL_GetTick
 841 0024 0246     		mov	r2, r0
 842              		.loc 1 681 24
 843 0026 FB68     		ldr	r3, [r7, #12]
 844 0028 D31A     		subs	r3, r2, r3
 845              		.loc 1 681 8
 846 002a 0A2B     		cmp	r3, #10
 847 002c 0DD9     		bls	.L37
 682:Drivers/STM32H7xx_HAL_Driver/Src/stm32h7xx_hal_fdcan.c ****     {
ARM GAS  C:\Users\Su\AppData\Local\Temp\ccsFXyek.s 			page 28


 683:Drivers/STM32H7xx_HAL_Driver/Src/stm32h7xx_hal_fdcan.c ****       /* Update error code */
 684:Drivers/STM32H7xx_HAL_Driver/Src/stm32h7xx_hal_fdcan.c ****       hfdcan->ErrorCode |= HAL_FDCAN_ERROR_TIMEOUT;
 848              		.loc 1 684 25
 849 002e 7B68     		ldr	r3, [r7, #4]
 850 0030 D3F89C30 		ldr	r3, [r3, #156]
 851 0034 43F00102 		orr	r2, r3, #1
 852 0038 7B68     		ldr	r3, [r7, #4]
 853 003a C3F89C20 		str	r2, [r3, #156]
 685:Drivers/STM32H7xx_HAL_Driver/Src/stm32h7xx_hal_fdcan.c **** 
 686:Drivers/STM32H7xx_HAL_Driver/Src/stm32h7xx_hal_fdcan.c ****       /* Change FDCAN state */
 687:Drivers/STM32H7xx_HAL_Driver/Src/stm32h7xx_hal_fdcan.c ****       hfdcan->State = HAL_FDCAN_STATE_ERROR;
 854              		.loc 1 687 21
 855 003e 7B68     		ldr	r3, [r7, #4]
 856 0040 0322     		movs	r2, #3
 857 0042 83F89820 		strb	r2, [r3, #152]
 688:Drivers/STM32H7xx_HAL_Driver/Src/stm32h7xx_hal_fdcan.c **** 
 689:Drivers/STM32H7xx_HAL_Driver/Src/stm32h7xx_hal_fdcan.c ****       return HAL_ERROR;
 858              		.loc 1 689 14
 859 0046 0123     		movs	r3, #1
 860 0048 07E0     		b	.L38
 861              	.L37:
 679:Drivers/STM32H7xx_HAL_Driver/Src/stm32h7xx_hal_fdcan.c ****   {
 862              		.loc 1 679 17
 863 004a 7B68     		ldr	r3, [r7, #4]
 864 004c 1B68     		ldr	r3, [r3]
 679:Drivers/STM32H7xx_HAL_Driver/Src/stm32h7xx_hal_fdcan.c ****   {
 865              		.loc 1 679 27
 866 004e 9B69     		ldr	r3, [r3, #24]
 679:Drivers/STM32H7xx_HAL_Driver/Src/stm32h7xx_hal_fdcan.c ****   {
 867              		.loc 1 679 34
 868 0050 03F00803 		and	r3, r3, #8
 679:Drivers/STM32H7xx_HAL_Driver/Src/stm32h7xx_hal_fdcan.c ****   {
 869              		.loc 1 679 9
 870 0054 002B     		cmp	r3, #0
 871 0056 E3D0     		beq	.L39
 690:Drivers/STM32H7xx_HAL_Driver/Src/stm32h7xx_hal_fdcan.c ****     }
 691:Drivers/STM32H7xx_HAL_Driver/Src/stm32h7xx_hal_fdcan.c ****   }
 692:Drivers/STM32H7xx_HAL_Driver/Src/stm32h7xx_hal_fdcan.c **** 
 693:Drivers/STM32H7xx_HAL_Driver/Src/stm32h7xx_hal_fdcan.c ****   /* Return function status */
 694:Drivers/STM32H7xx_HAL_Driver/Src/stm32h7xx_hal_fdcan.c ****   return HAL_OK;
 872              		.loc 1 694 10
 873 0058 0023     		movs	r3, #0
 874              	.L38:
 695:Drivers/STM32H7xx_HAL_Driver/Src/stm32h7xx_hal_fdcan.c **** }
 875              		.loc 1 695 1
 876 005a 1846     		mov	r0, r3
 877 005c 1037     		adds	r7, r7, #16
 878              	.LCFI25:
 879              		.cfi_def_cfa_offset 8
 880 005e BD46     		mov	sp, r7
 881              	.LCFI26:
 882              		.cfi_def_cfa_register 13
 883              		@ sp needed
 884 0060 80BD     		pop	{r7, pc}
 885              		.cfi_endproc
 886              	.LFE148:
 888              		.section	.text.HAL_FDCAN_ExitPowerDownMode,"ax",%progbits
ARM GAS  C:\Users\Su\AppData\Local\Temp\ccsFXyek.s 			page 29


 889              		.align	1
 890              		.global	HAL_FDCAN_ExitPowerDownMode
 891              		.syntax unified
 892              		.thumb
 893              		.thumb_func
 895              	HAL_FDCAN_ExitPowerDownMode:
 896              	.LFB149:
 696:Drivers/STM32H7xx_HAL_Driver/Src/stm32h7xx_hal_fdcan.c **** 
 697:Drivers/STM32H7xx_HAL_Driver/Src/stm32h7xx_hal_fdcan.c **** /**
 698:Drivers/STM32H7xx_HAL_Driver/Src/stm32h7xx_hal_fdcan.c ****   * @brief  Exit power down mode.
 699:Drivers/STM32H7xx_HAL_Driver/Src/stm32h7xx_hal_fdcan.c ****   * @param  hfdcan pointer to an FDCAN_HandleTypeDef structure that contains
 700:Drivers/STM32H7xx_HAL_Driver/Src/stm32h7xx_hal_fdcan.c ****   *         the configuration information for the specified FDCAN.
 701:Drivers/STM32H7xx_HAL_Driver/Src/stm32h7xx_hal_fdcan.c ****   * @retval HAL status
 702:Drivers/STM32H7xx_HAL_Driver/Src/stm32h7xx_hal_fdcan.c ****   */
 703:Drivers/STM32H7xx_HAL_Driver/Src/stm32h7xx_hal_fdcan.c **** HAL_StatusTypeDef HAL_FDCAN_ExitPowerDownMode(FDCAN_HandleTypeDef *hfdcan)
 704:Drivers/STM32H7xx_HAL_Driver/Src/stm32h7xx_hal_fdcan.c **** {
 897              		.loc 1 704 1
 898              		.cfi_startproc
 899              		@ args = 0, pretend = 0, frame = 16
 900              		@ frame_needed = 1, uses_anonymous_args = 0
 901 0000 80B5     		push	{r7, lr}
 902              	.LCFI27:
 903              		.cfi_def_cfa_offset 8
 904              		.cfi_offset 7, -8
 905              		.cfi_offset 14, -4
 906 0002 84B0     		sub	sp, sp, #16
 907              	.LCFI28:
 908              		.cfi_def_cfa_offset 24
 909 0004 00AF     		add	r7, sp, #0
 910              	.LCFI29:
 911              		.cfi_def_cfa_register 7
 912 0006 7860     		str	r0, [r7, #4]
 705:Drivers/STM32H7xx_HAL_Driver/Src/stm32h7xx_hal_fdcan.c ****   uint32_t tickstart;
 706:Drivers/STM32H7xx_HAL_Driver/Src/stm32h7xx_hal_fdcan.c **** 
 707:Drivers/STM32H7xx_HAL_Driver/Src/stm32h7xx_hal_fdcan.c ****   /* Reset clock stop request */
 708:Drivers/STM32H7xx_HAL_Driver/Src/stm32h7xx_hal_fdcan.c ****   CLEAR_BIT(hfdcan->Instance->CCCR, FDCAN_CCCR_CSR);
 913              		.loc 1 708 3
 914 0008 7B68     		ldr	r3, [r7, #4]
 915 000a 1B68     		ldr	r3, [r3]
 916 000c 9A69     		ldr	r2, [r3, #24]
 917 000e 7B68     		ldr	r3, [r7, #4]
 918 0010 1B68     		ldr	r3, [r3]
 919 0012 22F01002 		bic	r2, r2, #16
 920 0016 9A61     		str	r2, [r3, #24]
 709:Drivers/STM32H7xx_HAL_Driver/Src/stm32h7xx_hal_fdcan.c **** 
 710:Drivers/STM32H7xx_HAL_Driver/Src/stm32h7xx_hal_fdcan.c ****   /* Get tick */
 711:Drivers/STM32H7xx_HAL_Driver/Src/stm32h7xx_hal_fdcan.c ****   tickstart = HAL_GetTick();
 921              		.loc 1 711 15
 922 0018 FFF7FEFF 		bl	HAL_GetTick
 923 001c F860     		str	r0, [r7, #12]
 712:Drivers/STM32H7xx_HAL_Driver/Src/stm32h7xx_hal_fdcan.c **** 
 713:Drivers/STM32H7xx_HAL_Driver/Src/stm32h7xx_hal_fdcan.c ****   /* Wait until FDCAN exits sleep mode */
 714:Drivers/STM32H7xx_HAL_Driver/Src/stm32h7xx_hal_fdcan.c ****   while ((hfdcan->Instance->CCCR & FDCAN_CCCR_CSA) == FDCAN_CCCR_CSA)
 924              		.loc 1 714 9
 925 001e 14E0     		b	.L41
 926              	.L43:
 715:Drivers/STM32H7xx_HAL_Driver/Src/stm32h7xx_hal_fdcan.c ****   {
ARM GAS  C:\Users\Su\AppData\Local\Temp\ccsFXyek.s 			page 30


 716:Drivers/STM32H7xx_HAL_Driver/Src/stm32h7xx_hal_fdcan.c ****     if ((HAL_GetTick() - tickstart) > FDCAN_TIMEOUT_VALUE)
 927              		.loc 1 716 10
 928 0020 FFF7FEFF 		bl	HAL_GetTick
 929 0024 0246     		mov	r2, r0
 930              		.loc 1 716 24
 931 0026 FB68     		ldr	r3, [r7, #12]
 932 0028 D31A     		subs	r3, r2, r3
 933              		.loc 1 716 8
 934 002a 0A2B     		cmp	r3, #10
 935 002c 0DD9     		bls	.L41
 717:Drivers/STM32H7xx_HAL_Driver/Src/stm32h7xx_hal_fdcan.c ****     {
 718:Drivers/STM32H7xx_HAL_Driver/Src/stm32h7xx_hal_fdcan.c ****       /* Update error code */
 719:Drivers/STM32H7xx_HAL_Driver/Src/stm32h7xx_hal_fdcan.c ****       hfdcan->ErrorCode |= HAL_FDCAN_ERROR_TIMEOUT;
 936              		.loc 1 719 25
 937 002e 7B68     		ldr	r3, [r7, #4]
 938 0030 D3F89C30 		ldr	r3, [r3, #156]
 939 0034 43F00102 		orr	r2, r3, #1
 940 0038 7B68     		ldr	r3, [r7, #4]
 941 003a C3F89C20 		str	r2, [r3, #156]
 720:Drivers/STM32H7xx_HAL_Driver/Src/stm32h7xx_hal_fdcan.c **** 
 721:Drivers/STM32H7xx_HAL_Driver/Src/stm32h7xx_hal_fdcan.c ****       /* Change FDCAN state */
 722:Drivers/STM32H7xx_HAL_Driver/Src/stm32h7xx_hal_fdcan.c ****       hfdcan->State = HAL_FDCAN_STATE_ERROR;
 942              		.loc 1 722 21
 943 003e 7B68     		ldr	r3, [r7, #4]
 944 0040 0322     		movs	r2, #3
 945 0042 83F89820 		strb	r2, [r3, #152]
 723:Drivers/STM32H7xx_HAL_Driver/Src/stm32h7xx_hal_fdcan.c **** 
 724:Drivers/STM32H7xx_HAL_Driver/Src/stm32h7xx_hal_fdcan.c ****       return HAL_ERROR;
 946              		.loc 1 724 14
 947 0046 0123     		movs	r3, #1
 948 0048 0FE0     		b	.L42
 949              	.L41:
 714:Drivers/STM32H7xx_HAL_Driver/Src/stm32h7xx_hal_fdcan.c ****   {
 950              		.loc 1 714 17
 951 004a 7B68     		ldr	r3, [r7, #4]
 952 004c 1B68     		ldr	r3, [r3]
 714:Drivers/STM32H7xx_HAL_Driver/Src/stm32h7xx_hal_fdcan.c ****   {
 953              		.loc 1 714 27
 954 004e 9B69     		ldr	r3, [r3, #24]
 714:Drivers/STM32H7xx_HAL_Driver/Src/stm32h7xx_hal_fdcan.c ****   {
 955              		.loc 1 714 34
 956 0050 03F00803 		and	r3, r3, #8
 714:Drivers/STM32H7xx_HAL_Driver/Src/stm32h7xx_hal_fdcan.c ****   {
 957              		.loc 1 714 9
 958 0054 082B     		cmp	r3, #8
 959 0056 E3D0     		beq	.L43
 725:Drivers/STM32H7xx_HAL_Driver/Src/stm32h7xx_hal_fdcan.c ****     }
 726:Drivers/STM32H7xx_HAL_Driver/Src/stm32h7xx_hal_fdcan.c ****   }
 727:Drivers/STM32H7xx_HAL_Driver/Src/stm32h7xx_hal_fdcan.c **** 
 728:Drivers/STM32H7xx_HAL_Driver/Src/stm32h7xx_hal_fdcan.c ****   /* Enter normal operation */
 729:Drivers/STM32H7xx_HAL_Driver/Src/stm32h7xx_hal_fdcan.c ****   CLEAR_BIT(hfdcan->Instance->CCCR, FDCAN_CCCR_INIT);
 960              		.loc 1 729 3
 961 0058 7B68     		ldr	r3, [r7, #4]
 962 005a 1B68     		ldr	r3, [r3]
 963 005c 9A69     		ldr	r2, [r3, #24]
 964 005e 7B68     		ldr	r3, [r7, #4]
 965 0060 1B68     		ldr	r3, [r3]
ARM GAS  C:\Users\Su\AppData\Local\Temp\ccsFXyek.s 			page 31


 966 0062 22F00102 		bic	r2, r2, #1
 967 0066 9A61     		str	r2, [r3, #24]
 730:Drivers/STM32H7xx_HAL_Driver/Src/stm32h7xx_hal_fdcan.c **** 
 731:Drivers/STM32H7xx_HAL_Driver/Src/stm32h7xx_hal_fdcan.c ****   /* Return function status */
 732:Drivers/STM32H7xx_HAL_Driver/Src/stm32h7xx_hal_fdcan.c ****   return HAL_OK;
 968              		.loc 1 732 10
 969 0068 0023     		movs	r3, #0
 970              	.L42:
 733:Drivers/STM32H7xx_HAL_Driver/Src/stm32h7xx_hal_fdcan.c **** }
 971              		.loc 1 733 1
 972 006a 1846     		mov	r0, r3
 973 006c 1037     		adds	r7, r7, #16
 974              	.LCFI30:
 975              		.cfi_def_cfa_offset 8
 976 006e BD46     		mov	sp, r7
 977              	.LCFI31:
 978              		.cfi_def_cfa_register 13
 979              		@ sp needed
 980 0070 80BD     		pop	{r7, pc}
 981              		.cfi_endproc
 982              	.LFE149:
 984              		.section	.text.HAL_FDCAN_ConfigClockCalibration,"ax",%progbits
 985              		.align	1
 986              		.global	HAL_FDCAN_ConfigClockCalibration
 987              		.syntax unified
 988              		.thumb
 989              		.thumb_func
 991              	HAL_FDCAN_ConfigClockCalibration:
 992              	.LFB150:
 734:Drivers/STM32H7xx_HAL_Driver/Src/stm32h7xx_hal_fdcan.c **** 
 735:Drivers/STM32H7xx_HAL_Driver/Src/stm32h7xx_hal_fdcan.c **** #if USE_HAL_FDCAN_REGISTER_CALLBACKS == 1
 736:Drivers/STM32H7xx_HAL_Driver/Src/stm32h7xx_hal_fdcan.c **** /**
 737:Drivers/STM32H7xx_HAL_Driver/Src/stm32h7xx_hal_fdcan.c ****   * @brief  Register a FDCAN CallBack.
 738:Drivers/STM32H7xx_HAL_Driver/Src/stm32h7xx_hal_fdcan.c ****   *         To be used instead of the weak predefined callback
 739:Drivers/STM32H7xx_HAL_Driver/Src/stm32h7xx_hal_fdcan.c ****   * @param  hfdcan pointer to a FDCAN_HandleTypeDef structure that contains
 740:Drivers/STM32H7xx_HAL_Driver/Src/stm32h7xx_hal_fdcan.c ****   *         the configuration information for FDCAN module
 741:Drivers/STM32H7xx_HAL_Driver/Src/stm32h7xx_hal_fdcan.c ****   * @param  CallbackID ID of the callback to be registered
 742:Drivers/STM32H7xx_HAL_Driver/Src/stm32h7xx_hal_fdcan.c ****   *         This parameter can be one of the following values:
 743:Drivers/STM32H7xx_HAL_Driver/Src/stm32h7xx_hal_fdcan.c ****   *           @arg @ref HAL_FDCAN_TX_FIFO_EMPTY_CB_ID Tx Fifo Empty callback ID
 744:Drivers/STM32H7xx_HAL_Driver/Src/stm32h7xx_hal_fdcan.c ****   *           @arg @ref HAL_FDCAN_RX_BUFFER_NEW_MSG_CB_ID Rx buffer new message callback ID
 745:Drivers/STM32H7xx_HAL_Driver/Src/stm32h7xx_hal_fdcan.c ****   *           @arg @ref HAL_FDCAN_HIGH_PRIO_MESSAGE_CB_ID High priority message callback ID
 746:Drivers/STM32H7xx_HAL_Driver/Src/stm32h7xx_hal_fdcan.c ****   *           @arg @ref HAL_FDCAN_TIMESTAMP_WRAPAROUND_CB_ID Timestamp wraparound callback ID
 747:Drivers/STM32H7xx_HAL_Driver/Src/stm32h7xx_hal_fdcan.c ****   *           @arg @ref HAL_FDCAN_TIMEOUT_OCCURRED_CB_ID Timeout occurred callback ID
 748:Drivers/STM32H7xx_HAL_Driver/Src/stm32h7xx_hal_fdcan.c ****   *           @arg @ref HAL_FDCAN_ERROR_CALLBACK_CB_ID Error callback ID
 749:Drivers/STM32H7xx_HAL_Driver/Src/stm32h7xx_hal_fdcan.c ****   *           @arg @ref HAL_FDCAN_MSPINIT_CB_ID MspInit callback ID
 750:Drivers/STM32H7xx_HAL_Driver/Src/stm32h7xx_hal_fdcan.c ****   *           @arg @ref HAL_FDCAN_MSPDEINIT_CB_ID MspDeInit callback ID
 751:Drivers/STM32H7xx_HAL_Driver/Src/stm32h7xx_hal_fdcan.c ****   * @param  pCallback pointer to the Callback function
 752:Drivers/STM32H7xx_HAL_Driver/Src/stm32h7xx_hal_fdcan.c ****   * @retval HAL status
 753:Drivers/STM32H7xx_HAL_Driver/Src/stm32h7xx_hal_fdcan.c ****   */
 754:Drivers/STM32H7xx_HAL_Driver/Src/stm32h7xx_hal_fdcan.c **** HAL_StatusTypeDef HAL_FDCAN_RegisterCallback(FDCAN_HandleTypeDef *hfdcan, HAL_FDCAN_CallbackIDTypeD
 755:Drivers/STM32H7xx_HAL_Driver/Src/stm32h7xx_hal_fdcan.c **** {
 756:Drivers/STM32H7xx_HAL_Driver/Src/stm32h7xx_hal_fdcan.c ****   HAL_StatusTypeDef status = HAL_OK;
 757:Drivers/STM32H7xx_HAL_Driver/Src/stm32h7xx_hal_fdcan.c **** 
 758:Drivers/STM32H7xx_HAL_Driver/Src/stm32h7xx_hal_fdcan.c ****   if (pCallback == NULL)
 759:Drivers/STM32H7xx_HAL_Driver/Src/stm32h7xx_hal_fdcan.c ****   {
 760:Drivers/STM32H7xx_HAL_Driver/Src/stm32h7xx_hal_fdcan.c ****     /* Update the error code */
 761:Drivers/STM32H7xx_HAL_Driver/Src/stm32h7xx_hal_fdcan.c ****     hfdcan->ErrorCode |= HAL_FDCAN_ERROR_INVALID_CALLBACK;
ARM GAS  C:\Users\Su\AppData\Local\Temp\ccsFXyek.s 			page 32


 762:Drivers/STM32H7xx_HAL_Driver/Src/stm32h7xx_hal_fdcan.c **** 
 763:Drivers/STM32H7xx_HAL_Driver/Src/stm32h7xx_hal_fdcan.c ****     return HAL_ERROR;
 764:Drivers/STM32H7xx_HAL_Driver/Src/stm32h7xx_hal_fdcan.c ****   }
 765:Drivers/STM32H7xx_HAL_Driver/Src/stm32h7xx_hal_fdcan.c **** 
 766:Drivers/STM32H7xx_HAL_Driver/Src/stm32h7xx_hal_fdcan.c ****   if (hfdcan->State == HAL_FDCAN_STATE_READY)
 767:Drivers/STM32H7xx_HAL_Driver/Src/stm32h7xx_hal_fdcan.c ****   {
 768:Drivers/STM32H7xx_HAL_Driver/Src/stm32h7xx_hal_fdcan.c ****     switch (CallbackID)
 769:Drivers/STM32H7xx_HAL_Driver/Src/stm32h7xx_hal_fdcan.c ****     {
 770:Drivers/STM32H7xx_HAL_Driver/Src/stm32h7xx_hal_fdcan.c ****       case HAL_FDCAN_TX_FIFO_EMPTY_CB_ID :
 771:Drivers/STM32H7xx_HAL_Driver/Src/stm32h7xx_hal_fdcan.c ****         hfdcan->TxFifoEmptyCallback = pCallback;
 772:Drivers/STM32H7xx_HAL_Driver/Src/stm32h7xx_hal_fdcan.c ****         break;
 773:Drivers/STM32H7xx_HAL_Driver/Src/stm32h7xx_hal_fdcan.c **** 
 774:Drivers/STM32H7xx_HAL_Driver/Src/stm32h7xx_hal_fdcan.c ****       case HAL_FDCAN_RX_BUFFER_NEW_MSG_CB_ID :
 775:Drivers/STM32H7xx_HAL_Driver/Src/stm32h7xx_hal_fdcan.c ****         hfdcan->RxBufferNewMessageCallback = pCallback;
 776:Drivers/STM32H7xx_HAL_Driver/Src/stm32h7xx_hal_fdcan.c ****         break;
 777:Drivers/STM32H7xx_HAL_Driver/Src/stm32h7xx_hal_fdcan.c **** 
 778:Drivers/STM32H7xx_HAL_Driver/Src/stm32h7xx_hal_fdcan.c ****       case HAL_FDCAN_HIGH_PRIO_MESSAGE_CB_ID :
 779:Drivers/STM32H7xx_HAL_Driver/Src/stm32h7xx_hal_fdcan.c ****         hfdcan->HighPriorityMessageCallback = pCallback;
 780:Drivers/STM32H7xx_HAL_Driver/Src/stm32h7xx_hal_fdcan.c ****         break;
 781:Drivers/STM32H7xx_HAL_Driver/Src/stm32h7xx_hal_fdcan.c **** 
 782:Drivers/STM32H7xx_HAL_Driver/Src/stm32h7xx_hal_fdcan.c ****       case HAL_FDCAN_TIMESTAMP_WRAPAROUND_CB_ID :
 783:Drivers/STM32H7xx_HAL_Driver/Src/stm32h7xx_hal_fdcan.c ****         hfdcan->TimestampWraparoundCallback = pCallback;
 784:Drivers/STM32H7xx_HAL_Driver/Src/stm32h7xx_hal_fdcan.c ****         break;
 785:Drivers/STM32H7xx_HAL_Driver/Src/stm32h7xx_hal_fdcan.c **** 
 786:Drivers/STM32H7xx_HAL_Driver/Src/stm32h7xx_hal_fdcan.c ****       case HAL_FDCAN_TIMEOUT_OCCURRED_CB_ID :
 787:Drivers/STM32H7xx_HAL_Driver/Src/stm32h7xx_hal_fdcan.c ****         hfdcan->TimeoutOccurredCallback = pCallback;
 788:Drivers/STM32H7xx_HAL_Driver/Src/stm32h7xx_hal_fdcan.c ****         break;
 789:Drivers/STM32H7xx_HAL_Driver/Src/stm32h7xx_hal_fdcan.c **** 
 790:Drivers/STM32H7xx_HAL_Driver/Src/stm32h7xx_hal_fdcan.c ****       case HAL_FDCAN_ERROR_CALLBACK_CB_ID :
 791:Drivers/STM32H7xx_HAL_Driver/Src/stm32h7xx_hal_fdcan.c ****         hfdcan->ErrorCallback = pCallback;
 792:Drivers/STM32H7xx_HAL_Driver/Src/stm32h7xx_hal_fdcan.c ****         break;
 793:Drivers/STM32H7xx_HAL_Driver/Src/stm32h7xx_hal_fdcan.c **** 
 794:Drivers/STM32H7xx_HAL_Driver/Src/stm32h7xx_hal_fdcan.c ****       case HAL_FDCAN_MSPINIT_CB_ID :
 795:Drivers/STM32H7xx_HAL_Driver/Src/stm32h7xx_hal_fdcan.c ****         hfdcan->MspInitCallback = pCallback;
 796:Drivers/STM32H7xx_HAL_Driver/Src/stm32h7xx_hal_fdcan.c ****         break;
 797:Drivers/STM32H7xx_HAL_Driver/Src/stm32h7xx_hal_fdcan.c **** 
 798:Drivers/STM32H7xx_HAL_Driver/Src/stm32h7xx_hal_fdcan.c ****       case HAL_FDCAN_MSPDEINIT_CB_ID :
 799:Drivers/STM32H7xx_HAL_Driver/Src/stm32h7xx_hal_fdcan.c ****         hfdcan->MspDeInitCallback = pCallback;
 800:Drivers/STM32H7xx_HAL_Driver/Src/stm32h7xx_hal_fdcan.c ****         break;
 801:Drivers/STM32H7xx_HAL_Driver/Src/stm32h7xx_hal_fdcan.c **** 
 802:Drivers/STM32H7xx_HAL_Driver/Src/stm32h7xx_hal_fdcan.c ****       default :
 803:Drivers/STM32H7xx_HAL_Driver/Src/stm32h7xx_hal_fdcan.c ****         /* Update the error code */
 804:Drivers/STM32H7xx_HAL_Driver/Src/stm32h7xx_hal_fdcan.c ****         hfdcan->ErrorCode |= HAL_FDCAN_ERROR_INVALID_CALLBACK;
 805:Drivers/STM32H7xx_HAL_Driver/Src/stm32h7xx_hal_fdcan.c **** 
 806:Drivers/STM32H7xx_HAL_Driver/Src/stm32h7xx_hal_fdcan.c ****         /* Return error status */
 807:Drivers/STM32H7xx_HAL_Driver/Src/stm32h7xx_hal_fdcan.c ****         status =  HAL_ERROR;
 808:Drivers/STM32H7xx_HAL_Driver/Src/stm32h7xx_hal_fdcan.c ****         break;
 809:Drivers/STM32H7xx_HAL_Driver/Src/stm32h7xx_hal_fdcan.c ****     }
 810:Drivers/STM32H7xx_HAL_Driver/Src/stm32h7xx_hal_fdcan.c ****   }
 811:Drivers/STM32H7xx_HAL_Driver/Src/stm32h7xx_hal_fdcan.c ****   else if (hfdcan->State == HAL_FDCAN_STATE_RESET)
 812:Drivers/STM32H7xx_HAL_Driver/Src/stm32h7xx_hal_fdcan.c ****   {
 813:Drivers/STM32H7xx_HAL_Driver/Src/stm32h7xx_hal_fdcan.c ****     switch (CallbackID)
 814:Drivers/STM32H7xx_HAL_Driver/Src/stm32h7xx_hal_fdcan.c ****     {
 815:Drivers/STM32H7xx_HAL_Driver/Src/stm32h7xx_hal_fdcan.c ****       case HAL_FDCAN_MSPINIT_CB_ID :
 816:Drivers/STM32H7xx_HAL_Driver/Src/stm32h7xx_hal_fdcan.c ****         hfdcan->MspInitCallback = pCallback;
 817:Drivers/STM32H7xx_HAL_Driver/Src/stm32h7xx_hal_fdcan.c ****         break;
 818:Drivers/STM32H7xx_HAL_Driver/Src/stm32h7xx_hal_fdcan.c **** 
ARM GAS  C:\Users\Su\AppData\Local\Temp\ccsFXyek.s 			page 33


 819:Drivers/STM32H7xx_HAL_Driver/Src/stm32h7xx_hal_fdcan.c ****       case HAL_FDCAN_MSPDEINIT_CB_ID :
 820:Drivers/STM32H7xx_HAL_Driver/Src/stm32h7xx_hal_fdcan.c ****         hfdcan->MspDeInitCallback = pCallback;
 821:Drivers/STM32H7xx_HAL_Driver/Src/stm32h7xx_hal_fdcan.c ****         break;
 822:Drivers/STM32H7xx_HAL_Driver/Src/stm32h7xx_hal_fdcan.c **** 
 823:Drivers/STM32H7xx_HAL_Driver/Src/stm32h7xx_hal_fdcan.c ****       default :
 824:Drivers/STM32H7xx_HAL_Driver/Src/stm32h7xx_hal_fdcan.c ****         /* Update the error code */
 825:Drivers/STM32H7xx_HAL_Driver/Src/stm32h7xx_hal_fdcan.c ****         hfdcan->ErrorCode |= HAL_FDCAN_ERROR_INVALID_CALLBACK;
 826:Drivers/STM32H7xx_HAL_Driver/Src/stm32h7xx_hal_fdcan.c **** 
 827:Drivers/STM32H7xx_HAL_Driver/Src/stm32h7xx_hal_fdcan.c ****         /* Return error status */
 828:Drivers/STM32H7xx_HAL_Driver/Src/stm32h7xx_hal_fdcan.c ****         status =  HAL_ERROR;
 829:Drivers/STM32H7xx_HAL_Driver/Src/stm32h7xx_hal_fdcan.c ****         break;
 830:Drivers/STM32H7xx_HAL_Driver/Src/stm32h7xx_hal_fdcan.c ****     }
 831:Drivers/STM32H7xx_HAL_Driver/Src/stm32h7xx_hal_fdcan.c ****   }
 832:Drivers/STM32H7xx_HAL_Driver/Src/stm32h7xx_hal_fdcan.c ****   else
 833:Drivers/STM32H7xx_HAL_Driver/Src/stm32h7xx_hal_fdcan.c ****   {
 834:Drivers/STM32H7xx_HAL_Driver/Src/stm32h7xx_hal_fdcan.c ****     /* Update the error code */
 835:Drivers/STM32H7xx_HAL_Driver/Src/stm32h7xx_hal_fdcan.c ****     hfdcan->ErrorCode |= HAL_FDCAN_ERROR_INVALID_CALLBACK;
 836:Drivers/STM32H7xx_HAL_Driver/Src/stm32h7xx_hal_fdcan.c **** 
 837:Drivers/STM32H7xx_HAL_Driver/Src/stm32h7xx_hal_fdcan.c ****     /* Return error status */
 838:Drivers/STM32H7xx_HAL_Driver/Src/stm32h7xx_hal_fdcan.c ****     status =  HAL_ERROR;
 839:Drivers/STM32H7xx_HAL_Driver/Src/stm32h7xx_hal_fdcan.c ****   }
 840:Drivers/STM32H7xx_HAL_Driver/Src/stm32h7xx_hal_fdcan.c **** 
 841:Drivers/STM32H7xx_HAL_Driver/Src/stm32h7xx_hal_fdcan.c ****   return status;
 842:Drivers/STM32H7xx_HAL_Driver/Src/stm32h7xx_hal_fdcan.c **** }
 843:Drivers/STM32H7xx_HAL_Driver/Src/stm32h7xx_hal_fdcan.c **** 
 844:Drivers/STM32H7xx_HAL_Driver/Src/stm32h7xx_hal_fdcan.c **** /**
 845:Drivers/STM32H7xx_HAL_Driver/Src/stm32h7xx_hal_fdcan.c ****   * @brief  Unregister a FDCAN CallBack.
 846:Drivers/STM32H7xx_HAL_Driver/Src/stm32h7xx_hal_fdcan.c ****   *         FDCAN callback is redirected to the weak predefined callback
 847:Drivers/STM32H7xx_HAL_Driver/Src/stm32h7xx_hal_fdcan.c ****   * @param  hfdcan pointer to a FDCAN_HandleTypeDef structure that contains
 848:Drivers/STM32H7xx_HAL_Driver/Src/stm32h7xx_hal_fdcan.c ****   *         the configuration information for FDCAN module
 849:Drivers/STM32H7xx_HAL_Driver/Src/stm32h7xx_hal_fdcan.c ****   * @param  CallbackID ID of the callback to be unregistered
 850:Drivers/STM32H7xx_HAL_Driver/Src/stm32h7xx_hal_fdcan.c ****   *         This parameter can be one of the following values:
 851:Drivers/STM32H7xx_HAL_Driver/Src/stm32h7xx_hal_fdcan.c ****   *           @arg @ref HAL_FDCAN_TX_FIFO_EMPTY_CB_ID Tx Fifo Empty callback ID
 852:Drivers/STM32H7xx_HAL_Driver/Src/stm32h7xx_hal_fdcan.c ****   *           @arg @ref HAL_FDCAN_RX_BUFFER_NEW_MSG_CB_ID Rx buffer new message callback ID
 853:Drivers/STM32H7xx_HAL_Driver/Src/stm32h7xx_hal_fdcan.c ****   *           @arg @ref HAL_FDCAN_HIGH_PRIO_MESSAGE_CB_ID High priority message callback ID
 854:Drivers/STM32H7xx_HAL_Driver/Src/stm32h7xx_hal_fdcan.c ****   *           @arg @ref HAL_FDCAN_TIMESTAMP_WRAPAROUND_CB_ID Timestamp wraparound callback ID
 855:Drivers/STM32H7xx_HAL_Driver/Src/stm32h7xx_hal_fdcan.c ****   *           @arg @ref HAL_FDCAN_TIMEOUT_OCCURRED_CB_ID Timeout occurred callback ID
 856:Drivers/STM32H7xx_HAL_Driver/Src/stm32h7xx_hal_fdcan.c ****   *           @arg @ref HAL_FDCAN_ERROR_CALLBACK_CB_ID Error callback ID
 857:Drivers/STM32H7xx_HAL_Driver/Src/stm32h7xx_hal_fdcan.c ****   *           @arg @ref HAL_FDCAN_MSPINIT_CB_ID MspInit callback ID
 858:Drivers/STM32H7xx_HAL_Driver/Src/stm32h7xx_hal_fdcan.c ****   *           @arg @ref HAL_FDCAN_MSPDEINIT_CB_ID MspDeInit callback ID
 859:Drivers/STM32H7xx_HAL_Driver/Src/stm32h7xx_hal_fdcan.c ****   * @retval HAL status
 860:Drivers/STM32H7xx_HAL_Driver/Src/stm32h7xx_hal_fdcan.c ****   */
 861:Drivers/STM32H7xx_HAL_Driver/Src/stm32h7xx_hal_fdcan.c **** HAL_StatusTypeDef HAL_FDCAN_UnRegisterCallback(FDCAN_HandleTypeDef *hfdcan, HAL_FDCAN_CallbackIDTyp
 862:Drivers/STM32H7xx_HAL_Driver/Src/stm32h7xx_hal_fdcan.c **** {
 863:Drivers/STM32H7xx_HAL_Driver/Src/stm32h7xx_hal_fdcan.c ****   HAL_StatusTypeDef status = HAL_OK;
 864:Drivers/STM32H7xx_HAL_Driver/Src/stm32h7xx_hal_fdcan.c **** 
 865:Drivers/STM32H7xx_HAL_Driver/Src/stm32h7xx_hal_fdcan.c ****   if (hfdcan->State == HAL_FDCAN_STATE_READY)
 866:Drivers/STM32H7xx_HAL_Driver/Src/stm32h7xx_hal_fdcan.c ****   {
 867:Drivers/STM32H7xx_HAL_Driver/Src/stm32h7xx_hal_fdcan.c ****     switch (CallbackID)
 868:Drivers/STM32H7xx_HAL_Driver/Src/stm32h7xx_hal_fdcan.c ****     {
 869:Drivers/STM32H7xx_HAL_Driver/Src/stm32h7xx_hal_fdcan.c ****       case HAL_FDCAN_TX_FIFO_EMPTY_CB_ID :
 870:Drivers/STM32H7xx_HAL_Driver/Src/stm32h7xx_hal_fdcan.c ****         hfdcan->TxFifoEmptyCallback = HAL_FDCAN_TxFifoEmptyCallback;
 871:Drivers/STM32H7xx_HAL_Driver/Src/stm32h7xx_hal_fdcan.c ****         break;
 872:Drivers/STM32H7xx_HAL_Driver/Src/stm32h7xx_hal_fdcan.c **** 
 873:Drivers/STM32H7xx_HAL_Driver/Src/stm32h7xx_hal_fdcan.c ****       case HAL_FDCAN_RX_BUFFER_NEW_MSG_CB_ID :
 874:Drivers/STM32H7xx_HAL_Driver/Src/stm32h7xx_hal_fdcan.c ****         hfdcan->RxBufferNewMessageCallback = HAL_FDCAN_RxBufferNewMessageCallback;
 875:Drivers/STM32H7xx_HAL_Driver/Src/stm32h7xx_hal_fdcan.c ****         break;
ARM GAS  C:\Users\Su\AppData\Local\Temp\ccsFXyek.s 			page 34


 876:Drivers/STM32H7xx_HAL_Driver/Src/stm32h7xx_hal_fdcan.c **** 
 877:Drivers/STM32H7xx_HAL_Driver/Src/stm32h7xx_hal_fdcan.c ****       case HAL_FDCAN_HIGH_PRIO_MESSAGE_CB_ID :
 878:Drivers/STM32H7xx_HAL_Driver/Src/stm32h7xx_hal_fdcan.c ****         hfdcan->HighPriorityMessageCallback = HAL_FDCAN_HighPriorityMessageCallback;
 879:Drivers/STM32H7xx_HAL_Driver/Src/stm32h7xx_hal_fdcan.c ****         break;
 880:Drivers/STM32H7xx_HAL_Driver/Src/stm32h7xx_hal_fdcan.c **** 
 881:Drivers/STM32H7xx_HAL_Driver/Src/stm32h7xx_hal_fdcan.c ****       case HAL_FDCAN_TIMESTAMP_WRAPAROUND_CB_ID :
 882:Drivers/STM32H7xx_HAL_Driver/Src/stm32h7xx_hal_fdcan.c ****         hfdcan->TimestampWraparoundCallback = HAL_FDCAN_TimestampWraparoundCallback;
 883:Drivers/STM32H7xx_HAL_Driver/Src/stm32h7xx_hal_fdcan.c ****         break;
 884:Drivers/STM32H7xx_HAL_Driver/Src/stm32h7xx_hal_fdcan.c **** 
 885:Drivers/STM32H7xx_HAL_Driver/Src/stm32h7xx_hal_fdcan.c ****       case HAL_FDCAN_TIMEOUT_OCCURRED_CB_ID :
 886:Drivers/STM32H7xx_HAL_Driver/Src/stm32h7xx_hal_fdcan.c ****         hfdcan->TimeoutOccurredCallback = HAL_FDCAN_TimeoutOccurredCallback;
 887:Drivers/STM32H7xx_HAL_Driver/Src/stm32h7xx_hal_fdcan.c ****         break;
 888:Drivers/STM32H7xx_HAL_Driver/Src/stm32h7xx_hal_fdcan.c **** 
 889:Drivers/STM32H7xx_HAL_Driver/Src/stm32h7xx_hal_fdcan.c ****       case HAL_FDCAN_ERROR_CALLBACK_CB_ID :
 890:Drivers/STM32H7xx_HAL_Driver/Src/stm32h7xx_hal_fdcan.c ****         hfdcan->ErrorCallback = HAL_FDCAN_ErrorCallback;
 891:Drivers/STM32H7xx_HAL_Driver/Src/stm32h7xx_hal_fdcan.c ****         break;
 892:Drivers/STM32H7xx_HAL_Driver/Src/stm32h7xx_hal_fdcan.c **** 
 893:Drivers/STM32H7xx_HAL_Driver/Src/stm32h7xx_hal_fdcan.c ****       case HAL_FDCAN_MSPINIT_CB_ID :
 894:Drivers/STM32H7xx_HAL_Driver/Src/stm32h7xx_hal_fdcan.c ****         hfdcan->MspInitCallback = HAL_FDCAN_MspInit;
 895:Drivers/STM32H7xx_HAL_Driver/Src/stm32h7xx_hal_fdcan.c ****         break;
 896:Drivers/STM32H7xx_HAL_Driver/Src/stm32h7xx_hal_fdcan.c **** 
 897:Drivers/STM32H7xx_HAL_Driver/Src/stm32h7xx_hal_fdcan.c ****       case HAL_FDCAN_MSPDEINIT_CB_ID :
 898:Drivers/STM32H7xx_HAL_Driver/Src/stm32h7xx_hal_fdcan.c ****         hfdcan->MspDeInitCallback = HAL_FDCAN_MspDeInit;
 899:Drivers/STM32H7xx_HAL_Driver/Src/stm32h7xx_hal_fdcan.c ****         break;
 900:Drivers/STM32H7xx_HAL_Driver/Src/stm32h7xx_hal_fdcan.c **** 
 901:Drivers/STM32H7xx_HAL_Driver/Src/stm32h7xx_hal_fdcan.c ****       default :
 902:Drivers/STM32H7xx_HAL_Driver/Src/stm32h7xx_hal_fdcan.c ****         /* Update the error code */
 903:Drivers/STM32H7xx_HAL_Driver/Src/stm32h7xx_hal_fdcan.c ****         hfdcan->ErrorCode |= HAL_FDCAN_ERROR_INVALID_CALLBACK;
 904:Drivers/STM32H7xx_HAL_Driver/Src/stm32h7xx_hal_fdcan.c **** 
 905:Drivers/STM32H7xx_HAL_Driver/Src/stm32h7xx_hal_fdcan.c ****         /* Return error status */
 906:Drivers/STM32H7xx_HAL_Driver/Src/stm32h7xx_hal_fdcan.c ****         status =  HAL_ERROR;
 907:Drivers/STM32H7xx_HAL_Driver/Src/stm32h7xx_hal_fdcan.c ****         break;
 908:Drivers/STM32H7xx_HAL_Driver/Src/stm32h7xx_hal_fdcan.c ****     }
 909:Drivers/STM32H7xx_HAL_Driver/Src/stm32h7xx_hal_fdcan.c ****   }
 910:Drivers/STM32H7xx_HAL_Driver/Src/stm32h7xx_hal_fdcan.c ****   else if (hfdcan->State == HAL_FDCAN_STATE_RESET)
 911:Drivers/STM32H7xx_HAL_Driver/Src/stm32h7xx_hal_fdcan.c ****   {
 912:Drivers/STM32H7xx_HAL_Driver/Src/stm32h7xx_hal_fdcan.c ****     switch (CallbackID)
 913:Drivers/STM32H7xx_HAL_Driver/Src/stm32h7xx_hal_fdcan.c ****     {
 914:Drivers/STM32H7xx_HAL_Driver/Src/stm32h7xx_hal_fdcan.c ****       case HAL_FDCAN_MSPINIT_CB_ID :
 915:Drivers/STM32H7xx_HAL_Driver/Src/stm32h7xx_hal_fdcan.c ****         hfdcan->MspInitCallback = HAL_FDCAN_MspInit;
 916:Drivers/STM32H7xx_HAL_Driver/Src/stm32h7xx_hal_fdcan.c ****         break;
 917:Drivers/STM32H7xx_HAL_Driver/Src/stm32h7xx_hal_fdcan.c **** 
 918:Drivers/STM32H7xx_HAL_Driver/Src/stm32h7xx_hal_fdcan.c ****       case HAL_FDCAN_MSPDEINIT_CB_ID :
 919:Drivers/STM32H7xx_HAL_Driver/Src/stm32h7xx_hal_fdcan.c ****         hfdcan->MspDeInitCallback = HAL_FDCAN_MspDeInit;
 920:Drivers/STM32H7xx_HAL_Driver/Src/stm32h7xx_hal_fdcan.c ****         break;
 921:Drivers/STM32H7xx_HAL_Driver/Src/stm32h7xx_hal_fdcan.c **** 
 922:Drivers/STM32H7xx_HAL_Driver/Src/stm32h7xx_hal_fdcan.c ****       default :
 923:Drivers/STM32H7xx_HAL_Driver/Src/stm32h7xx_hal_fdcan.c ****         /* Update the error code */
 924:Drivers/STM32H7xx_HAL_Driver/Src/stm32h7xx_hal_fdcan.c ****         hfdcan->ErrorCode |= HAL_FDCAN_ERROR_INVALID_CALLBACK;
 925:Drivers/STM32H7xx_HAL_Driver/Src/stm32h7xx_hal_fdcan.c **** 
 926:Drivers/STM32H7xx_HAL_Driver/Src/stm32h7xx_hal_fdcan.c ****         /* Return error status */
 927:Drivers/STM32H7xx_HAL_Driver/Src/stm32h7xx_hal_fdcan.c ****         status =  HAL_ERROR;
 928:Drivers/STM32H7xx_HAL_Driver/Src/stm32h7xx_hal_fdcan.c ****         break;
 929:Drivers/STM32H7xx_HAL_Driver/Src/stm32h7xx_hal_fdcan.c ****     }
 930:Drivers/STM32H7xx_HAL_Driver/Src/stm32h7xx_hal_fdcan.c ****   }
 931:Drivers/STM32H7xx_HAL_Driver/Src/stm32h7xx_hal_fdcan.c ****   else
 932:Drivers/STM32H7xx_HAL_Driver/Src/stm32h7xx_hal_fdcan.c ****   {
ARM GAS  C:\Users\Su\AppData\Local\Temp\ccsFXyek.s 			page 35


 933:Drivers/STM32H7xx_HAL_Driver/Src/stm32h7xx_hal_fdcan.c ****     /* Update the error code */
 934:Drivers/STM32H7xx_HAL_Driver/Src/stm32h7xx_hal_fdcan.c ****     hfdcan->ErrorCode |= HAL_FDCAN_ERROR_INVALID_CALLBACK;
 935:Drivers/STM32H7xx_HAL_Driver/Src/stm32h7xx_hal_fdcan.c **** 
 936:Drivers/STM32H7xx_HAL_Driver/Src/stm32h7xx_hal_fdcan.c ****     /* Return error status */
 937:Drivers/STM32H7xx_HAL_Driver/Src/stm32h7xx_hal_fdcan.c ****     status =  HAL_ERROR;
 938:Drivers/STM32H7xx_HAL_Driver/Src/stm32h7xx_hal_fdcan.c ****   }
 939:Drivers/STM32H7xx_HAL_Driver/Src/stm32h7xx_hal_fdcan.c **** 
 940:Drivers/STM32H7xx_HAL_Driver/Src/stm32h7xx_hal_fdcan.c ****   return status;
 941:Drivers/STM32H7xx_HAL_Driver/Src/stm32h7xx_hal_fdcan.c **** }
 942:Drivers/STM32H7xx_HAL_Driver/Src/stm32h7xx_hal_fdcan.c **** 
 943:Drivers/STM32H7xx_HAL_Driver/Src/stm32h7xx_hal_fdcan.c **** /**
 944:Drivers/STM32H7xx_HAL_Driver/Src/stm32h7xx_hal_fdcan.c ****   * @brief  Register Clock Calibration FDCAN Callback
 945:Drivers/STM32H7xx_HAL_Driver/Src/stm32h7xx_hal_fdcan.c ****   *         To be used instead of the weak HAL_FDCAN_ClockCalibrationCallback() predefined callback
 946:Drivers/STM32H7xx_HAL_Driver/Src/stm32h7xx_hal_fdcan.c ****   * @param  hfdcan FDCAN handle
 947:Drivers/STM32H7xx_HAL_Driver/Src/stm32h7xx_hal_fdcan.c ****   * @param  pCallback pointer to the Clock Calibration Callback function
 948:Drivers/STM32H7xx_HAL_Driver/Src/stm32h7xx_hal_fdcan.c ****   * @retval HAL status
 949:Drivers/STM32H7xx_HAL_Driver/Src/stm32h7xx_hal_fdcan.c ****   */
 950:Drivers/STM32H7xx_HAL_Driver/Src/stm32h7xx_hal_fdcan.c **** HAL_StatusTypeDef HAL_FDCAN_RegisterClockCalibrationCallback(FDCAN_HandleTypeDef *hfdcan, pFDCAN_Cl
 951:Drivers/STM32H7xx_HAL_Driver/Src/stm32h7xx_hal_fdcan.c **** {
 952:Drivers/STM32H7xx_HAL_Driver/Src/stm32h7xx_hal_fdcan.c ****   HAL_StatusTypeDef status = HAL_OK;
 953:Drivers/STM32H7xx_HAL_Driver/Src/stm32h7xx_hal_fdcan.c **** 
 954:Drivers/STM32H7xx_HAL_Driver/Src/stm32h7xx_hal_fdcan.c ****   if (pCallback == NULL)
 955:Drivers/STM32H7xx_HAL_Driver/Src/stm32h7xx_hal_fdcan.c ****   {
 956:Drivers/STM32H7xx_HAL_Driver/Src/stm32h7xx_hal_fdcan.c ****     /* Update the error code */
 957:Drivers/STM32H7xx_HAL_Driver/Src/stm32h7xx_hal_fdcan.c ****     hfdcan->ErrorCode |= HAL_FDCAN_ERROR_INVALID_CALLBACK;
 958:Drivers/STM32H7xx_HAL_Driver/Src/stm32h7xx_hal_fdcan.c ****     return HAL_ERROR;
 959:Drivers/STM32H7xx_HAL_Driver/Src/stm32h7xx_hal_fdcan.c ****   }
 960:Drivers/STM32H7xx_HAL_Driver/Src/stm32h7xx_hal_fdcan.c **** 
 961:Drivers/STM32H7xx_HAL_Driver/Src/stm32h7xx_hal_fdcan.c ****   if (hfdcan->State == HAL_FDCAN_STATE_READY)
 962:Drivers/STM32H7xx_HAL_Driver/Src/stm32h7xx_hal_fdcan.c ****   {
 963:Drivers/STM32H7xx_HAL_Driver/Src/stm32h7xx_hal_fdcan.c ****     hfdcan->ClockCalibrationCallback = pCallback;
 964:Drivers/STM32H7xx_HAL_Driver/Src/stm32h7xx_hal_fdcan.c ****   }
 965:Drivers/STM32H7xx_HAL_Driver/Src/stm32h7xx_hal_fdcan.c ****   else
 966:Drivers/STM32H7xx_HAL_Driver/Src/stm32h7xx_hal_fdcan.c ****   {
 967:Drivers/STM32H7xx_HAL_Driver/Src/stm32h7xx_hal_fdcan.c ****     /* Update the error code */
 968:Drivers/STM32H7xx_HAL_Driver/Src/stm32h7xx_hal_fdcan.c ****     hfdcan->ErrorCode |= HAL_FDCAN_ERROR_INVALID_CALLBACK;
 969:Drivers/STM32H7xx_HAL_Driver/Src/stm32h7xx_hal_fdcan.c **** 
 970:Drivers/STM32H7xx_HAL_Driver/Src/stm32h7xx_hal_fdcan.c ****     /* Return error status */
 971:Drivers/STM32H7xx_HAL_Driver/Src/stm32h7xx_hal_fdcan.c ****     status =  HAL_ERROR;
 972:Drivers/STM32H7xx_HAL_Driver/Src/stm32h7xx_hal_fdcan.c ****   }
 973:Drivers/STM32H7xx_HAL_Driver/Src/stm32h7xx_hal_fdcan.c **** 
 974:Drivers/STM32H7xx_HAL_Driver/Src/stm32h7xx_hal_fdcan.c ****   return status;
 975:Drivers/STM32H7xx_HAL_Driver/Src/stm32h7xx_hal_fdcan.c **** }
 976:Drivers/STM32H7xx_HAL_Driver/Src/stm32h7xx_hal_fdcan.c **** 
 977:Drivers/STM32H7xx_HAL_Driver/Src/stm32h7xx_hal_fdcan.c **** /**
 978:Drivers/STM32H7xx_HAL_Driver/Src/stm32h7xx_hal_fdcan.c ****   * @brief  UnRegister the Clock Calibration FDCAN Callback
 979:Drivers/STM32H7xx_HAL_Driver/Src/stm32h7xx_hal_fdcan.c ****   *         Clock Calibration FDCAN Callback is redirected to the weak HAL_FDCAN_ClockCalibrationCa
 980:Drivers/STM32H7xx_HAL_Driver/Src/stm32h7xx_hal_fdcan.c ****   * @param  hfdcan FDCAN handle
 981:Drivers/STM32H7xx_HAL_Driver/Src/stm32h7xx_hal_fdcan.c ****   * @retval HAL status
 982:Drivers/STM32H7xx_HAL_Driver/Src/stm32h7xx_hal_fdcan.c ****   */
 983:Drivers/STM32H7xx_HAL_Driver/Src/stm32h7xx_hal_fdcan.c **** HAL_StatusTypeDef HAL_FDCAN_UnRegisterClockCalibrationCallback(FDCAN_HandleTypeDef *hfdcan)
 984:Drivers/STM32H7xx_HAL_Driver/Src/stm32h7xx_hal_fdcan.c **** {
 985:Drivers/STM32H7xx_HAL_Driver/Src/stm32h7xx_hal_fdcan.c ****   HAL_StatusTypeDef status = HAL_OK;
 986:Drivers/STM32H7xx_HAL_Driver/Src/stm32h7xx_hal_fdcan.c **** 
 987:Drivers/STM32H7xx_HAL_Driver/Src/stm32h7xx_hal_fdcan.c ****   if (hfdcan->State == HAL_FDCAN_STATE_READY)
 988:Drivers/STM32H7xx_HAL_Driver/Src/stm32h7xx_hal_fdcan.c ****   {
 989:Drivers/STM32H7xx_HAL_Driver/Src/stm32h7xx_hal_fdcan.c ****     hfdcan->ClockCalibrationCallback = HAL_FDCAN_ClockCalibrationCallback; /* Legacy weak ClockCali
ARM GAS  C:\Users\Su\AppData\Local\Temp\ccsFXyek.s 			page 36


 990:Drivers/STM32H7xx_HAL_Driver/Src/stm32h7xx_hal_fdcan.c ****   }
 991:Drivers/STM32H7xx_HAL_Driver/Src/stm32h7xx_hal_fdcan.c ****   else
 992:Drivers/STM32H7xx_HAL_Driver/Src/stm32h7xx_hal_fdcan.c ****   {
 993:Drivers/STM32H7xx_HAL_Driver/Src/stm32h7xx_hal_fdcan.c ****     /* Update the error code */
 994:Drivers/STM32H7xx_HAL_Driver/Src/stm32h7xx_hal_fdcan.c ****     hfdcan->ErrorCode |= HAL_FDCAN_ERROR_INVALID_CALLBACK;
 995:Drivers/STM32H7xx_HAL_Driver/Src/stm32h7xx_hal_fdcan.c **** 
 996:Drivers/STM32H7xx_HAL_Driver/Src/stm32h7xx_hal_fdcan.c ****     /* Return error status */
 997:Drivers/STM32H7xx_HAL_Driver/Src/stm32h7xx_hal_fdcan.c ****     status =  HAL_ERROR;
 998:Drivers/STM32H7xx_HAL_Driver/Src/stm32h7xx_hal_fdcan.c ****   }
 999:Drivers/STM32H7xx_HAL_Driver/Src/stm32h7xx_hal_fdcan.c **** 
1000:Drivers/STM32H7xx_HAL_Driver/Src/stm32h7xx_hal_fdcan.c ****   return status;
1001:Drivers/STM32H7xx_HAL_Driver/Src/stm32h7xx_hal_fdcan.c **** }
1002:Drivers/STM32H7xx_HAL_Driver/Src/stm32h7xx_hal_fdcan.c **** 
1003:Drivers/STM32H7xx_HAL_Driver/Src/stm32h7xx_hal_fdcan.c **** /**
1004:Drivers/STM32H7xx_HAL_Driver/Src/stm32h7xx_hal_fdcan.c ****   * @brief  Register Tx Event Fifo FDCAN Callback
1005:Drivers/STM32H7xx_HAL_Driver/Src/stm32h7xx_hal_fdcan.c ****   *         To be used instead of the weak HAL_FDCAN_TxEventFifoCallback() predefined callback
1006:Drivers/STM32H7xx_HAL_Driver/Src/stm32h7xx_hal_fdcan.c ****   * @param  hfdcan FDCAN handle
1007:Drivers/STM32H7xx_HAL_Driver/Src/stm32h7xx_hal_fdcan.c ****   * @param  pCallback pointer to the Tx Event Fifo Callback function
1008:Drivers/STM32H7xx_HAL_Driver/Src/stm32h7xx_hal_fdcan.c ****   * @retval HAL status
1009:Drivers/STM32H7xx_HAL_Driver/Src/stm32h7xx_hal_fdcan.c ****   */
1010:Drivers/STM32H7xx_HAL_Driver/Src/stm32h7xx_hal_fdcan.c **** HAL_StatusTypeDef HAL_FDCAN_RegisterTxEventFifoCallback(FDCAN_HandleTypeDef *hfdcan, pFDCAN_TxEvent
1011:Drivers/STM32H7xx_HAL_Driver/Src/stm32h7xx_hal_fdcan.c **** {
1012:Drivers/STM32H7xx_HAL_Driver/Src/stm32h7xx_hal_fdcan.c ****   HAL_StatusTypeDef status = HAL_OK;
1013:Drivers/STM32H7xx_HAL_Driver/Src/stm32h7xx_hal_fdcan.c **** 
1014:Drivers/STM32H7xx_HAL_Driver/Src/stm32h7xx_hal_fdcan.c ****   if (pCallback == NULL)
1015:Drivers/STM32H7xx_HAL_Driver/Src/stm32h7xx_hal_fdcan.c ****   {
1016:Drivers/STM32H7xx_HAL_Driver/Src/stm32h7xx_hal_fdcan.c ****     /* Update the error code */
1017:Drivers/STM32H7xx_HAL_Driver/Src/stm32h7xx_hal_fdcan.c ****     hfdcan->ErrorCode |= HAL_FDCAN_ERROR_INVALID_CALLBACK;
1018:Drivers/STM32H7xx_HAL_Driver/Src/stm32h7xx_hal_fdcan.c ****     return HAL_ERROR;
1019:Drivers/STM32H7xx_HAL_Driver/Src/stm32h7xx_hal_fdcan.c ****   }
1020:Drivers/STM32H7xx_HAL_Driver/Src/stm32h7xx_hal_fdcan.c **** 
1021:Drivers/STM32H7xx_HAL_Driver/Src/stm32h7xx_hal_fdcan.c ****   if (hfdcan->State == HAL_FDCAN_STATE_READY)
1022:Drivers/STM32H7xx_HAL_Driver/Src/stm32h7xx_hal_fdcan.c ****   {
1023:Drivers/STM32H7xx_HAL_Driver/Src/stm32h7xx_hal_fdcan.c ****     hfdcan->TxEventFifoCallback = pCallback;
1024:Drivers/STM32H7xx_HAL_Driver/Src/stm32h7xx_hal_fdcan.c ****   }
1025:Drivers/STM32H7xx_HAL_Driver/Src/stm32h7xx_hal_fdcan.c ****   else
1026:Drivers/STM32H7xx_HAL_Driver/Src/stm32h7xx_hal_fdcan.c ****   {
1027:Drivers/STM32H7xx_HAL_Driver/Src/stm32h7xx_hal_fdcan.c ****     /* Update the error code */
1028:Drivers/STM32H7xx_HAL_Driver/Src/stm32h7xx_hal_fdcan.c ****     hfdcan->ErrorCode |= HAL_FDCAN_ERROR_INVALID_CALLBACK;
1029:Drivers/STM32H7xx_HAL_Driver/Src/stm32h7xx_hal_fdcan.c **** 
1030:Drivers/STM32H7xx_HAL_Driver/Src/stm32h7xx_hal_fdcan.c ****     /* Return error status */
1031:Drivers/STM32H7xx_HAL_Driver/Src/stm32h7xx_hal_fdcan.c ****     status =  HAL_ERROR;
1032:Drivers/STM32H7xx_HAL_Driver/Src/stm32h7xx_hal_fdcan.c ****   }
1033:Drivers/STM32H7xx_HAL_Driver/Src/stm32h7xx_hal_fdcan.c **** 
1034:Drivers/STM32H7xx_HAL_Driver/Src/stm32h7xx_hal_fdcan.c ****   return status;
1035:Drivers/STM32H7xx_HAL_Driver/Src/stm32h7xx_hal_fdcan.c **** }
1036:Drivers/STM32H7xx_HAL_Driver/Src/stm32h7xx_hal_fdcan.c **** 
1037:Drivers/STM32H7xx_HAL_Driver/Src/stm32h7xx_hal_fdcan.c **** /**
1038:Drivers/STM32H7xx_HAL_Driver/Src/stm32h7xx_hal_fdcan.c ****   * @brief  UnRegister the Tx Event Fifo FDCAN Callback
1039:Drivers/STM32H7xx_HAL_Driver/Src/stm32h7xx_hal_fdcan.c ****   *         Tx Event Fifo FDCAN Callback is redirected to the weak HAL_FDCAN_TxEventFifoCallback() 
1040:Drivers/STM32H7xx_HAL_Driver/Src/stm32h7xx_hal_fdcan.c ****   * @param  hfdcan FDCAN handle
1041:Drivers/STM32H7xx_HAL_Driver/Src/stm32h7xx_hal_fdcan.c ****   * @retval HAL status
1042:Drivers/STM32H7xx_HAL_Driver/Src/stm32h7xx_hal_fdcan.c ****   */
1043:Drivers/STM32H7xx_HAL_Driver/Src/stm32h7xx_hal_fdcan.c **** HAL_StatusTypeDef HAL_FDCAN_UnRegisterTxEventFifoCallback(FDCAN_HandleTypeDef *hfdcan)
1044:Drivers/STM32H7xx_HAL_Driver/Src/stm32h7xx_hal_fdcan.c **** {
1045:Drivers/STM32H7xx_HAL_Driver/Src/stm32h7xx_hal_fdcan.c ****   HAL_StatusTypeDef status = HAL_OK;
1046:Drivers/STM32H7xx_HAL_Driver/Src/stm32h7xx_hal_fdcan.c **** 
ARM GAS  C:\Users\Su\AppData\Local\Temp\ccsFXyek.s 			page 37


1047:Drivers/STM32H7xx_HAL_Driver/Src/stm32h7xx_hal_fdcan.c ****   if (hfdcan->State == HAL_FDCAN_STATE_READY)
1048:Drivers/STM32H7xx_HAL_Driver/Src/stm32h7xx_hal_fdcan.c ****   {
1049:Drivers/STM32H7xx_HAL_Driver/Src/stm32h7xx_hal_fdcan.c ****     hfdcan->TxEventFifoCallback = HAL_FDCAN_TxEventFifoCallback; /* Legacy weak TxEventFifoCallback
1050:Drivers/STM32H7xx_HAL_Driver/Src/stm32h7xx_hal_fdcan.c ****   }
1051:Drivers/STM32H7xx_HAL_Driver/Src/stm32h7xx_hal_fdcan.c ****   else
1052:Drivers/STM32H7xx_HAL_Driver/Src/stm32h7xx_hal_fdcan.c ****   {
1053:Drivers/STM32H7xx_HAL_Driver/Src/stm32h7xx_hal_fdcan.c ****     /* Update the error code */
1054:Drivers/STM32H7xx_HAL_Driver/Src/stm32h7xx_hal_fdcan.c ****     hfdcan->ErrorCode |= HAL_FDCAN_ERROR_INVALID_CALLBACK;
1055:Drivers/STM32H7xx_HAL_Driver/Src/stm32h7xx_hal_fdcan.c **** 
1056:Drivers/STM32H7xx_HAL_Driver/Src/stm32h7xx_hal_fdcan.c ****     /* Return error status */
1057:Drivers/STM32H7xx_HAL_Driver/Src/stm32h7xx_hal_fdcan.c ****     status =  HAL_ERROR;
1058:Drivers/STM32H7xx_HAL_Driver/Src/stm32h7xx_hal_fdcan.c ****   }
1059:Drivers/STM32H7xx_HAL_Driver/Src/stm32h7xx_hal_fdcan.c **** 
1060:Drivers/STM32H7xx_HAL_Driver/Src/stm32h7xx_hal_fdcan.c ****   return status;
1061:Drivers/STM32H7xx_HAL_Driver/Src/stm32h7xx_hal_fdcan.c **** }
1062:Drivers/STM32H7xx_HAL_Driver/Src/stm32h7xx_hal_fdcan.c **** 
1063:Drivers/STM32H7xx_HAL_Driver/Src/stm32h7xx_hal_fdcan.c **** /**
1064:Drivers/STM32H7xx_HAL_Driver/Src/stm32h7xx_hal_fdcan.c ****   * @brief  Register Rx Fifo 0 FDCAN Callback
1065:Drivers/STM32H7xx_HAL_Driver/Src/stm32h7xx_hal_fdcan.c ****   *         To be used instead of the weak HAL_FDCAN_RxFifo0Callback() predefined callback
1066:Drivers/STM32H7xx_HAL_Driver/Src/stm32h7xx_hal_fdcan.c ****   * @param  hfdcan FDCAN handle
1067:Drivers/STM32H7xx_HAL_Driver/Src/stm32h7xx_hal_fdcan.c ****   * @param  pCallback pointer to the Rx Fifo 0 Callback function
1068:Drivers/STM32H7xx_HAL_Driver/Src/stm32h7xx_hal_fdcan.c ****   * @retval HAL status
1069:Drivers/STM32H7xx_HAL_Driver/Src/stm32h7xx_hal_fdcan.c ****   */
1070:Drivers/STM32H7xx_HAL_Driver/Src/stm32h7xx_hal_fdcan.c **** HAL_StatusTypeDef HAL_FDCAN_RegisterRxFifo0Callback(FDCAN_HandleTypeDef *hfdcan, pFDCAN_RxFifo0Call
1071:Drivers/STM32H7xx_HAL_Driver/Src/stm32h7xx_hal_fdcan.c **** {
1072:Drivers/STM32H7xx_HAL_Driver/Src/stm32h7xx_hal_fdcan.c ****   HAL_StatusTypeDef status = HAL_OK;
1073:Drivers/STM32H7xx_HAL_Driver/Src/stm32h7xx_hal_fdcan.c **** 
1074:Drivers/STM32H7xx_HAL_Driver/Src/stm32h7xx_hal_fdcan.c ****   if (pCallback == NULL)
1075:Drivers/STM32H7xx_HAL_Driver/Src/stm32h7xx_hal_fdcan.c ****   {
1076:Drivers/STM32H7xx_HAL_Driver/Src/stm32h7xx_hal_fdcan.c ****     /* Update the error code */
1077:Drivers/STM32H7xx_HAL_Driver/Src/stm32h7xx_hal_fdcan.c ****     hfdcan->ErrorCode |= HAL_FDCAN_ERROR_INVALID_CALLBACK;
1078:Drivers/STM32H7xx_HAL_Driver/Src/stm32h7xx_hal_fdcan.c ****     return HAL_ERROR;
1079:Drivers/STM32H7xx_HAL_Driver/Src/stm32h7xx_hal_fdcan.c ****   }
1080:Drivers/STM32H7xx_HAL_Driver/Src/stm32h7xx_hal_fdcan.c **** 
1081:Drivers/STM32H7xx_HAL_Driver/Src/stm32h7xx_hal_fdcan.c ****   if (hfdcan->State == HAL_FDCAN_STATE_READY)
1082:Drivers/STM32H7xx_HAL_Driver/Src/stm32h7xx_hal_fdcan.c ****   {
1083:Drivers/STM32H7xx_HAL_Driver/Src/stm32h7xx_hal_fdcan.c ****     hfdcan->RxFifo0Callback = pCallback;
1084:Drivers/STM32H7xx_HAL_Driver/Src/stm32h7xx_hal_fdcan.c ****   }
1085:Drivers/STM32H7xx_HAL_Driver/Src/stm32h7xx_hal_fdcan.c ****   else
1086:Drivers/STM32H7xx_HAL_Driver/Src/stm32h7xx_hal_fdcan.c ****   {
1087:Drivers/STM32H7xx_HAL_Driver/Src/stm32h7xx_hal_fdcan.c ****     /* Update the error code */
1088:Drivers/STM32H7xx_HAL_Driver/Src/stm32h7xx_hal_fdcan.c ****     hfdcan->ErrorCode |= HAL_FDCAN_ERROR_INVALID_CALLBACK;
1089:Drivers/STM32H7xx_HAL_Driver/Src/stm32h7xx_hal_fdcan.c **** 
1090:Drivers/STM32H7xx_HAL_Driver/Src/stm32h7xx_hal_fdcan.c ****     /* Return error status */
1091:Drivers/STM32H7xx_HAL_Driver/Src/stm32h7xx_hal_fdcan.c ****     status =  HAL_ERROR;
1092:Drivers/STM32H7xx_HAL_Driver/Src/stm32h7xx_hal_fdcan.c ****   }
1093:Drivers/STM32H7xx_HAL_Driver/Src/stm32h7xx_hal_fdcan.c **** 
1094:Drivers/STM32H7xx_HAL_Driver/Src/stm32h7xx_hal_fdcan.c ****   return status;
1095:Drivers/STM32H7xx_HAL_Driver/Src/stm32h7xx_hal_fdcan.c **** }
1096:Drivers/STM32H7xx_HAL_Driver/Src/stm32h7xx_hal_fdcan.c **** 
1097:Drivers/STM32H7xx_HAL_Driver/Src/stm32h7xx_hal_fdcan.c **** /**
1098:Drivers/STM32H7xx_HAL_Driver/Src/stm32h7xx_hal_fdcan.c ****   * @brief  UnRegister the Rx Fifo 0 FDCAN Callback
1099:Drivers/STM32H7xx_HAL_Driver/Src/stm32h7xx_hal_fdcan.c ****   *         Rx Fifo 0 FDCAN Callback is redirected to the weak HAL_FDCAN_RxFifo0Callback() predefin
1100:Drivers/STM32H7xx_HAL_Driver/Src/stm32h7xx_hal_fdcan.c ****   * @param  hfdcan FDCAN handle
1101:Drivers/STM32H7xx_HAL_Driver/Src/stm32h7xx_hal_fdcan.c ****   * @retval HAL status
1102:Drivers/STM32H7xx_HAL_Driver/Src/stm32h7xx_hal_fdcan.c ****   */
1103:Drivers/STM32H7xx_HAL_Driver/Src/stm32h7xx_hal_fdcan.c **** HAL_StatusTypeDef HAL_FDCAN_UnRegisterRxFifo0Callback(FDCAN_HandleTypeDef *hfdcan)
ARM GAS  C:\Users\Su\AppData\Local\Temp\ccsFXyek.s 			page 38


1104:Drivers/STM32H7xx_HAL_Driver/Src/stm32h7xx_hal_fdcan.c **** {
1105:Drivers/STM32H7xx_HAL_Driver/Src/stm32h7xx_hal_fdcan.c ****   HAL_StatusTypeDef status = HAL_OK;
1106:Drivers/STM32H7xx_HAL_Driver/Src/stm32h7xx_hal_fdcan.c **** 
1107:Drivers/STM32H7xx_HAL_Driver/Src/stm32h7xx_hal_fdcan.c ****   if (hfdcan->State == HAL_FDCAN_STATE_READY)
1108:Drivers/STM32H7xx_HAL_Driver/Src/stm32h7xx_hal_fdcan.c ****   {
1109:Drivers/STM32H7xx_HAL_Driver/Src/stm32h7xx_hal_fdcan.c ****     hfdcan->RxFifo0Callback = HAL_FDCAN_RxFifo0Callback; /* Legacy weak RxFifo0Callback  */
1110:Drivers/STM32H7xx_HAL_Driver/Src/stm32h7xx_hal_fdcan.c ****   }
1111:Drivers/STM32H7xx_HAL_Driver/Src/stm32h7xx_hal_fdcan.c ****   else
1112:Drivers/STM32H7xx_HAL_Driver/Src/stm32h7xx_hal_fdcan.c ****   {
1113:Drivers/STM32H7xx_HAL_Driver/Src/stm32h7xx_hal_fdcan.c ****     /* Update the error code */
1114:Drivers/STM32H7xx_HAL_Driver/Src/stm32h7xx_hal_fdcan.c ****     hfdcan->ErrorCode |= HAL_FDCAN_ERROR_INVALID_CALLBACK;
1115:Drivers/STM32H7xx_HAL_Driver/Src/stm32h7xx_hal_fdcan.c **** 
1116:Drivers/STM32H7xx_HAL_Driver/Src/stm32h7xx_hal_fdcan.c ****     /* Return error status */
1117:Drivers/STM32H7xx_HAL_Driver/Src/stm32h7xx_hal_fdcan.c ****     status =  HAL_ERROR;
1118:Drivers/STM32H7xx_HAL_Driver/Src/stm32h7xx_hal_fdcan.c ****   }
1119:Drivers/STM32H7xx_HAL_Driver/Src/stm32h7xx_hal_fdcan.c **** 
1120:Drivers/STM32H7xx_HAL_Driver/Src/stm32h7xx_hal_fdcan.c ****   return status;
1121:Drivers/STM32H7xx_HAL_Driver/Src/stm32h7xx_hal_fdcan.c **** }
1122:Drivers/STM32H7xx_HAL_Driver/Src/stm32h7xx_hal_fdcan.c **** 
1123:Drivers/STM32H7xx_HAL_Driver/Src/stm32h7xx_hal_fdcan.c **** /**
1124:Drivers/STM32H7xx_HAL_Driver/Src/stm32h7xx_hal_fdcan.c ****   * @brief  Register Rx Fifo 1 FDCAN Callback
1125:Drivers/STM32H7xx_HAL_Driver/Src/stm32h7xx_hal_fdcan.c ****   *         To be used instead of the weak HAL_FDCAN_RxFifo1Callback() predefined callback
1126:Drivers/STM32H7xx_HAL_Driver/Src/stm32h7xx_hal_fdcan.c ****   * @param  hfdcan FDCAN handle
1127:Drivers/STM32H7xx_HAL_Driver/Src/stm32h7xx_hal_fdcan.c ****   * @param  pCallback pointer to the Rx Fifo 1 Callback function
1128:Drivers/STM32H7xx_HAL_Driver/Src/stm32h7xx_hal_fdcan.c ****   * @retval HAL status
1129:Drivers/STM32H7xx_HAL_Driver/Src/stm32h7xx_hal_fdcan.c ****   */
1130:Drivers/STM32H7xx_HAL_Driver/Src/stm32h7xx_hal_fdcan.c **** HAL_StatusTypeDef HAL_FDCAN_RegisterRxFifo1Callback(FDCAN_HandleTypeDef *hfdcan, pFDCAN_RxFifo1Call
1131:Drivers/STM32H7xx_HAL_Driver/Src/stm32h7xx_hal_fdcan.c **** {
1132:Drivers/STM32H7xx_HAL_Driver/Src/stm32h7xx_hal_fdcan.c ****   HAL_StatusTypeDef status = HAL_OK;
1133:Drivers/STM32H7xx_HAL_Driver/Src/stm32h7xx_hal_fdcan.c **** 
1134:Drivers/STM32H7xx_HAL_Driver/Src/stm32h7xx_hal_fdcan.c ****   if (pCallback == NULL)
1135:Drivers/STM32H7xx_HAL_Driver/Src/stm32h7xx_hal_fdcan.c ****   {
1136:Drivers/STM32H7xx_HAL_Driver/Src/stm32h7xx_hal_fdcan.c ****     /* Update the error code */
1137:Drivers/STM32H7xx_HAL_Driver/Src/stm32h7xx_hal_fdcan.c ****     hfdcan->ErrorCode |= HAL_FDCAN_ERROR_INVALID_CALLBACK;
1138:Drivers/STM32H7xx_HAL_Driver/Src/stm32h7xx_hal_fdcan.c ****     return HAL_ERROR;
1139:Drivers/STM32H7xx_HAL_Driver/Src/stm32h7xx_hal_fdcan.c ****   }
1140:Drivers/STM32H7xx_HAL_Driver/Src/stm32h7xx_hal_fdcan.c **** 
1141:Drivers/STM32H7xx_HAL_Driver/Src/stm32h7xx_hal_fdcan.c ****   if (hfdcan->State == HAL_FDCAN_STATE_READY)
1142:Drivers/STM32H7xx_HAL_Driver/Src/stm32h7xx_hal_fdcan.c ****   {
1143:Drivers/STM32H7xx_HAL_Driver/Src/stm32h7xx_hal_fdcan.c ****     hfdcan->RxFifo1Callback = pCallback;
1144:Drivers/STM32H7xx_HAL_Driver/Src/stm32h7xx_hal_fdcan.c ****   }
1145:Drivers/STM32H7xx_HAL_Driver/Src/stm32h7xx_hal_fdcan.c ****   else
1146:Drivers/STM32H7xx_HAL_Driver/Src/stm32h7xx_hal_fdcan.c ****   {
1147:Drivers/STM32H7xx_HAL_Driver/Src/stm32h7xx_hal_fdcan.c ****     /* Update the error code */
1148:Drivers/STM32H7xx_HAL_Driver/Src/stm32h7xx_hal_fdcan.c ****     hfdcan->ErrorCode |= HAL_FDCAN_ERROR_INVALID_CALLBACK;
1149:Drivers/STM32H7xx_HAL_Driver/Src/stm32h7xx_hal_fdcan.c **** 
1150:Drivers/STM32H7xx_HAL_Driver/Src/stm32h7xx_hal_fdcan.c ****     /* Return error status */
1151:Drivers/STM32H7xx_HAL_Driver/Src/stm32h7xx_hal_fdcan.c ****     status =  HAL_ERROR;
1152:Drivers/STM32H7xx_HAL_Driver/Src/stm32h7xx_hal_fdcan.c ****   }
1153:Drivers/STM32H7xx_HAL_Driver/Src/stm32h7xx_hal_fdcan.c **** 
1154:Drivers/STM32H7xx_HAL_Driver/Src/stm32h7xx_hal_fdcan.c ****   return status;
1155:Drivers/STM32H7xx_HAL_Driver/Src/stm32h7xx_hal_fdcan.c **** }
1156:Drivers/STM32H7xx_HAL_Driver/Src/stm32h7xx_hal_fdcan.c **** 
1157:Drivers/STM32H7xx_HAL_Driver/Src/stm32h7xx_hal_fdcan.c **** /**
1158:Drivers/STM32H7xx_HAL_Driver/Src/stm32h7xx_hal_fdcan.c ****   * @brief  UnRegister the Rx Fifo 1 FDCAN Callback
1159:Drivers/STM32H7xx_HAL_Driver/Src/stm32h7xx_hal_fdcan.c ****   *         Rx Fifo 1 FDCAN Callback is redirected to the weak HAL_FDCAN_RxFifo1Callback() predefin
1160:Drivers/STM32H7xx_HAL_Driver/Src/stm32h7xx_hal_fdcan.c ****   * @param  hfdcan FDCAN handle
ARM GAS  C:\Users\Su\AppData\Local\Temp\ccsFXyek.s 			page 39


1161:Drivers/STM32H7xx_HAL_Driver/Src/stm32h7xx_hal_fdcan.c ****   * @retval HAL status
1162:Drivers/STM32H7xx_HAL_Driver/Src/stm32h7xx_hal_fdcan.c ****   */
1163:Drivers/STM32H7xx_HAL_Driver/Src/stm32h7xx_hal_fdcan.c **** HAL_StatusTypeDef HAL_FDCAN_UnRegisterRxFifo1Callback(FDCAN_HandleTypeDef *hfdcan)
1164:Drivers/STM32H7xx_HAL_Driver/Src/stm32h7xx_hal_fdcan.c **** {
1165:Drivers/STM32H7xx_HAL_Driver/Src/stm32h7xx_hal_fdcan.c ****   HAL_StatusTypeDef status = HAL_OK;
1166:Drivers/STM32H7xx_HAL_Driver/Src/stm32h7xx_hal_fdcan.c **** 
1167:Drivers/STM32H7xx_HAL_Driver/Src/stm32h7xx_hal_fdcan.c ****   if (hfdcan->State == HAL_FDCAN_STATE_READY)
1168:Drivers/STM32H7xx_HAL_Driver/Src/stm32h7xx_hal_fdcan.c ****   {
1169:Drivers/STM32H7xx_HAL_Driver/Src/stm32h7xx_hal_fdcan.c ****     hfdcan->RxFifo1Callback = HAL_FDCAN_RxFifo1Callback; /* Legacy weak RxFifo1Callback  */
1170:Drivers/STM32H7xx_HAL_Driver/Src/stm32h7xx_hal_fdcan.c ****   }
1171:Drivers/STM32H7xx_HAL_Driver/Src/stm32h7xx_hal_fdcan.c ****   else
1172:Drivers/STM32H7xx_HAL_Driver/Src/stm32h7xx_hal_fdcan.c ****   {
1173:Drivers/STM32H7xx_HAL_Driver/Src/stm32h7xx_hal_fdcan.c ****     /* Update the error code */
1174:Drivers/STM32H7xx_HAL_Driver/Src/stm32h7xx_hal_fdcan.c ****     hfdcan->ErrorCode |= HAL_FDCAN_ERROR_INVALID_CALLBACK;
1175:Drivers/STM32H7xx_HAL_Driver/Src/stm32h7xx_hal_fdcan.c **** 
1176:Drivers/STM32H7xx_HAL_Driver/Src/stm32h7xx_hal_fdcan.c ****     /* Return error status */
1177:Drivers/STM32H7xx_HAL_Driver/Src/stm32h7xx_hal_fdcan.c ****     status =  HAL_ERROR;
1178:Drivers/STM32H7xx_HAL_Driver/Src/stm32h7xx_hal_fdcan.c ****   }
1179:Drivers/STM32H7xx_HAL_Driver/Src/stm32h7xx_hal_fdcan.c **** 
1180:Drivers/STM32H7xx_HAL_Driver/Src/stm32h7xx_hal_fdcan.c ****   return status;
1181:Drivers/STM32H7xx_HAL_Driver/Src/stm32h7xx_hal_fdcan.c **** }
1182:Drivers/STM32H7xx_HAL_Driver/Src/stm32h7xx_hal_fdcan.c **** 
1183:Drivers/STM32H7xx_HAL_Driver/Src/stm32h7xx_hal_fdcan.c **** /**
1184:Drivers/STM32H7xx_HAL_Driver/Src/stm32h7xx_hal_fdcan.c ****   * @brief  Register Tx Buffer Complete FDCAN Callback
1185:Drivers/STM32H7xx_HAL_Driver/Src/stm32h7xx_hal_fdcan.c ****   *         To be used instead of the weak HAL_FDCAN_TxBufferCompleteCallback() predefined callback
1186:Drivers/STM32H7xx_HAL_Driver/Src/stm32h7xx_hal_fdcan.c ****   * @param  hfdcan FDCAN handle
1187:Drivers/STM32H7xx_HAL_Driver/Src/stm32h7xx_hal_fdcan.c ****   * @param  pCallback pointer to the Tx Buffer Complete Callback function
1188:Drivers/STM32H7xx_HAL_Driver/Src/stm32h7xx_hal_fdcan.c ****   * @retval HAL status
1189:Drivers/STM32H7xx_HAL_Driver/Src/stm32h7xx_hal_fdcan.c ****   */
1190:Drivers/STM32H7xx_HAL_Driver/Src/stm32h7xx_hal_fdcan.c **** HAL_StatusTypeDef HAL_FDCAN_RegisterTxBufferCompleteCallback(FDCAN_HandleTypeDef *hfdcan, pFDCAN_Tx
1191:Drivers/STM32H7xx_HAL_Driver/Src/stm32h7xx_hal_fdcan.c **** {
1192:Drivers/STM32H7xx_HAL_Driver/Src/stm32h7xx_hal_fdcan.c ****   HAL_StatusTypeDef status = HAL_OK;
1193:Drivers/STM32H7xx_HAL_Driver/Src/stm32h7xx_hal_fdcan.c **** 
1194:Drivers/STM32H7xx_HAL_Driver/Src/stm32h7xx_hal_fdcan.c ****   if (pCallback == NULL)
1195:Drivers/STM32H7xx_HAL_Driver/Src/stm32h7xx_hal_fdcan.c ****   {
1196:Drivers/STM32H7xx_HAL_Driver/Src/stm32h7xx_hal_fdcan.c ****     /* Update the error code */
1197:Drivers/STM32H7xx_HAL_Driver/Src/stm32h7xx_hal_fdcan.c ****     hfdcan->ErrorCode |= HAL_FDCAN_ERROR_INVALID_CALLBACK;
1198:Drivers/STM32H7xx_HAL_Driver/Src/stm32h7xx_hal_fdcan.c ****     return HAL_ERROR;
1199:Drivers/STM32H7xx_HAL_Driver/Src/stm32h7xx_hal_fdcan.c ****   }
1200:Drivers/STM32H7xx_HAL_Driver/Src/stm32h7xx_hal_fdcan.c **** 
1201:Drivers/STM32H7xx_HAL_Driver/Src/stm32h7xx_hal_fdcan.c ****   if (hfdcan->State == HAL_FDCAN_STATE_READY)
1202:Drivers/STM32H7xx_HAL_Driver/Src/stm32h7xx_hal_fdcan.c ****   {
1203:Drivers/STM32H7xx_HAL_Driver/Src/stm32h7xx_hal_fdcan.c ****     hfdcan->TxBufferCompleteCallback = pCallback;
1204:Drivers/STM32H7xx_HAL_Driver/Src/stm32h7xx_hal_fdcan.c ****   }
1205:Drivers/STM32H7xx_HAL_Driver/Src/stm32h7xx_hal_fdcan.c ****   else
1206:Drivers/STM32H7xx_HAL_Driver/Src/stm32h7xx_hal_fdcan.c ****   {
1207:Drivers/STM32H7xx_HAL_Driver/Src/stm32h7xx_hal_fdcan.c ****     /* Update the error code */
1208:Drivers/STM32H7xx_HAL_Driver/Src/stm32h7xx_hal_fdcan.c ****     hfdcan->ErrorCode |= HAL_FDCAN_ERROR_INVALID_CALLBACK;
1209:Drivers/STM32H7xx_HAL_Driver/Src/stm32h7xx_hal_fdcan.c **** 
1210:Drivers/STM32H7xx_HAL_Driver/Src/stm32h7xx_hal_fdcan.c ****     /* Return error status */
1211:Drivers/STM32H7xx_HAL_Driver/Src/stm32h7xx_hal_fdcan.c ****     status =  HAL_ERROR;
1212:Drivers/STM32H7xx_HAL_Driver/Src/stm32h7xx_hal_fdcan.c ****   }
1213:Drivers/STM32H7xx_HAL_Driver/Src/stm32h7xx_hal_fdcan.c **** 
1214:Drivers/STM32H7xx_HAL_Driver/Src/stm32h7xx_hal_fdcan.c ****   return status;
1215:Drivers/STM32H7xx_HAL_Driver/Src/stm32h7xx_hal_fdcan.c **** }
1216:Drivers/STM32H7xx_HAL_Driver/Src/stm32h7xx_hal_fdcan.c **** 
1217:Drivers/STM32H7xx_HAL_Driver/Src/stm32h7xx_hal_fdcan.c **** /**
ARM GAS  C:\Users\Su\AppData\Local\Temp\ccsFXyek.s 			page 40


1218:Drivers/STM32H7xx_HAL_Driver/Src/stm32h7xx_hal_fdcan.c ****   * @brief  UnRegister the Tx Buffer Complete FDCAN Callback
1219:Drivers/STM32H7xx_HAL_Driver/Src/stm32h7xx_hal_fdcan.c ****   *         Tx Buffer Complete FDCAN Callback is redirected to the weak HAL_FDCAN_TxBufferCompleteC
1220:Drivers/STM32H7xx_HAL_Driver/Src/stm32h7xx_hal_fdcan.c ****   * @param  hfdcan FDCAN handle
1221:Drivers/STM32H7xx_HAL_Driver/Src/stm32h7xx_hal_fdcan.c ****   * @retval HAL status
1222:Drivers/STM32H7xx_HAL_Driver/Src/stm32h7xx_hal_fdcan.c ****   */
1223:Drivers/STM32H7xx_HAL_Driver/Src/stm32h7xx_hal_fdcan.c **** HAL_StatusTypeDef HAL_FDCAN_UnRegisterTxBufferCompleteCallback(FDCAN_HandleTypeDef *hfdcan)
1224:Drivers/STM32H7xx_HAL_Driver/Src/stm32h7xx_hal_fdcan.c **** {
1225:Drivers/STM32H7xx_HAL_Driver/Src/stm32h7xx_hal_fdcan.c ****   HAL_StatusTypeDef status = HAL_OK;
1226:Drivers/STM32H7xx_HAL_Driver/Src/stm32h7xx_hal_fdcan.c **** 
1227:Drivers/STM32H7xx_HAL_Driver/Src/stm32h7xx_hal_fdcan.c ****   if (hfdcan->State == HAL_FDCAN_STATE_READY)
1228:Drivers/STM32H7xx_HAL_Driver/Src/stm32h7xx_hal_fdcan.c ****   {
1229:Drivers/STM32H7xx_HAL_Driver/Src/stm32h7xx_hal_fdcan.c ****     hfdcan->TxBufferCompleteCallback = HAL_FDCAN_TxBufferCompleteCallback; /* Legacy weak TxBufferC
1230:Drivers/STM32H7xx_HAL_Driver/Src/stm32h7xx_hal_fdcan.c ****   }
1231:Drivers/STM32H7xx_HAL_Driver/Src/stm32h7xx_hal_fdcan.c ****   else
1232:Drivers/STM32H7xx_HAL_Driver/Src/stm32h7xx_hal_fdcan.c ****   {
1233:Drivers/STM32H7xx_HAL_Driver/Src/stm32h7xx_hal_fdcan.c ****     /* Update the error code */
1234:Drivers/STM32H7xx_HAL_Driver/Src/stm32h7xx_hal_fdcan.c ****     hfdcan->ErrorCode |= HAL_FDCAN_ERROR_INVALID_CALLBACK;
1235:Drivers/STM32H7xx_HAL_Driver/Src/stm32h7xx_hal_fdcan.c **** 
1236:Drivers/STM32H7xx_HAL_Driver/Src/stm32h7xx_hal_fdcan.c ****     /* Return error status */
1237:Drivers/STM32H7xx_HAL_Driver/Src/stm32h7xx_hal_fdcan.c ****     status =  HAL_ERROR;
1238:Drivers/STM32H7xx_HAL_Driver/Src/stm32h7xx_hal_fdcan.c ****   }
1239:Drivers/STM32H7xx_HAL_Driver/Src/stm32h7xx_hal_fdcan.c **** 
1240:Drivers/STM32H7xx_HAL_Driver/Src/stm32h7xx_hal_fdcan.c ****   return status;
1241:Drivers/STM32H7xx_HAL_Driver/Src/stm32h7xx_hal_fdcan.c **** }
1242:Drivers/STM32H7xx_HAL_Driver/Src/stm32h7xx_hal_fdcan.c **** 
1243:Drivers/STM32H7xx_HAL_Driver/Src/stm32h7xx_hal_fdcan.c **** /**
1244:Drivers/STM32H7xx_HAL_Driver/Src/stm32h7xx_hal_fdcan.c ****   * @brief  Register Tx Buffer Abort FDCAN Callback
1245:Drivers/STM32H7xx_HAL_Driver/Src/stm32h7xx_hal_fdcan.c ****   *         To be used instead of the weak HAL_FDCAN_TxBufferAbortCallback() predefined callback
1246:Drivers/STM32H7xx_HAL_Driver/Src/stm32h7xx_hal_fdcan.c ****   * @param  hfdcan FDCAN handle
1247:Drivers/STM32H7xx_HAL_Driver/Src/stm32h7xx_hal_fdcan.c ****   * @param  pCallback pointer to the Tx Buffer Abort Callback function
1248:Drivers/STM32H7xx_HAL_Driver/Src/stm32h7xx_hal_fdcan.c ****   * @retval HAL status
1249:Drivers/STM32H7xx_HAL_Driver/Src/stm32h7xx_hal_fdcan.c ****   */
1250:Drivers/STM32H7xx_HAL_Driver/Src/stm32h7xx_hal_fdcan.c **** HAL_StatusTypeDef HAL_FDCAN_RegisterTxBufferAbortCallback(FDCAN_HandleTypeDef *hfdcan, pFDCAN_TxBuf
1251:Drivers/STM32H7xx_HAL_Driver/Src/stm32h7xx_hal_fdcan.c **** {
1252:Drivers/STM32H7xx_HAL_Driver/Src/stm32h7xx_hal_fdcan.c ****   HAL_StatusTypeDef status = HAL_OK;
1253:Drivers/STM32H7xx_HAL_Driver/Src/stm32h7xx_hal_fdcan.c **** 
1254:Drivers/STM32H7xx_HAL_Driver/Src/stm32h7xx_hal_fdcan.c ****   if (pCallback == NULL)
1255:Drivers/STM32H7xx_HAL_Driver/Src/stm32h7xx_hal_fdcan.c ****   {
1256:Drivers/STM32H7xx_HAL_Driver/Src/stm32h7xx_hal_fdcan.c ****     /* Update the error code */
1257:Drivers/STM32H7xx_HAL_Driver/Src/stm32h7xx_hal_fdcan.c ****     hfdcan->ErrorCode |= HAL_FDCAN_ERROR_INVALID_CALLBACK;
1258:Drivers/STM32H7xx_HAL_Driver/Src/stm32h7xx_hal_fdcan.c ****     return HAL_ERROR;
1259:Drivers/STM32H7xx_HAL_Driver/Src/stm32h7xx_hal_fdcan.c ****   }
1260:Drivers/STM32H7xx_HAL_Driver/Src/stm32h7xx_hal_fdcan.c **** 
1261:Drivers/STM32H7xx_HAL_Driver/Src/stm32h7xx_hal_fdcan.c ****   if (hfdcan->State == HAL_FDCAN_STATE_READY)
1262:Drivers/STM32H7xx_HAL_Driver/Src/stm32h7xx_hal_fdcan.c ****   {
1263:Drivers/STM32H7xx_HAL_Driver/Src/stm32h7xx_hal_fdcan.c ****     hfdcan->TxBufferAbortCallback = pCallback;
1264:Drivers/STM32H7xx_HAL_Driver/Src/stm32h7xx_hal_fdcan.c ****   }
1265:Drivers/STM32H7xx_HAL_Driver/Src/stm32h7xx_hal_fdcan.c ****   else
1266:Drivers/STM32H7xx_HAL_Driver/Src/stm32h7xx_hal_fdcan.c ****   {
1267:Drivers/STM32H7xx_HAL_Driver/Src/stm32h7xx_hal_fdcan.c ****     /* Update the error code */
1268:Drivers/STM32H7xx_HAL_Driver/Src/stm32h7xx_hal_fdcan.c ****     hfdcan->ErrorCode |= HAL_FDCAN_ERROR_INVALID_CALLBACK;
1269:Drivers/STM32H7xx_HAL_Driver/Src/stm32h7xx_hal_fdcan.c **** 
1270:Drivers/STM32H7xx_HAL_Driver/Src/stm32h7xx_hal_fdcan.c ****     /* Return error status */
1271:Drivers/STM32H7xx_HAL_Driver/Src/stm32h7xx_hal_fdcan.c ****     status =  HAL_ERROR;
1272:Drivers/STM32H7xx_HAL_Driver/Src/stm32h7xx_hal_fdcan.c ****   }
1273:Drivers/STM32H7xx_HAL_Driver/Src/stm32h7xx_hal_fdcan.c **** 
1274:Drivers/STM32H7xx_HAL_Driver/Src/stm32h7xx_hal_fdcan.c ****   return status;
ARM GAS  C:\Users\Su\AppData\Local\Temp\ccsFXyek.s 			page 41


1275:Drivers/STM32H7xx_HAL_Driver/Src/stm32h7xx_hal_fdcan.c **** }
1276:Drivers/STM32H7xx_HAL_Driver/Src/stm32h7xx_hal_fdcan.c **** 
1277:Drivers/STM32H7xx_HAL_Driver/Src/stm32h7xx_hal_fdcan.c **** /**
1278:Drivers/STM32H7xx_HAL_Driver/Src/stm32h7xx_hal_fdcan.c ****   * @brief  UnRegister the Tx Buffer Abort FDCAN Callback
1279:Drivers/STM32H7xx_HAL_Driver/Src/stm32h7xx_hal_fdcan.c ****   *         Tx Buffer Abort FDCAN Callback is redirected to the weak HAL_FDCAN_TxBufferAbortCallbac
1280:Drivers/STM32H7xx_HAL_Driver/Src/stm32h7xx_hal_fdcan.c ****   * @param  hfdcan FDCAN handle
1281:Drivers/STM32H7xx_HAL_Driver/Src/stm32h7xx_hal_fdcan.c ****   * @retval HAL status
1282:Drivers/STM32H7xx_HAL_Driver/Src/stm32h7xx_hal_fdcan.c ****   */
1283:Drivers/STM32H7xx_HAL_Driver/Src/stm32h7xx_hal_fdcan.c **** HAL_StatusTypeDef HAL_FDCAN_UnRegisterTxBufferAbortCallback(FDCAN_HandleTypeDef *hfdcan)
1284:Drivers/STM32H7xx_HAL_Driver/Src/stm32h7xx_hal_fdcan.c **** {
1285:Drivers/STM32H7xx_HAL_Driver/Src/stm32h7xx_hal_fdcan.c ****   HAL_StatusTypeDef status = HAL_OK;
1286:Drivers/STM32H7xx_HAL_Driver/Src/stm32h7xx_hal_fdcan.c **** 
1287:Drivers/STM32H7xx_HAL_Driver/Src/stm32h7xx_hal_fdcan.c ****   if (hfdcan->State == HAL_FDCAN_STATE_READY)
1288:Drivers/STM32H7xx_HAL_Driver/Src/stm32h7xx_hal_fdcan.c ****   {
1289:Drivers/STM32H7xx_HAL_Driver/Src/stm32h7xx_hal_fdcan.c ****     hfdcan->TxBufferAbortCallback = HAL_FDCAN_TxBufferAbortCallback; /* Legacy weak TxBufferAbortCa
1290:Drivers/STM32H7xx_HAL_Driver/Src/stm32h7xx_hal_fdcan.c ****   }
1291:Drivers/STM32H7xx_HAL_Driver/Src/stm32h7xx_hal_fdcan.c ****   else
1292:Drivers/STM32H7xx_HAL_Driver/Src/stm32h7xx_hal_fdcan.c ****   {
1293:Drivers/STM32H7xx_HAL_Driver/Src/stm32h7xx_hal_fdcan.c ****     /* Update the error code */
1294:Drivers/STM32H7xx_HAL_Driver/Src/stm32h7xx_hal_fdcan.c ****     hfdcan->ErrorCode |= HAL_FDCAN_ERROR_INVALID_CALLBACK;
1295:Drivers/STM32H7xx_HAL_Driver/Src/stm32h7xx_hal_fdcan.c **** 
1296:Drivers/STM32H7xx_HAL_Driver/Src/stm32h7xx_hal_fdcan.c ****     /* Return error status */
1297:Drivers/STM32H7xx_HAL_Driver/Src/stm32h7xx_hal_fdcan.c ****     status =  HAL_ERROR;
1298:Drivers/STM32H7xx_HAL_Driver/Src/stm32h7xx_hal_fdcan.c ****   }
1299:Drivers/STM32H7xx_HAL_Driver/Src/stm32h7xx_hal_fdcan.c **** 
1300:Drivers/STM32H7xx_HAL_Driver/Src/stm32h7xx_hal_fdcan.c ****   return status;
1301:Drivers/STM32H7xx_HAL_Driver/Src/stm32h7xx_hal_fdcan.c **** }
1302:Drivers/STM32H7xx_HAL_Driver/Src/stm32h7xx_hal_fdcan.c **** 
1303:Drivers/STM32H7xx_HAL_Driver/Src/stm32h7xx_hal_fdcan.c **** /**
1304:Drivers/STM32H7xx_HAL_Driver/Src/stm32h7xx_hal_fdcan.c ****   * @brief  Register Error Status FDCAN Callback
1305:Drivers/STM32H7xx_HAL_Driver/Src/stm32h7xx_hal_fdcan.c ****   *         To be used instead of the weak HAL_FDCAN_ErrorStatusCallback() predefined callback
1306:Drivers/STM32H7xx_HAL_Driver/Src/stm32h7xx_hal_fdcan.c ****   * @param  hfdcan FDCAN handle
1307:Drivers/STM32H7xx_HAL_Driver/Src/stm32h7xx_hal_fdcan.c ****   * @param  pCallback pointer to the Error Status Callback function
1308:Drivers/STM32H7xx_HAL_Driver/Src/stm32h7xx_hal_fdcan.c ****   * @retval HAL status
1309:Drivers/STM32H7xx_HAL_Driver/Src/stm32h7xx_hal_fdcan.c ****   */
1310:Drivers/STM32H7xx_HAL_Driver/Src/stm32h7xx_hal_fdcan.c **** HAL_StatusTypeDef HAL_FDCAN_RegisterErrorStatusCallback(FDCAN_HandleTypeDef *hfdcan, pFDCAN_ErrorSt
1311:Drivers/STM32H7xx_HAL_Driver/Src/stm32h7xx_hal_fdcan.c **** {
1312:Drivers/STM32H7xx_HAL_Driver/Src/stm32h7xx_hal_fdcan.c ****   HAL_StatusTypeDef status = HAL_OK;
1313:Drivers/STM32H7xx_HAL_Driver/Src/stm32h7xx_hal_fdcan.c **** 
1314:Drivers/STM32H7xx_HAL_Driver/Src/stm32h7xx_hal_fdcan.c ****   if (pCallback == NULL)
1315:Drivers/STM32H7xx_HAL_Driver/Src/stm32h7xx_hal_fdcan.c ****   {
1316:Drivers/STM32H7xx_HAL_Driver/Src/stm32h7xx_hal_fdcan.c ****     /* Update the error code */
1317:Drivers/STM32H7xx_HAL_Driver/Src/stm32h7xx_hal_fdcan.c ****     hfdcan->ErrorCode |= HAL_FDCAN_ERROR_INVALID_CALLBACK;
1318:Drivers/STM32H7xx_HAL_Driver/Src/stm32h7xx_hal_fdcan.c ****     return HAL_ERROR;
1319:Drivers/STM32H7xx_HAL_Driver/Src/stm32h7xx_hal_fdcan.c ****   }
1320:Drivers/STM32H7xx_HAL_Driver/Src/stm32h7xx_hal_fdcan.c **** 
1321:Drivers/STM32H7xx_HAL_Driver/Src/stm32h7xx_hal_fdcan.c ****   if (hfdcan->State == HAL_FDCAN_STATE_READY)
1322:Drivers/STM32H7xx_HAL_Driver/Src/stm32h7xx_hal_fdcan.c ****   {
1323:Drivers/STM32H7xx_HAL_Driver/Src/stm32h7xx_hal_fdcan.c ****     hfdcan->ErrorStatusCallback = pCallback;
1324:Drivers/STM32H7xx_HAL_Driver/Src/stm32h7xx_hal_fdcan.c ****   }
1325:Drivers/STM32H7xx_HAL_Driver/Src/stm32h7xx_hal_fdcan.c ****   else
1326:Drivers/STM32H7xx_HAL_Driver/Src/stm32h7xx_hal_fdcan.c ****   {
1327:Drivers/STM32H7xx_HAL_Driver/Src/stm32h7xx_hal_fdcan.c ****     /* Update the error code */
1328:Drivers/STM32H7xx_HAL_Driver/Src/stm32h7xx_hal_fdcan.c ****     hfdcan->ErrorCode |= HAL_FDCAN_ERROR_INVALID_CALLBACK;
1329:Drivers/STM32H7xx_HAL_Driver/Src/stm32h7xx_hal_fdcan.c **** 
1330:Drivers/STM32H7xx_HAL_Driver/Src/stm32h7xx_hal_fdcan.c ****     /* Return error status */
1331:Drivers/STM32H7xx_HAL_Driver/Src/stm32h7xx_hal_fdcan.c ****     status =  HAL_ERROR;
ARM GAS  C:\Users\Su\AppData\Local\Temp\ccsFXyek.s 			page 42


1332:Drivers/STM32H7xx_HAL_Driver/Src/stm32h7xx_hal_fdcan.c ****   }
1333:Drivers/STM32H7xx_HAL_Driver/Src/stm32h7xx_hal_fdcan.c **** 
1334:Drivers/STM32H7xx_HAL_Driver/Src/stm32h7xx_hal_fdcan.c ****   return status;
1335:Drivers/STM32H7xx_HAL_Driver/Src/stm32h7xx_hal_fdcan.c **** }
1336:Drivers/STM32H7xx_HAL_Driver/Src/stm32h7xx_hal_fdcan.c **** 
1337:Drivers/STM32H7xx_HAL_Driver/Src/stm32h7xx_hal_fdcan.c **** /**
1338:Drivers/STM32H7xx_HAL_Driver/Src/stm32h7xx_hal_fdcan.c ****   * @brief  UnRegister the Error Status FDCAN Callback
1339:Drivers/STM32H7xx_HAL_Driver/Src/stm32h7xx_hal_fdcan.c ****   *         Error Status FDCAN Callback is redirected to the weak HAL_FDCAN_ErrorStatusCallback() p
1340:Drivers/STM32H7xx_HAL_Driver/Src/stm32h7xx_hal_fdcan.c ****   * @param  hfdcan FDCAN handle
1341:Drivers/STM32H7xx_HAL_Driver/Src/stm32h7xx_hal_fdcan.c ****   * @retval HAL status
1342:Drivers/STM32H7xx_HAL_Driver/Src/stm32h7xx_hal_fdcan.c ****   */
1343:Drivers/STM32H7xx_HAL_Driver/Src/stm32h7xx_hal_fdcan.c **** HAL_StatusTypeDef HAL_FDCAN_UnRegisterErrorStatusCallback(FDCAN_HandleTypeDef *hfdcan)
1344:Drivers/STM32H7xx_HAL_Driver/Src/stm32h7xx_hal_fdcan.c **** {
1345:Drivers/STM32H7xx_HAL_Driver/Src/stm32h7xx_hal_fdcan.c ****   HAL_StatusTypeDef status = HAL_OK;
1346:Drivers/STM32H7xx_HAL_Driver/Src/stm32h7xx_hal_fdcan.c **** 
1347:Drivers/STM32H7xx_HAL_Driver/Src/stm32h7xx_hal_fdcan.c ****   if (hfdcan->State == HAL_FDCAN_STATE_READY)
1348:Drivers/STM32H7xx_HAL_Driver/Src/stm32h7xx_hal_fdcan.c ****   {
1349:Drivers/STM32H7xx_HAL_Driver/Src/stm32h7xx_hal_fdcan.c ****     hfdcan->ErrorStatusCallback = HAL_FDCAN_ErrorStatusCallback; /* Legacy weak ErrorStatusCallback
1350:Drivers/STM32H7xx_HAL_Driver/Src/stm32h7xx_hal_fdcan.c ****   }
1351:Drivers/STM32H7xx_HAL_Driver/Src/stm32h7xx_hal_fdcan.c ****   else
1352:Drivers/STM32H7xx_HAL_Driver/Src/stm32h7xx_hal_fdcan.c ****   {
1353:Drivers/STM32H7xx_HAL_Driver/Src/stm32h7xx_hal_fdcan.c ****     /* Update the error code */
1354:Drivers/STM32H7xx_HAL_Driver/Src/stm32h7xx_hal_fdcan.c ****     hfdcan->ErrorCode |= HAL_FDCAN_ERROR_INVALID_CALLBACK;
1355:Drivers/STM32H7xx_HAL_Driver/Src/stm32h7xx_hal_fdcan.c **** 
1356:Drivers/STM32H7xx_HAL_Driver/Src/stm32h7xx_hal_fdcan.c ****     /* Return error status */
1357:Drivers/STM32H7xx_HAL_Driver/Src/stm32h7xx_hal_fdcan.c ****     status =  HAL_ERROR;
1358:Drivers/STM32H7xx_HAL_Driver/Src/stm32h7xx_hal_fdcan.c ****   }
1359:Drivers/STM32H7xx_HAL_Driver/Src/stm32h7xx_hal_fdcan.c **** 
1360:Drivers/STM32H7xx_HAL_Driver/Src/stm32h7xx_hal_fdcan.c ****   return status;
1361:Drivers/STM32H7xx_HAL_Driver/Src/stm32h7xx_hal_fdcan.c **** }
1362:Drivers/STM32H7xx_HAL_Driver/Src/stm32h7xx_hal_fdcan.c **** 
1363:Drivers/STM32H7xx_HAL_Driver/Src/stm32h7xx_hal_fdcan.c **** /**
1364:Drivers/STM32H7xx_HAL_Driver/Src/stm32h7xx_hal_fdcan.c ****   * @brief  Register TT Schedule Synchronization FDCAN Callback
1365:Drivers/STM32H7xx_HAL_Driver/Src/stm32h7xx_hal_fdcan.c ****   *         To be used instead of the weak HAL_FDCAN_TT_ScheduleSyncCallback() predefined callback
1366:Drivers/STM32H7xx_HAL_Driver/Src/stm32h7xx_hal_fdcan.c ****   * @param  hfdcan FDCAN handle
1367:Drivers/STM32H7xx_HAL_Driver/Src/stm32h7xx_hal_fdcan.c ****   * @param  pCallback pointer to the TT Schedule Synchronization Callback function
1368:Drivers/STM32H7xx_HAL_Driver/Src/stm32h7xx_hal_fdcan.c ****   * @retval HAL status
1369:Drivers/STM32H7xx_HAL_Driver/Src/stm32h7xx_hal_fdcan.c ****   */
1370:Drivers/STM32H7xx_HAL_Driver/Src/stm32h7xx_hal_fdcan.c **** HAL_StatusTypeDef HAL_FDCAN_RegisterTTScheduleSyncCallback(FDCAN_HandleTypeDef *hfdcan, pFDCAN_TT_S
1371:Drivers/STM32H7xx_HAL_Driver/Src/stm32h7xx_hal_fdcan.c **** {
1372:Drivers/STM32H7xx_HAL_Driver/Src/stm32h7xx_hal_fdcan.c ****   HAL_StatusTypeDef status = HAL_OK;
1373:Drivers/STM32H7xx_HAL_Driver/Src/stm32h7xx_hal_fdcan.c **** 
1374:Drivers/STM32H7xx_HAL_Driver/Src/stm32h7xx_hal_fdcan.c ****   if (pCallback == NULL)
1375:Drivers/STM32H7xx_HAL_Driver/Src/stm32h7xx_hal_fdcan.c ****   {
1376:Drivers/STM32H7xx_HAL_Driver/Src/stm32h7xx_hal_fdcan.c ****     /* Update the error code */
1377:Drivers/STM32H7xx_HAL_Driver/Src/stm32h7xx_hal_fdcan.c ****     hfdcan->ErrorCode |= HAL_FDCAN_ERROR_INVALID_CALLBACK;
1378:Drivers/STM32H7xx_HAL_Driver/Src/stm32h7xx_hal_fdcan.c ****     return HAL_ERROR;
1379:Drivers/STM32H7xx_HAL_Driver/Src/stm32h7xx_hal_fdcan.c ****   }
1380:Drivers/STM32H7xx_HAL_Driver/Src/stm32h7xx_hal_fdcan.c **** 
1381:Drivers/STM32H7xx_HAL_Driver/Src/stm32h7xx_hal_fdcan.c ****   if (hfdcan->State == HAL_FDCAN_STATE_READY)
1382:Drivers/STM32H7xx_HAL_Driver/Src/stm32h7xx_hal_fdcan.c ****   {
1383:Drivers/STM32H7xx_HAL_Driver/Src/stm32h7xx_hal_fdcan.c ****     hfdcan->TT_ScheduleSyncCallback = pCallback;
1384:Drivers/STM32H7xx_HAL_Driver/Src/stm32h7xx_hal_fdcan.c ****   }
1385:Drivers/STM32H7xx_HAL_Driver/Src/stm32h7xx_hal_fdcan.c ****   else
1386:Drivers/STM32H7xx_HAL_Driver/Src/stm32h7xx_hal_fdcan.c ****   {
1387:Drivers/STM32H7xx_HAL_Driver/Src/stm32h7xx_hal_fdcan.c ****     /* Update the error code */
1388:Drivers/STM32H7xx_HAL_Driver/Src/stm32h7xx_hal_fdcan.c ****     hfdcan->ErrorCode |= HAL_FDCAN_ERROR_INVALID_CALLBACK;
ARM GAS  C:\Users\Su\AppData\Local\Temp\ccsFXyek.s 			page 43


1389:Drivers/STM32H7xx_HAL_Driver/Src/stm32h7xx_hal_fdcan.c **** 
1390:Drivers/STM32H7xx_HAL_Driver/Src/stm32h7xx_hal_fdcan.c ****     /* Return error status */
1391:Drivers/STM32H7xx_HAL_Driver/Src/stm32h7xx_hal_fdcan.c ****     status =  HAL_ERROR;
1392:Drivers/STM32H7xx_HAL_Driver/Src/stm32h7xx_hal_fdcan.c ****   }
1393:Drivers/STM32H7xx_HAL_Driver/Src/stm32h7xx_hal_fdcan.c **** 
1394:Drivers/STM32H7xx_HAL_Driver/Src/stm32h7xx_hal_fdcan.c ****   return status;
1395:Drivers/STM32H7xx_HAL_Driver/Src/stm32h7xx_hal_fdcan.c **** }
1396:Drivers/STM32H7xx_HAL_Driver/Src/stm32h7xx_hal_fdcan.c **** 
1397:Drivers/STM32H7xx_HAL_Driver/Src/stm32h7xx_hal_fdcan.c **** /**
1398:Drivers/STM32H7xx_HAL_Driver/Src/stm32h7xx_hal_fdcan.c ****   * @brief  UnRegister the TT Schedule Synchronization FDCAN Callback
1399:Drivers/STM32H7xx_HAL_Driver/Src/stm32h7xx_hal_fdcan.c ****   *         TT Schedule Synchronization Callback is redirected to the weak HAL_FDCAN_TT_ScheduleSyn
1400:Drivers/STM32H7xx_HAL_Driver/Src/stm32h7xx_hal_fdcan.c ****   * @param  hfdcan FDCAN handle
1401:Drivers/STM32H7xx_HAL_Driver/Src/stm32h7xx_hal_fdcan.c ****   * @retval HAL status
1402:Drivers/STM32H7xx_HAL_Driver/Src/stm32h7xx_hal_fdcan.c ****   */
1403:Drivers/STM32H7xx_HAL_Driver/Src/stm32h7xx_hal_fdcan.c **** HAL_StatusTypeDef HAL_FDCAN_UnRegisterTTScheduleSyncCallback(FDCAN_HandleTypeDef *hfdcan)
1404:Drivers/STM32H7xx_HAL_Driver/Src/stm32h7xx_hal_fdcan.c **** {
1405:Drivers/STM32H7xx_HAL_Driver/Src/stm32h7xx_hal_fdcan.c ****   HAL_StatusTypeDef status = HAL_OK;
1406:Drivers/STM32H7xx_HAL_Driver/Src/stm32h7xx_hal_fdcan.c **** 
1407:Drivers/STM32H7xx_HAL_Driver/Src/stm32h7xx_hal_fdcan.c ****   if (hfdcan->State == HAL_FDCAN_STATE_READY)
1408:Drivers/STM32H7xx_HAL_Driver/Src/stm32h7xx_hal_fdcan.c ****   {
1409:Drivers/STM32H7xx_HAL_Driver/Src/stm32h7xx_hal_fdcan.c ****     hfdcan->TT_ScheduleSyncCallback = HAL_FDCAN_TT_ScheduleSyncCallback; /* Legacy weak TT_Schedule
1410:Drivers/STM32H7xx_HAL_Driver/Src/stm32h7xx_hal_fdcan.c ****   }
1411:Drivers/STM32H7xx_HAL_Driver/Src/stm32h7xx_hal_fdcan.c ****   else
1412:Drivers/STM32H7xx_HAL_Driver/Src/stm32h7xx_hal_fdcan.c ****   {
1413:Drivers/STM32H7xx_HAL_Driver/Src/stm32h7xx_hal_fdcan.c ****     /* Update the error code */
1414:Drivers/STM32H7xx_HAL_Driver/Src/stm32h7xx_hal_fdcan.c ****     hfdcan->ErrorCode |= HAL_FDCAN_ERROR_INVALID_CALLBACK;
1415:Drivers/STM32H7xx_HAL_Driver/Src/stm32h7xx_hal_fdcan.c **** 
1416:Drivers/STM32H7xx_HAL_Driver/Src/stm32h7xx_hal_fdcan.c ****     /* Return error status */
1417:Drivers/STM32H7xx_HAL_Driver/Src/stm32h7xx_hal_fdcan.c ****     status =  HAL_ERROR;
1418:Drivers/STM32H7xx_HAL_Driver/Src/stm32h7xx_hal_fdcan.c ****   }
1419:Drivers/STM32H7xx_HAL_Driver/Src/stm32h7xx_hal_fdcan.c **** 
1420:Drivers/STM32H7xx_HAL_Driver/Src/stm32h7xx_hal_fdcan.c ****   return status;
1421:Drivers/STM32H7xx_HAL_Driver/Src/stm32h7xx_hal_fdcan.c **** }
1422:Drivers/STM32H7xx_HAL_Driver/Src/stm32h7xx_hal_fdcan.c **** 
1423:Drivers/STM32H7xx_HAL_Driver/Src/stm32h7xx_hal_fdcan.c **** /**
1424:Drivers/STM32H7xx_HAL_Driver/Src/stm32h7xx_hal_fdcan.c ****   * @brief  Register TT Time Mark FDCAN Callback
1425:Drivers/STM32H7xx_HAL_Driver/Src/stm32h7xx_hal_fdcan.c ****   *         To be used instead of the weak HAL_FDCAN_TT_TimeMarkCallback() predefined callback
1426:Drivers/STM32H7xx_HAL_Driver/Src/stm32h7xx_hal_fdcan.c ****   * @param  hfdcan FDCAN handle
1427:Drivers/STM32H7xx_HAL_Driver/Src/stm32h7xx_hal_fdcan.c ****   * @param  pCallback pointer to the TT Time Mark Callback function
1428:Drivers/STM32H7xx_HAL_Driver/Src/stm32h7xx_hal_fdcan.c ****   * @retval HAL status
1429:Drivers/STM32H7xx_HAL_Driver/Src/stm32h7xx_hal_fdcan.c ****   */
1430:Drivers/STM32H7xx_HAL_Driver/Src/stm32h7xx_hal_fdcan.c **** HAL_StatusTypeDef HAL_FDCAN_RegisterTTTimeMarkCallback(FDCAN_HandleTypeDef *hfdcan, pFDCAN_TT_TimeM
1431:Drivers/STM32H7xx_HAL_Driver/Src/stm32h7xx_hal_fdcan.c **** {
1432:Drivers/STM32H7xx_HAL_Driver/Src/stm32h7xx_hal_fdcan.c ****   HAL_StatusTypeDef status = HAL_OK;
1433:Drivers/STM32H7xx_HAL_Driver/Src/stm32h7xx_hal_fdcan.c **** 
1434:Drivers/STM32H7xx_HAL_Driver/Src/stm32h7xx_hal_fdcan.c ****   if (pCallback == NULL)
1435:Drivers/STM32H7xx_HAL_Driver/Src/stm32h7xx_hal_fdcan.c ****   {
1436:Drivers/STM32H7xx_HAL_Driver/Src/stm32h7xx_hal_fdcan.c ****     /* Update the error code */
1437:Drivers/STM32H7xx_HAL_Driver/Src/stm32h7xx_hal_fdcan.c ****     hfdcan->ErrorCode |= HAL_FDCAN_ERROR_INVALID_CALLBACK;
1438:Drivers/STM32H7xx_HAL_Driver/Src/stm32h7xx_hal_fdcan.c ****     return HAL_ERROR;
1439:Drivers/STM32H7xx_HAL_Driver/Src/stm32h7xx_hal_fdcan.c ****   }
1440:Drivers/STM32H7xx_HAL_Driver/Src/stm32h7xx_hal_fdcan.c **** 
1441:Drivers/STM32H7xx_HAL_Driver/Src/stm32h7xx_hal_fdcan.c ****   if (hfdcan->State == HAL_FDCAN_STATE_READY)
1442:Drivers/STM32H7xx_HAL_Driver/Src/stm32h7xx_hal_fdcan.c ****   {
1443:Drivers/STM32H7xx_HAL_Driver/Src/stm32h7xx_hal_fdcan.c ****     hfdcan->TT_TimeMarkCallback = pCallback;
1444:Drivers/STM32H7xx_HAL_Driver/Src/stm32h7xx_hal_fdcan.c ****   }
1445:Drivers/STM32H7xx_HAL_Driver/Src/stm32h7xx_hal_fdcan.c ****   else
ARM GAS  C:\Users\Su\AppData\Local\Temp\ccsFXyek.s 			page 44


1446:Drivers/STM32H7xx_HAL_Driver/Src/stm32h7xx_hal_fdcan.c ****   {
1447:Drivers/STM32H7xx_HAL_Driver/Src/stm32h7xx_hal_fdcan.c ****     /* Update the error code */
1448:Drivers/STM32H7xx_HAL_Driver/Src/stm32h7xx_hal_fdcan.c ****     hfdcan->ErrorCode |= HAL_FDCAN_ERROR_INVALID_CALLBACK;
1449:Drivers/STM32H7xx_HAL_Driver/Src/stm32h7xx_hal_fdcan.c **** 
1450:Drivers/STM32H7xx_HAL_Driver/Src/stm32h7xx_hal_fdcan.c ****     /* Return error status */
1451:Drivers/STM32H7xx_HAL_Driver/Src/stm32h7xx_hal_fdcan.c ****     status =  HAL_ERROR;
1452:Drivers/STM32H7xx_HAL_Driver/Src/stm32h7xx_hal_fdcan.c ****   }
1453:Drivers/STM32H7xx_HAL_Driver/Src/stm32h7xx_hal_fdcan.c **** 
1454:Drivers/STM32H7xx_HAL_Driver/Src/stm32h7xx_hal_fdcan.c ****   return status;
1455:Drivers/STM32H7xx_HAL_Driver/Src/stm32h7xx_hal_fdcan.c **** }
1456:Drivers/STM32H7xx_HAL_Driver/Src/stm32h7xx_hal_fdcan.c **** 
1457:Drivers/STM32H7xx_HAL_Driver/Src/stm32h7xx_hal_fdcan.c **** /**
1458:Drivers/STM32H7xx_HAL_Driver/Src/stm32h7xx_hal_fdcan.c ****   * @brief  UnRegister the TT Time Mark FDCAN Callback
1459:Drivers/STM32H7xx_HAL_Driver/Src/stm32h7xx_hal_fdcan.c ****   *         TT Time Mark Callback is redirected to the weak HAL_FDCAN_TT_TimeMarkCallback() predefi
1460:Drivers/STM32H7xx_HAL_Driver/Src/stm32h7xx_hal_fdcan.c ****   * @param  hfdcan FDCAN handle
1461:Drivers/STM32H7xx_HAL_Driver/Src/stm32h7xx_hal_fdcan.c ****   * @retval HAL status
1462:Drivers/STM32H7xx_HAL_Driver/Src/stm32h7xx_hal_fdcan.c ****   */
1463:Drivers/STM32H7xx_HAL_Driver/Src/stm32h7xx_hal_fdcan.c **** HAL_StatusTypeDef HAL_FDCAN_UnRegisterTTTimeMarkCallback(FDCAN_HandleTypeDef *hfdcan)
1464:Drivers/STM32H7xx_HAL_Driver/Src/stm32h7xx_hal_fdcan.c **** {
1465:Drivers/STM32H7xx_HAL_Driver/Src/stm32h7xx_hal_fdcan.c ****   HAL_StatusTypeDef status = HAL_OK;
1466:Drivers/STM32H7xx_HAL_Driver/Src/stm32h7xx_hal_fdcan.c **** 
1467:Drivers/STM32H7xx_HAL_Driver/Src/stm32h7xx_hal_fdcan.c ****   if (hfdcan->State == HAL_FDCAN_STATE_READY)
1468:Drivers/STM32H7xx_HAL_Driver/Src/stm32h7xx_hal_fdcan.c ****   {
1469:Drivers/STM32H7xx_HAL_Driver/Src/stm32h7xx_hal_fdcan.c ****     hfdcan->TT_TimeMarkCallback = HAL_FDCAN_TT_TimeMarkCallback; /* Legacy weak TT_TimeMarkCallback
1470:Drivers/STM32H7xx_HAL_Driver/Src/stm32h7xx_hal_fdcan.c ****   }
1471:Drivers/STM32H7xx_HAL_Driver/Src/stm32h7xx_hal_fdcan.c ****   else
1472:Drivers/STM32H7xx_HAL_Driver/Src/stm32h7xx_hal_fdcan.c ****   {
1473:Drivers/STM32H7xx_HAL_Driver/Src/stm32h7xx_hal_fdcan.c ****     /* Update the error code */
1474:Drivers/STM32H7xx_HAL_Driver/Src/stm32h7xx_hal_fdcan.c ****     hfdcan->ErrorCode |= HAL_FDCAN_ERROR_INVALID_CALLBACK;
1475:Drivers/STM32H7xx_HAL_Driver/Src/stm32h7xx_hal_fdcan.c **** 
1476:Drivers/STM32H7xx_HAL_Driver/Src/stm32h7xx_hal_fdcan.c ****     /* Return error status */
1477:Drivers/STM32H7xx_HAL_Driver/Src/stm32h7xx_hal_fdcan.c ****     status =  HAL_ERROR;
1478:Drivers/STM32H7xx_HAL_Driver/Src/stm32h7xx_hal_fdcan.c ****   }
1479:Drivers/STM32H7xx_HAL_Driver/Src/stm32h7xx_hal_fdcan.c **** 
1480:Drivers/STM32H7xx_HAL_Driver/Src/stm32h7xx_hal_fdcan.c ****   return status;
1481:Drivers/STM32H7xx_HAL_Driver/Src/stm32h7xx_hal_fdcan.c **** }
1482:Drivers/STM32H7xx_HAL_Driver/Src/stm32h7xx_hal_fdcan.c **** 
1483:Drivers/STM32H7xx_HAL_Driver/Src/stm32h7xx_hal_fdcan.c **** /**
1484:Drivers/STM32H7xx_HAL_Driver/Src/stm32h7xx_hal_fdcan.c ****   * @brief  Register TT Stop Watch FDCAN Callback
1485:Drivers/STM32H7xx_HAL_Driver/Src/stm32h7xx_hal_fdcan.c ****   *         To be used instead of the weak HAL_FDCAN_TT_StopWatchCallback() predefined callback
1486:Drivers/STM32H7xx_HAL_Driver/Src/stm32h7xx_hal_fdcan.c ****   * @param  hfdcan FDCAN handle
1487:Drivers/STM32H7xx_HAL_Driver/Src/stm32h7xx_hal_fdcan.c ****   * @param  pCallback pointer to the TT Stop Watch Callback function
1488:Drivers/STM32H7xx_HAL_Driver/Src/stm32h7xx_hal_fdcan.c ****   * @retval HAL status
1489:Drivers/STM32H7xx_HAL_Driver/Src/stm32h7xx_hal_fdcan.c ****   */
1490:Drivers/STM32H7xx_HAL_Driver/Src/stm32h7xx_hal_fdcan.c **** HAL_StatusTypeDef HAL_FDCAN_RegisterTTStopWatchCallback(FDCAN_HandleTypeDef *hfdcan, pFDCAN_TT_Stop
1491:Drivers/STM32H7xx_HAL_Driver/Src/stm32h7xx_hal_fdcan.c **** {
1492:Drivers/STM32H7xx_HAL_Driver/Src/stm32h7xx_hal_fdcan.c ****   HAL_StatusTypeDef status = HAL_OK;
1493:Drivers/STM32H7xx_HAL_Driver/Src/stm32h7xx_hal_fdcan.c **** 
1494:Drivers/STM32H7xx_HAL_Driver/Src/stm32h7xx_hal_fdcan.c ****   if (pCallback == NULL)
1495:Drivers/STM32H7xx_HAL_Driver/Src/stm32h7xx_hal_fdcan.c ****   {
1496:Drivers/STM32H7xx_HAL_Driver/Src/stm32h7xx_hal_fdcan.c ****     /* Update the error code */
1497:Drivers/STM32H7xx_HAL_Driver/Src/stm32h7xx_hal_fdcan.c ****     hfdcan->ErrorCode |= HAL_FDCAN_ERROR_INVALID_CALLBACK;
1498:Drivers/STM32H7xx_HAL_Driver/Src/stm32h7xx_hal_fdcan.c ****     return HAL_ERROR;
1499:Drivers/STM32H7xx_HAL_Driver/Src/stm32h7xx_hal_fdcan.c ****   }
1500:Drivers/STM32H7xx_HAL_Driver/Src/stm32h7xx_hal_fdcan.c **** 
1501:Drivers/STM32H7xx_HAL_Driver/Src/stm32h7xx_hal_fdcan.c ****   if (hfdcan->State == HAL_FDCAN_STATE_READY)
1502:Drivers/STM32H7xx_HAL_Driver/Src/stm32h7xx_hal_fdcan.c ****   {
ARM GAS  C:\Users\Su\AppData\Local\Temp\ccsFXyek.s 			page 45


1503:Drivers/STM32H7xx_HAL_Driver/Src/stm32h7xx_hal_fdcan.c ****     hfdcan->TT_StopWatchCallback = pCallback;
1504:Drivers/STM32H7xx_HAL_Driver/Src/stm32h7xx_hal_fdcan.c ****   }
1505:Drivers/STM32H7xx_HAL_Driver/Src/stm32h7xx_hal_fdcan.c ****   else
1506:Drivers/STM32H7xx_HAL_Driver/Src/stm32h7xx_hal_fdcan.c ****   {
1507:Drivers/STM32H7xx_HAL_Driver/Src/stm32h7xx_hal_fdcan.c ****     /* Update the error code */
1508:Drivers/STM32H7xx_HAL_Driver/Src/stm32h7xx_hal_fdcan.c ****     hfdcan->ErrorCode |= HAL_FDCAN_ERROR_INVALID_CALLBACK;
1509:Drivers/STM32H7xx_HAL_Driver/Src/stm32h7xx_hal_fdcan.c **** 
1510:Drivers/STM32H7xx_HAL_Driver/Src/stm32h7xx_hal_fdcan.c ****     /* Return error status */
1511:Drivers/STM32H7xx_HAL_Driver/Src/stm32h7xx_hal_fdcan.c ****     status =  HAL_ERROR;
1512:Drivers/STM32H7xx_HAL_Driver/Src/stm32h7xx_hal_fdcan.c ****   }
1513:Drivers/STM32H7xx_HAL_Driver/Src/stm32h7xx_hal_fdcan.c **** 
1514:Drivers/STM32H7xx_HAL_Driver/Src/stm32h7xx_hal_fdcan.c ****   return status;
1515:Drivers/STM32H7xx_HAL_Driver/Src/stm32h7xx_hal_fdcan.c **** }
1516:Drivers/STM32H7xx_HAL_Driver/Src/stm32h7xx_hal_fdcan.c **** 
1517:Drivers/STM32H7xx_HAL_Driver/Src/stm32h7xx_hal_fdcan.c **** /**
1518:Drivers/STM32H7xx_HAL_Driver/Src/stm32h7xx_hal_fdcan.c ****   * @brief  UnRegister the TT Stop Watch FDCAN Callback
1519:Drivers/STM32H7xx_HAL_Driver/Src/stm32h7xx_hal_fdcan.c ****   *         TT Stop Watch Callback is redirected to the weak HAL_FDCAN_TT_StopWatchCallback() prede
1520:Drivers/STM32H7xx_HAL_Driver/Src/stm32h7xx_hal_fdcan.c ****   * @param  hfdcan FDCAN handle
1521:Drivers/STM32H7xx_HAL_Driver/Src/stm32h7xx_hal_fdcan.c ****   * @retval HAL status
1522:Drivers/STM32H7xx_HAL_Driver/Src/stm32h7xx_hal_fdcan.c ****   */
1523:Drivers/STM32H7xx_HAL_Driver/Src/stm32h7xx_hal_fdcan.c **** HAL_StatusTypeDef HAL_FDCAN_UnRegisterTTStopWatchCallback(FDCAN_HandleTypeDef *hfdcan)
1524:Drivers/STM32H7xx_HAL_Driver/Src/stm32h7xx_hal_fdcan.c **** {
1525:Drivers/STM32H7xx_HAL_Driver/Src/stm32h7xx_hal_fdcan.c ****   HAL_StatusTypeDef status = HAL_OK;
1526:Drivers/STM32H7xx_HAL_Driver/Src/stm32h7xx_hal_fdcan.c **** 
1527:Drivers/STM32H7xx_HAL_Driver/Src/stm32h7xx_hal_fdcan.c ****   if (hfdcan->State == HAL_FDCAN_STATE_READY)
1528:Drivers/STM32H7xx_HAL_Driver/Src/stm32h7xx_hal_fdcan.c ****   {
1529:Drivers/STM32H7xx_HAL_Driver/Src/stm32h7xx_hal_fdcan.c ****     hfdcan->TT_StopWatchCallback = HAL_FDCAN_TT_StopWatchCallback; /* Legacy weak TT_StopWatchCallb
1530:Drivers/STM32H7xx_HAL_Driver/Src/stm32h7xx_hal_fdcan.c ****   }
1531:Drivers/STM32H7xx_HAL_Driver/Src/stm32h7xx_hal_fdcan.c ****   else
1532:Drivers/STM32H7xx_HAL_Driver/Src/stm32h7xx_hal_fdcan.c ****   {
1533:Drivers/STM32H7xx_HAL_Driver/Src/stm32h7xx_hal_fdcan.c ****     /* Update the error code */
1534:Drivers/STM32H7xx_HAL_Driver/Src/stm32h7xx_hal_fdcan.c ****     hfdcan->ErrorCode |= HAL_FDCAN_ERROR_INVALID_CALLBACK;
1535:Drivers/STM32H7xx_HAL_Driver/Src/stm32h7xx_hal_fdcan.c **** 
1536:Drivers/STM32H7xx_HAL_Driver/Src/stm32h7xx_hal_fdcan.c ****     /* Return error status */
1537:Drivers/STM32H7xx_HAL_Driver/Src/stm32h7xx_hal_fdcan.c ****     status =  HAL_ERROR;
1538:Drivers/STM32H7xx_HAL_Driver/Src/stm32h7xx_hal_fdcan.c ****   }
1539:Drivers/STM32H7xx_HAL_Driver/Src/stm32h7xx_hal_fdcan.c **** 
1540:Drivers/STM32H7xx_HAL_Driver/Src/stm32h7xx_hal_fdcan.c ****   return status;
1541:Drivers/STM32H7xx_HAL_Driver/Src/stm32h7xx_hal_fdcan.c **** }
1542:Drivers/STM32H7xx_HAL_Driver/Src/stm32h7xx_hal_fdcan.c **** 
1543:Drivers/STM32H7xx_HAL_Driver/Src/stm32h7xx_hal_fdcan.c **** /**
1544:Drivers/STM32H7xx_HAL_Driver/Src/stm32h7xx_hal_fdcan.c ****   * @brief  Register TT Global Time FDCAN Callback
1545:Drivers/STM32H7xx_HAL_Driver/Src/stm32h7xx_hal_fdcan.c ****   *         To be used instead of the weak HAL_FDCAN_TT_GlobalTimeCallback() predefined callback
1546:Drivers/STM32H7xx_HAL_Driver/Src/stm32h7xx_hal_fdcan.c ****   * @param  hfdcan FDCAN handle
1547:Drivers/STM32H7xx_HAL_Driver/Src/stm32h7xx_hal_fdcan.c ****   * @param  pCallback pointer to the TT Global Time Callback function
1548:Drivers/STM32H7xx_HAL_Driver/Src/stm32h7xx_hal_fdcan.c ****   * @retval HAL status
1549:Drivers/STM32H7xx_HAL_Driver/Src/stm32h7xx_hal_fdcan.c ****   */
1550:Drivers/STM32H7xx_HAL_Driver/Src/stm32h7xx_hal_fdcan.c **** HAL_StatusTypeDef HAL_FDCAN_RegisterTTGlobalTimeCallback(FDCAN_HandleTypeDef *hfdcan, pFDCAN_TT_Glo
1551:Drivers/STM32H7xx_HAL_Driver/Src/stm32h7xx_hal_fdcan.c **** {
1552:Drivers/STM32H7xx_HAL_Driver/Src/stm32h7xx_hal_fdcan.c ****   HAL_StatusTypeDef status = HAL_OK;
1553:Drivers/STM32H7xx_HAL_Driver/Src/stm32h7xx_hal_fdcan.c **** 
1554:Drivers/STM32H7xx_HAL_Driver/Src/stm32h7xx_hal_fdcan.c ****   if (pCallback == NULL)
1555:Drivers/STM32H7xx_HAL_Driver/Src/stm32h7xx_hal_fdcan.c ****   {
1556:Drivers/STM32H7xx_HAL_Driver/Src/stm32h7xx_hal_fdcan.c ****     /* Update the error code */
1557:Drivers/STM32H7xx_HAL_Driver/Src/stm32h7xx_hal_fdcan.c ****     hfdcan->ErrorCode |= HAL_FDCAN_ERROR_INVALID_CALLBACK;
1558:Drivers/STM32H7xx_HAL_Driver/Src/stm32h7xx_hal_fdcan.c ****     return HAL_ERROR;
1559:Drivers/STM32H7xx_HAL_Driver/Src/stm32h7xx_hal_fdcan.c ****   }
ARM GAS  C:\Users\Su\AppData\Local\Temp\ccsFXyek.s 			page 46


1560:Drivers/STM32H7xx_HAL_Driver/Src/stm32h7xx_hal_fdcan.c **** 
1561:Drivers/STM32H7xx_HAL_Driver/Src/stm32h7xx_hal_fdcan.c ****   if (hfdcan->State == HAL_FDCAN_STATE_READY)
1562:Drivers/STM32H7xx_HAL_Driver/Src/stm32h7xx_hal_fdcan.c ****   {
1563:Drivers/STM32H7xx_HAL_Driver/Src/stm32h7xx_hal_fdcan.c ****     hfdcan->TT_GlobalTimeCallback = pCallback;
1564:Drivers/STM32H7xx_HAL_Driver/Src/stm32h7xx_hal_fdcan.c ****   }
1565:Drivers/STM32H7xx_HAL_Driver/Src/stm32h7xx_hal_fdcan.c ****   else
1566:Drivers/STM32H7xx_HAL_Driver/Src/stm32h7xx_hal_fdcan.c ****   {
1567:Drivers/STM32H7xx_HAL_Driver/Src/stm32h7xx_hal_fdcan.c ****     /* Update the error code */
1568:Drivers/STM32H7xx_HAL_Driver/Src/stm32h7xx_hal_fdcan.c ****     hfdcan->ErrorCode |= HAL_FDCAN_ERROR_INVALID_CALLBACK;
1569:Drivers/STM32H7xx_HAL_Driver/Src/stm32h7xx_hal_fdcan.c **** 
1570:Drivers/STM32H7xx_HAL_Driver/Src/stm32h7xx_hal_fdcan.c ****     /* Return error status */
1571:Drivers/STM32H7xx_HAL_Driver/Src/stm32h7xx_hal_fdcan.c ****     status =  HAL_ERROR;
1572:Drivers/STM32H7xx_HAL_Driver/Src/stm32h7xx_hal_fdcan.c ****   }
1573:Drivers/STM32H7xx_HAL_Driver/Src/stm32h7xx_hal_fdcan.c **** 
1574:Drivers/STM32H7xx_HAL_Driver/Src/stm32h7xx_hal_fdcan.c ****   return status;
1575:Drivers/STM32H7xx_HAL_Driver/Src/stm32h7xx_hal_fdcan.c **** }
1576:Drivers/STM32H7xx_HAL_Driver/Src/stm32h7xx_hal_fdcan.c **** 
1577:Drivers/STM32H7xx_HAL_Driver/Src/stm32h7xx_hal_fdcan.c **** /**
1578:Drivers/STM32H7xx_HAL_Driver/Src/stm32h7xx_hal_fdcan.c ****   * @brief  UnRegister the TT Global Time FDCAN Callback
1579:Drivers/STM32H7xx_HAL_Driver/Src/stm32h7xx_hal_fdcan.c ****   *         TT Global Time Callback is redirected to the weak HAL_FDCAN_TT_GlobalTimeCallback() pre
1580:Drivers/STM32H7xx_HAL_Driver/Src/stm32h7xx_hal_fdcan.c ****   * @param  hfdcan FDCAN handle
1581:Drivers/STM32H7xx_HAL_Driver/Src/stm32h7xx_hal_fdcan.c ****   * @retval HAL status
1582:Drivers/STM32H7xx_HAL_Driver/Src/stm32h7xx_hal_fdcan.c ****   */
1583:Drivers/STM32H7xx_HAL_Driver/Src/stm32h7xx_hal_fdcan.c **** HAL_StatusTypeDef HAL_FDCAN_UnRegisterTTGlobalTimeCallback(FDCAN_HandleTypeDef *hfdcan)
1584:Drivers/STM32H7xx_HAL_Driver/Src/stm32h7xx_hal_fdcan.c **** {
1585:Drivers/STM32H7xx_HAL_Driver/Src/stm32h7xx_hal_fdcan.c ****   HAL_StatusTypeDef status = HAL_OK;
1586:Drivers/STM32H7xx_HAL_Driver/Src/stm32h7xx_hal_fdcan.c **** 
1587:Drivers/STM32H7xx_HAL_Driver/Src/stm32h7xx_hal_fdcan.c ****   if (hfdcan->State == HAL_FDCAN_STATE_READY)
1588:Drivers/STM32H7xx_HAL_Driver/Src/stm32h7xx_hal_fdcan.c ****   {
1589:Drivers/STM32H7xx_HAL_Driver/Src/stm32h7xx_hal_fdcan.c ****     hfdcan->TT_GlobalTimeCallback = HAL_FDCAN_TT_GlobalTimeCallback; /* Legacy weak TT_GlobalTimeCa
1590:Drivers/STM32H7xx_HAL_Driver/Src/stm32h7xx_hal_fdcan.c ****   }
1591:Drivers/STM32H7xx_HAL_Driver/Src/stm32h7xx_hal_fdcan.c ****   else
1592:Drivers/STM32H7xx_HAL_Driver/Src/stm32h7xx_hal_fdcan.c ****   {
1593:Drivers/STM32H7xx_HAL_Driver/Src/stm32h7xx_hal_fdcan.c ****     /* Update the error code */
1594:Drivers/STM32H7xx_HAL_Driver/Src/stm32h7xx_hal_fdcan.c ****     hfdcan->ErrorCode |= HAL_FDCAN_ERROR_INVALID_CALLBACK;
1595:Drivers/STM32H7xx_HAL_Driver/Src/stm32h7xx_hal_fdcan.c **** 
1596:Drivers/STM32H7xx_HAL_Driver/Src/stm32h7xx_hal_fdcan.c ****     /* Return error status */
1597:Drivers/STM32H7xx_HAL_Driver/Src/stm32h7xx_hal_fdcan.c ****     status =  HAL_ERROR;
1598:Drivers/STM32H7xx_HAL_Driver/Src/stm32h7xx_hal_fdcan.c ****   }
1599:Drivers/STM32H7xx_HAL_Driver/Src/stm32h7xx_hal_fdcan.c **** 
1600:Drivers/STM32H7xx_HAL_Driver/Src/stm32h7xx_hal_fdcan.c ****   return status;
1601:Drivers/STM32H7xx_HAL_Driver/Src/stm32h7xx_hal_fdcan.c **** }
1602:Drivers/STM32H7xx_HAL_Driver/Src/stm32h7xx_hal_fdcan.c **** 
1603:Drivers/STM32H7xx_HAL_Driver/Src/stm32h7xx_hal_fdcan.c **** #endif /* USE_HAL_FDCAN_REGISTER_CALLBACKS */
1604:Drivers/STM32H7xx_HAL_Driver/Src/stm32h7xx_hal_fdcan.c **** 
1605:Drivers/STM32H7xx_HAL_Driver/Src/stm32h7xx_hal_fdcan.c **** /**
1606:Drivers/STM32H7xx_HAL_Driver/Src/stm32h7xx_hal_fdcan.c ****   * @}
1607:Drivers/STM32H7xx_HAL_Driver/Src/stm32h7xx_hal_fdcan.c ****   */
1608:Drivers/STM32H7xx_HAL_Driver/Src/stm32h7xx_hal_fdcan.c **** 
1609:Drivers/STM32H7xx_HAL_Driver/Src/stm32h7xx_hal_fdcan.c **** /** @defgroup FDCAN_Exported_Functions_Group2 Configuration functions
1610:Drivers/STM32H7xx_HAL_Driver/Src/stm32h7xx_hal_fdcan.c ****  *  @brief    FDCAN Configuration functions.
1611:Drivers/STM32H7xx_HAL_Driver/Src/stm32h7xx_hal_fdcan.c ****  *
1612:Drivers/STM32H7xx_HAL_Driver/Src/stm32h7xx_hal_fdcan.c **** @verbatim
1613:Drivers/STM32H7xx_HAL_Driver/Src/stm32h7xx_hal_fdcan.c ****   ==============================================================================
1614:Drivers/STM32H7xx_HAL_Driver/Src/stm32h7xx_hal_fdcan.c ****               ##### Configuration functions #####
1615:Drivers/STM32H7xx_HAL_Driver/Src/stm32h7xx_hal_fdcan.c ****   ==============================================================================
1616:Drivers/STM32H7xx_HAL_Driver/Src/stm32h7xx_hal_fdcan.c ****     [..]  This section provides functions allowing to:
ARM GAS  C:\Users\Su\AppData\Local\Temp\ccsFXyek.s 			page 47


1617:Drivers/STM32H7xx_HAL_Driver/Src/stm32h7xx_hal_fdcan.c ****       (+) HAL_FDCAN_ConfigClockCalibration        : Configure the FDCAN clock calibration unit
1618:Drivers/STM32H7xx_HAL_Driver/Src/stm32h7xx_hal_fdcan.c ****         (+) HAL_FDCAN_GetClockCalibrationState      : Get the clock calibration state
1619:Drivers/STM32H7xx_HAL_Driver/Src/stm32h7xx_hal_fdcan.c ****         (+) HAL_FDCAN_ResetClockCalibrationState    : Reset the clock calibration state
1620:Drivers/STM32H7xx_HAL_Driver/Src/stm32h7xx_hal_fdcan.c ****         (+) HAL_FDCAN_GetClockCalibrationCounter    : Get the clock calibration counters values
1621:Drivers/STM32H7xx_HAL_Driver/Src/stm32h7xx_hal_fdcan.c ****       (+) HAL_FDCAN_ConfigFilter                  : Configure the FDCAN reception filters
1622:Drivers/STM32H7xx_HAL_Driver/Src/stm32h7xx_hal_fdcan.c ****       (+) HAL_FDCAN_ConfigGlobalFilter            : Configure the FDCAN global filter
1623:Drivers/STM32H7xx_HAL_Driver/Src/stm32h7xx_hal_fdcan.c ****       (+) HAL_FDCAN_ConfigExtendedIdMask          : Configure the extended ID mask
1624:Drivers/STM32H7xx_HAL_Driver/Src/stm32h7xx_hal_fdcan.c ****       (+) HAL_FDCAN_ConfigRxFifoOverwrite         : Configure the Rx FIFO operation mode
1625:Drivers/STM32H7xx_HAL_Driver/Src/stm32h7xx_hal_fdcan.c ****       (+) HAL_FDCAN_ConfigFifoWatermark           : Configure the FIFO watermark
1626:Drivers/STM32H7xx_HAL_Driver/Src/stm32h7xx_hal_fdcan.c ****       (+) HAL_FDCAN_ConfigRamWatchdog             : Configure the RAM watchdog
1627:Drivers/STM32H7xx_HAL_Driver/Src/stm32h7xx_hal_fdcan.c ****       (+) HAL_FDCAN_ConfigTimestampCounter        : Configure the timestamp counter
1628:Drivers/STM32H7xx_HAL_Driver/Src/stm32h7xx_hal_fdcan.c ****         (+) HAL_FDCAN_EnableTimestampCounter        : Enable the timestamp counter
1629:Drivers/STM32H7xx_HAL_Driver/Src/stm32h7xx_hal_fdcan.c ****         (+) HAL_FDCAN_DisableTimestampCounter       : Disable the timestamp counter
1630:Drivers/STM32H7xx_HAL_Driver/Src/stm32h7xx_hal_fdcan.c ****         (+) HAL_FDCAN_GetTimestampCounter           : Get the timestamp counter value
1631:Drivers/STM32H7xx_HAL_Driver/Src/stm32h7xx_hal_fdcan.c ****         (+) HAL_FDCAN_ResetTimestampCounter         : Reset the timestamp counter to zero
1632:Drivers/STM32H7xx_HAL_Driver/Src/stm32h7xx_hal_fdcan.c ****       (+) HAL_FDCAN_ConfigTimeoutCounter          : Configure the timeout counter
1633:Drivers/STM32H7xx_HAL_Driver/Src/stm32h7xx_hal_fdcan.c ****         (+) HAL_FDCAN_EnableTimeoutCounter          : Enable the timeout counter
1634:Drivers/STM32H7xx_HAL_Driver/Src/stm32h7xx_hal_fdcan.c ****         (+) HAL_FDCAN_DisableTimeoutCounter         : Disable the timeout counter
1635:Drivers/STM32H7xx_HAL_Driver/Src/stm32h7xx_hal_fdcan.c ****         (+) HAL_FDCAN_GetTimeoutCounter             : Get the timeout counter value
1636:Drivers/STM32H7xx_HAL_Driver/Src/stm32h7xx_hal_fdcan.c ****         (+) HAL_FDCAN_ResetTimeoutCounter           : Reset the timeout counter to its start value
1637:Drivers/STM32H7xx_HAL_Driver/Src/stm32h7xx_hal_fdcan.c ****       (+) HAL_FDCAN_ConfigTxDelayCompensation     : Configure the transmitter delay compensation
1638:Drivers/STM32H7xx_HAL_Driver/Src/stm32h7xx_hal_fdcan.c ****         (+) HAL_FDCAN_EnableTxDelayCompensation     : Enable the transmitter delay compensation
1639:Drivers/STM32H7xx_HAL_Driver/Src/stm32h7xx_hal_fdcan.c ****         (+) HAL_FDCAN_DisableTxDelayCompensation    : Disable the transmitter delay compensation
1640:Drivers/STM32H7xx_HAL_Driver/Src/stm32h7xx_hal_fdcan.c ****       (+) HAL_FDCAN_EnableISOMode                 : Enable ISO 11898-1 protocol mode
1641:Drivers/STM32H7xx_HAL_Driver/Src/stm32h7xx_hal_fdcan.c ****       (+) HAL_FDCAN_DisableISOMode                : Disable ISO 11898-1 protocol mode
1642:Drivers/STM32H7xx_HAL_Driver/Src/stm32h7xx_hal_fdcan.c ****       (+) HAL_FDCAN_EnableEdgeFiltering           : Enable edge filtering during bus integration
1643:Drivers/STM32H7xx_HAL_Driver/Src/stm32h7xx_hal_fdcan.c ****       (+) HAL_FDCAN_DisableEdgeFiltering          : Disable edge filtering during bus integration
1644:Drivers/STM32H7xx_HAL_Driver/Src/stm32h7xx_hal_fdcan.c **** 
1645:Drivers/STM32H7xx_HAL_Driver/Src/stm32h7xx_hal_fdcan.c **** @endverbatim
1646:Drivers/STM32H7xx_HAL_Driver/Src/stm32h7xx_hal_fdcan.c ****   * @{
1647:Drivers/STM32H7xx_HAL_Driver/Src/stm32h7xx_hal_fdcan.c ****   */
1648:Drivers/STM32H7xx_HAL_Driver/Src/stm32h7xx_hal_fdcan.c **** 
1649:Drivers/STM32H7xx_HAL_Driver/Src/stm32h7xx_hal_fdcan.c **** /**
1650:Drivers/STM32H7xx_HAL_Driver/Src/stm32h7xx_hal_fdcan.c ****   * @brief  Configure the FDCAN clock calibration unit according to the specified
1651:Drivers/STM32H7xx_HAL_Driver/Src/stm32h7xx_hal_fdcan.c ****   *         parameters in the FDCAN_ClkCalUnitTypeDef structure.
1652:Drivers/STM32H7xx_HAL_Driver/Src/stm32h7xx_hal_fdcan.c ****   * @param  hfdcan pointer to an FDCAN_HandleTypeDef structure that contains
1653:Drivers/STM32H7xx_HAL_Driver/Src/stm32h7xx_hal_fdcan.c ****   *         the configuration information for the specified FDCAN.
1654:Drivers/STM32H7xx_HAL_Driver/Src/stm32h7xx_hal_fdcan.c ****   * @param  sCcuConfig pointer to an FDCAN_ClkCalUnitTypeDef structure that
1655:Drivers/STM32H7xx_HAL_Driver/Src/stm32h7xx_hal_fdcan.c ****   *         contains the clock calibration information
1656:Drivers/STM32H7xx_HAL_Driver/Src/stm32h7xx_hal_fdcan.c ****   * @retval HAL status
1657:Drivers/STM32H7xx_HAL_Driver/Src/stm32h7xx_hal_fdcan.c ****   */
1658:Drivers/STM32H7xx_HAL_Driver/Src/stm32h7xx_hal_fdcan.c **** HAL_StatusTypeDef HAL_FDCAN_ConfigClockCalibration(FDCAN_HandleTypeDef *hfdcan, FDCAN_ClkCalUnitTyp
1659:Drivers/STM32H7xx_HAL_Driver/Src/stm32h7xx_hal_fdcan.c **** {
 993              		.loc 1 1659 1
 994              		.cfi_startproc
 995              		@ args = 0, pretend = 0, frame = 8
 996              		@ frame_needed = 1, uses_anonymous_args = 0
 997              		@ link register save eliminated.
 998 0000 80B4     		push	{r7}
 999              	.LCFI32:
 1000              		.cfi_def_cfa_offset 4
 1001              		.cfi_offset 7, -4
 1002 0002 83B0     		sub	sp, sp, #12
 1003              	.LCFI33:
 1004              		.cfi_def_cfa_offset 16
 1005 0004 00AF     		add	r7, sp, #0
 1006              	.LCFI34:
ARM GAS  C:\Users\Su\AppData\Local\Temp\ccsFXyek.s 			page 48


 1007              		.cfi_def_cfa_register 7
 1008 0006 7860     		str	r0, [r7, #4]
 1009 0008 3960     		str	r1, [r7]
1660:Drivers/STM32H7xx_HAL_Driver/Src/stm32h7xx_hal_fdcan.c ****   /* Check function parameters */
1661:Drivers/STM32H7xx_HAL_Driver/Src/stm32h7xx_hal_fdcan.c ****   assert_param(IS_FDCAN_CLOCK_CALIBRATION(sCcuConfig->ClockCalibration));
1662:Drivers/STM32H7xx_HAL_Driver/Src/stm32h7xx_hal_fdcan.c ****   if (sCcuConfig->ClockCalibration == FDCAN_CLOCK_CALIBRATION_DISABLE)
1663:Drivers/STM32H7xx_HAL_Driver/Src/stm32h7xx_hal_fdcan.c ****   {
1664:Drivers/STM32H7xx_HAL_Driver/Src/stm32h7xx_hal_fdcan.c ****     assert_param(IS_FDCAN_CKDIV(sCcuConfig->ClockDivider));
1665:Drivers/STM32H7xx_HAL_Driver/Src/stm32h7xx_hal_fdcan.c ****   }
1666:Drivers/STM32H7xx_HAL_Driver/Src/stm32h7xx_hal_fdcan.c ****   else
1667:Drivers/STM32H7xx_HAL_Driver/Src/stm32h7xx_hal_fdcan.c ****   {
1668:Drivers/STM32H7xx_HAL_Driver/Src/stm32h7xx_hal_fdcan.c ****     assert_param(IS_FDCAN_MAX_VALUE(sCcuConfig->MinOscClkPeriods, 0xFFU));
1669:Drivers/STM32H7xx_HAL_Driver/Src/stm32h7xx_hal_fdcan.c ****     assert_param(IS_FDCAN_CALIBRATION_FIELD_LENGTH(sCcuConfig->CalFieldLength));
1670:Drivers/STM32H7xx_HAL_Driver/Src/stm32h7xx_hal_fdcan.c ****     assert_param(IS_FDCAN_MIN_VALUE(sCcuConfig->TimeQuantaPerBitTime, 4U));
1671:Drivers/STM32H7xx_HAL_Driver/Src/stm32h7xx_hal_fdcan.c ****     assert_param(IS_FDCAN_MAX_VALUE(sCcuConfig->TimeQuantaPerBitTime, 0x25U));
1672:Drivers/STM32H7xx_HAL_Driver/Src/stm32h7xx_hal_fdcan.c ****     assert_param(IS_FDCAN_MAX_VALUE(sCcuConfig->WatchdogStartValue, 0xFFFFU));
1673:Drivers/STM32H7xx_HAL_Driver/Src/stm32h7xx_hal_fdcan.c ****   }
1674:Drivers/STM32H7xx_HAL_Driver/Src/stm32h7xx_hal_fdcan.c **** 
1675:Drivers/STM32H7xx_HAL_Driver/Src/stm32h7xx_hal_fdcan.c ****   /* FDCAN1 should be initialized in order to use clock calibration */
1676:Drivers/STM32H7xx_HAL_Driver/Src/stm32h7xx_hal_fdcan.c ****   if (hfdcan->Instance != FDCAN1)
 1010              		.loc 1 1676 13
 1011 000a 7B68     		ldr	r3, [r7, #4]
 1012 000c 1B68     		ldr	r3, [r3]
 1013              		.loc 1 1676 6
 1014 000e 2B4A     		ldr	r2, .L50
 1015 0010 9342     		cmp	r3, r2
 1016 0012 09D0     		beq	.L45
1677:Drivers/STM32H7xx_HAL_Driver/Src/stm32h7xx_hal_fdcan.c ****   {
1678:Drivers/STM32H7xx_HAL_Driver/Src/stm32h7xx_hal_fdcan.c ****     /* Update error code */
1679:Drivers/STM32H7xx_HAL_Driver/Src/stm32h7xx_hal_fdcan.c ****     hfdcan->ErrorCode |= HAL_FDCAN_ERROR_PARAM;
 1017              		.loc 1 1679 23
 1018 0014 7B68     		ldr	r3, [r7, #4]
 1019 0016 D3F89C30 		ldr	r3, [r3, #156]
 1020 001a 43F02002 		orr	r2, r3, #32
 1021 001e 7B68     		ldr	r3, [r7, #4]
 1022 0020 C3F89C20 		str	r2, [r3, #156]
1680:Drivers/STM32H7xx_HAL_Driver/Src/stm32h7xx_hal_fdcan.c **** 
1681:Drivers/STM32H7xx_HAL_Driver/Src/stm32h7xx_hal_fdcan.c ****     return HAL_ERROR;
 1023              		.loc 1 1681 12
 1024 0024 0123     		movs	r3, #1
 1025 0026 43E0     		b	.L46
 1026              	.L45:
1682:Drivers/STM32H7xx_HAL_Driver/Src/stm32h7xx_hal_fdcan.c ****   }
1683:Drivers/STM32H7xx_HAL_Driver/Src/stm32h7xx_hal_fdcan.c **** 
1684:Drivers/STM32H7xx_HAL_Driver/Src/stm32h7xx_hal_fdcan.c ****   if (hfdcan->State == HAL_FDCAN_STATE_READY)
 1027              		.loc 1 1684 13
 1028 0028 7B68     		ldr	r3, [r7, #4]
 1029 002a 93F89830 		ldrb	r3, [r3, #152]
 1030 002e DBB2     		uxtb	r3, r3
 1031              		.loc 1 1684 6
 1032 0030 012B     		cmp	r3, #1
 1033 0032 34D1     		bne	.L47
1685:Drivers/STM32H7xx_HAL_Driver/Src/stm32h7xx_hal_fdcan.c ****   {
1686:Drivers/STM32H7xx_HAL_Driver/Src/stm32h7xx_hal_fdcan.c ****     if (sCcuConfig->ClockCalibration == FDCAN_CLOCK_CALIBRATION_DISABLE)
 1034              		.loc 1 1686 19
 1035 0034 3B68     		ldr	r3, [r7]
 1036 0036 1B68     		ldr	r3, [r3]
ARM GAS  C:\Users\Su\AppData\Local\Temp\ccsFXyek.s 			page 49


 1037              		.loc 1 1686 8
 1038 0038 002B     		cmp	r3, #0
 1039 003a 0FD1     		bne	.L48
1687:Drivers/STM32H7xx_HAL_Driver/Src/stm32h7xx_hal_fdcan.c ****     {
1688:Drivers/STM32H7xx_HAL_Driver/Src/stm32h7xx_hal_fdcan.c ****       /* Bypass clock calibration */
1689:Drivers/STM32H7xx_HAL_Driver/Src/stm32h7xx_hal_fdcan.c ****       SET_BIT(FDCAN_CCU->CCFG, FDCANCCU_CCFG_BCC);
 1040              		.loc 1 1689 7
 1041 003c 204B     		ldr	r3, .L50+4
 1042 003e 5B68     		ldr	r3, [r3, #4]
 1043 0040 1F4A     		ldr	r2, .L50+4
 1044 0042 43F04003 		orr	r3, r3, #64
 1045 0046 5360     		str	r3, [r2, #4]
1690:Drivers/STM32H7xx_HAL_Driver/Src/stm32h7xx_hal_fdcan.c **** 
1691:Drivers/STM32H7xx_HAL_Driver/Src/stm32h7xx_hal_fdcan.c ****       /* Configure clock divider */
1692:Drivers/STM32H7xx_HAL_Driver/Src/stm32h7xx_hal_fdcan.c ****       MODIFY_REG(FDCAN_CCU->CCFG, FDCANCCU_CCFG_CDIV, sCcuConfig->ClockDivider);
 1046              		.loc 1 1692 7
 1047 0048 1D4B     		ldr	r3, .L50+4
 1048 004a 5B68     		ldr	r3, [r3, #4]
 1049 004c 23F47022 		bic	r2, r3, #983040
 1050 0050 3B68     		ldr	r3, [r7]
 1051 0052 5B68     		ldr	r3, [r3, #4]
 1052 0054 1A49     		ldr	r1, .L50+4
 1053 0056 1343     		orrs	r3, r3, r2
 1054 0058 4B60     		str	r3, [r1, #4]
 1055 005a 1EE0     		b	.L49
 1056              	.L48:
1693:Drivers/STM32H7xx_HAL_Driver/Src/stm32h7xx_hal_fdcan.c ****     }
1694:Drivers/STM32H7xx_HAL_Driver/Src/stm32h7xx_hal_fdcan.c ****     else /* sCcuConfig->ClockCalibration == ENABLE */
1695:Drivers/STM32H7xx_HAL_Driver/Src/stm32h7xx_hal_fdcan.c ****     {
1696:Drivers/STM32H7xx_HAL_Driver/Src/stm32h7xx_hal_fdcan.c ****       /* Clock calibration unit generates time quanta clock */
1697:Drivers/STM32H7xx_HAL_Driver/Src/stm32h7xx_hal_fdcan.c ****       CLEAR_BIT(FDCAN_CCU->CCFG, FDCANCCU_CCFG_BCC);
 1057              		.loc 1 1697 7
 1058 005c 184B     		ldr	r3, .L50+4
 1059 005e 5B68     		ldr	r3, [r3, #4]
 1060 0060 174A     		ldr	r2, .L50+4
 1061 0062 23F04003 		bic	r3, r3, #64
 1062 0066 5360     		str	r3, [r2, #4]
1698:Drivers/STM32H7xx_HAL_Driver/Src/stm32h7xx_hal_fdcan.c **** 
1699:Drivers/STM32H7xx_HAL_Driver/Src/stm32h7xx_hal_fdcan.c ****       /* Configure clock calibration unit */
1700:Drivers/STM32H7xx_HAL_Driver/Src/stm32h7xx_hal_fdcan.c ****       MODIFY_REG(FDCAN_CCU->CCFG,
 1063              		.loc 1 1700 7
 1064 0068 154B     		ldr	r3, .L50+4
 1065 006a 5A68     		ldr	r2, [r3, #4]
 1066 006c 154B     		ldr	r3, .L50+8
 1067 006e 1340     		ands	r3, r3, r2
 1068 0070 3A68     		ldr	r2, [r7]
 1069 0072 1169     		ldr	r1, [r2, #16]
 1070 0074 3A68     		ldr	r2, [r7]
 1071 0076 D268     		ldr	r2, [r2, #12]
 1072 0078 1143     		orrs	r1, r1, r2
 1073 007a 3A68     		ldr	r2, [r7]
 1074 007c 9268     		ldr	r2, [r2, #8]
 1075 007e 1202     		lsls	r2, r2, #8
 1076 0080 0A43     		orrs	r2, r2, r1
 1077 0082 0F49     		ldr	r1, .L50+4
 1078 0084 1343     		orrs	r3, r3, r2
 1079 0086 4B60     		str	r3, [r1, #4]
ARM GAS  C:\Users\Su\AppData\Local\Temp\ccsFXyek.s 			page 50


1701:Drivers/STM32H7xx_HAL_Driver/Src/stm32h7xx_hal_fdcan.c ****                  (FDCANCCU_CCFG_TQBT | FDCANCCU_CCFG_CFL | FDCANCCU_CCFG_OCPM),
1702:Drivers/STM32H7xx_HAL_Driver/Src/stm32h7xx_hal_fdcan.c ****                  ((sCcuConfig->TimeQuantaPerBitTime << FDCANCCU_CCFG_TQBT_Pos) | sCcuConfig->CalFie
1703:Drivers/STM32H7xx_HAL_Driver/Src/stm32h7xx_hal_fdcan.c **** 
1704:Drivers/STM32H7xx_HAL_Driver/Src/stm32h7xx_hal_fdcan.c ****       /* Configure the start value of the calibration watchdog counter */
1705:Drivers/STM32H7xx_HAL_Driver/Src/stm32h7xx_hal_fdcan.c ****       MODIFY_REG(FDCAN_CCU->CWD, FDCANCCU_CWD_WDC, sCcuConfig->WatchdogStartValue);
 1080              		.loc 1 1705 7
 1081 0088 0D4B     		ldr	r3, .L50+4
 1082 008a DA68     		ldr	r2, [r3, #12]
 1083 008c 0E4B     		ldr	r3, .L50+12
 1084 008e 1340     		ands	r3, r3, r2
 1085 0090 3A68     		ldr	r2, [r7]
 1086 0092 5269     		ldr	r2, [r2, #20]
 1087 0094 0A49     		ldr	r1, .L50+4
 1088 0096 1343     		orrs	r3, r3, r2
 1089 0098 CB60     		str	r3, [r1, #12]
 1090              	.L49:
1706:Drivers/STM32H7xx_HAL_Driver/Src/stm32h7xx_hal_fdcan.c ****     }
1707:Drivers/STM32H7xx_HAL_Driver/Src/stm32h7xx_hal_fdcan.c **** 
1708:Drivers/STM32H7xx_HAL_Driver/Src/stm32h7xx_hal_fdcan.c ****     /* Return function status */
1709:Drivers/STM32H7xx_HAL_Driver/Src/stm32h7xx_hal_fdcan.c ****     return HAL_OK;
 1091              		.loc 1 1709 12
 1092 009a 0023     		movs	r3, #0
 1093 009c 08E0     		b	.L46
 1094              	.L47:
1710:Drivers/STM32H7xx_HAL_Driver/Src/stm32h7xx_hal_fdcan.c ****   }
1711:Drivers/STM32H7xx_HAL_Driver/Src/stm32h7xx_hal_fdcan.c ****   else
1712:Drivers/STM32H7xx_HAL_Driver/Src/stm32h7xx_hal_fdcan.c ****   {
1713:Drivers/STM32H7xx_HAL_Driver/Src/stm32h7xx_hal_fdcan.c ****     /* Update error code */
1714:Drivers/STM32H7xx_HAL_Driver/Src/stm32h7xx_hal_fdcan.c ****     hfdcan->ErrorCode |= HAL_FDCAN_ERROR_NOT_READY;
 1095              		.loc 1 1714 23
 1096 009e 7B68     		ldr	r3, [r7, #4]
 1097 00a0 D3F89C30 		ldr	r3, [r3, #156]
 1098 00a4 43F00402 		orr	r2, r3, #4
 1099 00a8 7B68     		ldr	r3, [r7, #4]
 1100 00aa C3F89C20 		str	r2, [r3, #156]
1715:Drivers/STM32H7xx_HAL_Driver/Src/stm32h7xx_hal_fdcan.c **** 
1716:Drivers/STM32H7xx_HAL_Driver/Src/stm32h7xx_hal_fdcan.c ****     return HAL_ERROR;
 1101              		.loc 1 1716 12
 1102 00ae 0123     		movs	r3, #1
 1103              	.L46:
1717:Drivers/STM32H7xx_HAL_Driver/Src/stm32h7xx_hal_fdcan.c ****   }
1718:Drivers/STM32H7xx_HAL_Driver/Src/stm32h7xx_hal_fdcan.c **** }
 1104              		.loc 1 1718 1
 1105 00b0 1846     		mov	r0, r3
 1106 00b2 0C37     		adds	r7, r7, #12
 1107              	.LCFI35:
 1108              		.cfi_def_cfa_offset 4
 1109 00b4 BD46     		mov	sp, r7
 1110              	.LCFI36:
 1111              		.cfi_def_cfa_register 13
 1112              		@ sp needed
 1113 00b6 5DF8047B 		ldr	r7, [sp], #4
 1114              	.LCFI37:
 1115              		.cfi_restore 7
 1116              		.cfi_def_cfa_offset 0
 1117 00ba 7047     		bx	lr
 1118              	.L51:
ARM GAS  C:\Users\Su\AppData\Local\Temp\ccsFXyek.s 			page 51


 1119              		.align	2
 1120              	.L50:
 1121 00bc 00A00040 		.word	1073782784
 1122 00c0 00A80040 		.word	1073784832
 1123 00c4 6000FFFF 		.word	-65440
 1124 00c8 0000FFFF 		.word	-65536
 1125              		.cfi_endproc
 1126              	.LFE150:
 1128              		.section	.text.HAL_FDCAN_GetClockCalibrationState,"ax",%progbits
 1129              		.align	1
 1130              		.global	HAL_FDCAN_GetClockCalibrationState
 1131              		.syntax unified
 1132              		.thumb
 1133              		.thumb_func
 1135              	HAL_FDCAN_GetClockCalibrationState:
 1136              	.LFB151:
1719:Drivers/STM32H7xx_HAL_Driver/Src/stm32h7xx_hal_fdcan.c **** 
1720:Drivers/STM32H7xx_HAL_Driver/Src/stm32h7xx_hal_fdcan.c **** /**
1721:Drivers/STM32H7xx_HAL_Driver/Src/stm32h7xx_hal_fdcan.c ****   * @brief  Get the clock calibration state.
1722:Drivers/STM32H7xx_HAL_Driver/Src/stm32h7xx_hal_fdcan.c ****   * @param  hfdcan pointer to an FDCAN_HandleTypeDef structure that contains
1723:Drivers/STM32H7xx_HAL_Driver/Src/stm32h7xx_hal_fdcan.c ****   *         the configuration information for the specified FDCAN.
1724:Drivers/STM32H7xx_HAL_Driver/Src/stm32h7xx_hal_fdcan.c ****   * @retval State clock calibration state (can be a value of @arg FDCAN_calibration_state)
1725:Drivers/STM32H7xx_HAL_Driver/Src/stm32h7xx_hal_fdcan.c ****   */
1726:Drivers/STM32H7xx_HAL_Driver/Src/stm32h7xx_hal_fdcan.c **** uint32_t HAL_FDCAN_GetClockCalibrationState(FDCAN_HandleTypeDef *hfdcan)
1727:Drivers/STM32H7xx_HAL_Driver/Src/stm32h7xx_hal_fdcan.c **** {
 1137              		.loc 1 1727 1
 1138              		.cfi_startproc
 1139              		@ args = 0, pretend = 0, frame = 8
 1140              		@ frame_needed = 1, uses_anonymous_args = 0
 1141              		@ link register save eliminated.
 1142 0000 80B4     		push	{r7}
 1143              	.LCFI38:
 1144              		.cfi_def_cfa_offset 4
 1145              		.cfi_offset 7, -4
 1146 0002 83B0     		sub	sp, sp, #12
 1147              	.LCFI39:
 1148              		.cfi_def_cfa_offset 16
 1149 0004 00AF     		add	r7, sp, #0
 1150              	.LCFI40:
 1151              		.cfi_def_cfa_register 7
 1152 0006 7860     		str	r0, [r7, #4]
1728:Drivers/STM32H7xx_HAL_Driver/Src/stm32h7xx_hal_fdcan.c ****   /* Prevent unused argument(s) compilation warning */
1729:Drivers/STM32H7xx_HAL_Driver/Src/stm32h7xx_hal_fdcan.c ****   UNUSED(hfdcan);
1730:Drivers/STM32H7xx_HAL_Driver/Src/stm32h7xx_hal_fdcan.c **** 
1731:Drivers/STM32H7xx_HAL_Driver/Src/stm32h7xx_hal_fdcan.c ****   return (FDCAN_CCU->CSTAT & FDCANCCU_CSTAT_CALS);
 1153              		.loc 1 1731 20
 1154 0008 044B     		ldr	r3, .L54
 1155 000a 9B68     		ldr	r3, [r3, #8]
 1156              		.loc 1 1731 28
 1157 000c 03F04043 		and	r3, r3, #-1073741824
1732:Drivers/STM32H7xx_HAL_Driver/Src/stm32h7xx_hal_fdcan.c **** }
 1158              		.loc 1 1732 1
 1159 0010 1846     		mov	r0, r3
 1160 0012 0C37     		adds	r7, r7, #12
 1161              	.LCFI41:
 1162              		.cfi_def_cfa_offset 4
 1163 0014 BD46     		mov	sp, r7
ARM GAS  C:\Users\Su\AppData\Local\Temp\ccsFXyek.s 			page 52


 1164              	.LCFI42:
 1165              		.cfi_def_cfa_register 13
 1166              		@ sp needed
 1167 0016 5DF8047B 		ldr	r7, [sp], #4
 1168              	.LCFI43:
 1169              		.cfi_restore 7
 1170              		.cfi_def_cfa_offset 0
 1171 001a 7047     		bx	lr
 1172              	.L55:
 1173              		.align	2
 1174              	.L54:
 1175 001c 00A80040 		.word	1073784832
 1176              		.cfi_endproc
 1177              	.LFE151:
 1179              		.section	.text.HAL_FDCAN_ResetClockCalibrationState,"ax",%progbits
 1180              		.align	1
 1181              		.global	HAL_FDCAN_ResetClockCalibrationState
 1182              		.syntax unified
 1183              		.thumb
 1184              		.thumb_func
 1186              	HAL_FDCAN_ResetClockCalibrationState:
 1187              	.LFB152:
1733:Drivers/STM32H7xx_HAL_Driver/Src/stm32h7xx_hal_fdcan.c **** 
1734:Drivers/STM32H7xx_HAL_Driver/Src/stm32h7xx_hal_fdcan.c **** /**
1735:Drivers/STM32H7xx_HAL_Driver/Src/stm32h7xx_hal_fdcan.c ****   * @brief  Reset the clock calibration state.
1736:Drivers/STM32H7xx_HAL_Driver/Src/stm32h7xx_hal_fdcan.c ****   * @param  hfdcan pointer to an FDCAN_HandleTypeDef structure that contains
1737:Drivers/STM32H7xx_HAL_Driver/Src/stm32h7xx_hal_fdcan.c ****   *         the configuration information for the specified FDCAN.
1738:Drivers/STM32H7xx_HAL_Driver/Src/stm32h7xx_hal_fdcan.c ****   * @retval HAL status
1739:Drivers/STM32H7xx_HAL_Driver/Src/stm32h7xx_hal_fdcan.c ****   */
1740:Drivers/STM32H7xx_HAL_Driver/Src/stm32h7xx_hal_fdcan.c **** HAL_StatusTypeDef HAL_FDCAN_ResetClockCalibrationState(FDCAN_HandleTypeDef *hfdcan)
1741:Drivers/STM32H7xx_HAL_Driver/Src/stm32h7xx_hal_fdcan.c **** {
 1188              		.loc 1 1741 1
 1189              		.cfi_startproc
 1190              		@ args = 0, pretend = 0, frame = 8
 1191              		@ frame_needed = 1, uses_anonymous_args = 0
 1192              		@ link register save eliminated.
 1193 0000 80B4     		push	{r7}
 1194              	.LCFI44:
 1195              		.cfi_def_cfa_offset 4
 1196              		.cfi_offset 7, -4
 1197 0002 83B0     		sub	sp, sp, #12
 1198              	.LCFI45:
 1199              		.cfi_def_cfa_offset 16
 1200 0004 00AF     		add	r7, sp, #0
 1201              	.LCFI46:
 1202              		.cfi_def_cfa_register 7
 1203 0006 7860     		str	r0, [r7, #4]
1742:Drivers/STM32H7xx_HAL_Driver/Src/stm32h7xx_hal_fdcan.c ****   /* FDCAN1 should be initialized in order to use clock calibration */
1743:Drivers/STM32H7xx_HAL_Driver/Src/stm32h7xx_hal_fdcan.c ****   if (hfdcan->Instance != FDCAN1)
 1204              		.loc 1 1743 13
 1205 0008 7B68     		ldr	r3, [r7, #4]
 1206 000a 1B68     		ldr	r3, [r3]
 1207              		.loc 1 1743 6
 1208 000c 144A     		ldr	r2, .L60
 1209 000e 9342     		cmp	r3, r2
 1210 0010 09D0     		beq	.L57
1744:Drivers/STM32H7xx_HAL_Driver/Src/stm32h7xx_hal_fdcan.c ****   {
ARM GAS  C:\Users\Su\AppData\Local\Temp\ccsFXyek.s 			page 53


1745:Drivers/STM32H7xx_HAL_Driver/Src/stm32h7xx_hal_fdcan.c ****     /* Update error code */
1746:Drivers/STM32H7xx_HAL_Driver/Src/stm32h7xx_hal_fdcan.c ****     hfdcan->ErrorCode |= HAL_FDCAN_ERROR_PARAM;
 1211              		.loc 1 1746 23
 1212 0012 7B68     		ldr	r3, [r7, #4]
 1213 0014 D3F89C30 		ldr	r3, [r3, #156]
 1214 0018 43F02002 		orr	r2, r3, #32
 1215 001c 7B68     		ldr	r3, [r7, #4]
 1216 001e C3F89C20 		str	r2, [r3, #156]
1747:Drivers/STM32H7xx_HAL_Driver/Src/stm32h7xx_hal_fdcan.c **** 
1748:Drivers/STM32H7xx_HAL_Driver/Src/stm32h7xx_hal_fdcan.c ****     return HAL_ERROR;
 1217              		.loc 1 1748 12
 1218 0022 0123     		movs	r3, #1
 1219 0024 16E0     		b	.L58
 1220              	.L57:
1749:Drivers/STM32H7xx_HAL_Driver/Src/stm32h7xx_hal_fdcan.c ****   }
1750:Drivers/STM32H7xx_HAL_Driver/Src/stm32h7xx_hal_fdcan.c **** 
1751:Drivers/STM32H7xx_HAL_Driver/Src/stm32h7xx_hal_fdcan.c ****   if (hfdcan->State == HAL_FDCAN_STATE_READY)
 1221              		.loc 1 1751 13
 1222 0026 7B68     		ldr	r3, [r7, #4]
 1223 0028 93F89830 		ldrb	r3, [r3, #152]
 1224 002c DBB2     		uxtb	r3, r3
 1225              		.loc 1 1751 6
 1226 002e 012B     		cmp	r3, #1
 1227 0030 07D1     		bne	.L59
1752:Drivers/STM32H7xx_HAL_Driver/Src/stm32h7xx_hal_fdcan.c ****   {
1753:Drivers/STM32H7xx_HAL_Driver/Src/stm32h7xx_hal_fdcan.c ****     /* Calibration software reset */
1754:Drivers/STM32H7xx_HAL_Driver/Src/stm32h7xx_hal_fdcan.c ****     SET_BIT(FDCAN_CCU->CCFG, FDCANCCU_CCFG_SWR);
 1228              		.loc 1 1754 5
 1229 0032 0C4B     		ldr	r3, .L60+4
 1230 0034 5B68     		ldr	r3, [r3, #4]
 1231 0036 0B4A     		ldr	r2, .L60+4
 1232 0038 43F00043 		orr	r3, r3, #-2147483648
 1233 003c 5360     		str	r3, [r2, #4]
1755:Drivers/STM32H7xx_HAL_Driver/Src/stm32h7xx_hal_fdcan.c **** 
1756:Drivers/STM32H7xx_HAL_Driver/Src/stm32h7xx_hal_fdcan.c ****     /* Return function status */
1757:Drivers/STM32H7xx_HAL_Driver/Src/stm32h7xx_hal_fdcan.c ****     return HAL_OK;
 1234              		.loc 1 1757 12
 1235 003e 0023     		movs	r3, #0
 1236 0040 08E0     		b	.L58
 1237              	.L59:
1758:Drivers/STM32H7xx_HAL_Driver/Src/stm32h7xx_hal_fdcan.c ****   }
1759:Drivers/STM32H7xx_HAL_Driver/Src/stm32h7xx_hal_fdcan.c ****   else
1760:Drivers/STM32H7xx_HAL_Driver/Src/stm32h7xx_hal_fdcan.c ****   {
1761:Drivers/STM32H7xx_HAL_Driver/Src/stm32h7xx_hal_fdcan.c ****     /* Update error code */
1762:Drivers/STM32H7xx_HAL_Driver/Src/stm32h7xx_hal_fdcan.c ****     hfdcan->ErrorCode |= HAL_FDCAN_ERROR_NOT_READY;
 1238              		.loc 1 1762 23
 1239 0042 7B68     		ldr	r3, [r7, #4]
 1240 0044 D3F89C30 		ldr	r3, [r3, #156]
 1241 0048 43F00402 		orr	r2, r3, #4
 1242 004c 7B68     		ldr	r3, [r7, #4]
 1243 004e C3F89C20 		str	r2, [r3, #156]
1763:Drivers/STM32H7xx_HAL_Driver/Src/stm32h7xx_hal_fdcan.c **** 
1764:Drivers/STM32H7xx_HAL_Driver/Src/stm32h7xx_hal_fdcan.c ****     return HAL_ERROR;
 1244              		.loc 1 1764 12
 1245 0052 0123     		movs	r3, #1
 1246              	.L58:
1765:Drivers/STM32H7xx_HAL_Driver/Src/stm32h7xx_hal_fdcan.c ****   }
ARM GAS  C:\Users\Su\AppData\Local\Temp\ccsFXyek.s 			page 54


1766:Drivers/STM32H7xx_HAL_Driver/Src/stm32h7xx_hal_fdcan.c **** }
 1247              		.loc 1 1766 1
 1248 0054 1846     		mov	r0, r3
 1249 0056 0C37     		adds	r7, r7, #12
 1250              	.LCFI47:
 1251              		.cfi_def_cfa_offset 4
 1252 0058 BD46     		mov	sp, r7
 1253              	.LCFI48:
 1254              		.cfi_def_cfa_register 13
 1255              		@ sp needed
 1256 005a 5DF8047B 		ldr	r7, [sp], #4
 1257              	.LCFI49:
 1258              		.cfi_restore 7
 1259              		.cfi_def_cfa_offset 0
 1260 005e 7047     		bx	lr
 1261              	.L61:
 1262              		.align	2
 1263              	.L60:
 1264 0060 00A00040 		.word	1073782784
 1265 0064 00A80040 		.word	1073784832
 1266              		.cfi_endproc
 1267              	.LFE152:
 1269              		.section	.text.HAL_FDCAN_GetClockCalibrationCounter,"ax",%progbits
 1270              		.align	1
 1271              		.global	HAL_FDCAN_GetClockCalibrationCounter
 1272              		.syntax unified
 1273              		.thumb
 1274              		.thumb_func
 1276              	HAL_FDCAN_GetClockCalibrationCounter:
 1277              	.LFB153:
1767:Drivers/STM32H7xx_HAL_Driver/Src/stm32h7xx_hal_fdcan.c **** 
1768:Drivers/STM32H7xx_HAL_Driver/Src/stm32h7xx_hal_fdcan.c **** /**
1769:Drivers/STM32H7xx_HAL_Driver/Src/stm32h7xx_hal_fdcan.c ****   * @brief  Get the clock calibration counter value.
1770:Drivers/STM32H7xx_HAL_Driver/Src/stm32h7xx_hal_fdcan.c ****   * @param  hfdcan pointer to an FDCAN_HandleTypeDef structure that contains
1771:Drivers/STM32H7xx_HAL_Driver/Src/stm32h7xx_hal_fdcan.c ****   *         the configuration information for the specified FDCAN.
1772:Drivers/STM32H7xx_HAL_Driver/Src/stm32h7xx_hal_fdcan.c ****   * @param  Counter clock calibration counter.
1773:Drivers/STM32H7xx_HAL_Driver/Src/stm32h7xx_hal_fdcan.c ****   *         This parameter can be a value of @arg FDCAN_calibration_counter.
1774:Drivers/STM32H7xx_HAL_Driver/Src/stm32h7xx_hal_fdcan.c ****   * @retval Value clock calibration counter value
1775:Drivers/STM32H7xx_HAL_Driver/Src/stm32h7xx_hal_fdcan.c ****   */
1776:Drivers/STM32H7xx_HAL_Driver/Src/stm32h7xx_hal_fdcan.c **** uint32_t HAL_FDCAN_GetClockCalibrationCounter(FDCAN_HandleTypeDef *hfdcan, uint32_t Counter)
1777:Drivers/STM32H7xx_HAL_Driver/Src/stm32h7xx_hal_fdcan.c **** {
 1278              		.loc 1 1777 1
 1279              		.cfi_startproc
 1280              		@ args = 0, pretend = 0, frame = 8
 1281              		@ frame_needed = 1, uses_anonymous_args = 0
 1282              		@ link register save eliminated.
 1283 0000 80B4     		push	{r7}
 1284              	.LCFI50:
 1285              		.cfi_def_cfa_offset 4
 1286              		.cfi_offset 7, -4
 1287 0002 83B0     		sub	sp, sp, #12
 1288              	.LCFI51:
 1289              		.cfi_def_cfa_offset 16
 1290 0004 00AF     		add	r7, sp, #0
 1291              	.LCFI52:
 1292              		.cfi_def_cfa_register 7
 1293 0006 7860     		str	r0, [r7, #4]
ARM GAS  C:\Users\Su\AppData\Local\Temp\ccsFXyek.s 			page 55


 1294 0008 3960     		str	r1, [r7]
1778:Drivers/STM32H7xx_HAL_Driver/Src/stm32h7xx_hal_fdcan.c ****   /* Prevent unused argument(s) compilation warning */
1779:Drivers/STM32H7xx_HAL_Driver/Src/stm32h7xx_hal_fdcan.c ****   UNUSED(hfdcan);
1780:Drivers/STM32H7xx_HAL_Driver/Src/stm32h7xx_hal_fdcan.c **** 
1781:Drivers/STM32H7xx_HAL_Driver/Src/stm32h7xx_hal_fdcan.c ****   /* Check function parameters */
1782:Drivers/STM32H7xx_HAL_Driver/Src/stm32h7xx_hal_fdcan.c ****   assert_param(IS_FDCAN_CALIBRATION_COUNTER(Counter));
1783:Drivers/STM32H7xx_HAL_Driver/Src/stm32h7xx_hal_fdcan.c **** 
1784:Drivers/STM32H7xx_HAL_Driver/Src/stm32h7xx_hal_fdcan.c ****   if (Counter == FDCAN_CALIB_TIME_QUANTA_COUNTER)
 1295              		.loc 1 1784 6
 1296 000a 3B68     		ldr	r3, [r7]
 1297 000c 002B     		cmp	r3, #0
 1298 000e 05D1     		bne	.L63
1785:Drivers/STM32H7xx_HAL_Driver/Src/stm32h7xx_hal_fdcan.c ****   {
1786:Drivers/STM32H7xx_HAL_Driver/Src/stm32h7xx_hal_fdcan.c ****     return ((FDCAN_CCU->CSTAT & FDCANCCU_CSTAT_TQC) >> FDCANCCU_CSTAT_TQC_Pos);
 1299              		.loc 1 1786 23
 1300 0010 0B4B     		ldr	r3, .L66
 1301 0012 9B68     		ldr	r3, [r3, #8]
 1302              		.loc 1 1786 53
 1303 0014 9B0C     		lsrs	r3, r3, #18
 1304 0016 C3F30A03 		ubfx	r3, r3, #0, #11
 1305 001a 0BE0     		b	.L64
 1306              	.L63:
1787:Drivers/STM32H7xx_HAL_Driver/Src/stm32h7xx_hal_fdcan.c ****   }
1788:Drivers/STM32H7xx_HAL_Driver/Src/stm32h7xx_hal_fdcan.c ****   else if (Counter == FDCAN_CALIB_CLOCK_PERIOD_COUNTER)
 1307              		.loc 1 1788 11
 1308 001c 3B68     		ldr	r3, [r7]
 1309 001e 012B     		cmp	r3, #1
 1310 0020 04D1     		bne	.L65
1789:Drivers/STM32H7xx_HAL_Driver/Src/stm32h7xx_hal_fdcan.c ****   {
1790:Drivers/STM32H7xx_HAL_Driver/Src/stm32h7xx_hal_fdcan.c ****     return (FDCAN_CCU->CSTAT & FDCANCCU_CSTAT_OCPC);
 1311              		.loc 1 1790 22
 1312 0022 074B     		ldr	r3, .L66
 1313 0024 9B68     		ldr	r3, [r3, #8]
 1314              		.loc 1 1790 30
 1315 0026 C3F31103 		ubfx	r3, r3, #0, #18
 1316 002a 03E0     		b	.L64
 1317              	.L65:
1791:Drivers/STM32H7xx_HAL_Driver/Src/stm32h7xx_hal_fdcan.c ****   }
1792:Drivers/STM32H7xx_HAL_Driver/Src/stm32h7xx_hal_fdcan.c ****   else /* Counter == FDCAN_CALIB_WATCHDOG_COUNTER */
1793:Drivers/STM32H7xx_HAL_Driver/Src/stm32h7xx_hal_fdcan.c ****   {
1794:Drivers/STM32H7xx_HAL_Driver/Src/stm32h7xx_hal_fdcan.c ****     return ((FDCAN_CCU->CWD & FDCANCCU_CWD_WDV) >> FDCANCCU_CWD_WDV_Pos);
 1318              		.loc 1 1794 23
 1319 002c 044B     		ldr	r3, .L66
 1320 002e DB68     		ldr	r3, [r3, #12]
 1321              		.loc 1 1794 49
 1322 0030 1B0C     		lsrs	r3, r3, #16
 1323 0032 9BB2     		uxth	r3, r3
 1324              	.L64:
1795:Drivers/STM32H7xx_HAL_Driver/Src/stm32h7xx_hal_fdcan.c ****   }
1796:Drivers/STM32H7xx_HAL_Driver/Src/stm32h7xx_hal_fdcan.c **** }
 1325              		.loc 1 1796 1
 1326 0034 1846     		mov	r0, r3
 1327 0036 0C37     		adds	r7, r7, #12
 1328              	.LCFI53:
 1329              		.cfi_def_cfa_offset 4
 1330 0038 BD46     		mov	sp, r7
 1331              	.LCFI54:
ARM GAS  C:\Users\Su\AppData\Local\Temp\ccsFXyek.s 			page 56


 1332              		.cfi_def_cfa_register 13
 1333              		@ sp needed
 1334 003a 5DF8047B 		ldr	r7, [sp], #4
 1335              	.LCFI55:
 1336              		.cfi_restore 7
 1337              		.cfi_def_cfa_offset 0
 1338 003e 7047     		bx	lr
 1339              	.L67:
 1340              		.align	2
 1341              	.L66:
 1342 0040 00A80040 		.word	1073784832
 1343              		.cfi_endproc
 1344              	.LFE153:
 1346              		.section	.text.HAL_FDCAN_ConfigFilter,"ax",%progbits
 1347              		.align	1
 1348              		.global	HAL_FDCAN_ConfigFilter
 1349              		.syntax unified
 1350              		.thumb
 1351              		.thumb_func
 1353              	HAL_FDCAN_ConfigFilter:
 1354              	.LFB154:
1797:Drivers/STM32H7xx_HAL_Driver/Src/stm32h7xx_hal_fdcan.c **** 
1798:Drivers/STM32H7xx_HAL_Driver/Src/stm32h7xx_hal_fdcan.c **** /**
1799:Drivers/STM32H7xx_HAL_Driver/Src/stm32h7xx_hal_fdcan.c ****   * @brief  Configure the FDCAN reception filter according to the specified
1800:Drivers/STM32H7xx_HAL_Driver/Src/stm32h7xx_hal_fdcan.c ****   *         parameters in the FDCAN_FilterTypeDef structure.
1801:Drivers/STM32H7xx_HAL_Driver/Src/stm32h7xx_hal_fdcan.c ****   * @param  hfdcan pointer to an FDCAN_HandleTypeDef structure that contains
1802:Drivers/STM32H7xx_HAL_Driver/Src/stm32h7xx_hal_fdcan.c ****   *         the configuration information for the specified FDCAN.
1803:Drivers/STM32H7xx_HAL_Driver/Src/stm32h7xx_hal_fdcan.c ****   * @param  sFilterConfig pointer to an FDCAN_FilterTypeDef structure that
1804:Drivers/STM32H7xx_HAL_Driver/Src/stm32h7xx_hal_fdcan.c ****   *         contains the filter configuration information
1805:Drivers/STM32H7xx_HAL_Driver/Src/stm32h7xx_hal_fdcan.c ****   * @retval HAL status
1806:Drivers/STM32H7xx_HAL_Driver/Src/stm32h7xx_hal_fdcan.c ****   */
1807:Drivers/STM32H7xx_HAL_Driver/Src/stm32h7xx_hal_fdcan.c **** HAL_StatusTypeDef HAL_FDCAN_ConfigFilter(FDCAN_HandleTypeDef *hfdcan, FDCAN_FilterTypeDef *sFilterC
1808:Drivers/STM32H7xx_HAL_Driver/Src/stm32h7xx_hal_fdcan.c **** {
 1355              		.loc 1 1808 1
 1356              		.cfi_startproc
 1357              		@ args = 0, pretend = 0, frame = 24
 1358              		@ frame_needed = 1, uses_anonymous_args = 0
 1359              		@ link register save eliminated.
 1360 0000 80B4     		push	{r7}
 1361              	.LCFI56:
 1362              		.cfi_def_cfa_offset 4
 1363              		.cfi_offset 7, -4
 1364 0002 87B0     		sub	sp, sp, #28
 1365              	.LCFI57:
 1366              		.cfi_def_cfa_offset 32
 1367 0004 00AF     		add	r7, sp, #0
 1368              	.LCFI58:
 1369              		.cfi_def_cfa_register 7
 1370 0006 7860     		str	r0, [r7, #4]
 1371 0008 3960     		str	r1, [r7]
1809:Drivers/STM32H7xx_HAL_Driver/Src/stm32h7xx_hal_fdcan.c ****   uint32_t FilterElementW1;
1810:Drivers/STM32H7xx_HAL_Driver/Src/stm32h7xx_hal_fdcan.c ****   uint32_t FilterElementW2;
1811:Drivers/STM32H7xx_HAL_Driver/Src/stm32h7xx_hal_fdcan.c ****   uint32_t *FilterAddress;
1812:Drivers/STM32H7xx_HAL_Driver/Src/stm32h7xx_hal_fdcan.c ****   HAL_FDCAN_StateTypeDef state = hfdcan->State;
 1372              		.loc 1 1812 26
 1373 000a 7B68     		ldr	r3, [r7, #4]
 1374 000c 93F89830 		ldrb	r3, [r3, #152]
ARM GAS  C:\Users\Su\AppData\Local\Temp\ccsFXyek.s 			page 57


 1375 0010 FB73     		strb	r3, [r7, #15]
1813:Drivers/STM32H7xx_HAL_Driver/Src/stm32h7xx_hal_fdcan.c **** 
1814:Drivers/STM32H7xx_HAL_Driver/Src/stm32h7xx_hal_fdcan.c ****   if ((state == HAL_FDCAN_STATE_READY) || (state == HAL_FDCAN_STATE_BUSY))
 1376              		.loc 1 1814 6
 1377 0012 FB7B     		ldrb	r3, [r7, #15]	@ zero_extendqisi2
 1378 0014 012B     		cmp	r3, #1
 1379 0016 02D0     		beq	.L69
 1380              		.loc 1 1814 40 discriminator 1
 1381 0018 FB7B     		ldrb	r3, [r7, #15]	@ zero_extendqisi2
 1382 001a 022B     		cmp	r3, #2
 1383 001c 57D1     		bne	.L70
 1384              	.L69:
1815:Drivers/STM32H7xx_HAL_Driver/Src/stm32h7xx_hal_fdcan.c ****   {
1816:Drivers/STM32H7xx_HAL_Driver/Src/stm32h7xx_hal_fdcan.c ****     /* Check function parameters */
1817:Drivers/STM32H7xx_HAL_Driver/Src/stm32h7xx_hal_fdcan.c ****     assert_param(IS_FDCAN_ID_TYPE(sFilterConfig->IdType));
1818:Drivers/STM32H7xx_HAL_Driver/Src/stm32h7xx_hal_fdcan.c ****     assert_param(IS_FDCAN_FILTER_CFG(sFilterConfig->FilterConfig));
1819:Drivers/STM32H7xx_HAL_Driver/Src/stm32h7xx_hal_fdcan.c ****     if (sFilterConfig->FilterConfig == FDCAN_FILTER_TO_RXBUFFER)
1820:Drivers/STM32H7xx_HAL_Driver/Src/stm32h7xx_hal_fdcan.c ****     {
1821:Drivers/STM32H7xx_HAL_Driver/Src/stm32h7xx_hal_fdcan.c ****       assert_param(IS_FDCAN_MAX_VALUE(sFilterConfig->RxBufferIndex, 63U));
1822:Drivers/STM32H7xx_HAL_Driver/Src/stm32h7xx_hal_fdcan.c ****       assert_param(IS_FDCAN_MAX_VALUE(sFilterConfig->IsCalibrationMsg, 1U));
1823:Drivers/STM32H7xx_HAL_Driver/Src/stm32h7xx_hal_fdcan.c ****     }
1824:Drivers/STM32H7xx_HAL_Driver/Src/stm32h7xx_hal_fdcan.c **** 
1825:Drivers/STM32H7xx_HAL_Driver/Src/stm32h7xx_hal_fdcan.c ****     if (sFilterConfig->IdType == FDCAN_STANDARD_ID)
 1385              		.loc 1 1825 22
 1386 001e 3B68     		ldr	r3, [r7]
 1387 0020 1B68     		ldr	r3, [r3]
 1388              		.loc 1 1825 8
 1389 0022 002B     		cmp	r3, #0
 1390 0024 2BD1     		bne	.L71
1826:Drivers/STM32H7xx_HAL_Driver/Src/stm32h7xx_hal_fdcan.c ****     {
1827:Drivers/STM32H7xx_HAL_Driver/Src/stm32h7xx_hal_fdcan.c ****       /* Check function parameters */
1828:Drivers/STM32H7xx_HAL_Driver/Src/stm32h7xx_hal_fdcan.c ****       assert_param(IS_FDCAN_MAX_VALUE(sFilterConfig->FilterIndex, (hfdcan->Init.StdFiltersNbr - 1U)
1829:Drivers/STM32H7xx_HAL_Driver/Src/stm32h7xx_hal_fdcan.c ****       assert_param(IS_FDCAN_MAX_VALUE(sFilterConfig->FilterID1, 0x7FFU));
1830:Drivers/STM32H7xx_HAL_Driver/Src/stm32h7xx_hal_fdcan.c ****       if (sFilterConfig->FilterConfig != FDCAN_FILTER_TO_RXBUFFER)
1831:Drivers/STM32H7xx_HAL_Driver/Src/stm32h7xx_hal_fdcan.c ****       {
1832:Drivers/STM32H7xx_HAL_Driver/Src/stm32h7xx_hal_fdcan.c ****         assert_param(IS_FDCAN_MAX_VALUE(sFilterConfig->FilterID2, 0x7FFU));
1833:Drivers/STM32H7xx_HAL_Driver/Src/stm32h7xx_hal_fdcan.c ****         assert_param(IS_FDCAN_STD_FILTER_TYPE(sFilterConfig->FilterType));
1834:Drivers/STM32H7xx_HAL_Driver/Src/stm32h7xx_hal_fdcan.c ****       }
1835:Drivers/STM32H7xx_HAL_Driver/Src/stm32h7xx_hal_fdcan.c **** 
1836:Drivers/STM32H7xx_HAL_Driver/Src/stm32h7xx_hal_fdcan.c ****       /* Build filter element */
1837:Drivers/STM32H7xx_HAL_Driver/Src/stm32h7xx_hal_fdcan.c ****       if (sFilterConfig->FilterConfig == FDCAN_FILTER_TO_RXBUFFER)
 1391              		.loc 1 1837 24
 1392 0026 3B68     		ldr	r3, [r7]
 1393 0028 DB68     		ldr	r3, [r3, #12]
 1394              		.loc 1 1837 10
 1395 002a 072B     		cmp	r3, #7
 1396 002c 0DD1     		bne	.L72
1838:Drivers/STM32H7xx_HAL_Driver/Src/stm32h7xx_hal_fdcan.c ****       {
1839:Drivers/STM32H7xx_HAL_Driver/Src/stm32h7xx_hal_fdcan.c ****         FilterElementW1 = ((FDCAN_FILTER_TO_RXBUFFER << 27U)       |
1840:Drivers/STM32H7xx_HAL_Driver/Src/stm32h7xx_hal_fdcan.c ****                            (sFilterConfig->FilterID1 << 16U)       |
 1397              		.loc 1 1840 42
 1398 002e 3B68     		ldr	r3, [r7]
 1399 0030 1B69     		ldr	r3, [r3, #16]
 1400              		.loc 1 1840 54
 1401 0032 1A04     		lsls	r2, r3, #16
1841:Drivers/STM32H7xx_HAL_Driver/Src/stm32h7xx_hal_fdcan.c ****                            (sFilterConfig->IsCalibrationMsg << 8U) |
 1402              		.loc 1 1841 42
ARM GAS  C:\Users\Su\AppData\Local\Temp\ccsFXyek.s 			page 58


 1403 0034 3B68     		ldr	r3, [r7]
 1404 0036 DB69     		ldr	r3, [r3, #28]
 1405              		.loc 1 1841 61
 1406 0038 1B02     		lsls	r3, r3, #8
1840:Drivers/STM32H7xx_HAL_Driver/Src/stm32h7xx_hal_fdcan.c ****                            (sFilterConfig->IsCalibrationMsg << 8U) |
 1407              		.loc 1 1840 68
 1408 003a 1A43     		orrs	r2, r2, r3
1842:Drivers/STM32H7xx_HAL_Driver/Src/stm32h7xx_hal_fdcan.c ****                            sFilterConfig->RxBufferIndex);
 1409              		.loc 1 1842 41
 1410 003c 3B68     		ldr	r3, [r7]
 1411 003e 9B69     		ldr	r3, [r3, #24]
1841:Drivers/STM32H7xx_HAL_Driver/Src/stm32h7xx_hal_fdcan.c ****                            (sFilterConfig->IsCalibrationMsg << 8U) |
 1412              		.loc 1 1841 68
 1413 0040 1343     		orrs	r3, r3, r2
1839:Drivers/STM32H7xx_HAL_Driver/Src/stm32h7xx_hal_fdcan.c ****                            (sFilterConfig->FilterID1 << 16U)       |
 1414              		.loc 1 1839 25
 1415 0042 43F06053 		orr	r3, r3, #939524096
 1416 0046 7B61     		str	r3, [r7, #20]
 1417 0048 0EE0     		b	.L73
 1418              	.L72:
1843:Drivers/STM32H7xx_HAL_Driver/Src/stm32h7xx_hal_fdcan.c ****       }
1844:Drivers/STM32H7xx_HAL_Driver/Src/stm32h7xx_hal_fdcan.c ****       else
1845:Drivers/STM32H7xx_HAL_Driver/Src/stm32h7xx_hal_fdcan.c ****       {
1846:Drivers/STM32H7xx_HAL_Driver/Src/stm32h7xx_hal_fdcan.c ****         FilterElementW1 = ((sFilterConfig->FilterType << 30U)   |
 1419              		.loc 1 1846 42
 1420 004a 3B68     		ldr	r3, [r7]
 1421 004c 9B68     		ldr	r3, [r3, #8]
 1422              		.loc 1 1846 55
 1423 004e 9A07     		lsls	r2, r3, #30
1847:Drivers/STM32H7xx_HAL_Driver/Src/stm32h7xx_hal_fdcan.c ****                            (sFilterConfig->FilterConfig << 27U) |
 1424              		.loc 1 1847 42
 1425 0050 3B68     		ldr	r3, [r7]
 1426 0052 DB68     		ldr	r3, [r3, #12]
 1427              		.loc 1 1847 57
 1428 0054 DB06     		lsls	r3, r3, #27
1846:Drivers/STM32H7xx_HAL_Driver/Src/stm32h7xx_hal_fdcan.c ****                            (sFilterConfig->FilterConfig << 27U) |
 1429              		.loc 1 1846 65
 1430 0056 1A43     		orrs	r2, r2, r3
1848:Drivers/STM32H7xx_HAL_Driver/Src/stm32h7xx_hal_fdcan.c ****                            (sFilterConfig->FilterID1 << 16U)    |
 1431              		.loc 1 1848 42
 1432 0058 3B68     		ldr	r3, [r7]
 1433 005a 1B69     		ldr	r3, [r3, #16]
 1434              		.loc 1 1848 54
 1435 005c 1B04     		lsls	r3, r3, #16
1847:Drivers/STM32H7xx_HAL_Driver/Src/stm32h7xx_hal_fdcan.c ****                            (sFilterConfig->FilterConfig << 27U) |
 1436              		.loc 1 1847 65
 1437 005e 1A43     		orrs	r2, r2, r3
1849:Drivers/STM32H7xx_HAL_Driver/Src/stm32h7xx_hal_fdcan.c ****                            sFilterConfig->FilterID2);
 1438              		.loc 1 1849 41
 1439 0060 3B68     		ldr	r3, [r7]
 1440 0062 5B69     		ldr	r3, [r3, #20]
1846:Drivers/STM32H7xx_HAL_Driver/Src/stm32h7xx_hal_fdcan.c ****                            (sFilterConfig->FilterConfig << 27U) |
 1441              		.loc 1 1846 25
 1442 0064 1343     		orrs	r3, r3, r2
 1443 0066 7B61     		str	r3, [r7, #20]
 1444              	.L73:
1850:Drivers/STM32H7xx_HAL_Driver/Src/stm32h7xx_hal_fdcan.c ****       }
ARM GAS  C:\Users\Su\AppData\Local\Temp\ccsFXyek.s 			page 59


1851:Drivers/STM32H7xx_HAL_Driver/Src/stm32h7xx_hal_fdcan.c **** 
1852:Drivers/STM32H7xx_HAL_Driver/Src/stm32h7xx_hal_fdcan.c ****       /* Calculate filter address */
1853:Drivers/STM32H7xx_HAL_Driver/Src/stm32h7xx_hal_fdcan.c ****       FilterAddress = (uint32_t *)(hfdcan->msgRam.StandardFilterSA + (sFilterConfig->FilterIndex * 
 1445              		.loc 1 1853 50
 1446 0068 7B68     		ldr	r3, [r7, #4]
 1447 006a DA6E     		ldr	r2, [r3, #108]
 1448              		.loc 1 1853 84
 1449 006c 3B68     		ldr	r3, [r7]
 1450 006e 5B68     		ldr	r3, [r3, #4]
 1451              		.loc 1 1853 98
 1452 0070 9B00     		lsls	r3, r3, #2
 1453              		.loc 1 1853 68
 1454 0072 1344     		add	r3, r3, r2
 1455              		.loc 1 1853 21
 1456 0074 BB60     		str	r3, [r7, #8]
1854:Drivers/STM32H7xx_HAL_Driver/Src/stm32h7xx_hal_fdcan.c **** 
1855:Drivers/STM32H7xx_HAL_Driver/Src/stm32h7xx_hal_fdcan.c ****       /* Write filter element to the message RAM */
1856:Drivers/STM32H7xx_HAL_Driver/Src/stm32h7xx_hal_fdcan.c ****       *FilterAddress = FilterElementW1;
 1457              		.loc 1 1856 22
 1458 0076 BB68     		ldr	r3, [r7, #8]
 1459 0078 7A69     		ldr	r2, [r7, #20]
 1460 007a 1A60     		str	r2, [r3]
 1461 007c 25E0     		b	.L74
 1462              	.L71:
1857:Drivers/STM32H7xx_HAL_Driver/Src/stm32h7xx_hal_fdcan.c ****     }
1858:Drivers/STM32H7xx_HAL_Driver/Src/stm32h7xx_hal_fdcan.c ****     else /* sFilterConfig->IdType == FDCAN_EXTENDED_ID */
1859:Drivers/STM32H7xx_HAL_Driver/Src/stm32h7xx_hal_fdcan.c ****     {
1860:Drivers/STM32H7xx_HAL_Driver/Src/stm32h7xx_hal_fdcan.c ****       /* Check function parameters */
1861:Drivers/STM32H7xx_HAL_Driver/Src/stm32h7xx_hal_fdcan.c ****       assert_param(IS_FDCAN_MAX_VALUE(sFilterConfig->FilterIndex, (hfdcan->Init.ExtFiltersNbr - 1U)
1862:Drivers/STM32H7xx_HAL_Driver/Src/stm32h7xx_hal_fdcan.c ****       assert_param(IS_FDCAN_MAX_VALUE(sFilterConfig->FilterID1, 0x1FFFFFFFU));
1863:Drivers/STM32H7xx_HAL_Driver/Src/stm32h7xx_hal_fdcan.c ****       if (sFilterConfig->FilterConfig != FDCAN_FILTER_TO_RXBUFFER)
1864:Drivers/STM32H7xx_HAL_Driver/Src/stm32h7xx_hal_fdcan.c ****       {
1865:Drivers/STM32H7xx_HAL_Driver/Src/stm32h7xx_hal_fdcan.c ****         assert_param(IS_FDCAN_MAX_VALUE(sFilterConfig->FilterID2, 0x1FFFFFFFU));
1866:Drivers/STM32H7xx_HAL_Driver/Src/stm32h7xx_hal_fdcan.c ****         assert_param(IS_FDCAN_EXT_FILTER_TYPE(sFilterConfig->FilterType));
1867:Drivers/STM32H7xx_HAL_Driver/Src/stm32h7xx_hal_fdcan.c ****       }
1868:Drivers/STM32H7xx_HAL_Driver/Src/stm32h7xx_hal_fdcan.c **** 
1869:Drivers/STM32H7xx_HAL_Driver/Src/stm32h7xx_hal_fdcan.c ****       /* Build first word of filter element */
1870:Drivers/STM32H7xx_HAL_Driver/Src/stm32h7xx_hal_fdcan.c ****       FilterElementW1 = ((sFilterConfig->FilterConfig << 29U) | sFilterConfig->FilterID1);
 1463              		.loc 1 1870 40
 1464 007e 3B68     		ldr	r3, [r7]
 1465 0080 DB68     		ldr	r3, [r3, #12]
 1466              		.loc 1 1870 55
 1467 0082 5A07     		lsls	r2, r3, #29
 1468              		.loc 1 1870 78
 1469 0084 3B68     		ldr	r3, [r7]
 1470 0086 1B69     		ldr	r3, [r3, #16]
 1471              		.loc 1 1870 23
 1472 0088 1343     		orrs	r3, r3, r2
 1473 008a 7B61     		str	r3, [r7, #20]
1871:Drivers/STM32H7xx_HAL_Driver/Src/stm32h7xx_hal_fdcan.c **** 
1872:Drivers/STM32H7xx_HAL_Driver/Src/stm32h7xx_hal_fdcan.c ****       /* Build second word of filter element */
1873:Drivers/STM32H7xx_HAL_Driver/Src/stm32h7xx_hal_fdcan.c ****       if (sFilterConfig->FilterConfig == FDCAN_FILTER_TO_RXBUFFER)
 1474              		.loc 1 1873 24
 1475 008c 3B68     		ldr	r3, [r7]
 1476 008e DB68     		ldr	r3, [r3, #12]
 1477              		.loc 1 1873 10
 1478 0090 072B     		cmp	r3, #7
ARM GAS  C:\Users\Su\AppData\Local\Temp\ccsFXyek.s 			page 60


 1479 0092 03D1     		bne	.L75
1874:Drivers/STM32H7xx_HAL_Driver/Src/stm32h7xx_hal_fdcan.c ****       {
1875:Drivers/STM32H7xx_HAL_Driver/Src/stm32h7xx_hal_fdcan.c ****         FilterElementW2 = sFilterConfig->RxBufferIndex;
 1480              		.loc 1 1875 25
 1481 0094 3B68     		ldr	r3, [r7]
 1482 0096 9B69     		ldr	r3, [r3, #24]
 1483 0098 3B61     		str	r3, [r7, #16]
 1484 009a 06E0     		b	.L76
 1485              	.L75:
1876:Drivers/STM32H7xx_HAL_Driver/Src/stm32h7xx_hal_fdcan.c ****       }
1877:Drivers/STM32H7xx_HAL_Driver/Src/stm32h7xx_hal_fdcan.c ****       else
1878:Drivers/STM32H7xx_HAL_Driver/Src/stm32h7xx_hal_fdcan.c ****       {
1879:Drivers/STM32H7xx_HAL_Driver/Src/stm32h7xx_hal_fdcan.c ****         FilterElementW2 = ((sFilterConfig->FilterType << 30U) | sFilterConfig->FilterID2);
 1486              		.loc 1 1879 42
 1487 009c 3B68     		ldr	r3, [r7]
 1488 009e 9B68     		ldr	r3, [r3, #8]
 1489              		.loc 1 1879 55
 1490 00a0 9A07     		lsls	r2, r3, #30
 1491              		.loc 1 1879 78
 1492 00a2 3B68     		ldr	r3, [r7]
 1493 00a4 5B69     		ldr	r3, [r3, #20]
 1494              		.loc 1 1879 25
 1495 00a6 1343     		orrs	r3, r3, r2
 1496 00a8 3B61     		str	r3, [r7, #16]
 1497              	.L76:
1880:Drivers/STM32H7xx_HAL_Driver/Src/stm32h7xx_hal_fdcan.c ****       }
1881:Drivers/STM32H7xx_HAL_Driver/Src/stm32h7xx_hal_fdcan.c **** 
1882:Drivers/STM32H7xx_HAL_Driver/Src/stm32h7xx_hal_fdcan.c ****       /* Calculate filter address */
1883:Drivers/STM32H7xx_HAL_Driver/Src/stm32h7xx_hal_fdcan.c ****       FilterAddress = (uint32_t *)(hfdcan->msgRam.ExtendedFilterSA + (sFilterConfig->FilterIndex * 
 1498              		.loc 1 1883 50
 1499 00aa 7B68     		ldr	r3, [r7, #4]
 1500 00ac 1A6F     		ldr	r2, [r3, #112]
 1501              		.loc 1 1883 84
 1502 00ae 3B68     		ldr	r3, [r7]
 1503 00b0 5B68     		ldr	r3, [r3, #4]
 1504              		.loc 1 1883 103
 1505 00b2 DB00     		lsls	r3, r3, #3
 1506              		.loc 1 1883 68
 1507 00b4 1344     		add	r3, r3, r2
 1508              		.loc 1 1883 21
 1509 00b6 BB60     		str	r3, [r7, #8]
1884:Drivers/STM32H7xx_HAL_Driver/Src/stm32h7xx_hal_fdcan.c **** 
1885:Drivers/STM32H7xx_HAL_Driver/Src/stm32h7xx_hal_fdcan.c ****       /* Write filter element to the message RAM */
1886:Drivers/STM32H7xx_HAL_Driver/Src/stm32h7xx_hal_fdcan.c ****       *FilterAddress = FilterElementW1;
 1510              		.loc 1 1886 22
 1511 00b8 BB68     		ldr	r3, [r7, #8]
 1512 00ba 7A69     		ldr	r2, [r7, #20]
 1513 00bc 1A60     		str	r2, [r3]
1887:Drivers/STM32H7xx_HAL_Driver/Src/stm32h7xx_hal_fdcan.c ****       FilterAddress++;
 1514              		.loc 1 1887 20
 1515 00be BB68     		ldr	r3, [r7, #8]
 1516 00c0 0433     		adds	r3, r3, #4
 1517 00c2 BB60     		str	r3, [r7, #8]
1888:Drivers/STM32H7xx_HAL_Driver/Src/stm32h7xx_hal_fdcan.c ****       *FilterAddress = FilterElementW2;
 1518              		.loc 1 1888 22
 1519 00c4 BB68     		ldr	r3, [r7, #8]
 1520 00c6 3A69     		ldr	r2, [r7, #16]
ARM GAS  C:\Users\Su\AppData\Local\Temp\ccsFXyek.s 			page 61


 1521 00c8 1A60     		str	r2, [r3]
 1522              	.L74:
1889:Drivers/STM32H7xx_HAL_Driver/Src/stm32h7xx_hal_fdcan.c ****     }
1890:Drivers/STM32H7xx_HAL_Driver/Src/stm32h7xx_hal_fdcan.c **** 
1891:Drivers/STM32H7xx_HAL_Driver/Src/stm32h7xx_hal_fdcan.c ****     /* Return function status */
1892:Drivers/STM32H7xx_HAL_Driver/Src/stm32h7xx_hal_fdcan.c ****     return HAL_OK;
 1523              		.loc 1 1892 12
 1524 00ca 0023     		movs	r3, #0
 1525 00cc 08E0     		b	.L77
 1526              	.L70:
1893:Drivers/STM32H7xx_HAL_Driver/Src/stm32h7xx_hal_fdcan.c ****   }
1894:Drivers/STM32H7xx_HAL_Driver/Src/stm32h7xx_hal_fdcan.c ****   else
1895:Drivers/STM32H7xx_HAL_Driver/Src/stm32h7xx_hal_fdcan.c ****   {
1896:Drivers/STM32H7xx_HAL_Driver/Src/stm32h7xx_hal_fdcan.c ****     /* Update error code */
1897:Drivers/STM32H7xx_HAL_Driver/Src/stm32h7xx_hal_fdcan.c ****     hfdcan->ErrorCode |= HAL_FDCAN_ERROR_NOT_INITIALIZED;
 1527              		.loc 1 1897 23
 1528 00ce 7B68     		ldr	r3, [r7, #4]
 1529 00d0 D3F89C30 		ldr	r3, [r3, #156]
