ARM GAS  C:\Users\Su\AppData\Local\Temp\ccm0VnUy.s 			page 1


   1              		.cpu cortex-m7
   2              		.arch armv7e-m
   3              		.fpu fpv5-d16
   4              		.eabi_attribute 28, 1
   5              		.eabi_attribute 20, 1
   6              		.eabi_attribute 21, 1
   7              		.eabi_attribute 23, 3
   8              		.eabi_attribute 24, 1
   9              		.eabi_attribute 25, 1
  10              		.eabi_attribute 26, 1
  11              		.eabi_attribute 30, 6
  12              		.eabi_attribute 34, 1
  13              		.eabi_attribute 18, 4
  14              		.file	"stm32h7xx_hal_tim_ex.c"
  15              		.text
  16              	.Ltext0:
  17              		.cfi_sections	.debug_frame
  18              		.section	.text.HAL_TIMEx_HallSensor_Init,"ax",%progbits
  19              		.align	1
  20              		.global	HAL_TIMEx_HallSensor_Init
  21              		.syntax unified
  22              		.thumb
  23              		.thumb_func
  25              	HAL_TIMEx_HallSensor_Init:
  26              	.LFB144:
  27              		.file 1 "Drivers/STM32H7xx_HAL_Driver/Src/stm32h7xx_hal_tim_ex.c"
   1:Drivers/STM32H7xx_HAL_Driver/Src/stm32h7xx_hal_tim_ex.c **** /**
   2:Drivers/STM32H7xx_HAL_Driver/Src/stm32h7xx_hal_tim_ex.c ****   ******************************************************************************
   3:Drivers/STM32H7xx_HAL_Driver/Src/stm32h7xx_hal_tim_ex.c ****   * @file    stm32h7xx_hal_tim_ex.c
   4:Drivers/STM32H7xx_HAL_Driver/Src/stm32h7xx_hal_tim_ex.c ****   * @author  MCD Application Team
   5:Drivers/STM32H7xx_HAL_Driver/Src/stm32h7xx_hal_tim_ex.c ****   * @brief   TIM HAL module driver.
   6:Drivers/STM32H7xx_HAL_Driver/Src/stm32h7xx_hal_tim_ex.c ****   *          This file provides firmware functions to manage the following
   7:Drivers/STM32H7xx_HAL_Driver/Src/stm32h7xx_hal_tim_ex.c ****   *          functionalities of the Timer Extended peripheral:
   8:Drivers/STM32H7xx_HAL_Driver/Src/stm32h7xx_hal_tim_ex.c ****   *           + Time Hall Sensor Interface Initialization
   9:Drivers/STM32H7xx_HAL_Driver/Src/stm32h7xx_hal_tim_ex.c ****   *           + Time Hall Sensor Interface Start
  10:Drivers/STM32H7xx_HAL_Driver/Src/stm32h7xx_hal_tim_ex.c ****   *           + Time Complementary signal break and dead time configuration
  11:Drivers/STM32H7xx_HAL_Driver/Src/stm32h7xx_hal_tim_ex.c ****   *           + Time Master and Slave synchronization configuration
  12:Drivers/STM32H7xx_HAL_Driver/Src/stm32h7xx_hal_tim_ex.c ****   *           + Time Output Compare/PWM Channel Configuration (for channels 5 and 6)
  13:Drivers/STM32H7xx_HAL_Driver/Src/stm32h7xx_hal_tim_ex.c ****   *           + Timer remapping capabilities configuration
  14:Drivers/STM32H7xx_HAL_Driver/Src/stm32h7xx_hal_tim_ex.c ****   ******************************************************************************
  15:Drivers/STM32H7xx_HAL_Driver/Src/stm32h7xx_hal_tim_ex.c ****   * @attention
  16:Drivers/STM32H7xx_HAL_Driver/Src/stm32h7xx_hal_tim_ex.c ****   *
  17:Drivers/STM32H7xx_HAL_Driver/Src/stm32h7xx_hal_tim_ex.c ****   * Copyright (c) 2017 STMicroelectronics.
  18:Drivers/STM32H7xx_HAL_Driver/Src/stm32h7xx_hal_tim_ex.c ****   * All rights reserved.
  19:Drivers/STM32H7xx_HAL_Driver/Src/stm32h7xx_hal_tim_ex.c ****   *
  20:Drivers/STM32H7xx_HAL_Driver/Src/stm32h7xx_hal_tim_ex.c ****   * This software is licensed under terms that can be found in the LICENSE file
  21:Drivers/STM32H7xx_HAL_Driver/Src/stm32h7xx_hal_tim_ex.c ****   * in the root directory of this software component.
  22:Drivers/STM32H7xx_HAL_Driver/Src/stm32h7xx_hal_tim_ex.c ****   * If no LICENSE file comes with this software, it is provided AS-IS.
  23:Drivers/STM32H7xx_HAL_Driver/Src/stm32h7xx_hal_tim_ex.c ****   *
  24:Drivers/STM32H7xx_HAL_Driver/Src/stm32h7xx_hal_tim_ex.c ****   ******************************************************************************
  25:Drivers/STM32H7xx_HAL_Driver/Src/stm32h7xx_hal_tim_ex.c ****   @verbatim
  26:Drivers/STM32H7xx_HAL_Driver/Src/stm32h7xx_hal_tim_ex.c ****   ==============================================================================
  27:Drivers/STM32H7xx_HAL_Driver/Src/stm32h7xx_hal_tim_ex.c ****                       ##### TIMER Extended features #####
  28:Drivers/STM32H7xx_HAL_Driver/Src/stm32h7xx_hal_tim_ex.c ****   ==============================================================================
  29:Drivers/STM32H7xx_HAL_Driver/Src/stm32h7xx_hal_tim_ex.c ****   [..]
  30:Drivers/STM32H7xx_HAL_Driver/Src/stm32h7xx_hal_tim_ex.c ****     The Timer Extended features include:
  31:Drivers/STM32H7xx_HAL_Driver/Src/stm32h7xx_hal_tim_ex.c ****     (#) Complementary outputs with programmable dead-time for :
ARM GAS  C:\Users\Su\AppData\Local\Temp\ccm0VnUy.s 			page 2


  32:Drivers/STM32H7xx_HAL_Driver/Src/stm32h7xx_hal_tim_ex.c ****         (++) Output Compare
  33:Drivers/STM32H7xx_HAL_Driver/Src/stm32h7xx_hal_tim_ex.c ****         (++) PWM generation (Edge and Center-aligned Mode)
  34:Drivers/STM32H7xx_HAL_Driver/Src/stm32h7xx_hal_tim_ex.c ****         (++) One-pulse mode output
  35:Drivers/STM32H7xx_HAL_Driver/Src/stm32h7xx_hal_tim_ex.c ****     (#) Synchronization circuit to control the timer with external signals and to
  36:Drivers/STM32H7xx_HAL_Driver/Src/stm32h7xx_hal_tim_ex.c ****         interconnect several timers together.
  37:Drivers/STM32H7xx_HAL_Driver/Src/stm32h7xx_hal_tim_ex.c ****     (#) Break input to put the timer output signals in reset state or in a known state.
  38:Drivers/STM32H7xx_HAL_Driver/Src/stm32h7xx_hal_tim_ex.c ****     (#) Supports incremental (quadrature) encoder and hall-sensor circuitry for
  39:Drivers/STM32H7xx_HAL_Driver/Src/stm32h7xx_hal_tim_ex.c ****         positioning purposes
  40:Drivers/STM32H7xx_HAL_Driver/Src/stm32h7xx_hal_tim_ex.c **** 
  41:Drivers/STM32H7xx_HAL_Driver/Src/stm32h7xx_hal_tim_ex.c ****             ##### How to use this driver #####
  42:Drivers/STM32H7xx_HAL_Driver/Src/stm32h7xx_hal_tim_ex.c ****   ==============================================================================
  43:Drivers/STM32H7xx_HAL_Driver/Src/stm32h7xx_hal_tim_ex.c ****     [..]
  44:Drivers/STM32H7xx_HAL_Driver/Src/stm32h7xx_hal_tim_ex.c ****      (#) Initialize the TIM low level resources by implementing the following functions
  45:Drivers/STM32H7xx_HAL_Driver/Src/stm32h7xx_hal_tim_ex.c ****          depending on the selected feature:
  46:Drivers/STM32H7xx_HAL_Driver/Src/stm32h7xx_hal_tim_ex.c ****            (++) Hall Sensor output : HAL_TIMEx_HallSensor_MspInit()
  47:Drivers/STM32H7xx_HAL_Driver/Src/stm32h7xx_hal_tim_ex.c **** 
  48:Drivers/STM32H7xx_HAL_Driver/Src/stm32h7xx_hal_tim_ex.c ****      (#) Initialize the TIM low level resources :
  49:Drivers/STM32H7xx_HAL_Driver/Src/stm32h7xx_hal_tim_ex.c ****         (##) Enable the TIM interface clock using __HAL_RCC_TIMx_CLK_ENABLE();
  50:Drivers/STM32H7xx_HAL_Driver/Src/stm32h7xx_hal_tim_ex.c ****         (##) TIM pins configuration
  51:Drivers/STM32H7xx_HAL_Driver/Src/stm32h7xx_hal_tim_ex.c ****             (+++) Enable the clock for the TIM GPIOs using the following function:
  52:Drivers/STM32H7xx_HAL_Driver/Src/stm32h7xx_hal_tim_ex.c ****               __HAL_RCC_GPIOx_CLK_ENABLE();
  53:Drivers/STM32H7xx_HAL_Driver/Src/stm32h7xx_hal_tim_ex.c ****             (+++) Configure these TIM pins in Alternate function mode using HAL_GPIO_Init();
  54:Drivers/STM32H7xx_HAL_Driver/Src/stm32h7xx_hal_tim_ex.c **** 
  55:Drivers/STM32H7xx_HAL_Driver/Src/stm32h7xx_hal_tim_ex.c ****      (#) The external Clock can be configured, if needed (the default clock is the
  56:Drivers/STM32H7xx_HAL_Driver/Src/stm32h7xx_hal_tim_ex.c ****          internal clock from the APBx), using the following function:
  57:Drivers/STM32H7xx_HAL_Driver/Src/stm32h7xx_hal_tim_ex.c ****          HAL_TIM_ConfigClockSource, the clock configuration should be done before
  58:Drivers/STM32H7xx_HAL_Driver/Src/stm32h7xx_hal_tim_ex.c ****          any start function.
  59:Drivers/STM32H7xx_HAL_Driver/Src/stm32h7xx_hal_tim_ex.c **** 
  60:Drivers/STM32H7xx_HAL_Driver/Src/stm32h7xx_hal_tim_ex.c ****      (#) Configure the TIM in the desired functioning mode using one of the
  61:Drivers/STM32H7xx_HAL_Driver/Src/stm32h7xx_hal_tim_ex.c ****          initialization function of this driver:
  62:Drivers/STM32H7xx_HAL_Driver/Src/stm32h7xx_hal_tim_ex.c ****           (++) HAL_TIMEx_HallSensor_Init() and HAL_TIMEx_ConfigCommutEvent(): to use the
  63:Drivers/STM32H7xx_HAL_Driver/Src/stm32h7xx_hal_tim_ex.c ****                Timer Hall Sensor Interface and the commutation event with the corresponding
  64:Drivers/STM32H7xx_HAL_Driver/Src/stm32h7xx_hal_tim_ex.c ****                Interrupt and DMA request if needed (Note that One Timer is used to interface
  65:Drivers/STM32H7xx_HAL_Driver/Src/stm32h7xx_hal_tim_ex.c ****                with the Hall sensor Interface and another Timer should be used to use
  66:Drivers/STM32H7xx_HAL_Driver/Src/stm32h7xx_hal_tim_ex.c ****                the commutation event).
  67:Drivers/STM32H7xx_HAL_Driver/Src/stm32h7xx_hal_tim_ex.c **** 
  68:Drivers/STM32H7xx_HAL_Driver/Src/stm32h7xx_hal_tim_ex.c ****      (#) Activate the TIM peripheral using one of the start functions:
  69:Drivers/STM32H7xx_HAL_Driver/Src/stm32h7xx_hal_tim_ex.c ****            (++) Complementary Output Compare : HAL_TIMEx_OCN_Start(), HAL_TIMEx_OCN_Start_DMA(),
  70:Drivers/STM32H7xx_HAL_Driver/Src/stm32h7xx_hal_tim_ex.c ****                 HAL_TIMEx_OCN_Start_IT()
  71:Drivers/STM32H7xx_HAL_Driver/Src/stm32h7xx_hal_tim_ex.c ****            (++) Complementary PWM generation : HAL_TIMEx_PWMN_Start(), HAL_TIMEx_PWMN_Start_DMA(),
  72:Drivers/STM32H7xx_HAL_Driver/Src/stm32h7xx_hal_tim_ex.c ****                 HAL_TIMEx_PWMN_Start_IT()
  73:Drivers/STM32H7xx_HAL_Driver/Src/stm32h7xx_hal_tim_ex.c ****            (++) Complementary One-pulse mode output : HAL_TIMEx_OnePulseN_Start(), HAL_TIMEx_OnePul
  74:Drivers/STM32H7xx_HAL_Driver/Src/stm32h7xx_hal_tim_ex.c ****            (++) Hall Sensor output : HAL_TIMEx_HallSensor_Start(), HAL_TIMEx_HallSensor_Start_DMA()
  75:Drivers/STM32H7xx_HAL_Driver/Src/stm32h7xx_hal_tim_ex.c ****                 HAL_TIMEx_HallSensor_Start_IT().
  76:Drivers/STM32H7xx_HAL_Driver/Src/stm32h7xx_hal_tim_ex.c **** 
  77:Drivers/STM32H7xx_HAL_Driver/Src/stm32h7xx_hal_tim_ex.c ****   @endverbatim
  78:Drivers/STM32H7xx_HAL_Driver/Src/stm32h7xx_hal_tim_ex.c ****   ******************************************************************************
  79:Drivers/STM32H7xx_HAL_Driver/Src/stm32h7xx_hal_tim_ex.c ****   */
  80:Drivers/STM32H7xx_HAL_Driver/Src/stm32h7xx_hal_tim_ex.c **** 
  81:Drivers/STM32H7xx_HAL_Driver/Src/stm32h7xx_hal_tim_ex.c **** /* Includes ------------------------------------------------------------------*/
  82:Drivers/STM32H7xx_HAL_Driver/Src/stm32h7xx_hal_tim_ex.c **** #include "stm32h7xx_hal.h"
  83:Drivers/STM32H7xx_HAL_Driver/Src/stm32h7xx_hal_tim_ex.c **** 
  84:Drivers/STM32H7xx_HAL_Driver/Src/stm32h7xx_hal_tim_ex.c **** /** @addtogroup STM32H7xx_HAL_Driver
  85:Drivers/STM32H7xx_HAL_Driver/Src/stm32h7xx_hal_tim_ex.c ****   * @{
  86:Drivers/STM32H7xx_HAL_Driver/Src/stm32h7xx_hal_tim_ex.c ****   */
  87:Drivers/STM32H7xx_HAL_Driver/Src/stm32h7xx_hal_tim_ex.c **** 
  88:Drivers/STM32H7xx_HAL_Driver/Src/stm32h7xx_hal_tim_ex.c **** /** @defgroup TIMEx TIMEx
ARM GAS  C:\Users\Su\AppData\Local\Temp\ccm0VnUy.s 			page 3


  89:Drivers/STM32H7xx_HAL_Driver/Src/stm32h7xx_hal_tim_ex.c ****   * @brief TIM Extended HAL module driver
  90:Drivers/STM32H7xx_HAL_Driver/Src/stm32h7xx_hal_tim_ex.c ****   * @{
  91:Drivers/STM32H7xx_HAL_Driver/Src/stm32h7xx_hal_tim_ex.c ****   */
  92:Drivers/STM32H7xx_HAL_Driver/Src/stm32h7xx_hal_tim_ex.c **** 
  93:Drivers/STM32H7xx_HAL_Driver/Src/stm32h7xx_hal_tim_ex.c **** #ifdef HAL_TIM_MODULE_ENABLED
  94:Drivers/STM32H7xx_HAL_Driver/Src/stm32h7xx_hal_tim_ex.c **** 
  95:Drivers/STM32H7xx_HAL_Driver/Src/stm32h7xx_hal_tim_ex.c **** /* Private typedef -----------------------------------------------------------*/
  96:Drivers/STM32H7xx_HAL_Driver/Src/stm32h7xx_hal_tim_ex.c **** /* Private define ------------------------------------------------------------*/
  97:Drivers/STM32H7xx_HAL_Driver/Src/stm32h7xx_hal_tim_ex.c **** #if defined(TIM_BDTR_BKBID)
  98:Drivers/STM32H7xx_HAL_Driver/Src/stm32h7xx_hal_tim_ex.c **** /* Private constants ---------------------------------------------------------*/
  99:Drivers/STM32H7xx_HAL_Driver/Src/stm32h7xx_hal_tim_ex.c **** /** @defgroup TIMEx_Private_Constants TIM Extended Private Constants
 100:Drivers/STM32H7xx_HAL_Driver/Src/stm32h7xx_hal_tim_ex.c ****   * @{
 101:Drivers/STM32H7xx_HAL_Driver/Src/stm32h7xx_hal_tim_ex.c ****   */
 102:Drivers/STM32H7xx_HAL_Driver/Src/stm32h7xx_hal_tim_ex.c **** /* Timeout for break input rearm */
 103:Drivers/STM32H7xx_HAL_Driver/Src/stm32h7xx_hal_tim_ex.c **** #define TIM_BREAKINPUT_REARM_TIMEOUT    5UL /* 5 milliseconds */
 104:Drivers/STM32H7xx_HAL_Driver/Src/stm32h7xx_hal_tim_ex.c **** /**
 105:Drivers/STM32H7xx_HAL_Driver/Src/stm32h7xx_hal_tim_ex.c ****   * @}
 106:Drivers/STM32H7xx_HAL_Driver/Src/stm32h7xx_hal_tim_ex.c ****   */
 107:Drivers/STM32H7xx_HAL_Driver/Src/stm32h7xx_hal_tim_ex.c **** /* End of private constants --------------------------------------------------*/
 108:Drivers/STM32H7xx_HAL_Driver/Src/stm32h7xx_hal_tim_ex.c **** 
 109:Drivers/STM32H7xx_HAL_Driver/Src/stm32h7xx_hal_tim_ex.c **** #endif /* TIM_BDTR_BKBID */
 110:Drivers/STM32H7xx_HAL_Driver/Src/stm32h7xx_hal_tim_ex.c **** /* Private macros ------------------------------------------------------------*/
 111:Drivers/STM32H7xx_HAL_Driver/Src/stm32h7xx_hal_tim_ex.c **** /* Private variables ---------------------------------------------------------*/
 112:Drivers/STM32H7xx_HAL_Driver/Src/stm32h7xx_hal_tim_ex.c **** /* Private function prototypes -----------------------------------------------*/
 113:Drivers/STM32H7xx_HAL_Driver/Src/stm32h7xx_hal_tim_ex.c **** static void TIM_DMADelayPulseNCplt(DMA_HandleTypeDef *hdma);
 114:Drivers/STM32H7xx_HAL_Driver/Src/stm32h7xx_hal_tim_ex.c **** static void TIM_DMAErrorCCxN(DMA_HandleTypeDef *hdma);
 115:Drivers/STM32H7xx_HAL_Driver/Src/stm32h7xx_hal_tim_ex.c **** static void TIM_CCxNChannelCmd(TIM_TypeDef *TIMx, uint32_t Channel, uint32_t ChannelNState);
 116:Drivers/STM32H7xx_HAL_Driver/Src/stm32h7xx_hal_tim_ex.c **** 
 117:Drivers/STM32H7xx_HAL_Driver/Src/stm32h7xx_hal_tim_ex.c **** /* Exported functions --------------------------------------------------------*/
 118:Drivers/STM32H7xx_HAL_Driver/Src/stm32h7xx_hal_tim_ex.c **** /** @defgroup TIMEx_Exported_Functions TIM Extended Exported Functions
 119:Drivers/STM32H7xx_HAL_Driver/Src/stm32h7xx_hal_tim_ex.c ****   * @{
 120:Drivers/STM32H7xx_HAL_Driver/Src/stm32h7xx_hal_tim_ex.c ****   */
 121:Drivers/STM32H7xx_HAL_Driver/Src/stm32h7xx_hal_tim_ex.c **** 
 122:Drivers/STM32H7xx_HAL_Driver/Src/stm32h7xx_hal_tim_ex.c **** /** @defgroup TIMEx_Exported_Functions_Group1 Extended Timer Hall Sensor functions
 123:Drivers/STM32H7xx_HAL_Driver/Src/stm32h7xx_hal_tim_ex.c ****   * @brief    Timer Hall Sensor functions
 124:Drivers/STM32H7xx_HAL_Driver/Src/stm32h7xx_hal_tim_ex.c ****   *
 125:Drivers/STM32H7xx_HAL_Driver/Src/stm32h7xx_hal_tim_ex.c **** @verbatim
 126:Drivers/STM32H7xx_HAL_Driver/Src/stm32h7xx_hal_tim_ex.c ****   ==============================================================================
 127:Drivers/STM32H7xx_HAL_Driver/Src/stm32h7xx_hal_tim_ex.c ****                       ##### Timer Hall Sensor functions #####
 128:Drivers/STM32H7xx_HAL_Driver/Src/stm32h7xx_hal_tim_ex.c ****   ==============================================================================
 129:Drivers/STM32H7xx_HAL_Driver/Src/stm32h7xx_hal_tim_ex.c ****   [..]
 130:Drivers/STM32H7xx_HAL_Driver/Src/stm32h7xx_hal_tim_ex.c ****     This section provides functions allowing to:
 131:Drivers/STM32H7xx_HAL_Driver/Src/stm32h7xx_hal_tim_ex.c ****     (+) Initialize and configure TIM HAL Sensor.
 132:Drivers/STM32H7xx_HAL_Driver/Src/stm32h7xx_hal_tim_ex.c ****     (+) De-initialize TIM HAL Sensor.
 133:Drivers/STM32H7xx_HAL_Driver/Src/stm32h7xx_hal_tim_ex.c ****     (+) Start the Hall Sensor Interface.
 134:Drivers/STM32H7xx_HAL_Driver/Src/stm32h7xx_hal_tim_ex.c ****     (+) Stop the Hall Sensor Interface.
 135:Drivers/STM32H7xx_HAL_Driver/Src/stm32h7xx_hal_tim_ex.c ****     (+) Start the Hall Sensor Interface and enable interrupts.
 136:Drivers/STM32H7xx_HAL_Driver/Src/stm32h7xx_hal_tim_ex.c ****     (+) Stop the Hall Sensor Interface and disable interrupts.
 137:Drivers/STM32H7xx_HAL_Driver/Src/stm32h7xx_hal_tim_ex.c ****     (+) Start the Hall Sensor Interface and enable DMA transfers.
 138:Drivers/STM32H7xx_HAL_Driver/Src/stm32h7xx_hal_tim_ex.c ****     (+) Stop the Hall Sensor Interface and disable DMA transfers.
 139:Drivers/STM32H7xx_HAL_Driver/Src/stm32h7xx_hal_tim_ex.c **** 
 140:Drivers/STM32H7xx_HAL_Driver/Src/stm32h7xx_hal_tim_ex.c **** @endverbatim
 141:Drivers/STM32H7xx_HAL_Driver/Src/stm32h7xx_hal_tim_ex.c ****   * @{
 142:Drivers/STM32H7xx_HAL_Driver/Src/stm32h7xx_hal_tim_ex.c ****   */
 143:Drivers/STM32H7xx_HAL_Driver/Src/stm32h7xx_hal_tim_ex.c **** /**
 144:Drivers/STM32H7xx_HAL_Driver/Src/stm32h7xx_hal_tim_ex.c ****   * @brief  Initializes the TIM Hall Sensor Interface and initialize the associated handle.
 145:Drivers/STM32H7xx_HAL_Driver/Src/stm32h7xx_hal_tim_ex.c ****   * @note   When the timer instance is initialized in Hall Sensor Interface mode,
ARM GAS  C:\Users\Su\AppData\Local\Temp\ccm0VnUy.s 			page 4


 146:Drivers/STM32H7xx_HAL_Driver/Src/stm32h7xx_hal_tim_ex.c ****   *         timer channels 1 and channel 2 are reserved and cannot be used for
 147:Drivers/STM32H7xx_HAL_Driver/Src/stm32h7xx_hal_tim_ex.c ****   *         other purpose.
 148:Drivers/STM32H7xx_HAL_Driver/Src/stm32h7xx_hal_tim_ex.c ****   * @param  htim TIM Hall Sensor Interface handle
 149:Drivers/STM32H7xx_HAL_Driver/Src/stm32h7xx_hal_tim_ex.c ****   * @param  sConfig TIM Hall Sensor configuration structure
 150:Drivers/STM32H7xx_HAL_Driver/Src/stm32h7xx_hal_tim_ex.c ****   * @retval HAL status
 151:Drivers/STM32H7xx_HAL_Driver/Src/stm32h7xx_hal_tim_ex.c ****   */
 152:Drivers/STM32H7xx_HAL_Driver/Src/stm32h7xx_hal_tim_ex.c **** HAL_StatusTypeDef HAL_TIMEx_HallSensor_Init(TIM_HandleTypeDef *htim, TIM_HallSensor_InitTypeDef *sC
 153:Drivers/STM32H7xx_HAL_Driver/Src/stm32h7xx_hal_tim_ex.c **** {
  28              		.loc 1 153 1
  29              		.cfi_startproc
  30              		@ args = 0, pretend = 0, frame = 40
  31              		@ frame_needed = 1, uses_anonymous_args = 0
  32 0000 80B5     		push	{r7, lr}
  33              	.LCFI0:
  34              		.cfi_def_cfa_offset 8
  35              		.cfi_offset 7, -8
  36              		.cfi_offset 14, -4
  37 0002 8AB0     		sub	sp, sp, #40
  38              	.LCFI1:
  39              		.cfi_def_cfa_offset 48
  40 0004 00AF     		add	r7, sp, #0
  41              	.LCFI2:
  42              		.cfi_def_cfa_register 7
  43 0006 7860     		str	r0, [r7, #4]
  44 0008 3960     		str	r1, [r7]
 154:Drivers/STM32H7xx_HAL_Driver/Src/stm32h7xx_hal_tim_ex.c ****   TIM_OC_InitTypeDef OC_Config;
 155:Drivers/STM32H7xx_HAL_Driver/Src/stm32h7xx_hal_tim_ex.c **** 
 156:Drivers/STM32H7xx_HAL_Driver/Src/stm32h7xx_hal_tim_ex.c ****   /* Check the TIM handle allocation */
 157:Drivers/STM32H7xx_HAL_Driver/Src/stm32h7xx_hal_tim_ex.c ****   if (htim == NULL)
  45              		.loc 1 157 6
  46 000a 7B68     		ldr	r3, [r7, #4]
  47 000c 002B     		cmp	r3, #0
  48 000e 01D1     		bne	.L2
 158:Drivers/STM32H7xx_HAL_Driver/Src/stm32h7xx_hal_tim_ex.c ****   {
 159:Drivers/STM32H7xx_HAL_Driver/Src/stm32h7xx_hal_tim_ex.c ****     return HAL_ERROR;
  49              		.loc 1 159 12
  50 0010 0123     		movs	r3, #1
  51 0012 9AE0     		b	.L5
  52              	.L2:
 160:Drivers/STM32H7xx_HAL_Driver/Src/stm32h7xx_hal_tim_ex.c ****   }
 161:Drivers/STM32H7xx_HAL_Driver/Src/stm32h7xx_hal_tim_ex.c **** 
 162:Drivers/STM32H7xx_HAL_Driver/Src/stm32h7xx_hal_tim_ex.c ****   /* Check the parameters */
 163:Drivers/STM32H7xx_HAL_Driver/Src/stm32h7xx_hal_tim_ex.c ****   assert_param(IS_TIM_HALL_SENSOR_INTERFACE_INSTANCE(htim->Instance));
 164:Drivers/STM32H7xx_HAL_Driver/Src/stm32h7xx_hal_tim_ex.c ****   assert_param(IS_TIM_COUNTER_MODE(htim->Init.CounterMode));
 165:Drivers/STM32H7xx_HAL_Driver/Src/stm32h7xx_hal_tim_ex.c ****   assert_param(IS_TIM_CLOCKDIVISION_DIV(htim->Init.ClockDivision));
 166:Drivers/STM32H7xx_HAL_Driver/Src/stm32h7xx_hal_tim_ex.c ****   assert_param(IS_TIM_AUTORELOAD_PRELOAD(htim->Init.AutoReloadPreload));
 167:Drivers/STM32H7xx_HAL_Driver/Src/stm32h7xx_hal_tim_ex.c ****   assert_param(IS_TIM_IC_POLARITY(sConfig->IC1Polarity));
 168:Drivers/STM32H7xx_HAL_Driver/Src/stm32h7xx_hal_tim_ex.c ****   assert_param(IS_TIM_IC_PRESCALER(sConfig->IC1Prescaler));
 169:Drivers/STM32H7xx_HAL_Driver/Src/stm32h7xx_hal_tim_ex.c ****   assert_param(IS_TIM_IC_FILTER(sConfig->IC1Filter));
 170:Drivers/STM32H7xx_HAL_Driver/Src/stm32h7xx_hal_tim_ex.c **** 
 171:Drivers/STM32H7xx_HAL_Driver/Src/stm32h7xx_hal_tim_ex.c ****   if (htim->State == HAL_TIM_STATE_RESET)
  53              		.loc 1 171 11
  54 0014 7B68     		ldr	r3, [r7, #4]
  55 0016 93F83D30 		ldrb	r3, [r3, #61]
  56 001a DBB2     		uxtb	r3, r3
  57              		.loc 1 171 6
  58 001c 002B     		cmp	r3, #0
ARM GAS  C:\Users\Su\AppData\Local\Temp\ccm0VnUy.s 			page 5


  59 001e 06D1     		bne	.L4
 172:Drivers/STM32H7xx_HAL_Driver/Src/stm32h7xx_hal_tim_ex.c ****   {
 173:Drivers/STM32H7xx_HAL_Driver/Src/stm32h7xx_hal_tim_ex.c ****     /* Allocate lock resource and initialize it */
 174:Drivers/STM32H7xx_HAL_Driver/Src/stm32h7xx_hal_tim_ex.c ****     htim->Lock = HAL_UNLOCKED;
  60              		.loc 1 174 16
  61 0020 7B68     		ldr	r3, [r7, #4]
  62 0022 0022     		movs	r2, #0
  63 0024 83F83C20 		strb	r2, [r3, #60]
 175:Drivers/STM32H7xx_HAL_Driver/Src/stm32h7xx_hal_tim_ex.c **** 
 176:Drivers/STM32H7xx_HAL_Driver/Src/stm32h7xx_hal_tim_ex.c **** #if (USE_HAL_TIM_REGISTER_CALLBACKS == 1)
 177:Drivers/STM32H7xx_HAL_Driver/Src/stm32h7xx_hal_tim_ex.c ****     /* Reset interrupt callbacks to legacy week callbacks */
 178:Drivers/STM32H7xx_HAL_Driver/Src/stm32h7xx_hal_tim_ex.c ****     TIM_ResetCallback(htim);
 179:Drivers/STM32H7xx_HAL_Driver/Src/stm32h7xx_hal_tim_ex.c **** 
 180:Drivers/STM32H7xx_HAL_Driver/Src/stm32h7xx_hal_tim_ex.c ****     if (htim->HallSensor_MspInitCallback == NULL)
 181:Drivers/STM32H7xx_HAL_Driver/Src/stm32h7xx_hal_tim_ex.c ****     {
 182:Drivers/STM32H7xx_HAL_Driver/Src/stm32h7xx_hal_tim_ex.c ****       htim->HallSensor_MspInitCallback = HAL_TIMEx_HallSensor_MspInit;
 183:Drivers/STM32H7xx_HAL_Driver/Src/stm32h7xx_hal_tim_ex.c ****     }
 184:Drivers/STM32H7xx_HAL_Driver/Src/stm32h7xx_hal_tim_ex.c ****     /* Init the low level hardware : GPIO, CLOCK, NVIC */
 185:Drivers/STM32H7xx_HAL_Driver/Src/stm32h7xx_hal_tim_ex.c ****     htim->HallSensor_MspInitCallback(htim);
 186:Drivers/STM32H7xx_HAL_Driver/Src/stm32h7xx_hal_tim_ex.c **** #else
 187:Drivers/STM32H7xx_HAL_Driver/Src/stm32h7xx_hal_tim_ex.c ****     /* Init the low level hardware : GPIO, CLOCK, NVIC and DMA */
 188:Drivers/STM32H7xx_HAL_Driver/Src/stm32h7xx_hal_tim_ex.c ****     HAL_TIMEx_HallSensor_MspInit(htim);
  64              		.loc 1 188 5
  65 0028 7868     		ldr	r0, [r7, #4]
  66 002a FFF7FEFF 		bl	HAL_TIMEx_HallSensor_MspInit
  67              	.L4:
 189:Drivers/STM32H7xx_HAL_Driver/Src/stm32h7xx_hal_tim_ex.c **** #endif /* USE_HAL_TIM_REGISTER_CALLBACKS */
 190:Drivers/STM32H7xx_HAL_Driver/Src/stm32h7xx_hal_tim_ex.c ****   }
 191:Drivers/STM32H7xx_HAL_Driver/Src/stm32h7xx_hal_tim_ex.c **** 
 192:Drivers/STM32H7xx_HAL_Driver/Src/stm32h7xx_hal_tim_ex.c ****   /* Set the TIM state */
 193:Drivers/STM32H7xx_HAL_Driver/Src/stm32h7xx_hal_tim_ex.c ****   htim->State = HAL_TIM_STATE_BUSY;
  68              		.loc 1 193 15
  69 002e 7B68     		ldr	r3, [r7, #4]
  70 0030 0222     		movs	r2, #2
  71 0032 83F83D20 		strb	r2, [r3, #61]
 194:Drivers/STM32H7xx_HAL_Driver/Src/stm32h7xx_hal_tim_ex.c **** 
 195:Drivers/STM32H7xx_HAL_Driver/Src/stm32h7xx_hal_tim_ex.c ****   /* Configure the Time base in the Encoder Mode */
 196:Drivers/STM32H7xx_HAL_Driver/Src/stm32h7xx_hal_tim_ex.c ****   TIM_Base_SetConfig(htim->Instance, &htim->Init);
  72              		.loc 1 196 3
  73 0036 7B68     		ldr	r3, [r7, #4]
  74 0038 1A68     		ldr	r2, [r3]
  75 003a 7B68     		ldr	r3, [r7, #4]
  76 003c 0433     		adds	r3, r3, #4
  77 003e 1946     		mov	r1, r3
  78 0040 1046     		mov	r0, r2
  79 0042 FFF7FEFF 		bl	TIM_Base_SetConfig
 197:Drivers/STM32H7xx_HAL_Driver/Src/stm32h7xx_hal_tim_ex.c **** 
 198:Drivers/STM32H7xx_HAL_Driver/Src/stm32h7xx_hal_tim_ex.c ****   /* Configure the Channel 1 as Input Channel to interface with the three Outputs of the  Hall sens
 199:Drivers/STM32H7xx_HAL_Driver/Src/stm32h7xx_hal_tim_ex.c ****   TIM_TI1_SetConfig(htim->Instance, sConfig->IC1Polarity, TIM_ICSELECTION_TRC, sConfig->IC1Filter);
  80              		.loc 1 199 3
  81 0046 7B68     		ldr	r3, [r7, #4]
  82 0048 1868     		ldr	r0, [r3]
  83 004a 3B68     		ldr	r3, [r7]
  84 004c 1968     		ldr	r1, [r3]
  85 004e 3B68     		ldr	r3, [r7]
  86 0050 9B68     		ldr	r3, [r3, #8]
  87 0052 0322     		movs	r2, #3
ARM GAS  C:\Users\Su\AppData\Local\Temp\ccm0VnUy.s 			page 6


  88 0054 FFF7FEFF 		bl	TIM_TI1_SetConfig
 200:Drivers/STM32H7xx_HAL_Driver/Src/stm32h7xx_hal_tim_ex.c **** 
 201:Drivers/STM32H7xx_HAL_Driver/Src/stm32h7xx_hal_tim_ex.c ****   /* Reset the IC1PSC Bits */
 202:Drivers/STM32H7xx_HAL_Driver/Src/stm32h7xx_hal_tim_ex.c ****   htim->Instance->CCMR1 &= ~TIM_CCMR1_IC1PSC;
  89              		.loc 1 202 7
  90 0058 7B68     		ldr	r3, [r7, #4]
  91 005a 1B68     		ldr	r3, [r3]
  92              		.loc 1 202 25
  93 005c 9A69     		ldr	r2, [r3, #24]
  94              		.loc 1 202 7
  95 005e 7B68     		ldr	r3, [r7, #4]
  96 0060 1B68     		ldr	r3, [r3]
  97              		.loc 1 202 25
  98 0062 22F00C02 		bic	r2, r2, #12
  99 0066 9A61     		str	r2, [r3, #24]
 203:Drivers/STM32H7xx_HAL_Driver/Src/stm32h7xx_hal_tim_ex.c ****   /* Set the IC1PSC value */
 204:Drivers/STM32H7xx_HAL_Driver/Src/stm32h7xx_hal_tim_ex.c ****   htim->Instance->CCMR1 |= sConfig->IC1Prescaler;
 100              		.loc 1 204 7
 101 0068 7B68     		ldr	r3, [r7, #4]
 102 006a 1B68     		ldr	r3, [r3]
 103              		.loc 1 204 25
 104 006c 9969     		ldr	r1, [r3, #24]
 105              		.loc 1 204 35
 106 006e 3B68     		ldr	r3, [r7]
 107 0070 5A68     		ldr	r2, [r3, #4]
 108              		.loc 1 204 7
 109 0072 7B68     		ldr	r3, [r7, #4]
 110 0074 1B68     		ldr	r3, [r3]
 111              		.loc 1 204 25
 112 0076 0A43     		orrs	r2, r2, r1
 113 0078 9A61     		str	r2, [r3, #24]
 205:Drivers/STM32H7xx_HAL_Driver/Src/stm32h7xx_hal_tim_ex.c **** 
 206:Drivers/STM32H7xx_HAL_Driver/Src/stm32h7xx_hal_tim_ex.c ****   /* Enable the Hall sensor interface (XOR function of the three inputs) */
 207:Drivers/STM32H7xx_HAL_Driver/Src/stm32h7xx_hal_tim_ex.c ****   htim->Instance->CR2 |= TIM_CR2_TI1S;
 114              		.loc 1 207 7
 115 007a 7B68     		ldr	r3, [r7, #4]
 116 007c 1B68     		ldr	r3, [r3]
 117              		.loc 1 207 23
 118 007e 5A68     		ldr	r2, [r3, #4]
 119              		.loc 1 207 7
 120 0080 7B68     		ldr	r3, [r7, #4]
 121 0082 1B68     		ldr	r3, [r3]
 122              		.loc 1 207 23
 123 0084 42F08002 		orr	r2, r2, #128
 124 0088 5A60     		str	r2, [r3, #4]
 208:Drivers/STM32H7xx_HAL_Driver/Src/stm32h7xx_hal_tim_ex.c **** 
 209:Drivers/STM32H7xx_HAL_Driver/Src/stm32h7xx_hal_tim_ex.c ****   /* Select the TIM_TS_TI1F_ED signal as Input trigger for the TIM */
 210:Drivers/STM32H7xx_HAL_Driver/Src/stm32h7xx_hal_tim_ex.c ****   htim->Instance->SMCR &= ~TIM_SMCR_TS;
 125              		.loc 1 210 7
 126 008a 7B68     		ldr	r3, [r7, #4]
 127 008c 1B68     		ldr	r3, [r3]
 128              		.loc 1 210 24
 129 008e 9968     		ldr	r1, [r3, #8]
 130              		.loc 1 210 7
 131 0090 7B68     		ldr	r3, [r7, #4]
 132 0092 1A68     		ldr	r2, [r3]
 133              		.loc 1 210 24
ARM GAS  C:\Users\Su\AppData\Local\Temp\ccm0VnUy.s 			page 7


 134 0094 2F4B     		ldr	r3, .L6
 135 0096 0B40     		ands	r3, r3, r1
 136 0098 9360     		str	r3, [r2, #8]
 211:Drivers/STM32H7xx_HAL_Driver/Src/stm32h7xx_hal_tim_ex.c ****   htim->Instance->SMCR |= TIM_TS_TI1F_ED;
 137              		.loc 1 211 7
 138 009a 7B68     		ldr	r3, [r7, #4]
 139 009c 1B68     		ldr	r3, [r3]
 140              		.loc 1 211 24
 141 009e 9A68     		ldr	r2, [r3, #8]
 142              		.loc 1 211 7
 143 00a0 7B68     		ldr	r3, [r7, #4]
 144 00a2 1B68     		ldr	r3, [r3]
 145              		.loc 1 211 24
 146 00a4 42F04002 		orr	r2, r2, #64
 147 00a8 9A60     		str	r2, [r3, #8]
 212:Drivers/STM32H7xx_HAL_Driver/Src/stm32h7xx_hal_tim_ex.c **** 
 213:Drivers/STM32H7xx_HAL_Driver/Src/stm32h7xx_hal_tim_ex.c ****   /* Use the TIM_TS_TI1F_ED signal to reset the TIM counter each edge detection */
 214:Drivers/STM32H7xx_HAL_Driver/Src/stm32h7xx_hal_tim_ex.c ****   htim->Instance->SMCR &= ~TIM_SMCR_SMS;
 148              		.loc 1 214 7
 149 00aa 7B68     		ldr	r3, [r7, #4]
 150 00ac 1B68     		ldr	r3, [r3]
 151              		.loc 1 214 24
 152 00ae 9968     		ldr	r1, [r3, #8]
 153              		.loc 1 214 7
 154 00b0 7B68     		ldr	r3, [r7, #4]
 155 00b2 1A68     		ldr	r2, [r3]
 156              		.loc 1 214 24
 157 00b4 284B     		ldr	r3, .L6+4
 158 00b6 0B40     		ands	r3, r3, r1
 159 00b8 9360     		str	r3, [r2, #8]
 215:Drivers/STM32H7xx_HAL_Driver/Src/stm32h7xx_hal_tim_ex.c ****   htim->Instance->SMCR |= TIM_SLAVEMODE_RESET;
 160              		.loc 1 215 7
 161 00ba 7B68     		ldr	r3, [r7, #4]
 162 00bc 1B68     		ldr	r3, [r3]
 163              		.loc 1 215 24
 164 00be 9A68     		ldr	r2, [r3, #8]
 165              		.loc 1 215 7
 166 00c0 7B68     		ldr	r3, [r7, #4]
 167 00c2 1B68     		ldr	r3, [r3]
 168              		.loc 1 215 24
 169 00c4 42F00402 		orr	r2, r2, #4
 170 00c8 9A60     		str	r2, [r3, #8]
 216:Drivers/STM32H7xx_HAL_Driver/Src/stm32h7xx_hal_tim_ex.c **** 
 217:Drivers/STM32H7xx_HAL_Driver/Src/stm32h7xx_hal_tim_ex.c ****   /* Program channel 2 in PWM 2 mode with the desired Commutation_Delay*/
 218:Drivers/STM32H7xx_HAL_Driver/Src/stm32h7xx_hal_tim_ex.c ****   OC_Config.OCFastMode = TIM_OCFAST_DISABLE;
 171              		.loc 1 218 24
 172 00ca 0023     		movs	r3, #0
 173 00cc FB61     		str	r3, [r7, #28]
 219:Drivers/STM32H7xx_HAL_Driver/Src/stm32h7xx_hal_tim_ex.c ****   OC_Config.OCIdleState = TIM_OCIDLESTATE_RESET;
 174              		.loc 1 219 25
 175 00ce 0023     		movs	r3, #0
 176 00d0 3B62     		str	r3, [r7, #32]
 220:Drivers/STM32H7xx_HAL_Driver/Src/stm32h7xx_hal_tim_ex.c ****   OC_Config.OCMode = TIM_OCMODE_PWM2;
 177              		.loc 1 220 20
 178 00d2 7023     		movs	r3, #112
 179 00d4 FB60     		str	r3, [r7, #12]
 221:Drivers/STM32H7xx_HAL_Driver/Src/stm32h7xx_hal_tim_ex.c ****   OC_Config.OCNIdleState = TIM_OCNIDLESTATE_RESET;
ARM GAS  C:\Users\Su\AppData\Local\Temp\ccm0VnUy.s 			page 8


 180              		.loc 1 221 26
 181 00d6 0023     		movs	r3, #0
 182 00d8 7B62     		str	r3, [r7, #36]
 222:Drivers/STM32H7xx_HAL_Driver/Src/stm32h7xx_hal_tim_ex.c ****   OC_Config.OCNPolarity = TIM_OCNPOLARITY_HIGH;
 183              		.loc 1 222 25
 184 00da 0023     		movs	r3, #0
 185 00dc BB61     		str	r3, [r7, #24]
 223:Drivers/STM32H7xx_HAL_Driver/Src/stm32h7xx_hal_tim_ex.c ****   OC_Config.OCPolarity = TIM_OCPOLARITY_HIGH;
 186              		.loc 1 223 24
 187 00de 0023     		movs	r3, #0
 188 00e0 7B61     		str	r3, [r7, #20]
 224:Drivers/STM32H7xx_HAL_Driver/Src/stm32h7xx_hal_tim_ex.c ****   OC_Config.Pulse = sConfig->Commutation_Delay;
 189              		.loc 1 224 28
 190 00e2 3B68     		ldr	r3, [r7]
 191 00e4 DB68     		ldr	r3, [r3, #12]
 192              		.loc 1 224 19
 193 00e6 3B61     		str	r3, [r7, #16]
 225:Drivers/STM32H7xx_HAL_Driver/Src/stm32h7xx_hal_tim_ex.c **** 
 226:Drivers/STM32H7xx_HAL_Driver/Src/stm32h7xx_hal_tim_ex.c ****   TIM_OC2_SetConfig(htim->Instance, &OC_Config);
 194              		.loc 1 226 3
 195 00e8 7B68     		ldr	r3, [r7, #4]
 196 00ea 1B68     		ldr	r3, [r3]
 197 00ec 07F10C02 		add	r2, r7, #12
 198 00f0 1146     		mov	r1, r2
 199 00f2 1846     		mov	r0, r3
 200 00f4 FFF7FEFF 		bl	TIM_OC2_SetConfig
 227:Drivers/STM32H7xx_HAL_Driver/Src/stm32h7xx_hal_tim_ex.c **** 
 228:Drivers/STM32H7xx_HAL_Driver/Src/stm32h7xx_hal_tim_ex.c ****   /* Select OC2REF as trigger output on TRGO: write the MMS bits in the TIMx_CR2
 229:Drivers/STM32H7xx_HAL_Driver/Src/stm32h7xx_hal_tim_ex.c ****     register to 101 */
 230:Drivers/STM32H7xx_HAL_Driver/Src/stm32h7xx_hal_tim_ex.c ****   htim->Instance->CR2 &= ~TIM_CR2_MMS;
 201              		.loc 1 230 7
 202 00f8 7B68     		ldr	r3, [r7, #4]
 203 00fa 1B68     		ldr	r3, [r3]
 204              		.loc 1 230 23
 205 00fc 5A68     		ldr	r2, [r3, #4]
 206              		.loc 1 230 7
 207 00fe 7B68     		ldr	r3, [r7, #4]
 208 0100 1B68     		ldr	r3, [r3]
 209              		.loc 1 230 23
 210 0102 22F07002 		bic	r2, r2, #112
 211 0106 5A60     		str	r2, [r3, #4]
 231:Drivers/STM32H7xx_HAL_Driver/Src/stm32h7xx_hal_tim_ex.c ****   htim->Instance->CR2 |= TIM_TRGO_OC2REF;
 212              		.loc 1 231 7
 213 0108 7B68     		ldr	r3, [r7, #4]
 214 010a 1B68     		ldr	r3, [r3]
 215              		.loc 1 231 23
 216 010c 5A68     		ldr	r2, [r3, #4]
 217              		.loc 1 231 7
 218 010e 7B68     		ldr	r3, [r7, #4]
 219 0110 1B68     		ldr	r3, [r3]
 220              		.loc 1 231 23
 221 0112 42F05002 		orr	r2, r2, #80
 222 0116 5A60     		str	r2, [r3, #4]
 232:Drivers/STM32H7xx_HAL_Driver/Src/stm32h7xx_hal_tim_ex.c **** 
 233:Drivers/STM32H7xx_HAL_Driver/Src/stm32h7xx_hal_tim_ex.c ****   /* Initialize the DMA burst operation state */
 234:Drivers/STM32H7xx_HAL_Driver/Src/stm32h7xx_hal_tim_ex.c ****   htim->DMABurstState = HAL_DMA_BURST_STATE_READY;
 223              		.loc 1 234 23
ARM GAS  C:\Users\Su\AppData\Local\Temp\ccm0VnUy.s 			page 9


 224 0118 7B68     		ldr	r3, [r7, #4]
 225 011a 0122     		movs	r2, #1
 226 011c 83F84820 		strb	r2, [r3, #72]
 235:Drivers/STM32H7xx_HAL_Driver/Src/stm32h7xx_hal_tim_ex.c **** 
 236:Drivers/STM32H7xx_HAL_Driver/Src/stm32h7xx_hal_tim_ex.c ****   /* Initialize the TIM channels state */
 237:Drivers/STM32H7xx_HAL_Driver/Src/stm32h7xx_hal_tim_ex.c ****   TIM_CHANNEL_STATE_SET(htim, TIM_CHANNEL_1, HAL_TIM_CHANNEL_STATE_READY);
 227              		.loc 1 237 3
 228 0120 7B68     		ldr	r3, [r7, #4]
 229 0122 0122     		movs	r2, #1
 230 0124 83F83E20 		strb	r2, [r3, #62]
 238:Drivers/STM32H7xx_HAL_Driver/Src/stm32h7xx_hal_tim_ex.c ****   TIM_CHANNEL_STATE_SET(htim, TIM_CHANNEL_2, HAL_TIM_CHANNEL_STATE_READY);
 231              		.loc 1 238 3
 232 0128 7B68     		ldr	r3, [r7, #4]
 233 012a 0122     		movs	r2, #1
 234 012c 83F83F20 		strb	r2, [r3, #63]
 239:Drivers/STM32H7xx_HAL_Driver/Src/stm32h7xx_hal_tim_ex.c ****   TIM_CHANNEL_N_STATE_SET(htim, TIM_CHANNEL_1, HAL_TIM_CHANNEL_STATE_READY);
 235              		.loc 1 239 3
 236 0130 7B68     		ldr	r3, [r7, #4]
 237 0132 0122     		movs	r2, #1
 238 0134 83F84420 		strb	r2, [r3, #68]
 240:Drivers/STM32H7xx_HAL_Driver/Src/stm32h7xx_hal_tim_ex.c ****   TIM_CHANNEL_N_STATE_SET(htim, TIM_CHANNEL_2, HAL_TIM_CHANNEL_STATE_READY);
 239              		.loc 1 240 3
 240 0138 7B68     		ldr	r3, [r7, #4]
 241 013a 0122     		movs	r2, #1
 242 013c 83F84520 		strb	r2, [r3, #69]
 241:Drivers/STM32H7xx_HAL_Driver/Src/stm32h7xx_hal_tim_ex.c **** 
 242:Drivers/STM32H7xx_HAL_Driver/Src/stm32h7xx_hal_tim_ex.c ****   /* Initialize the TIM state*/
 243:Drivers/STM32H7xx_HAL_Driver/Src/stm32h7xx_hal_tim_ex.c ****   htim->State = HAL_TIM_STATE_READY;
 243              		.loc 1 243 15
 244 0140 7B68     		ldr	r3, [r7, #4]
 245 0142 0122     		movs	r2, #1
 246 0144 83F83D20 		strb	r2, [r3, #61]
 244:Drivers/STM32H7xx_HAL_Driver/Src/stm32h7xx_hal_tim_ex.c **** 
 245:Drivers/STM32H7xx_HAL_Driver/Src/stm32h7xx_hal_tim_ex.c ****   return HAL_OK;
 247              		.loc 1 245 10
 248 0148 0023     		movs	r3, #0
 249              	.L5:
 246:Drivers/STM32H7xx_HAL_Driver/Src/stm32h7xx_hal_tim_ex.c **** }
 250              		.loc 1 246 1 discriminator 1
 251 014a 1846     		mov	r0, r3
 252 014c 2837     		adds	r7, r7, #40
 253              	.LCFI3:
 254              		.cfi_def_cfa_offset 8
 255 014e BD46     		mov	sp, r7
 256              	.LCFI4:
 257              		.cfi_def_cfa_register 13
 258              		@ sp needed
 259 0150 80BD     		pop	{r7, pc}
 260              	.L7:
 261 0152 00BF     		.align	2
 262              	.L6:
 263 0154 8FFFCFFF 		.word	-3145841
 264 0158 F8FFFEFF 		.word	-65544
 265              		.cfi_endproc
 266              	.LFE144:
 268              		.section	.text.HAL_TIMEx_HallSensor_DeInit,"ax",%progbits
 269              		.align	1
ARM GAS  C:\Users\Su\AppData\Local\Temp\ccm0VnUy.s 			page 10


 270              		.global	HAL_TIMEx_HallSensor_DeInit
 271              		.syntax unified
 272              		.thumb
 273              		.thumb_func
 275              	HAL_TIMEx_HallSensor_DeInit:
 276              	.LFB145:
 247:Drivers/STM32H7xx_HAL_Driver/Src/stm32h7xx_hal_tim_ex.c **** 
 248:Drivers/STM32H7xx_HAL_Driver/Src/stm32h7xx_hal_tim_ex.c **** /**
 249:Drivers/STM32H7xx_HAL_Driver/Src/stm32h7xx_hal_tim_ex.c ****   * @brief  DeInitializes the TIM Hall Sensor interface
 250:Drivers/STM32H7xx_HAL_Driver/Src/stm32h7xx_hal_tim_ex.c ****   * @param  htim TIM Hall Sensor Interface handle
 251:Drivers/STM32H7xx_HAL_Driver/Src/stm32h7xx_hal_tim_ex.c ****   * @retval HAL status
 252:Drivers/STM32H7xx_HAL_Driver/Src/stm32h7xx_hal_tim_ex.c ****   */
 253:Drivers/STM32H7xx_HAL_Driver/Src/stm32h7xx_hal_tim_ex.c **** HAL_StatusTypeDef HAL_TIMEx_HallSensor_DeInit(TIM_HandleTypeDef *htim)
 254:Drivers/STM32H7xx_HAL_Driver/Src/stm32h7xx_hal_tim_ex.c **** {
 277              		.loc 1 254 1
 278              		.cfi_startproc
 279              		@ args = 0, pretend = 0, frame = 8
 280              		@ frame_needed = 1, uses_anonymous_args = 0
 281 0000 80B5     		push	{r7, lr}
 282              	.LCFI5:
 283              		.cfi_def_cfa_offset 8
 284              		.cfi_offset 7, -8
 285              		.cfi_offset 14, -4
 286 0002 82B0     		sub	sp, sp, #8
 287              	.LCFI6:
 288              		.cfi_def_cfa_offset 16
 289 0004 00AF     		add	r7, sp, #0
 290              	.LCFI7:
 291              		.cfi_def_cfa_register 7
 292 0006 7860     		str	r0, [r7, #4]
 255:Drivers/STM32H7xx_HAL_Driver/Src/stm32h7xx_hal_tim_ex.c ****   /* Check the parameters */
 256:Drivers/STM32H7xx_HAL_Driver/Src/stm32h7xx_hal_tim_ex.c ****   assert_param(IS_TIM_INSTANCE(htim->Instance));
 257:Drivers/STM32H7xx_HAL_Driver/Src/stm32h7xx_hal_tim_ex.c **** 
 258:Drivers/STM32H7xx_HAL_Driver/Src/stm32h7xx_hal_tim_ex.c ****   htim->State = HAL_TIM_STATE_BUSY;
 293              		.loc 1 258 15
 294 0008 7B68     		ldr	r3, [r7, #4]
 295 000a 0222     		movs	r2, #2
 296 000c 83F83D20 		strb	r2, [r3, #61]
 259:Drivers/STM32H7xx_HAL_Driver/Src/stm32h7xx_hal_tim_ex.c **** 
 260:Drivers/STM32H7xx_HAL_Driver/Src/stm32h7xx_hal_tim_ex.c ****   /* Disable the TIM Peripheral Clock */
 261:Drivers/STM32H7xx_HAL_Driver/Src/stm32h7xx_hal_tim_ex.c ****   __HAL_TIM_DISABLE(htim);
 297              		.loc 1 261 3
 298 0010 7B68     		ldr	r3, [r7, #4]
 299 0012 1B68     		ldr	r3, [r3]
 300 0014 1A6A     		ldr	r2, [r3, #32]
 301 0016 41F21113 		movw	r3, #4369
 302 001a 1340     		ands	r3, r3, r2
 303 001c 002B     		cmp	r3, #0
 304 001e 0FD1     		bne	.L9
 305              		.loc 1 261 3 is_stmt 0 discriminator 1
 306 0020 7B68     		ldr	r3, [r7, #4]
 307 0022 1B68     		ldr	r3, [r3]
 308 0024 1A6A     		ldr	r2, [r3, #32]
 309 0026 40F24443 		movw	r3, #1092
 310 002a 1340     		ands	r3, r3, r2
 311 002c 002B     		cmp	r3, #0
 312 002e 07D1     		bne	.L9
ARM GAS  C:\Users\Su\AppData\Local\Temp\ccm0VnUy.s 			page 11


 313              		.loc 1 261 3 discriminator 2
 314 0030 7B68     		ldr	r3, [r7, #4]
 315 0032 1B68     		ldr	r3, [r3]
 316 0034 1A68     		ldr	r2, [r3]
 317 0036 7B68     		ldr	r3, [r7, #4]
 318 0038 1B68     		ldr	r3, [r3]
 319 003a 22F00102 		bic	r2, r2, #1
 320 003e 1A60     		str	r2, [r3]
 321              	.L9:
 262:Drivers/STM32H7xx_HAL_Driver/Src/stm32h7xx_hal_tim_ex.c **** 
 263:Drivers/STM32H7xx_HAL_Driver/Src/stm32h7xx_hal_tim_ex.c **** #if (USE_HAL_TIM_REGISTER_CALLBACKS == 1)
 264:Drivers/STM32H7xx_HAL_Driver/Src/stm32h7xx_hal_tim_ex.c ****   if (htim->HallSensor_MspDeInitCallback == NULL)
 265:Drivers/STM32H7xx_HAL_Driver/Src/stm32h7xx_hal_tim_ex.c ****   {
 266:Drivers/STM32H7xx_HAL_Driver/Src/stm32h7xx_hal_tim_ex.c ****     htim->HallSensor_MspDeInitCallback = HAL_TIMEx_HallSensor_MspDeInit;
 267:Drivers/STM32H7xx_HAL_Driver/Src/stm32h7xx_hal_tim_ex.c ****   }
 268:Drivers/STM32H7xx_HAL_Driver/Src/stm32h7xx_hal_tim_ex.c ****   /* DeInit the low level hardware */
 269:Drivers/STM32H7xx_HAL_Driver/Src/stm32h7xx_hal_tim_ex.c ****   htim->HallSensor_MspDeInitCallback(htim);
 270:Drivers/STM32H7xx_HAL_Driver/Src/stm32h7xx_hal_tim_ex.c **** #else
 271:Drivers/STM32H7xx_HAL_Driver/Src/stm32h7xx_hal_tim_ex.c ****   /* DeInit the low level hardware: GPIO, CLOCK, NVIC */
 272:Drivers/STM32H7xx_HAL_Driver/Src/stm32h7xx_hal_tim_ex.c ****   HAL_TIMEx_HallSensor_MspDeInit(htim);
 322              		.loc 1 272 3 is_stmt 1
 323 0040 7868     		ldr	r0, [r7, #4]
 324 0042 FFF7FEFF 		bl	HAL_TIMEx_HallSensor_MspDeInit
 273:Drivers/STM32H7xx_HAL_Driver/Src/stm32h7xx_hal_tim_ex.c **** #endif /* USE_HAL_TIM_REGISTER_CALLBACKS */
 274:Drivers/STM32H7xx_HAL_Driver/Src/stm32h7xx_hal_tim_ex.c **** 
 275:Drivers/STM32H7xx_HAL_Driver/Src/stm32h7xx_hal_tim_ex.c ****   /* Change the DMA burst operation state */
 276:Drivers/STM32H7xx_HAL_Driver/Src/stm32h7xx_hal_tim_ex.c ****   htim->DMABurstState = HAL_DMA_BURST_STATE_RESET;
 325              		.loc 1 276 23
 326 0046 7B68     		ldr	r3, [r7, #4]
 327 0048 0022     		movs	r2, #0
 328 004a 83F84820 		strb	r2, [r3, #72]
 277:Drivers/STM32H7xx_HAL_Driver/Src/stm32h7xx_hal_tim_ex.c **** 
 278:Drivers/STM32H7xx_HAL_Driver/Src/stm32h7xx_hal_tim_ex.c ****   /* Change the TIM channels state */
 279:Drivers/STM32H7xx_HAL_Driver/Src/stm32h7xx_hal_tim_ex.c ****   TIM_CHANNEL_STATE_SET(htim, TIM_CHANNEL_1, HAL_TIM_CHANNEL_STATE_RESET);
 329              		.loc 1 279 3
 330 004e 7B68     		ldr	r3, [r7, #4]
 331 0050 0022     		movs	r2, #0
 332 0052 83F83E20 		strb	r2, [r3, #62]
 280:Drivers/STM32H7xx_HAL_Driver/Src/stm32h7xx_hal_tim_ex.c ****   TIM_CHANNEL_STATE_SET(htim, TIM_CHANNEL_2, HAL_TIM_CHANNEL_STATE_RESET);
 333              		.loc 1 280 3
 334 0056 7B68     		ldr	r3, [r7, #4]
 335 0058 0022     		movs	r2, #0
 336 005a 83F83F20 		strb	r2, [r3, #63]
 281:Drivers/STM32H7xx_HAL_Driver/Src/stm32h7xx_hal_tim_ex.c ****   TIM_CHANNEL_N_STATE_SET(htim, TIM_CHANNEL_1, HAL_TIM_CHANNEL_STATE_RESET);
 337              		.loc 1 281 3
 338 005e 7B68     		ldr	r3, [r7, #4]
 339 0060 0022     		movs	r2, #0
 340 0062 83F84420 		strb	r2, [r3, #68]
 282:Drivers/STM32H7xx_HAL_Driver/Src/stm32h7xx_hal_tim_ex.c ****   TIM_CHANNEL_N_STATE_SET(htim, TIM_CHANNEL_2, HAL_TIM_CHANNEL_STATE_RESET);
 341              		.loc 1 282 3
 342 0066 7B68     		ldr	r3, [r7, #4]
 343 0068 0022     		movs	r2, #0
 344 006a 83F84520 		strb	r2, [r3, #69]
 283:Drivers/STM32H7xx_HAL_Driver/Src/stm32h7xx_hal_tim_ex.c **** 
 284:Drivers/STM32H7xx_HAL_Driver/Src/stm32h7xx_hal_tim_ex.c ****   /* Change TIM state */
 285:Drivers/STM32H7xx_HAL_Driver/Src/stm32h7xx_hal_tim_ex.c ****   htim->State = HAL_TIM_STATE_RESET;
 345              		.loc 1 285 15
ARM GAS  C:\Users\Su\AppData\Local\Temp\ccm0VnUy.s 			page 12


 346 006e 7B68     		ldr	r3, [r7, #4]
 347 0070 0022     		movs	r2, #0
 348 0072 83F83D20 		strb	r2, [r3, #61]
 286:Drivers/STM32H7xx_HAL_Driver/Src/stm32h7xx_hal_tim_ex.c **** 
 287:Drivers/STM32H7xx_HAL_Driver/Src/stm32h7xx_hal_tim_ex.c ****   /* Release Lock */
 288:Drivers/STM32H7xx_HAL_Driver/Src/stm32h7xx_hal_tim_ex.c ****   __HAL_UNLOCK(htim);
 349              		.loc 1 288 3
 350 0076 7B68     		ldr	r3, [r7, #4]
 351 0078 0022     		movs	r2, #0
 352 007a 83F83C20 		strb	r2, [r3, #60]
 289:Drivers/STM32H7xx_HAL_Driver/Src/stm32h7xx_hal_tim_ex.c **** 
 290:Drivers/STM32H7xx_HAL_Driver/Src/stm32h7xx_hal_tim_ex.c ****   return HAL_OK;
 353              		.loc 1 290 10
 354 007e 0023     		movs	r3, #0
 291:Drivers/STM32H7xx_HAL_Driver/Src/stm32h7xx_hal_tim_ex.c **** }
 355              		.loc 1 291 1
 356 0080 1846     		mov	r0, r3
 357 0082 0837     		adds	r7, r7, #8
 358              	.LCFI8:
 359              		.cfi_def_cfa_offset 8
 360 0084 BD46     		mov	sp, r7
 361              	.LCFI9:
 362              		.cfi_def_cfa_register 13
 363              		@ sp needed
 364 0086 80BD     		pop	{r7, pc}
 365              		.cfi_endproc
 366              	.LFE145:
 368              		.section	.text.HAL_TIMEx_HallSensor_MspInit,"ax",%progbits
 369              		.align	1
 370              		.weak	HAL_TIMEx_HallSensor_MspInit
 371              		.syntax unified
 372              		.thumb
 373              		.thumb_func
 375              	HAL_TIMEx_HallSensor_MspInit:
 376              	.LFB146:
 292:Drivers/STM32H7xx_HAL_Driver/Src/stm32h7xx_hal_tim_ex.c **** 
 293:Drivers/STM32H7xx_HAL_Driver/Src/stm32h7xx_hal_tim_ex.c **** /**
 294:Drivers/STM32H7xx_HAL_Driver/Src/stm32h7xx_hal_tim_ex.c ****   * @brief  Initializes the TIM Hall Sensor MSP.
 295:Drivers/STM32H7xx_HAL_Driver/Src/stm32h7xx_hal_tim_ex.c ****   * @param  htim TIM Hall Sensor Interface handle
 296:Drivers/STM32H7xx_HAL_Driver/Src/stm32h7xx_hal_tim_ex.c ****   * @retval None
 297:Drivers/STM32H7xx_HAL_Driver/Src/stm32h7xx_hal_tim_ex.c ****   */
 298:Drivers/STM32H7xx_HAL_Driver/Src/stm32h7xx_hal_tim_ex.c **** __weak void HAL_TIMEx_HallSensor_MspInit(TIM_HandleTypeDef *htim)
 299:Drivers/STM32H7xx_HAL_Driver/Src/stm32h7xx_hal_tim_ex.c **** {
 377              		.loc 1 299 1
 378              		.cfi_startproc
 379              		@ args = 0, pretend = 0, frame = 8
 380              		@ frame_needed = 1, uses_anonymous_args = 0
 381              		@ link register save eliminated.
 382 0000 80B4     		push	{r7}
 383              	.LCFI10:
 384              		.cfi_def_cfa_offset 4
 385              		.cfi_offset 7, -4
 386 0002 83B0     		sub	sp, sp, #12
 387              	.LCFI11:
 388              		.cfi_def_cfa_offset 16
 389 0004 00AF     		add	r7, sp, #0
 390              	.LCFI12:
ARM GAS  C:\Users\Su\AppData\Local\Temp\ccm0VnUy.s 			page 13


 391              		.cfi_def_cfa_register 7
 392 0006 7860     		str	r0, [r7, #4]
 300:Drivers/STM32H7xx_HAL_Driver/Src/stm32h7xx_hal_tim_ex.c ****   /* Prevent unused argument(s) compilation warning */
 301:Drivers/STM32H7xx_HAL_Driver/Src/stm32h7xx_hal_tim_ex.c ****   UNUSED(htim);
 302:Drivers/STM32H7xx_HAL_Driver/Src/stm32h7xx_hal_tim_ex.c **** 
 303:Drivers/STM32H7xx_HAL_Driver/Src/stm32h7xx_hal_tim_ex.c ****   /* NOTE : This function should not be modified, when the callback is needed,
 304:Drivers/STM32H7xx_HAL_Driver/Src/stm32h7xx_hal_tim_ex.c ****             the HAL_TIMEx_HallSensor_MspInit could be implemented in the user file
 305:Drivers/STM32H7xx_HAL_Driver/Src/stm32h7xx_hal_tim_ex.c ****    */
 306:Drivers/STM32H7xx_HAL_Driver/Src/stm32h7xx_hal_tim_ex.c **** }
 393              		.loc 1 306 1
 394 0008 00BF     		nop
 395 000a 0C37     		adds	r7, r7, #12
 396              	.LCFI13:
 397              		.cfi_def_cfa_offset 4
 398 000c BD46     		mov	sp, r7
 399              	.LCFI14:
 400              		.cfi_def_cfa_register 13
 401              		@ sp needed
 402 000e 5DF8047B 		ldr	r7, [sp], #4
 403              	.LCFI15:
 404              		.cfi_restore 7
 405              		.cfi_def_cfa_offset 0
 406 0012 7047     		bx	lr
 407              		.cfi_endproc
 408              	.LFE146:
 410              		.section	.text.HAL_TIMEx_HallSensor_MspDeInit,"ax",%progbits
 411              		.align	1
 412              		.weak	HAL_TIMEx_HallSensor_MspDeInit
 413              		.syntax unified
 414              		.thumb
 415              		.thumb_func
 417              	HAL_TIMEx_HallSensor_MspDeInit:
 418              	.LFB147:
 307:Drivers/STM32H7xx_HAL_Driver/Src/stm32h7xx_hal_tim_ex.c **** 
 308:Drivers/STM32H7xx_HAL_Driver/Src/stm32h7xx_hal_tim_ex.c **** /**
 309:Drivers/STM32H7xx_HAL_Driver/Src/stm32h7xx_hal_tim_ex.c ****   * @brief  DeInitializes TIM Hall Sensor MSP.
 310:Drivers/STM32H7xx_HAL_Driver/Src/stm32h7xx_hal_tim_ex.c ****   * @param  htim TIM Hall Sensor Interface handle
 311:Drivers/STM32H7xx_HAL_Driver/Src/stm32h7xx_hal_tim_ex.c ****   * @retval None
 312:Drivers/STM32H7xx_HAL_Driver/Src/stm32h7xx_hal_tim_ex.c ****   */
 313:Drivers/STM32H7xx_HAL_Driver/Src/stm32h7xx_hal_tim_ex.c **** __weak void HAL_TIMEx_HallSensor_MspDeInit(TIM_HandleTypeDef *htim)
 314:Drivers/STM32H7xx_HAL_Driver/Src/stm32h7xx_hal_tim_ex.c **** {
 419              		.loc 1 314 1
 420              		.cfi_startproc
 421              		@ args = 0, pretend = 0, frame = 8
 422              		@ frame_needed = 1, uses_anonymous_args = 0
 423              		@ link register save eliminated.
 424 0000 80B4     		push	{r7}
 425              	.LCFI16:
 426              		.cfi_def_cfa_offset 4
 427              		.cfi_offset 7, -4
 428 0002 83B0     		sub	sp, sp, #12
 429              	.LCFI17:
 430              		.cfi_def_cfa_offset 16
 431 0004 00AF     		add	r7, sp, #0
 432              	.LCFI18:
 433              		.cfi_def_cfa_register 7
 434 0006 7860     		str	r0, [r7, #4]
ARM GAS  C:\Users\Su\AppData\Local\Temp\ccm0VnUy.s 			page 14


 315:Drivers/STM32H7xx_HAL_Driver/Src/stm32h7xx_hal_tim_ex.c ****   /* Prevent unused argument(s) compilation warning */
 316:Drivers/STM32H7xx_HAL_Driver/Src/stm32h7xx_hal_tim_ex.c ****   UNUSED(htim);
 317:Drivers/STM32H7xx_HAL_Driver/Src/stm32h7xx_hal_tim_ex.c **** 
 318:Drivers/STM32H7xx_HAL_Driver/Src/stm32h7xx_hal_tim_ex.c ****   /* NOTE : This function should not be modified, when the callback is needed,
 319:Drivers/STM32H7xx_HAL_Driver/Src/stm32h7xx_hal_tim_ex.c ****             the HAL_TIMEx_HallSensor_MspDeInit could be implemented in the user file
 320:Drivers/STM32H7xx_HAL_Driver/Src/stm32h7xx_hal_tim_ex.c ****    */
 321:Drivers/STM32H7xx_HAL_Driver/Src/stm32h7xx_hal_tim_ex.c **** }
 435              		.loc 1 321 1
 436 0008 00BF     		nop
 437 000a 0C37     		adds	r7, r7, #12
 438              	.LCFI19:
 439              		.cfi_def_cfa_offset 4
 440 000c BD46     		mov	sp, r7
 441              	.LCFI20:
 442              		.cfi_def_cfa_register 13
 443              		@ sp needed
 444 000e 5DF8047B 		ldr	r7, [sp], #4
 445              	.LCFI21:
 446              		.cfi_restore 7
 447              		.cfi_def_cfa_offset 0
 448 0012 7047     		bx	lr
 449              		.cfi_endproc
 450              	.LFE147:
 452              		.section	.text.HAL_TIMEx_HallSensor_Start,"ax",%progbits
 453              		.align	1
 454              		.global	HAL_TIMEx_HallSensor_Start
 455              		.syntax unified
 456              		.thumb
 457              		.thumb_func
 459              	HAL_TIMEx_HallSensor_Start:
 460              	.LFB148:
 322:Drivers/STM32H7xx_HAL_Driver/Src/stm32h7xx_hal_tim_ex.c **** 
 323:Drivers/STM32H7xx_HAL_Driver/Src/stm32h7xx_hal_tim_ex.c **** /**
 324:Drivers/STM32H7xx_HAL_Driver/Src/stm32h7xx_hal_tim_ex.c ****   * @brief  Starts the TIM Hall Sensor Interface.
 325:Drivers/STM32H7xx_HAL_Driver/Src/stm32h7xx_hal_tim_ex.c ****   * @param  htim TIM Hall Sensor Interface handle
 326:Drivers/STM32H7xx_HAL_Driver/Src/stm32h7xx_hal_tim_ex.c ****   * @retval HAL status
 327:Drivers/STM32H7xx_HAL_Driver/Src/stm32h7xx_hal_tim_ex.c ****   */
 328:Drivers/STM32H7xx_HAL_Driver/Src/stm32h7xx_hal_tim_ex.c **** HAL_StatusTypeDef HAL_TIMEx_HallSensor_Start(TIM_HandleTypeDef *htim)
 329:Drivers/STM32H7xx_HAL_Driver/Src/stm32h7xx_hal_tim_ex.c **** {
 461              		.loc 1 329 1
 462              		.cfi_startproc
 463              		@ args = 0, pretend = 0, frame = 16
 464              		@ frame_needed = 1, uses_anonymous_args = 0
 465 0000 80B5     		push	{r7, lr}
 466              	.LCFI22:
 467              		.cfi_def_cfa_offset 8
 468              		.cfi_offset 7, -8
 469              		.cfi_offset 14, -4
 470 0002 84B0     		sub	sp, sp, #16
 471              	.LCFI23:
 472              		.cfi_def_cfa_offset 24
 473 0004 00AF     		add	r7, sp, #0
 474              	.LCFI24:
 475              		.cfi_def_cfa_register 7
 476 0006 7860     		str	r0, [r7, #4]
 330:Drivers/STM32H7xx_HAL_Driver/Src/stm32h7xx_hal_tim_ex.c ****   uint32_t tmpsmcr;
 331:Drivers/STM32H7xx_HAL_Driver/Src/stm32h7xx_hal_tim_ex.c ****   HAL_TIM_ChannelStateTypeDef channel_1_state = TIM_CHANNEL_STATE_GET(htim, TIM_CHANNEL_1);
ARM GAS  C:\Users\Su\AppData\Local\Temp\ccm0VnUy.s 			page 15


 477              		.loc 1 331 31
 478 0008 7B68     		ldr	r3, [r7, #4]
 479 000a 93F83E30 		ldrb	r3, [r3, #62]
 480 000e FB73     		strb	r3, [r7, #15]
 332:Drivers/STM32H7xx_HAL_Driver/Src/stm32h7xx_hal_tim_ex.c ****   HAL_TIM_ChannelStateTypeDef channel_2_state = TIM_CHANNEL_STATE_GET(htim, TIM_CHANNEL_2);
 481              		.loc 1 332 31
 482 0010 7B68     		ldr	r3, [r7, #4]
 483 0012 93F83F30 		ldrb	r3, [r3, #63]
 484 0016 BB73     		strb	r3, [r7, #14]
 333:Drivers/STM32H7xx_HAL_Driver/Src/stm32h7xx_hal_tim_ex.c ****   HAL_TIM_ChannelStateTypeDef complementary_channel_1_state = TIM_CHANNEL_N_STATE_GET(htim, TIM_CHA
 485              		.loc 1 333 31
 486 0018 7B68     		ldr	r3, [r7, #4]
 487 001a 93F84430 		ldrb	r3, [r3, #68]
 488 001e 7B73     		strb	r3, [r7, #13]
 334:Drivers/STM32H7xx_HAL_Driver/Src/stm32h7xx_hal_tim_ex.c ****   HAL_TIM_ChannelStateTypeDef complementary_channel_2_state = TIM_CHANNEL_N_STATE_GET(htim, TIM_CHA
 489              		.loc 1 334 31
 490 0020 7B68     		ldr	r3, [r7, #4]
 491 0022 93F84530 		ldrb	r3, [r3, #69]
 492 0026 3B73     		strb	r3, [r7, #12]
 335:Drivers/STM32H7xx_HAL_Driver/Src/stm32h7xx_hal_tim_ex.c **** 
 336:Drivers/STM32H7xx_HAL_Driver/Src/stm32h7xx_hal_tim_ex.c ****   /* Check the parameters */
 337:Drivers/STM32H7xx_HAL_Driver/Src/stm32h7xx_hal_tim_ex.c ****   assert_param(IS_TIM_HALL_SENSOR_INTERFACE_INSTANCE(htim->Instance));
 338:Drivers/STM32H7xx_HAL_Driver/Src/stm32h7xx_hal_tim_ex.c **** 
 339:Drivers/STM32H7xx_HAL_Driver/Src/stm32h7xx_hal_tim_ex.c ****   /* Check the TIM channels state */
 340:Drivers/STM32H7xx_HAL_Driver/Src/stm32h7xx_hal_tim_ex.c ****   if ((channel_1_state != HAL_TIM_CHANNEL_STATE_READY)
 493              		.loc 1 340 6
 494 0028 FB7B     		ldrb	r3, [r7, #15]	@ zero_extendqisi2
 495 002a 012B     		cmp	r3, #1
 496 002c 08D1     		bne	.L14
 341:Drivers/STM32H7xx_HAL_Driver/Src/stm32h7xx_hal_tim_ex.c ****       || (channel_2_state != HAL_TIM_CHANNEL_STATE_READY)
 497              		.loc 1 341 7
 498 002e BB7B     		ldrb	r3, [r7, #14]	@ zero_extendqisi2
 499 0030 012B     		cmp	r3, #1
 500 0032 05D1     		bne	.L14
 342:Drivers/STM32H7xx_HAL_Driver/Src/stm32h7xx_hal_tim_ex.c ****       || (complementary_channel_1_state != HAL_TIM_CHANNEL_STATE_READY)
 501              		.loc 1 342 7
 502 0034 7B7B     		ldrb	r3, [r7, #13]	@ zero_extendqisi2
 503 0036 012B     		cmp	r3, #1
 504 0038 02D1     		bne	.L14
 343:Drivers/STM32H7xx_HAL_Driver/Src/stm32h7xx_hal_tim_ex.c ****       || (complementary_channel_2_state != HAL_TIM_CHANNEL_STATE_READY))
 505              		.loc 1 343 7
 506 003a 3B7B     		ldrb	r3, [r7, #12]	@ zero_extendqisi2
 507 003c 012B     		cmp	r3, #1
 508 003e 01D0     		beq	.L15
 509              	.L14:
 344:Drivers/STM32H7xx_HAL_Driver/Src/stm32h7xx_hal_tim_ex.c ****   {
 345:Drivers/STM32H7xx_HAL_Driver/Src/stm32h7xx_hal_tim_ex.c ****     return HAL_ERROR;
 510              		.loc 1 345 12
 511 0040 0123     		movs	r3, #1
 512 0042 69E0     		b	.L16
 513              	.L15:
 346:Drivers/STM32H7xx_HAL_Driver/Src/stm32h7xx_hal_tim_ex.c ****   }
 347:Drivers/STM32H7xx_HAL_Driver/Src/stm32h7xx_hal_tim_ex.c **** 
 348:Drivers/STM32H7xx_HAL_Driver/Src/stm32h7xx_hal_tim_ex.c ****   /* Set the TIM channels state */
 349:Drivers/STM32H7xx_HAL_Driver/Src/stm32h7xx_hal_tim_ex.c ****   TIM_CHANNEL_STATE_SET(htim, TIM_CHANNEL_1, HAL_TIM_CHANNEL_STATE_BUSY);
 514              		.loc 1 349 3
 515 0044 7B68     		ldr	r3, [r7, #4]
ARM GAS  C:\Users\Su\AppData\Local\Temp\ccm0VnUy.s 			page 16


 516 0046 0222     		movs	r2, #2
 517 0048 83F83E20 		strb	r2, [r3, #62]
 350:Drivers/STM32H7xx_HAL_Driver/Src/stm32h7xx_hal_tim_ex.c ****   TIM_CHANNEL_STATE_SET(htim, TIM_CHANNEL_2, HAL_TIM_CHANNEL_STATE_BUSY);
 518              		.loc 1 350 3
 519 004c 7B68     		ldr	r3, [r7, #4]
 520 004e 0222     		movs	r2, #2
 521 0050 83F83F20 		strb	r2, [r3, #63]
 351:Drivers/STM32H7xx_HAL_Driver/Src/stm32h7xx_hal_tim_ex.c ****   TIM_CHANNEL_N_STATE_SET(htim, TIM_CHANNEL_1, HAL_TIM_CHANNEL_STATE_BUSY);
 522              		.loc 1 351 3
 523 0054 7B68     		ldr	r3, [r7, #4]
 524 0056 0222     		movs	r2, #2
 525 0058 83F84420 		strb	r2, [r3, #68]
 352:Drivers/STM32H7xx_HAL_Driver/Src/stm32h7xx_hal_tim_ex.c ****   TIM_CHANNEL_N_STATE_SET(htim, TIM_CHANNEL_2, HAL_TIM_CHANNEL_STATE_BUSY);
 526              		.loc 1 352 3
 527 005c 7B68     		ldr	r3, [r7, #4]
 528 005e 0222     		movs	r2, #2
 529 0060 83F84520 		strb	r2, [r3, #69]
 353:Drivers/STM32H7xx_HAL_Driver/Src/stm32h7xx_hal_tim_ex.c **** 
 354:Drivers/STM32H7xx_HAL_Driver/Src/stm32h7xx_hal_tim_ex.c ****   /* Enable the Input Capture channel 1
 355:Drivers/STM32H7xx_HAL_Driver/Src/stm32h7xx_hal_tim_ex.c ****   (in the Hall Sensor Interface the three possible channels that can be used are TIM_CHANNEL_1,
 356:Drivers/STM32H7xx_HAL_Driver/Src/stm32h7xx_hal_tim_ex.c ****   TIM_CHANNEL_2 and TIM_CHANNEL_3) */
 357:Drivers/STM32H7xx_HAL_Driver/Src/stm32h7xx_hal_tim_ex.c ****   TIM_CCxChannelCmd(htim->Instance, TIM_CHANNEL_1, TIM_CCx_ENABLE);
 530              		.loc 1 357 3
 531 0064 7B68     		ldr	r3, [r7, #4]
 532 0066 1B68     		ldr	r3, [r3]
 533 0068 0122     		movs	r2, #1
 534 006a 0021     		movs	r1, #0
 535 006c 1846     		mov	r0, r3
 536 006e FFF7FEFF 		bl	TIM_CCxChannelCmd
 358:Drivers/STM32H7xx_HAL_Driver/Src/stm32h7xx_hal_tim_ex.c **** 
 359:Drivers/STM32H7xx_HAL_Driver/Src/stm32h7xx_hal_tim_ex.c ****   /* Enable the Peripheral, except in trigger mode where enable is automatically done with trigger 
 360:Drivers/STM32H7xx_HAL_Driver/Src/stm32h7xx_hal_tim_ex.c ****   if (IS_TIM_SLAVE_INSTANCE(htim->Instance))
 537              		.loc 1 360 7
 538 0072 7B68     		ldr	r3, [r7, #4]
 539 0074 1B68     		ldr	r3, [r3]
 540              		.loc 1 360 6
 541 0076 2A4A     		ldr	r2, .L22
 542 0078 9342     		cmp	r3, r2
 543 007a 2CD0     		beq	.L17
 544              		.loc 1 360 7 discriminator 1
 545 007c 7B68     		ldr	r3, [r7, #4]
 546 007e 1B68     		ldr	r3, [r3]
 547 0080 B3F1804F 		cmp	r3, #1073741824
 548 0084 27D0     		beq	.L17
 549              		.loc 1 360 7 is_stmt 0 discriminator 2
 550 0086 7B68     		ldr	r3, [r7, #4]
 551 0088 1B68     		ldr	r3, [r3]
 552 008a 264A     		ldr	r2, .L22+4
 553 008c 9342     		cmp	r3, r2
 554 008e 22D0     		beq	.L17
 555              		.loc 1 360 7 discriminator 3
 556 0090 7B68     		ldr	r3, [r7, #4]
 557 0092 1B68     		ldr	r3, [r3]
 558 0094 244A     		ldr	r2, .L22+8
 559 0096 9342     		cmp	r3, r2
 560 0098 1DD0     		beq	.L17
 561              		.loc 1 360 7 discriminator 4
ARM GAS  C:\Users\Su\AppData\Local\Temp\ccm0VnUy.s 			page 17


 562 009a 7B68     		ldr	r3, [r7, #4]
 563 009c 1B68     		ldr	r3, [r3]
 564 009e 234A     		ldr	r2, .L22+12
 565 00a0 9342     		cmp	r3, r2
 566 00a2 18D0     		beq	.L17
 567              		.loc 1 360 7 discriminator 5
 568 00a4 7B68     		ldr	r3, [r7, #4]
 569 00a6 1B68     		ldr	r3, [r3]
 570 00a8 214A     		ldr	r2, .L22+16
 571 00aa 9342     		cmp	r3, r2
 572 00ac 13D0     		beq	.L17
 573              		.loc 1 360 7 discriminator 6
 574 00ae 7B68     		ldr	r3, [r7, #4]
 575 00b0 1B68     		ldr	r3, [r3]
 576 00b2 204A     		ldr	r2, .L22+20
 577 00b4 9342     		cmp	r3, r2
 578 00b6 0ED0     		beq	.L17
 579              		.loc 1 360 7 discriminator 7
 580 00b8 7B68     		ldr	r3, [r7, #4]
 581 00ba 1B68     		ldr	r3, [r3]
 582 00bc 1E4A     		ldr	r2, .L22+24
 583 00be 9342     		cmp	r3, r2
 584 00c0 09D0     		beq	.L17
 585              		.loc 1 360 7 discriminator 8
 586 00c2 7B68     		ldr	r3, [r7, #4]
 587 00c4 1B68     		ldr	r3, [r3]
 588 00c6 1D4A     		ldr	r2, .L22+28
 589 00c8 9342     		cmp	r3, r2
 590 00ca 04D0     		beq	.L17
 591              		.loc 1 360 7 discriminator 9
 592 00cc 7B68     		ldr	r3, [r7, #4]
 593 00ce 1B68     		ldr	r3, [r3]
 594 00d0 1B4A     		ldr	r2, .L22+32
 595 00d2 9342     		cmp	r3, r2
 596 00d4 15D1     		bne	.L18
 597              	.L17:
 361:Drivers/STM32H7xx_HAL_Driver/Src/stm32h7xx_hal_tim_ex.c ****   {
 362:Drivers/STM32H7xx_HAL_Driver/Src/stm32h7xx_hal_tim_ex.c ****     tmpsmcr = htim->Instance->SMCR & TIM_SMCR_SMS;
 598              		.loc 1 362 19 is_stmt 1
 599 00d6 7B68     		ldr	r3, [r7, #4]
 600 00d8 1B68     		ldr	r3, [r3]
 601              		.loc 1 362 29
 602 00da 9A68     		ldr	r2, [r3, #8]
 603              		.loc 1 362 13
 604 00dc 194B     		ldr	r3, .L22+36
 605 00de 1340     		ands	r3, r3, r2
 606 00e0 BB60     		str	r3, [r7, #8]
 363:Drivers/STM32H7xx_HAL_Driver/Src/stm32h7xx_hal_tim_ex.c ****     if (!IS_TIM_SLAVEMODE_TRIGGER_ENABLED(tmpsmcr))
 607              		.loc 1 363 8
 608 00e2 BB68     		ldr	r3, [r7, #8]
 609 00e4 062B     		cmp	r3, #6
 610 00e6 15D0     		beq	.L21
 611              		.loc 1 363 9 discriminator 1
 612 00e8 BB68     		ldr	r3, [r7, #8]
 613 00ea B3F5803F 		cmp	r3, #65536
 614 00ee 11D0     		beq	.L21
 364:Drivers/STM32H7xx_HAL_Driver/Src/stm32h7xx_hal_tim_ex.c ****     {
ARM GAS  C:\Users\Su\AppData\Local\Temp\ccm0VnUy.s 			page 18


 365:Drivers/STM32H7xx_HAL_Driver/Src/stm32h7xx_hal_tim_ex.c ****       __HAL_TIM_ENABLE(htim);
 615              		.loc 1 365 7
 616 00f0 7B68     		ldr	r3, [r7, #4]
 617 00f2 1B68     		ldr	r3, [r3]
 618 00f4 1A68     		ldr	r2, [r3]
 619 00f6 7B68     		ldr	r3, [r7, #4]
 620 00f8 1B68     		ldr	r3, [r3]
 621 00fa 42F00102 		orr	r2, r2, #1
 622 00fe 1A60     		str	r2, [r3]
 363:Drivers/STM32H7xx_HAL_Driver/Src/stm32h7xx_hal_tim_ex.c ****     if (!IS_TIM_SLAVEMODE_TRIGGER_ENABLED(tmpsmcr))
 623              		.loc 1 363 8
 624 0100 08E0     		b	.L21
 625              	.L18:
 366:Drivers/STM32H7xx_HAL_Driver/Src/stm32h7xx_hal_tim_ex.c ****     }
 367:Drivers/STM32H7xx_HAL_Driver/Src/stm32h7xx_hal_tim_ex.c ****   }
 368:Drivers/STM32H7xx_HAL_Driver/Src/stm32h7xx_hal_tim_ex.c ****   else
 369:Drivers/STM32H7xx_HAL_Driver/Src/stm32h7xx_hal_tim_ex.c ****   {
 370:Drivers/STM32H7xx_HAL_Driver/Src/stm32h7xx_hal_tim_ex.c ****     __HAL_TIM_ENABLE(htim);
 626              		.loc 1 370 5
 627 0102 7B68     		ldr	r3, [r7, #4]
 628 0104 1B68     		ldr	r3, [r3]
 629 0106 1A68     		ldr	r2, [r3]
 630 0108 7B68     		ldr	r3, [r7, #4]
 631 010a 1B68     		ldr	r3, [r3]
 632 010c 42F00102 		orr	r2, r2, #1
 633 0110 1A60     		str	r2, [r3]
 634 0112 00E0     		b	.L20
 635              	.L21:
 363:Drivers/STM32H7xx_HAL_Driver/Src/stm32h7xx_hal_tim_ex.c ****     {
 636              		.loc 1 363 8
 637 0114 00BF     		nop
 638              	.L20:
 371:Drivers/STM32H7xx_HAL_Driver/Src/stm32h7xx_hal_tim_ex.c ****   }
 372:Drivers/STM32H7xx_HAL_Driver/Src/stm32h7xx_hal_tim_ex.c **** 
 373:Drivers/STM32H7xx_HAL_Driver/Src/stm32h7xx_hal_tim_ex.c ****   /* Return function status */
 374:Drivers/STM32H7xx_HAL_Driver/Src/stm32h7xx_hal_tim_ex.c ****   return HAL_OK;
 639              		.loc 1 374 10
 640 0116 0023     		movs	r3, #0
 641              	.L16:
 375:Drivers/STM32H7xx_HAL_Driver/Src/stm32h7xx_hal_tim_ex.c **** }
 642              		.loc 1 375 1
 643 0118 1846     		mov	r0, r3
 644 011a 1037     		adds	r7, r7, #16
 645              	.LCFI25:
 646              		.cfi_def_cfa_offset 8
 647 011c BD46     		mov	sp, r7
 648              	.LCFI26:
 649              		.cfi_def_cfa_register 13
 650              		@ sp needed
 651 011e 80BD     		pop	{r7, pc}
 652              	.L23:
 653              		.align	2
 654              	.L22:
 655 0120 00000140 		.word	1073807360
 656 0124 00040040 		.word	1073742848
 657 0128 00080040 		.word	1073743872
 658 012c 000C0040 		.word	1073744896
ARM GAS  C:\Users\Su\AppData\Local\Temp\ccm0VnUy.s 			page 19


 659 0130 00040140 		.word	1073808384
 660 0134 00180040 		.word	1073747968
 661 0138 00400140 		.word	1073823744
 662 013c 00E00040 		.word	1073799168
 663 0140 00E40040 		.word	1073800192
 664 0144 07000100 		.word	65543
 665              		.cfi_endproc
 666              	.LFE148:
 668              		.section	.text.HAL_TIMEx_HallSensor_Stop,"ax",%progbits
 669              		.align	1
 670              		.global	HAL_TIMEx_HallSensor_Stop
 671              		.syntax unified
 672              		.thumb
 673              		.thumb_func
 675              	HAL_TIMEx_HallSensor_Stop:
 676              	.LFB149:
 376:Drivers/STM32H7xx_HAL_Driver/Src/stm32h7xx_hal_tim_ex.c **** 
 377:Drivers/STM32H7xx_HAL_Driver/Src/stm32h7xx_hal_tim_ex.c **** /**
 378:Drivers/STM32H7xx_HAL_Driver/Src/stm32h7xx_hal_tim_ex.c ****   * @brief  Stops the TIM Hall sensor Interface.
 379:Drivers/STM32H7xx_HAL_Driver/Src/stm32h7xx_hal_tim_ex.c ****   * @param  htim TIM Hall Sensor Interface handle
 380:Drivers/STM32H7xx_HAL_Driver/Src/stm32h7xx_hal_tim_ex.c ****   * @retval HAL status
 381:Drivers/STM32H7xx_HAL_Driver/Src/stm32h7xx_hal_tim_ex.c ****   */
 382:Drivers/STM32H7xx_HAL_Driver/Src/stm32h7xx_hal_tim_ex.c **** HAL_StatusTypeDef HAL_TIMEx_HallSensor_Stop(TIM_HandleTypeDef *htim)
 383:Drivers/STM32H7xx_HAL_Driver/Src/stm32h7xx_hal_tim_ex.c **** {
 677              		.loc 1 383 1
 678              		.cfi_startproc
 679              		@ args = 0, pretend = 0, frame = 8
 680              		@ frame_needed = 1, uses_anonymous_args = 0
 681 0000 80B5     		push	{r7, lr}
 682              	.LCFI27:
 683              		.cfi_def_cfa_offset 8
 684              		.cfi_offset 7, -8
 685              		.cfi_offset 14, -4
 686 0002 82B0     		sub	sp, sp, #8
 687              	.LCFI28:
 688              		.cfi_def_cfa_offset 16
 689 0004 00AF     		add	r7, sp, #0
 690              	.LCFI29:
 691              		.cfi_def_cfa_register 7
 692 0006 7860     		str	r0, [r7, #4]
 384:Drivers/STM32H7xx_HAL_Driver/Src/stm32h7xx_hal_tim_ex.c ****   /* Check the parameters */
 385:Drivers/STM32H7xx_HAL_Driver/Src/stm32h7xx_hal_tim_ex.c ****   assert_param(IS_TIM_HALL_SENSOR_INTERFACE_INSTANCE(htim->Instance));
 386:Drivers/STM32H7xx_HAL_Driver/Src/stm32h7xx_hal_tim_ex.c **** 
 387:Drivers/STM32H7xx_HAL_Driver/Src/stm32h7xx_hal_tim_ex.c ****   /* Disable the Input Capture channels 1, 2 and 3
 388:Drivers/STM32H7xx_HAL_Driver/Src/stm32h7xx_hal_tim_ex.c ****   (in the Hall Sensor Interface the three possible channels that can be used are TIM_CHANNEL_1,
 389:Drivers/STM32H7xx_HAL_Driver/Src/stm32h7xx_hal_tim_ex.c ****   TIM_CHANNEL_2 and TIM_CHANNEL_3) */
 390:Drivers/STM32H7xx_HAL_Driver/Src/stm32h7xx_hal_tim_ex.c ****   TIM_CCxChannelCmd(htim->Instance, TIM_CHANNEL_1, TIM_CCx_DISABLE);
 693              		.loc 1 390 3
 694 0008 7B68     		ldr	r3, [r7, #4]
 695 000a 1B68     		ldr	r3, [r3]
 696 000c 0022     		movs	r2, #0
 697 000e 0021     		movs	r1, #0
 698 0010 1846     		mov	r0, r3
 699 0012 FFF7FEFF 		bl	TIM_CCxChannelCmd
 391:Drivers/STM32H7xx_HAL_Driver/Src/stm32h7xx_hal_tim_ex.c **** 
 392:Drivers/STM32H7xx_HAL_Driver/Src/stm32h7xx_hal_tim_ex.c ****   /* Disable the Peripheral */
 393:Drivers/STM32H7xx_HAL_Driver/Src/stm32h7xx_hal_tim_ex.c ****   __HAL_TIM_DISABLE(htim);
ARM GAS  C:\Users\Su\AppData\Local\Temp\ccm0VnUy.s 			page 20


 700              		.loc 1 393 3
 701 0016 7B68     		ldr	r3, [r7, #4]
 702 0018 1B68     		ldr	r3, [r3]
 703 001a 1A6A     		ldr	r2, [r3, #32]
 704 001c 41F21113 		movw	r3, #4369
 705 0020 1340     		ands	r3, r3, r2
 706 0022 002B     		cmp	r3, #0
 707 0024 0FD1     		bne	.L25
 708              		.loc 1 393 3 is_stmt 0 discriminator 1
 709 0026 7B68     		ldr	r3, [r7, #4]
 710 0028 1B68     		ldr	r3, [r3]
 711 002a 1A6A     		ldr	r2, [r3, #32]
 712 002c 40F24443 		movw	r3, #1092
 713 0030 1340     		ands	r3, r3, r2
 714 0032 002B     		cmp	r3, #0
 715 0034 07D1     		bne	.L25
 716              		.loc 1 393 3 discriminator 2
 717 0036 7B68     		ldr	r3, [r7, #4]
 718 0038 1B68     		ldr	r3, [r3]
 719 003a 1A68     		ldr	r2, [r3]
 720 003c 7B68     		ldr	r3, [r7, #4]
 721 003e 1B68     		ldr	r3, [r3]
 722 0040 22F00102 		bic	r2, r2, #1
 723 0044 1A60     		str	r2, [r3]
 724              	.L25:
 394:Drivers/STM32H7xx_HAL_Driver/Src/stm32h7xx_hal_tim_ex.c **** 
 395:Drivers/STM32H7xx_HAL_Driver/Src/stm32h7xx_hal_tim_ex.c ****   /* Set the TIM channels state */
 396:Drivers/STM32H7xx_HAL_Driver/Src/stm32h7xx_hal_tim_ex.c ****   TIM_CHANNEL_STATE_SET(htim, TIM_CHANNEL_1, HAL_TIM_CHANNEL_STATE_READY);
 725              		.loc 1 396 3 is_stmt 1
 726 0046 7B68     		ldr	r3, [r7, #4]
 727 0048 0122     		movs	r2, #1
 728 004a 83F83E20 		strb	r2, [r3, #62]
 397:Drivers/STM32H7xx_HAL_Driver/Src/stm32h7xx_hal_tim_ex.c ****   TIM_CHANNEL_STATE_SET(htim, TIM_CHANNEL_2, HAL_TIM_CHANNEL_STATE_READY);
 729              		.loc 1 397 3
 730 004e 7B68     		ldr	r3, [r7, #4]
 731 0050 0122     		movs	r2, #1
 732 0052 83F83F20 		strb	r2, [r3, #63]
 398:Drivers/STM32H7xx_HAL_Driver/Src/stm32h7xx_hal_tim_ex.c ****   TIM_CHANNEL_N_STATE_SET(htim, TIM_CHANNEL_1, HAL_TIM_CHANNEL_STATE_READY);
 733              		.loc 1 398 3
 734 0056 7B68     		ldr	r3, [r7, #4]
 735 0058 0122     		movs	r2, #1
 736 005a 83F84420 		strb	r2, [r3, #68]
 399:Drivers/STM32H7xx_HAL_Driver/Src/stm32h7xx_hal_tim_ex.c ****   TIM_CHANNEL_N_STATE_SET(htim, TIM_CHANNEL_2, HAL_TIM_CHANNEL_STATE_READY);
 737              		.loc 1 399 3
 738 005e 7B68     		ldr	r3, [r7, #4]
 739 0060 0122     		movs	r2, #1
 740 0062 83F84520 		strb	r2, [r3, #69]
 400:Drivers/STM32H7xx_HAL_Driver/Src/stm32h7xx_hal_tim_ex.c **** 
 401:Drivers/STM32H7xx_HAL_Driver/Src/stm32h7xx_hal_tim_ex.c ****   /* Return function status */
 402:Drivers/STM32H7xx_HAL_Driver/Src/stm32h7xx_hal_tim_ex.c ****   return HAL_OK;
 741              		.loc 1 402 10
 742 0066 0023     		movs	r3, #0
 403:Drivers/STM32H7xx_HAL_Driver/Src/stm32h7xx_hal_tim_ex.c **** }
 743              		.loc 1 403 1
 744 0068 1846     		mov	r0, r3
 745 006a 0837     		adds	r7, r7, #8
 746              	.LCFI30:
ARM GAS  C:\Users\Su\AppData\Local\Temp\ccm0VnUy.s 			page 21


 747              		.cfi_def_cfa_offset 8
 748 006c BD46     		mov	sp, r7
 749              	.LCFI31:
 750              		.cfi_def_cfa_register 13
 751              		@ sp needed
 752 006e 80BD     		pop	{r7, pc}
 753              		.cfi_endproc
 754              	.LFE149:
 756              		.section	.text.HAL_TIMEx_HallSensor_Start_IT,"ax",%progbits
 757              		.align	1
 758              		.global	HAL_TIMEx_HallSensor_Start_IT
 759              		.syntax unified
 760              		.thumb
 761              		.thumb_func
 763              	HAL_TIMEx_HallSensor_Start_IT:
 764              	.LFB150:
 404:Drivers/STM32H7xx_HAL_Driver/Src/stm32h7xx_hal_tim_ex.c **** 
 405:Drivers/STM32H7xx_HAL_Driver/Src/stm32h7xx_hal_tim_ex.c **** /**
 406:Drivers/STM32H7xx_HAL_Driver/Src/stm32h7xx_hal_tim_ex.c ****   * @brief  Starts the TIM Hall Sensor Interface in interrupt mode.
 407:Drivers/STM32H7xx_HAL_Driver/Src/stm32h7xx_hal_tim_ex.c ****   * @param  htim TIM Hall Sensor Interface handle
 408:Drivers/STM32H7xx_HAL_Driver/Src/stm32h7xx_hal_tim_ex.c ****   * @retval HAL status
 409:Drivers/STM32H7xx_HAL_Driver/Src/stm32h7xx_hal_tim_ex.c ****   */
 410:Drivers/STM32H7xx_HAL_Driver/Src/stm32h7xx_hal_tim_ex.c **** HAL_StatusTypeDef HAL_TIMEx_HallSensor_Start_IT(TIM_HandleTypeDef *htim)
 411:Drivers/STM32H7xx_HAL_Driver/Src/stm32h7xx_hal_tim_ex.c **** {
 765              		.loc 1 411 1
 766              		.cfi_startproc
 767              		@ args = 0, pretend = 0, frame = 16
 768              		@ frame_needed = 1, uses_anonymous_args = 0
 769 0000 80B5     		push	{r7, lr}
 770              	.LCFI32:
 771              		.cfi_def_cfa_offset 8
 772              		.cfi_offset 7, -8
 773              		.cfi_offset 14, -4
 774 0002 84B0     		sub	sp, sp, #16
 775              	.LCFI33:
 776              		.cfi_def_cfa_offset 24
 777 0004 00AF     		add	r7, sp, #0
 778              	.LCFI34:
 779              		.cfi_def_cfa_register 7
 780 0006 7860     		str	r0, [r7, #4]
 412:Drivers/STM32H7xx_HAL_Driver/Src/stm32h7xx_hal_tim_ex.c ****   uint32_t tmpsmcr;
 413:Drivers/STM32H7xx_HAL_Driver/Src/stm32h7xx_hal_tim_ex.c ****   HAL_TIM_ChannelStateTypeDef channel_1_state = TIM_CHANNEL_STATE_GET(htim, TIM_CHANNEL_1);
 781              		.loc 1 413 31
 782 0008 7B68     		ldr	r3, [r7, #4]
 783 000a 93F83E30 		ldrb	r3, [r3, #62]
 784 000e FB73     		strb	r3, [r7, #15]
 414:Drivers/STM32H7xx_HAL_Driver/Src/stm32h7xx_hal_tim_ex.c ****   HAL_TIM_ChannelStateTypeDef channel_2_state = TIM_CHANNEL_STATE_GET(htim, TIM_CHANNEL_2);
 785              		.loc 1 414 31
 786 0010 7B68     		ldr	r3, [r7, #4]
 787 0012 93F83F30 		ldrb	r3, [r3, #63]
 788 0016 BB73     		strb	r3, [r7, #14]
 415:Drivers/STM32H7xx_HAL_Driver/Src/stm32h7xx_hal_tim_ex.c ****   HAL_TIM_ChannelStateTypeDef complementary_channel_1_state = TIM_CHANNEL_N_STATE_GET(htim, TIM_CHA
 789              		.loc 1 415 31
 790 0018 7B68     		ldr	r3, [r7, #4]
 791 001a 93F84430 		ldrb	r3, [r3, #68]
 792 001e 7B73     		strb	r3, [r7, #13]
 416:Drivers/STM32H7xx_HAL_Driver/Src/stm32h7xx_hal_tim_ex.c ****   HAL_TIM_ChannelStateTypeDef complementary_channel_2_state = TIM_CHANNEL_N_STATE_GET(htim, TIM_CHA
ARM GAS  C:\Users\Su\AppData\Local\Temp\ccm0VnUy.s 			page 22


 793              		.loc 1 416 31
 794 0020 7B68     		ldr	r3, [r7, #4]
 795 0022 93F84530 		ldrb	r3, [r3, #69]
 796 0026 3B73     		strb	r3, [r7, #12]
 417:Drivers/STM32H7xx_HAL_Driver/Src/stm32h7xx_hal_tim_ex.c **** 
 418:Drivers/STM32H7xx_HAL_Driver/Src/stm32h7xx_hal_tim_ex.c ****   /* Check the parameters */
 419:Drivers/STM32H7xx_HAL_Driver/Src/stm32h7xx_hal_tim_ex.c ****   assert_param(IS_TIM_HALL_SENSOR_INTERFACE_INSTANCE(htim->Instance));
 420:Drivers/STM32H7xx_HAL_Driver/Src/stm32h7xx_hal_tim_ex.c **** 
 421:Drivers/STM32H7xx_HAL_Driver/Src/stm32h7xx_hal_tim_ex.c ****   /* Check the TIM channels state */
 422:Drivers/STM32H7xx_HAL_Driver/Src/stm32h7xx_hal_tim_ex.c ****   if ((channel_1_state != HAL_TIM_CHANNEL_STATE_READY)
 797              		.loc 1 422 6
 798 0028 FB7B     		ldrb	r3, [r7, #15]	@ zero_extendqisi2
 799 002a 012B     		cmp	r3, #1
 800 002c 08D1     		bne	.L28
 423:Drivers/STM32H7xx_HAL_Driver/Src/stm32h7xx_hal_tim_ex.c ****       || (channel_2_state != HAL_TIM_CHANNEL_STATE_READY)
 801              		.loc 1 423 7
 802 002e BB7B     		ldrb	r3, [r7, #14]	@ zero_extendqisi2
 803 0030 012B     		cmp	r3, #1
 804 0032 05D1     		bne	.L28
 424:Drivers/STM32H7xx_HAL_Driver/Src/stm32h7xx_hal_tim_ex.c ****       || (complementary_channel_1_state != HAL_TIM_CHANNEL_STATE_READY)
 805              		.loc 1 424 7
 806 0034 7B7B     		ldrb	r3, [r7, #13]	@ zero_extendqisi2
 807 0036 012B     		cmp	r3, #1
 808 0038 02D1     		bne	.L28
 425:Drivers/STM32H7xx_HAL_Driver/Src/stm32h7xx_hal_tim_ex.c ****       || (complementary_channel_2_state != HAL_TIM_CHANNEL_STATE_READY))
 809              		.loc 1 425 7
 810 003a 3B7B     		ldrb	r3, [r7, #12]	@ zero_extendqisi2
 811 003c 012B     		cmp	r3, #1
 812 003e 01D0     		beq	.L29
 813              	.L28:
 426:Drivers/STM32H7xx_HAL_Driver/Src/stm32h7xx_hal_tim_ex.c ****   {
 427:Drivers/STM32H7xx_HAL_Driver/Src/stm32h7xx_hal_tim_ex.c ****     return HAL_ERROR;
 814              		.loc 1 427 12
 815 0040 0123     		movs	r3, #1
 816 0042 71E0     		b	.L30
 817              	.L29:
 428:Drivers/STM32H7xx_HAL_Driver/Src/stm32h7xx_hal_tim_ex.c ****   }
 429:Drivers/STM32H7xx_HAL_Driver/Src/stm32h7xx_hal_tim_ex.c **** 
 430:Drivers/STM32H7xx_HAL_Driver/Src/stm32h7xx_hal_tim_ex.c ****   /* Set the TIM channels state */
 431:Drivers/STM32H7xx_HAL_Driver/Src/stm32h7xx_hal_tim_ex.c ****   TIM_CHANNEL_STATE_SET(htim, TIM_CHANNEL_1, HAL_TIM_CHANNEL_STATE_BUSY);
 818              		.loc 1 431 3
 819 0044 7B68     		ldr	r3, [r7, #4]
 820 0046 0222     		movs	r2, #2
 821 0048 83F83E20 		strb	r2, [r3, #62]
 432:Drivers/STM32H7xx_HAL_Driver/Src/stm32h7xx_hal_tim_ex.c ****   TIM_CHANNEL_STATE_SET(htim, TIM_CHANNEL_2, HAL_TIM_CHANNEL_STATE_BUSY);
 822              		.loc 1 432 3
 823 004c 7B68     		ldr	r3, [r7, #4]
 824 004e 0222     		movs	r2, #2
 825 0050 83F83F20 		strb	r2, [r3, #63]
 433:Drivers/STM32H7xx_HAL_Driver/Src/stm32h7xx_hal_tim_ex.c ****   TIM_CHANNEL_N_STATE_SET(htim, TIM_CHANNEL_1, HAL_TIM_CHANNEL_STATE_BUSY);
 826              		.loc 1 433 3
 827 0054 7B68     		ldr	r3, [r7, #4]
 828 0056 0222     		movs	r2, #2
 829 0058 83F84420 		strb	r2, [r3, #68]
 434:Drivers/STM32H7xx_HAL_Driver/Src/stm32h7xx_hal_tim_ex.c ****   TIM_CHANNEL_N_STATE_SET(htim, TIM_CHANNEL_2, HAL_TIM_CHANNEL_STATE_BUSY);
 830              		.loc 1 434 3
 831 005c 7B68     		ldr	r3, [r7, #4]
ARM GAS  C:\Users\Su\AppData\Local\Temp\ccm0VnUy.s 			page 23


 832 005e 0222     		movs	r2, #2
 833 0060 83F84520 		strb	r2, [r3, #69]
 435:Drivers/STM32H7xx_HAL_Driver/Src/stm32h7xx_hal_tim_ex.c **** 
 436:Drivers/STM32H7xx_HAL_Driver/Src/stm32h7xx_hal_tim_ex.c ****   /* Enable the capture compare Interrupts 1 event */
 437:Drivers/STM32H7xx_HAL_Driver/Src/stm32h7xx_hal_tim_ex.c ****   __HAL_TIM_ENABLE_IT(htim, TIM_IT_CC1);
 834              		.loc 1 437 3
 835 0064 7B68     		ldr	r3, [r7, #4]
 836 0066 1B68     		ldr	r3, [r3]
 837 0068 DA68     		ldr	r2, [r3, #12]
 838 006a 7B68     		ldr	r3, [r7, #4]
 839 006c 1B68     		ldr	r3, [r3]
 840 006e 42F00202 		orr	r2, r2, #2
 841 0072 DA60     		str	r2, [r3, #12]
 438:Drivers/STM32H7xx_HAL_Driver/Src/stm32h7xx_hal_tim_ex.c **** 
 439:Drivers/STM32H7xx_HAL_Driver/Src/stm32h7xx_hal_tim_ex.c ****   /* Enable the Input Capture channel 1
 440:Drivers/STM32H7xx_HAL_Driver/Src/stm32h7xx_hal_tim_ex.c ****   (in the Hall Sensor Interface the three possible channels that can be used are TIM_CHANNEL_1,
 441:Drivers/STM32H7xx_HAL_Driver/Src/stm32h7xx_hal_tim_ex.c ****   TIM_CHANNEL_2 and TIM_CHANNEL_3) */
 442:Drivers/STM32H7xx_HAL_Driver/Src/stm32h7xx_hal_tim_ex.c ****   TIM_CCxChannelCmd(htim->Instance, TIM_CHANNEL_1, TIM_CCx_ENABLE);
 842              		.loc 1 442 3
 843 0074 7B68     		ldr	r3, [r7, #4]
 844 0076 1B68     		ldr	r3, [r3]
 845 0078 0122     		movs	r2, #1
 846 007a 0021     		movs	r1, #0
 847 007c 1846     		mov	r0, r3
 848 007e FFF7FEFF 		bl	TIM_CCxChannelCmd
 443:Drivers/STM32H7xx_HAL_Driver/Src/stm32h7xx_hal_tim_ex.c **** 
 444:Drivers/STM32H7xx_HAL_Driver/Src/stm32h7xx_hal_tim_ex.c ****   /* Enable the Peripheral, except in trigger mode where enable is automatically done with trigger 
 445:Drivers/STM32H7xx_HAL_Driver/Src/stm32h7xx_hal_tim_ex.c ****   if (IS_TIM_SLAVE_INSTANCE(htim->Instance))
 849              		.loc 1 445 7
 850 0082 7B68     		ldr	r3, [r7, #4]
 851 0084 1B68     		ldr	r3, [r3]
 852              		.loc 1 445 6
 853 0086 2A4A     		ldr	r2, .L36
 854 0088 9342     		cmp	r3, r2
 855 008a 2CD0     		beq	.L31
 856              		.loc 1 445 7 discriminator 1
 857 008c 7B68     		ldr	r3, [r7, #4]
 858 008e 1B68     		ldr	r3, [r3]
 859 0090 B3F1804F 		cmp	r3, #1073741824
 860 0094 27D0     		beq	.L31
 861              		.loc 1 445 7 is_stmt 0 discriminator 2
 862 0096 7B68     		ldr	r3, [r7, #4]
 863 0098 1B68     		ldr	r3, [r3]
 864 009a 264A     		ldr	r2, .L36+4
 865 009c 9342     		cmp	r3, r2
 866 009e 22D0     		beq	.L31
 867              		.loc 1 445 7 discriminator 3
 868 00a0 7B68     		ldr	r3, [r7, #4]
 869 00a2 1B68     		ldr	r3, [r3]
 870 00a4 244A     		ldr	r2, .L36+8
 871 00a6 9342     		cmp	r3, r2
 872 00a8 1DD0     		beq	.L31
 873              		.loc 1 445 7 discriminator 4
 874 00aa 7B68     		ldr	r3, [r7, #4]
 875 00ac 1B68     		ldr	r3, [r3]
 876 00ae 234A     		ldr	r2, .L36+12
 877 00b0 9342     		cmp	r3, r2
ARM GAS  C:\Users\Su\AppData\Local\Temp\ccm0VnUy.s 			page 24


 878 00b2 18D0     		beq	.L31
 879              		.loc 1 445 7 discriminator 5
 880 00b4 7B68     		ldr	r3, [r7, #4]
 881 00b6 1B68     		ldr	r3, [r3]
 882 00b8 214A     		ldr	r2, .L36+16
 883 00ba 9342     		cmp	r3, r2
 884 00bc 13D0     		beq	.L31
 885              		.loc 1 445 7 discriminator 6
 886 00be 7B68     		ldr	r3, [r7, #4]
 887 00c0 1B68     		ldr	r3, [r3]
 888 00c2 204A     		ldr	r2, .L36+20
 889 00c4 9342     		cmp	r3, r2
 890 00c6 0ED0     		beq	.L31
 891              		.loc 1 445 7 discriminator 7
 892 00c8 7B68     		ldr	r3, [r7, #4]
 893 00ca 1B68     		ldr	r3, [r3]
 894 00cc 1E4A     		ldr	r2, .L36+24
 895 00ce 9342     		cmp	r3, r2
 896 00d0 09D0     		beq	.L31
 897              		.loc 1 445 7 discriminator 8
 898 00d2 7B68     		ldr	r3, [r7, #4]
 899 00d4 1B68     		ldr	r3, [r3]
 900 00d6 1D4A     		ldr	r2, .L36+28
 901 00d8 9342     		cmp	r3, r2
 902 00da 04D0     		beq	.L31
 903              		.loc 1 445 7 discriminator 9
 904 00dc 7B68     		ldr	r3, [r7, #4]
 905 00de 1B68     		ldr	r3, [r3]
 906 00e0 1B4A     		ldr	r2, .L36+32
 907 00e2 9342     		cmp	r3, r2
 908 00e4 15D1     		bne	.L32
 909              	.L31:
 446:Drivers/STM32H7xx_HAL_Driver/Src/stm32h7xx_hal_tim_ex.c ****   {
 447:Drivers/STM32H7xx_HAL_Driver/Src/stm32h7xx_hal_tim_ex.c ****     tmpsmcr = htim->Instance->SMCR & TIM_SMCR_SMS;
 910              		.loc 1 447 19 is_stmt 1
 911 00e6 7B68     		ldr	r3, [r7, #4]
 912 00e8 1B68     		ldr	r3, [r3]
 913              		.loc 1 447 29
 914 00ea 9A68     		ldr	r2, [r3, #8]
 915              		.loc 1 447 13
 916 00ec 194B     		ldr	r3, .L36+36
 917 00ee 1340     		ands	r3, r3, r2
 918 00f0 BB60     		str	r3, [r7, #8]
 448:Drivers/STM32H7xx_HAL_Driver/Src/stm32h7xx_hal_tim_ex.c ****     if (!IS_TIM_SLAVEMODE_TRIGGER_ENABLED(tmpsmcr))
 919              		.loc 1 448 8
 920 00f2 BB68     		ldr	r3, [r7, #8]
 921 00f4 062B     		cmp	r3, #6
 922 00f6 15D0     		beq	.L35
 923              		.loc 1 448 9 discriminator 1
 924 00f8 BB68     		ldr	r3, [r7, #8]
 925 00fa B3F5803F 		cmp	r3, #65536
 926 00fe 11D0     		beq	.L35
 449:Drivers/STM32H7xx_HAL_Driver/Src/stm32h7xx_hal_tim_ex.c ****     {
 450:Drivers/STM32H7xx_HAL_Driver/Src/stm32h7xx_hal_tim_ex.c ****       __HAL_TIM_ENABLE(htim);
 927              		.loc 1 450 7
 928 0100 7B68     		ldr	r3, [r7, #4]
 929 0102 1B68     		ldr	r3, [r3]
ARM GAS  C:\Users\Su\AppData\Local\Temp\ccm0VnUy.s 			page 25


 930 0104 1A68     		ldr	r2, [r3]
 931 0106 7B68     		ldr	r3, [r7, #4]
 932 0108 1B68     		ldr	r3, [r3]
 933 010a 42F00102 		orr	r2, r2, #1
 934 010e 1A60     		str	r2, [r3]
 448:Drivers/STM32H7xx_HAL_Driver/Src/stm32h7xx_hal_tim_ex.c ****     if (!IS_TIM_SLAVEMODE_TRIGGER_ENABLED(tmpsmcr))
 935              		.loc 1 448 8
 936 0110 08E0     		b	.L35
 937              	.L32:
 451:Drivers/STM32H7xx_HAL_Driver/Src/stm32h7xx_hal_tim_ex.c ****     }
 452:Drivers/STM32H7xx_HAL_Driver/Src/stm32h7xx_hal_tim_ex.c ****   }
 453:Drivers/STM32H7xx_HAL_Driver/Src/stm32h7xx_hal_tim_ex.c ****   else
 454:Drivers/STM32H7xx_HAL_Driver/Src/stm32h7xx_hal_tim_ex.c ****   {
 455:Drivers/STM32H7xx_HAL_Driver/Src/stm32h7xx_hal_tim_ex.c ****     __HAL_TIM_ENABLE(htim);
 938              		.loc 1 455 5
 939 0112 7B68     		ldr	r3, [r7, #4]
 940 0114 1B68     		ldr	r3, [r3]
 941 0116 1A68     		ldr	r2, [r3]
 942 0118 7B68     		ldr	r3, [r7, #4]
 943 011a 1B68     		ldr	r3, [r3]
 944 011c 42F00102 		orr	r2, r2, #1
 945 0120 1A60     		str	r2, [r3]
 946 0122 00E0     		b	.L34
 947              	.L35:
 448:Drivers/STM32H7xx_HAL_Driver/Src/stm32h7xx_hal_tim_ex.c ****     {
 948              		.loc 1 448 8
 949 0124 00BF     		nop
 950              	.L34:
 456:Drivers/STM32H7xx_HAL_Driver/Src/stm32h7xx_hal_tim_ex.c ****   }
 457:Drivers/STM32H7xx_HAL_Driver/Src/stm32h7xx_hal_tim_ex.c **** 
 458:Drivers/STM32H7xx_HAL_Driver/Src/stm32h7xx_hal_tim_ex.c ****   /* Return function status */
 459:Drivers/STM32H7xx_HAL_Driver/Src/stm32h7xx_hal_tim_ex.c ****   return HAL_OK;
 951              		.loc 1 459 10
 952 0126 0023     		movs	r3, #0
 953              	.L30:
 460:Drivers/STM32H7xx_HAL_Driver/Src/stm32h7xx_hal_tim_ex.c **** }
 954              		.loc 1 460 1
 955 0128 1846     		mov	r0, r3
 956 012a 1037     		adds	r7, r7, #16
 957              	.LCFI35:
 958              		.cfi_def_cfa_offset 8
 959 012c BD46     		mov	sp, r7
 960              	.LCFI36:
 961              		.cfi_def_cfa_register 13
 962              		@ sp needed
 963 012e 80BD     		pop	{r7, pc}
 964              	.L37:
 965              		.align	2
 966              	.L36:
 967 0130 00000140 		.word	1073807360
 968 0134 00040040 		.word	1073742848
 969 0138 00080040 		.word	1073743872
 970 013c 000C0040 		.word	1073744896
 971 0140 00040140 		.word	1073808384
 972 0144 00180040 		.word	1073747968
 973 0148 00400140 		.word	1073823744
 974 014c 00E00040 		.word	1073799168
ARM GAS  C:\Users\Su\AppData\Local\Temp\ccm0VnUy.s 			page 26


 975 0150 00E40040 		.word	1073800192
 976 0154 07000100 		.word	65543
 977              		.cfi_endproc
 978              	.LFE150:
 980              		.section	.text.HAL_TIMEx_HallSensor_Stop_IT,"ax",%progbits
 981              		.align	1
 982              		.global	HAL_TIMEx_HallSensor_Stop_IT
 983              		.syntax unified
 984              		.thumb
 985              		.thumb_func
 987              	HAL_TIMEx_HallSensor_Stop_IT:
 988              	.LFB151:
 461:Drivers/STM32H7xx_HAL_Driver/Src/stm32h7xx_hal_tim_ex.c **** 
 462:Drivers/STM32H7xx_HAL_Driver/Src/stm32h7xx_hal_tim_ex.c **** /**
 463:Drivers/STM32H7xx_HAL_Driver/Src/stm32h7xx_hal_tim_ex.c ****   * @brief  Stops the TIM Hall Sensor Interface in interrupt mode.
 464:Drivers/STM32H7xx_HAL_Driver/Src/stm32h7xx_hal_tim_ex.c ****   * @param  htim TIM Hall Sensor Interface handle
 465:Drivers/STM32H7xx_HAL_Driver/Src/stm32h7xx_hal_tim_ex.c ****   * @retval HAL status
 466:Drivers/STM32H7xx_HAL_Driver/Src/stm32h7xx_hal_tim_ex.c ****   */
 467:Drivers/STM32H7xx_HAL_Driver/Src/stm32h7xx_hal_tim_ex.c **** HAL_StatusTypeDef HAL_TIMEx_HallSensor_Stop_IT(TIM_HandleTypeDef *htim)
 468:Drivers/STM32H7xx_HAL_Driver/Src/stm32h7xx_hal_tim_ex.c **** {
 989              		.loc 1 468 1
 990              		.cfi_startproc
 991              		@ args = 0, pretend = 0, frame = 8
 992              		@ frame_needed = 1, uses_anonymous_args = 0
 993 0000 80B5     		push	{r7, lr}
 994              	.LCFI37:
 995              		.cfi_def_cfa_offset 8
 996              		.cfi_offset 7, -8
 997              		.cfi_offset 14, -4
 998 0002 82B0     		sub	sp, sp, #8
 999              	.LCFI38:
 1000              		.cfi_def_cfa_offset 16
 1001 0004 00AF     		add	r7, sp, #0
 1002              	.LCFI39:
 1003              		.cfi_def_cfa_register 7
 1004 0006 7860     		str	r0, [r7, #4]
 469:Drivers/STM32H7xx_HAL_Driver/Src/stm32h7xx_hal_tim_ex.c ****   /* Check the parameters */
 470:Drivers/STM32H7xx_HAL_Driver/Src/stm32h7xx_hal_tim_ex.c ****   assert_param(IS_TIM_HALL_SENSOR_INTERFACE_INSTANCE(htim->Instance));
 471:Drivers/STM32H7xx_HAL_Driver/Src/stm32h7xx_hal_tim_ex.c **** 
 472:Drivers/STM32H7xx_HAL_Driver/Src/stm32h7xx_hal_tim_ex.c ****   /* Disable the Input Capture channel 1
 473:Drivers/STM32H7xx_HAL_Driver/Src/stm32h7xx_hal_tim_ex.c ****   (in the Hall Sensor Interface the three possible channels that can be used are TIM_CHANNEL_1,
 474:Drivers/STM32H7xx_HAL_Driver/Src/stm32h7xx_hal_tim_ex.c ****   TIM_CHANNEL_2 and TIM_CHANNEL_3) */
 475:Drivers/STM32H7xx_HAL_Driver/Src/stm32h7xx_hal_tim_ex.c ****   TIM_CCxChannelCmd(htim->Instance, TIM_CHANNEL_1, TIM_CCx_DISABLE);
 1005              		.loc 1 475 3
 1006 0008 7B68     		ldr	r3, [r7, #4]
 1007 000a 1B68     		ldr	r3, [r3]
 1008 000c 0022     		movs	r2, #0
 1009 000e 0021     		movs	r1, #0
 1010 0010 1846     		mov	r0, r3
 1011 0012 FFF7FEFF 		bl	TIM_CCxChannelCmd
 476:Drivers/STM32H7xx_HAL_Driver/Src/stm32h7xx_hal_tim_ex.c **** 
 477:Drivers/STM32H7xx_HAL_Driver/Src/stm32h7xx_hal_tim_ex.c ****   /* Disable the capture compare Interrupts event */
 478:Drivers/STM32H7xx_HAL_Driver/Src/stm32h7xx_hal_tim_ex.c ****   __HAL_TIM_DISABLE_IT(htim, TIM_IT_CC1);
 1012              		.loc 1 478 3
 1013 0016 7B68     		ldr	r3, [r7, #4]
 1014 0018 1B68     		ldr	r3, [r3]
 1015 001a DA68     		ldr	r2, [r3, #12]
ARM GAS  C:\Users\Su\AppData\Local\Temp\ccm0VnUy.s 			page 27


 1016 001c 7B68     		ldr	r3, [r7, #4]
 1017 001e 1B68     		ldr	r3, [r3]
 1018 0020 22F00202 		bic	r2, r2, #2
 1019 0024 DA60     		str	r2, [r3, #12]
 479:Drivers/STM32H7xx_HAL_Driver/Src/stm32h7xx_hal_tim_ex.c **** 
 480:Drivers/STM32H7xx_HAL_Driver/Src/stm32h7xx_hal_tim_ex.c ****   /* Disable the Peripheral */
 481:Drivers/STM32H7xx_HAL_Driver/Src/stm32h7xx_hal_tim_ex.c ****   __HAL_TIM_DISABLE(htim);
 1020              		.loc 1 481 3
 1021 0026 7B68     		ldr	r3, [r7, #4]
 1022 0028 1B68     		ldr	r3, [r3]
 1023 002a 1A6A     		ldr	r2, [r3, #32]
 1024 002c 41F21113 		movw	r3, #4369
 1025 0030 1340     		ands	r3, r3, r2
 1026 0032 002B     		cmp	r3, #0
 1027 0034 0FD1     		bne	.L39
 1028              		.loc 1 481 3 is_stmt 0 discriminator 1
 1029 0036 7B68     		ldr	r3, [r7, #4]
 1030 0038 1B68     		ldr	r3, [r3]
 1031 003a 1A6A     		ldr	r2, [r3, #32]
 1032 003c 40F24443 		movw	r3, #1092
 1033 0040 1340     		ands	r3, r3, r2
 1034 0042 002B     		cmp	r3, #0
 1035 0044 07D1     		bne	.L39
 1036              		.loc 1 481 3 discriminator 2
 1037 0046 7B68     		ldr	r3, [r7, #4]
 1038 0048 1B68     		ldr	r3, [r3]
 1039 004a 1A68     		ldr	r2, [r3]
 1040 004c 7B68     		ldr	r3, [r7, #4]
 1041 004e 1B68     		ldr	r3, [r3]
 1042 0050 22F00102 		bic	r2, r2, #1
 1043 0054 1A60     		str	r2, [r3]
 1044              	.L39:
 482:Drivers/STM32H7xx_HAL_Driver/Src/stm32h7xx_hal_tim_ex.c **** 
 483:Drivers/STM32H7xx_HAL_Driver/Src/stm32h7xx_hal_tim_ex.c ****   /* Set the TIM channels state */
 484:Drivers/STM32H7xx_HAL_Driver/Src/stm32h7xx_hal_tim_ex.c ****   TIM_CHANNEL_STATE_SET(htim, TIM_CHANNEL_1, HAL_TIM_CHANNEL_STATE_READY);
 1045              		.loc 1 484 3 is_stmt 1
 1046 0056 7B68     		ldr	r3, [r7, #4]
 1047 0058 0122     		movs	r2, #1
 1048 005a 83F83E20 		strb	r2, [r3, #62]
 485:Drivers/STM32H7xx_HAL_Driver/Src/stm32h7xx_hal_tim_ex.c ****   TIM_CHANNEL_STATE_SET(htim, TIM_CHANNEL_2, HAL_TIM_CHANNEL_STATE_READY);
 1049              		.loc 1 485 3
 1050 005e 7B68     		ldr	r3, [r7, #4]
 1051 0060 0122     		movs	r2, #1
 1052 0062 83F83F20 		strb	r2, [r3, #63]
 486:Drivers/STM32H7xx_HAL_Driver/Src/stm32h7xx_hal_tim_ex.c ****   TIM_CHANNEL_N_STATE_SET(htim, TIM_CHANNEL_1, HAL_TIM_CHANNEL_STATE_READY);
 1053              		.loc 1 486 3
 1054 0066 7B68     		ldr	r3, [r7, #4]
 1055 0068 0122     		movs	r2, #1
 1056 006a 83F84420 		strb	r2, [r3, #68]
 487:Drivers/STM32H7xx_HAL_Driver/Src/stm32h7xx_hal_tim_ex.c ****   TIM_CHANNEL_N_STATE_SET(htim, TIM_CHANNEL_2, HAL_TIM_CHANNEL_STATE_READY);
 1057              		.loc 1 487 3
 1058 006e 7B68     		ldr	r3, [r7, #4]
 1059 0070 0122     		movs	r2, #1
 1060 0072 83F84520 		strb	r2, [r3, #69]
 488:Drivers/STM32H7xx_HAL_Driver/Src/stm32h7xx_hal_tim_ex.c **** 
 489:Drivers/STM32H7xx_HAL_Driver/Src/stm32h7xx_hal_tim_ex.c ****   /* Return function status */
 490:Drivers/STM32H7xx_HAL_Driver/Src/stm32h7xx_hal_tim_ex.c ****   return HAL_OK;
ARM GAS  C:\Users\Su\AppData\Local\Temp\ccm0VnUy.s 			page 28


 1061              		.loc 1 490 10
 1062 0076 0023     		movs	r3, #0
 491:Drivers/STM32H7xx_HAL_Driver/Src/stm32h7xx_hal_tim_ex.c **** }
 1063              		.loc 1 491 1
 1064 0078 1846     		mov	r0, r3
 1065 007a 0837     		adds	r7, r7, #8
 1066              	.LCFI40:
 1067              		.cfi_def_cfa_offset 8
 1068 007c BD46     		mov	sp, r7
 1069              	.LCFI41:
 1070              		.cfi_def_cfa_register 13
 1071              		@ sp needed
 1072 007e 80BD     		pop	{r7, pc}
 1073              		.cfi_endproc
 1074              	.LFE151:
 1076              		.section	.text.HAL_TIMEx_HallSensor_Start_DMA,"ax",%progbits
 1077              		.align	1
 1078              		.global	HAL_TIMEx_HallSensor_Start_DMA
 1079              		.syntax unified
 1080              		.thumb
 1081              		.thumb_func
 1083              	HAL_TIMEx_HallSensor_Start_DMA:
 1084              	.LFB152:
 492:Drivers/STM32H7xx_HAL_Driver/Src/stm32h7xx_hal_tim_ex.c **** 
 493:Drivers/STM32H7xx_HAL_Driver/Src/stm32h7xx_hal_tim_ex.c **** /**
 494:Drivers/STM32H7xx_HAL_Driver/Src/stm32h7xx_hal_tim_ex.c ****   * @brief  Starts the TIM Hall Sensor Interface in DMA mode.
 495:Drivers/STM32H7xx_HAL_Driver/Src/stm32h7xx_hal_tim_ex.c ****   * @param  htim TIM Hall Sensor Interface handle
 496:Drivers/STM32H7xx_HAL_Driver/Src/stm32h7xx_hal_tim_ex.c ****   * @param  pData The destination Buffer address.
 497:Drivers/STM32H7xx_HAL_Driver/Src/stm32h7xx_hal_tim_ex.c ****   * @param  Length The length of data to be transferred from TIM peripheral to memory.
 498:Drivers/STM32H7xx_HAL_Driver/Src/stm32h7xx_hal_tim_ex.c ****   * @retval HAL status
 499:Drivers/STM32H7xx_HAL_Driver/Src/stm32h7xx_hal_tim_ex.c ****   */
 500:Drivers/STM32H7xx_HAL_Driver/Src/stm32h7xx_hal_tim_ex.c **** HAL_StatusTypeDef HAL_TIMEx_HallSensor_Start_DMA(TIM_HandleTypeDef *htim, uint32_t *pData, uint16_t
 501:Drivers/STM32H7xx_HAL_Driver/Src/stm32h7xx_hal_tim_ex.c **** {
 1085              		.loc 1 501 1
 1086              		.cfi_startproc
 1087              		@ args = 0, pretend = 0, frame = 24
 1088              		@ frame_needed = 1, uses_anonymous_args = 0
 1089 0000 80B5     		push	{r7, lr}
 1090              	.LCFI42:
 1091              		.cfi_def_cfa_offset 8
 1092              		.cfi_offset 7, -8
 1093              		.cfi_offset 14, -4
 1094 0002 86B0     		sub	sp, sp, #24
 1095              	.LCFI43:
 1096              		.cfi_def_cfa_offset 32
 1097 0004 00AF     		add	r7, sp, #0
 1098              	.LCFI44:
 1099              		.cfi_def_cfa_register 7
 1100 0006 F860     		str	r0, [r7, #12]
 1101 0008 B960     		str	r1, [r7, #8]
 1102 000a 1346     		mov	r3, r2
 1103 000c FB80     		strh	r3, [r7, #6]	@ movhi
 502:Drivers/STM32H7xx_HAL_Driver/Src/stm32h7xx_hal_tim_ex.c ****   uint32_t tmpsmcr;
 503:Drivers/STM32H7xx_HAL_Driver/Src/stm32h7xx_hal_tim_ex.c ****   HAL_TIM_ChannelStateTypeDef channel_1_state = TIM_CHANNEL_STATE_GET(htim, TIM_CHANNEL_1);
 1104              		.loc 1 503 31
 1105 000e FB68     		ldr	r3, [r7, #12]
 1106 0010 93F83E30 		ldrb	r3, [r3, #62]
ARM GAS  C:\Users\Su\AppData\Local\Temp\ccm0VnUy.s 			page 29


 1107 0014 FB75     		strb	r3, [r7, #23]
 504:Drivers/STM32H7xx_HAL_Driver/Src/stm32h7xx_hal_tim_ex.c ****   HAL_TIM_ChannelStateTypeDef complementary_channel_1_state = TIM_CHANNEL_N_STATE_GET(htim, TIM_CHA
 1108              		.loc 1 504 31
 1109 0016 FB68     		ldr	r3, [r7, #12]
 1110 0018 93F84430 		ldrb	r3, [r3, #68]
 1111 001c BB75     		strb	r3, [r7, #22]
 505:Drivers/STM32H7xx_HAL_Driver/Src/stm32h7xx_hal_tim_ex.c **** 
 506:Drivers/STM32H7xx_HAL_Driver/Src/stm32h7xx_hal_tim_ex.c ****   /* Check the parameters */
 507:Drivers/STM32H7xx_HAL_Driver/Src/stm32h7xx_hal_tim_ex.c ****   assert_param(IS_TIM_HALL_SENSOR_INTERFACE_INSTANCE(htim->Instance));
 508:Drivers/STM32H7xx_HAL_Driver/Src/stm32h7xx_hal_tim_ex.c **** 
 509:Drivers/STM32H7xx_HAL_Driver/Src/stm32h7xx_hal_tim_ex.c ****   /* Set the TIM channel state */
 510:Drivers/STM32H7xx_HAL_Driver/Src/stm32h7xx_hal_tim_ex.c ****   if ((channel_1_state == HAL_TIM_CHANNEL_STATE_BUSY)
 1112              		.loc 1 510 6
 1113 001e FB7D     		ldrb	r3, [r7, #23]	@ zero_extendqisi2
 1114 0020 022B     		cmp	r3, #2
 1115 0022 02D0     		beq	.L42
 511:Drivers/STM32H7xx_HAL_Driver/Src/stm32h7xx_hal_tim_ex.c ****       || (complementary_channel_1_state == HAL_TIM_CHANNEL_STATE_BUSY))
 1116              		.loc 1 511 7
 1117 0024 BB7D     		ldrb	r3, [r7, #22]	@ zero_extendqisi2
 1118 0026 022B     		cmp	r3, #2
 1119 0028 01D1     		bne	.L43
 1120              	.L42:
 512:Drivers/STM32H7xx_HAL_Driver/Src/stm32h7xx_hal_tim_ex.c ****   {
 513:Drivers/STM32H7xx_HAL_Driver/Src/stm32h7xx_hal_tim_ex.c ****     return HAL_BUSY;
 1121              		.loc 1 513 12
 1122 002a 0223     		movs	r3, #2
 1123 002c 96E0     		b	.L44
 1124              	.L43:
 514:Drivers/STM32H7xx_HAL_Driver/Src/stm32h7xx_hal_tim_ex.c ****   }
 515:Drivers/STM32H7xx_HAL_Driver/Src/stm32h7xx_hal_tim_ex.c ****   else if ((channel_1_state == HAL_TIM_CHANNEL_STATE_READY)
 1125              		.loc 1 515 11
 1126 002e FB7D     		ldrb	r3, [r7, #23]	@ zero_extendqisi2
 1127 0030 012B     		cmp	r3, #1
 1128 0032 34D1     		bne	.L45
 516:Drivers/STM32H7xx_HAL_Driver/Src/stm32h7xx_hal_tim_ex.c ****            && (complementary_channel_1_state == HAL_TIM_CHANNEL_STATE_READY))
 1129              		.loc 1 516 12
 1130 0034 BB7D     		ldrb	r3, [r7, #22]	@ zero_extendqisi2
 1131 0036 012B     		cmp	r3, #1
 1132 0038 31D1     		bne	.L45
 517:Drivers/STM32H7xx_HAL_Driver/Src/stm32h7xx_hal_tim_ex.c ****   {
 518:Drivers/STM32H7xx_HAL_Driver/Src/stm32h7xx_hal_tim_ex.c ****     if ((pData == NULL) && (Length > 0U))
 1133              		.loc 1 518 8
 1134 003a BB68     		ldr	r3, [r7, #8]
 1135 003c 002B     		cmp	r3, #0
 1136 003e 04D1     		bne	.L46
 1137              		.loc 1 518 25 discriminator 1
 1138 0040 FB88     		ldrh	r3, [r7, #6]
 1139 0042 002B     		cmp	r3, #0
 1140 0044 01D0     		beq	.L46
 519:Drivers/STM32H7xx_HAL_Driver/Src/stm32h7xx_hal_tim_ex.c ****     {
 520:Drivers/STM32H7xx_HAL_Driver/Src/stm32h7xx_hal_tim_ex.c ****       return HAL_ERROR;
 1141              		.loc 1 520 14
 1142 0046 0123     		movs	r3, #1
 1143 0048 88E0     		b	.L44
 1144              	.L46:
 521:Drivers/STM32H7xx_HAL_Driver/Src/stm32h7xx_hal_tim_ex.c ****     }
 522:Drivers/STM32H7xx_HAL_Driver/Src/stm32h7xx_hal_tim_ex.c ****     else
ARM GAS  C:\Users\Su\AppData\Local\Temp\ccm0VnUy.s 			page 30


 523:Drivers/STM32H7xx_HAL_Driver/Src/stm32h7xx_hal_tim_ex.c ****     {
 524:Drivers/STM32H7xx_HAL_Driver/Src/stm32h7xx_hal_tim_ex.c ****       TIM_CHANNEL_STATE_SET(htim, TIM_CHANNEL_1, HAL_TIM_CHANNEL_STATE_BUSY);
 1145              		.loc 1 524 7
 1146 004a FB68     		ldr	r3, [r7, #12]
 1147 004c 0222     		movs	r2, #2
 1148 004e 83F83E20 		strb	r2, [r3, #62]
 525:Drivers/STM32H7xx_HAL_Driver/Src/stm32h7xx_hal_tim_ex.c ****       TIM_CHANNEL_N_STATE_SET(htim, TIM_CHANNEL_1, HAL_TIM_CHANNEL_STATE_BUSY);
 1149              		.loc 1 525 7
 1150 0052 FB68     		ldr	r3, [r7, #12]
 1151 0054 0222     		movs	r2, #2
 1152 0056 83F84420 		strb	r2, [r3, #68]
 518:Drivers/STM32H7xx_HAL_Driver/Src/stm32h7xx_hal_tim_ex.c ****     {
 1153              		.loc 1 518 8
 1154 005a 00BF     		nop
 526:Drivers/STM32H7xx_HAL_Driver/Src/stm32h7xx_hal_tim_ex.c ****     }
 527:Drivers/STM32H7xx_HAL_Driver/Src/stm32h7xx_hal_tim_ex.c ****   }
 528:Drivers/STM32H7xx_HAL_Driver/Src/stm32h7xx_hal_tim_ex.c ****   else
 529:Drivers/STM32H7xx_HAL_Driver/Src/stm32h7xx_hal_tim_ex.c ****   {
 530:Drivers/STM32H7xx_HAL_Driver/Src/stm32h7xx_hal_tim_ex.c ****     return HAL_ERROR;
 531:Drivers/STM32H7xx_HAL_Driver/Src/stm32h7xx_hal_tim_ex.c ****   }
 532:Drivers/STM32H7xx_HAL_Driver/Src/stm32h7xx_hal_tim_ex.c **** 
 533:Drivers/STM32H7xx_HAL_Driver/Src/stm32h7xx_hal_tim_ex.c ****   /* Enable the Input Capture channel 1
 534:Drivers/STM32H7xx_HAL_Driver/Src/stm32h7xx_hal_tim_ex.c ****   (in the Hall Sensor Interface the three possible channels that can be used are TIM_CHANNEL_1,
 535:Drivers/STM32H7xx_HAL_Driver/Src/stm32h7xx_hal_tim_ex.c ****   TIM_CHANNEL_2 and TIM_CHANNEL_3) */
 536:Drivers/STM32H7xx_HAL_Driver/Src/stm32h7xx_hal_tim_ex.c ****   TIM_CCxChannelCmd(htim->Instance, TIM_CHANNEL_1, TIM_CCx_ENABLE);
 1155              		.loc 1 536 3
 1156 005c FB68     		ldr	r3, [r7, #12]
 1157 005e 1B68     		ldr	r3, [r3]
 1158 0060 0122     		movs	r2, #1
 1159 0062 0021     		movs	r1, #0
 1160 0064 1846     		mov	r0, r3
 1161 0066 FFF7FEFF 		bl	TIM_CCxChannelCmd
 537:Drivers/STM32H7xx_HAL_Driver/Src/stm32h7xx_hal_tim_ex.c **** 
 538:Drivers/STM32H7xx_HAL_Driver/Src/stm32h7xx_hal_tim_ex.c ****   /* Set the DMA Input Capture 1 Callbacks */
 539:Drivers/STM32H7xx_HAL_Driver/Src/stm32h7xx_hal_tim_ex.c ****   htim->hdma[TIM_DMA_ID_CC1]->XferCpltCallback = TIM_DMACaptureCplt;
 1162              		.loc 1 539 13
 1163 006a FB68     		ldr	r3, [r7, #12]
 1164 006c 5B6A     		ldr	r3, [r3, #36]
 1165              		.loc 1 539 48
 1166 006e 3D4A     		ldr	r2, .L55
 1167 0070 DA63     		str	r2, [r3, #60]
 540:Drivers/STM32H7xx_HAL_Driver/Src/stm32h7xx_hal_tim_ex.c ****   htim->hdma[TIM_DMA_ID_CC1]->XferHalfCpltCallback = TIM_DMACaptureHalfCplt;
 1168              		.loc 1 540 13
 1169 0072 FB68     		ldr	r3, [r7, #12]
 1170 0074 5B6A     		ldr	r3, [r3, #36]
 1171              		.loc 1 540 52
 1172 0076 3C4A     		ldr	r2, .L55+4
 1173 0078 1A64     		str	r2, [r3, #64]
 541:Drivers/STM32H7xx_HAL_Driver/Src/stm32h7xx_hal_tim_ex.c ****   /* Set the DMA error callback */
 542:Drivers/STM32H7xx_HAL_Driver/Src/stm32h7xx_hal_tim_ex.c ****   htim->hdma[TIM_DMA_ID_CC1]->XferErrorCallback = TIM_DMAError ;
 1174              		.loc 1 542 13
 1175 007a FB68     		ldr	r3, [r7, #12]
 1176 007c 5B6A     		ldr	r3, [r3, #36]
 1177              		.loc 1 542 49
 1178 007e 3B4A     		ldr	r2, .L55+8
 1179 0080 DA64     		str	r2, [r3, #76]
 543:Drivers/STM32H7xx_HAL_Driver/Src/stm32h7xx_hal_tim_ex.c **** 
ARM GAS  C:\Users\Su\AppData\Local\Temp\ccm0VnUy.s 			page 31


 544:Drivers/STM32H7xx_HAL_Driver/Src/stm32h7xx_hal_tim_ex.c ****   /* Enable the DMA stream for Capture 1*/
 545:Drivers/STM32H7xx_HAL_Driver/Src/stm32h7xx_hal_tim_ex.c ****   if (HAL_DMA_Start_IT(htim->hdma[TIM_DMA_ID_CC1], (uint32_t)&htim->Instance->CCR1, (uint32_t)pData
 1180              		.loc 1 545 7
 1181 0082 FB68     		ldr	r3, [r7, #12]
 1182 0084 586A     		ldr	r0, [r3, #36]
 1183              		.loc 1 545 67
 1184 0086 FB68     		ldr	r3, [r7, #12]
 1185 0088 1B68     		ldr	r3, [r3]
 1186              		.loc 1 545 62
 1187 008a 3433     		adds	r3, r3, #52
 1188              		.loc 1 545 7
 1189 008c 1946     		mov	r1, r3
 1190 008e BA68     		ldr	r2, [r7, #8]
 1191 0090 FB88     		ldrh	r3, [r7, #6]
 1192 0092 FFF7FEFF 		bl	HAL_DMA_Start_IT
 1193 0096 0346     		mov	r3, r0
 1194              		.loc 1 545 6
 1195 0098 002B     		cmp	r3, #0
 1196 009a 04D0     		beq	.L48
 1197 009c 01E0     		b	.L53
 1198              	.L45:
 530:Drivers/STM32H7xx_HAL_Driver/Src/stm32h7xx_hal_tim_ex.c ****   }
 1199              		.loc 1 530 12
 1200 009e 0123     		movs	r3, #1
 1201 00a0 5CE0     		b	.L44
 1202              	.L53:
 546:Drivers/STM32H7xx_HAL_Driver/Src/stm32h7xx_hal_tim_ex.c ****   {
 547:Drivers/STM32H7xx_HAL_Driver/Src/stm32h7xx_hal_tim_ex.c ****     /* Return error status */
 548:Drivers/STM32H7xx_HAL_Driver/Src/stm32h7xx_hal_tim_ex.c ****     return HAL_ERROR;
 1203              		.loc 1 548 12
 1204 00a2 0123     		movs	r3, #1
 1205 00a4 5AE0     		b	.L44
 1206              	.L48:
 549:Drivers/STM32H7xx_HAL_Driver/Src/stm32h7xx_hal_tim_ex.c ****   }
 550:Drivers/STM32H7xx_HAL_Driver/Src/stm32h7xx_hal_tim_ex.c ****   /* Enable the capture compare 1 Interrupt */
 551:Drivers/STM32H7xx_HAL_Driver/Src/stm32h7xx_hal_tim_ex.c ****   __HAL_TIM_ENABLE_DMA(htim, TIM_DMA_CC1);
 1207              		.loc 1 551 3
 1208 00a6 FB68     		ldr	r3, [r7, #12]
 1209 00a8 1B68     		ldr	r3, [r3]
 1210 00aa DA68     		ldr	r2, [r3, #12]
 1211 00ac FB68     		ldr	r3, [r7, #12]
 1212 00ae 1B68     		ldr	r3, [r3]
 1213 00b0 42F40072 		orr	r2, r2, #512
 1214 00b4 DA60     		str	r2, [r3, #12]
 552:Drivers/STM32H7xx_HAL_Driver/Src/stm32h7xx_hal_tim_ex.c **** 
 553:Drivers/STM32H7xx_HAL_Driver/Src/stm32h7xx_hal_tim_ex.c ****   /* Enable the Peripheral, except in trigger mode where enable is automatically done with trigger 
 554:Drivers/STM32H7xx_HAL_Driver/Src/stm32h7xx_hal_tim_ex.c ****   if (IS_TIM_SLAVE_INSTANCE(htim->Instance))
 1215              		.loc 1 554 7
 1216 00b6 FB68     		ldr	r3, [r7, #12]
 1217 00b8 1B68     		ldr	r3, [r3]
 1218              		.loc 1 554 6
 1219 00ba 2D4A     		ldr	r2, .L55+12
 1220 00bc 9342     		cmp	r3, r2
 1221 00be 2CD0     		beq	.L49
 1222              		.loc 1 554 7 discriminator 1
 1223 00c0 FB68     		ldr	r3, [r7, #12]
 1224 00c2 1B68     		ldr	r3, [r3]
ARM GAS  C:\Users\Su\AppData\Local\Temp\ccm0VnUy.s 			page 32


 1225 00c4 B3F1804F 		cmp	r3, #1073741824
 1226 00c8 27D0     		beq	.L49
 1227              		.loc 1 554 7 is_stmt 0 discriminator 2
 1228 00ca FB68     		ldr	r3, [r7, #12]
 1229 00cc 1B68     		ldr	r3, [r3]
 1230 00ce 294A     		ldr	r2, .L55+16
 1231 00d0 9342     		cmp	r3, r2
 1232 00d2 22D0     		beq	.L49
 1233              		.loc 1 554 7 discriminator 3
 1234 00d4 FB68     		ldr	r3, [r7, #12]
 1235 00d6 1B68     		ldr	r3, [r3]
 1236 00d8 274A     		ldr	r2, .L55+20
 1237 00da 9342     		cmp	r3, r2
 1238 00dc 1DD0     		beq	.L49
 1239              		.loc 1 554 7 discriminator 4
 1240 00de FB68     		ldr	r3, [r7, #12]
 1241 00e0 1B68     		ldr	r3, [r3]
 1242 00e2 264A     		ldr	r2, .L55+24
 1243 00e4 9342     		cmp	r3, r2
 1244 00e6 18D0     		beq	.L49
 1245              		.loc 1 554 7 discriminator 5
 1246 00e8 FB68     		ldr	r3, [r7, #12]
 1247 00ea 1B68     		ldr	r3, [r3]
 1248 00ec 244A     		ldr	r2, .L55+28
 1249 00ee 9342     		cmp	r3, r2
 1250 00f0 13D0     		beq	.L49
 1251              		.loc 1 554 7 discriminator 6
 1252 00f2 FB68     		ldr	r3, [r7, #12]
 1253 00f4 1B68     		ldr	r3, [r3]
 1254 00f6 234A     		ldr	r2, .L55+32
 1255 00f8 9342     		cmp	r3, r2
 1256 00fa 0ED0     		beq	.L49
 1257              		.loc 1 554 7 discriminator 7
 1258 00fc FB68     		ldr	r3, [r7, #12]
 1259 00fe 1B68     		ldr	r3, [r3]
 1260 0100 214A     		ldr	r2, .L55+36
 1261 0102 9342     		cmp	r3, r2
 1262 0104 09D0     		beq	.L49
 1263              		.loc 1 554 7 discriminator 8
 1264 0106 FB68     		ldr	r3, [r7, #12]
 1265 0108 1B68     		ldr	r3, [r3]
 1266 010a 204A     		ldr	r2, .L55+40
 1267 010c 9342     		cmp	r3, r2
 1268 010e 04D0     		beq	.L49
 1269              		.loc 1 554 7 discriminator 9
 1270 0110 FB68     		ldr	r3, [r7, #12]
 1271 0112 1B68     		ldr	r3, [r3]
 1272 0114 1E4A     		ldr	r2, .L55+44
 1273 0116 9342     		cmp	r3, r2
 1274 0118 15D1     		bne	.L50
 1275              	.L49:
 555:Drivers/STM32H7xx_HAL_Driver/Src/stm32h7xx_hal_tim_ex.c ****   {
 556:Drivers/STM32H7xx_HAL_Driver/Src/stm32h7xx_hal_tim_ex.c ****     tmpsmcr = htim->Instance->SMCR & TIM_SMCR_SMS;
 1276              		.loc 1 556 19 is_stmt 1
 1277 011a FB68     		ldr	r3, [r7, #12]
 1278 011c 1B68     		ldr	r3, [r3]
 1279              		.loc 1 556 29
ARM GAS  C:\Users\Su\AppData\Local\Temp\ccm0VnUy.s 			page 33


 1280 011e 9A68     		ldr	r2, [r3, #8]
 1281              		.loc 1 556 13
 1282 0120 1C4B     		ldr	r3, .L55+48
 1283 0122 1340     		ands	r3, r3, r2
 1284 0124 3B61     		str	r3, [r7, #16]
 557:Drivers/STM32H7xx_HAL_Driver/Src/stm32h7xx_hal_tim_ex.c ****     if (!IS_TIM_SLAVEMODE_TRIGGER_ENABLED(tmpsmcr))
 1285              		.loc 1 557 8
 1286 0126 3B69     		ldr	r3, [r7, #16]
 1287 0128 062B     		cmp	r3, #6
 1288 012a 15D0     		beq	.L54
 1289              		.loc 1 557 9 discriminator 1
 1290 012c 3B69     		ldr	r3, [r7, #16]
 1291 012e B3F5803F 		cmp	r3, #65536
 1292 0132 11D0     		beq	.L54
 558:Drivers/STM32H7xx_HAL_Driver/Src/stm32h7xx_hal_tim_ex.c ****     {
 559:Drivers/STM32H7xx_HAL_Driver/Src/stm32h7xx_hal_tim_ex.c ****       __HAL_TIM_ENABLE(htim);
 1293              		.loc 1 559 7
 1294 0134 FB68     		ldr	r3, [r7, #12]
 1295 0136 1B68     		ldr	r3, [r3]
 1296 0138 1A68     		ldr	r2, [r3]
 1297 013a FB68     		ldr	r3, [r7, #12]
 1298 013c 1B68     		ldr	r3, [r3]
 1299 013e 42F00102 		orr	r2, r2, #1
 1300 0142 1A60     		str	r2, [r3]
 557:Drivers/STM32H7xx_HAL_Driver/Src/stm32h7xx_hal_tim_ex.c ****     if (!IS_TIM_SLAVEMODE_TRIGGER_ENABLED(tmpsmcr))
 1301              		.loc 1 557 8
 1302 0144 08E0     		b	.L54
 1303              	.L50:
 560:Drivers/STM32H7xx_HAL_Driver/Src/stm32h7xx_hal_tim_ex.c ****     }
 561:Drivers/STM32H7xx_HAL_Driver/Src/stm32h7xx_hal_tim_ex.c ****   }
 562:Drivers/STM32H7xx_HAL_Driver/Src/stm32h7xx_hal_tim_ex.c ****   else
 563:Drivers/STM32H7xx_HAL_Driver/Src/stm32h7xx_hal_tim_ex.c ****   {
 564:Drivers/STM32H7xx_HAL_Driver/Src/stm32h7xx_hal_tim_ex.c ****     __HAL_TIM_ENABLE(htim);
 1304              		.loc 1 564 5
 1305 0146 FB68     		ldr	r3, [r7, #12]
 1306 0148 1B68     		ldr	r3, [r3]
 1307 014a 1A68     		ldr	r2, [r3]
 1308 014c FB68     		ldr	r3, [r7, #12]
 1309 014e 1B68     		ldr	r3, [r3]
 1310 0150 42F00102 		orr	r2, r2, #1
 1311 0154 1A60     		str	r2, [r3]
 1312 0156 00E0     		b	.L52
 1313              	.L54:
 557:Drivers/STM32H7xx_HAL_Driver/Src/stm32h7xx_hal_tim_ex.c ****     {
 1314              		.loc 1 557 8
 1315 0158 00BF     		nop
 1316              	.L52:
 565:Drivers/STM32H7xx_HAL_Driver/Src/stm32h7xx_hal_tim_ex.c ****   }
 566:Drivers/STM32H7xx_HAL_Driver/Src/stm32h7xx_hal_tim_ex.c **** 
 567:Drivers/STM32H7xx_HAL_Driver/Src/stm32h7xx_hal_tim_ex.c ****   /* Return function status */
 568:Drivers/STM32H7xx_HAL_Driver/Src/stm32h7xx_hal_tim_ex.c ****   return HAL_OK;
 1317              		.loc 1 568 10
 1318 015a 0023     		movs	r3, #0
 1319              	.L44:
 569:Drivers/STM32H7xx_HAL_Driver/Src/stm32h7xx_hal_tim_ex.c **** }
 1320              		.loc 1 569 1
 1321 015c 1846     		mov	r0, r3
ARM GAS  C:\Users\Su\AppData\Local\Temp\ccm0VnUy.s 			page 34


 1322 015e 1837     		adds	r7, r7, #24
 1323              	.LCFI45:
 1324              		.cfi_def_cfa_offset 8
 1325 0160 BD46     		mov	sp, r7
 1326              	.LCFI46:
 1327              		.cfi_def_cfa_register 13
 1328              		@ sp needed
 1329 0162 80BD     		pop	{r7, pc}
 1330              	.L56:
 1331              		.align	2
 1332              	.L55:
 1333 0164 00000000 		.word	TIM_DMACaptureCplt
 1334 0168 00000000 		.word	TIM_DMACaptureHalfCplt
 1335 016c 00000000 		.word	TIM_DMAError
 1336 0170 00000140 		.word	1073807360
 1337 0174 00040040 		.word	1073742848
 1338 0178 00080040 		.word	1073743872
 1339 017c 000C0040 		.word	1073744896
 1340 0180 00040140 		.word	1073808384
 1341 0184 00180040 		.word	1073747968
 1342 0188 00400140 		.word	1073823744
 1343 018c 00E00040 		.word	1073799168
 1344 0190 00E40040 		.word	1073800192
 1345 0194 07000100 		.word	65543
 1346              		.cfi_endproc
 1347              	.LFE152:
 1349              		.section	.text.HAL_TIMEx_HallSensor_Stop_DMA,"ax",%progbits
 1350              		.align	1
 1351              		.global	HAL_TIMEx_HallSensor_Stop_DMA
 1352              		.syntax unified
 1353              		.thumb
 1354              		.thumb_func
 1356              	HAL_TIMEx_HallSensor_Stop_DMA:
 1357              	.LFB153:
 570:Drivers/STM32H7xx_HAL_Driver/Src/stm32h7xx_hal_tim_ex.c **** 
 571:Drivers/STM32H7xx_HAL_Driver/Src/stm32h7xx_hal_tim_ex.c **** /**
 572:Drivers/STM32H7xx_HAL_Driver/Src/stm32h7xx_hal_tim_ex.c ****   * @brief  Stops the TIM Hall Sensor Interface in DMA mode.
 573:Drivers/STM32H7xx_HAL_Driver/Src/stm32h7xx_hal_tim_ex.c ****   * @param  htim TIM Hall Sensor Interface handle
 574:Drivers/STM32H7xx_HAL_Driver/Src/stm32h7xx_hal_tim_ex.c ****   * @retval HAL status
 575:Drivers/STM32H7xx_HAL_Driver/Src/stm32h7xx_hal_tim_ex.c ****   */
 576:Drivers/STM32H7xx_HAL_Driver/Src/stm32h7xx_hal_tim_ex.c **** HAL_StatusTypeDef HAL_TIMEx_HallSensor_Stop_DMA(TIM_HandleTypeDef *htim)
 577:Drivers/STM32H7xx_HAL_Driver/Src/stm32h7xx_hal_tim_ex.c **** {
 1358              		.loc 1 577 1
 1359              		.cfi_startproc
 1360              		@ args = 0, pretend = 0, frame = 8
 1361              		@ frame_needed = 1, uses_anonymous_args = 0
 1362 0000 80B5     		push	{r7, lr}
 1363              	.LCFI47:
 1364              		.cfi_def_cfa_offset 8
 1365              		.cfi_offset 7, -8
 1366              		.cfi_offset 14, -4
 1367 0002 82B0     		sub	sp, sp, #8
 1368              	.LCFI48:
 1369              		.cfi_def_cfa_offset 16
 1370 0004 00AF     		add	r7, sp, #0
 1371              	.LCFI49:
 1372              		.cfi_def_cfa_register 7
ARM GAS  C:\Users\Su\AppData\Local\Temp\ccm0VnUy.s 			page 35


 1373 0006 7860     		str	r0, [r7, #4]
 578:Drivers/STM32H7xx_HAL_Driver/Src/stm32h7xx_hal_tim_ex.c ****   /* Check the parameters */
 579:Drivers/STM32H7xx_HAL_Driver/Src/stm32h7xx_hal_tim_ex.c ****   assert_param(IS_TIM_HALL_SENSOR_INTERFACE_INSTANCE(htim->Instance));
 580:Drivers/STM32H7xx_HAL_Driver/Src/stm32h7xx_hal_tim_ex.c **** 
 581:Drivers/STM32H7xx_HAL_Driver/Src/stm32h7xx_hal_tim_ex.c ****   /* Disable the Input Capture channel 1
 582:Drivers/STM32H7xx_HAL_Driver/Src/stm32h7xx_hal_tim_ex.c ****   (in the Hall Sensor Interface the three possible channels that can be used are TIM_CHANNEL_1,
 583:Drivers/STM32H7xx_HAL_Driver/Src/stm32h7xx_hal_tim_ex.c ****   TIM_CHANNEL_2 and TIM_CHANNEL_3) */
 584:Drivers/STM32H7xx_HAL_Driver/Src/stm32h7xx_hal_tim_ex.c ****   TIM_CCxChannelCmd(htim->Instance, TIM_CHANNEL_1, TIM_CCx_DISABLE);
 1374              		.loc 1 584 3
 1375 0008 7B68     		ldr	r3, [r7, #4]
 1376 000a 1B68     		ldr	r3, [r3]
 1377 000c 0022     		movs	r2, #0
 1378 000e 0021     		movs	r1, #0
 1379 0010 1846     		mov	r0, r3
 1380 0012 FFF7FEFF 		bl	TIM_CCxChannelCmd
 585:Drivers/STM32H7xx_HAL_Driver/Src/stm32h7xx_hal_tim_ex.c **** 
 586:Drivers/STM32H7xx_HAL_Driver/Src/stm32h7xx_hal_tim_ex.c **** 
 587:Drivers/STM32H7xx_HAL_Driver/Src/stm32h7xx_hal_tim_ex.c ****   /* Disable the capture compare Interrupts 1 event */
 588:Drivers/STM32H7xx_HAL_Driver/Src/stm32h7xx_hal_tim_ex.c ****   __HAL_TIM_DISABLE_DMA(htim, TIM_DMA_CC1);
 1381              		.loc 1 588 3
 1382 0016 7B68     		ldr	r3, [r7, #4]
 1383 0018 1B68     		ldr	r3, [r3]
 1384 001a DA68     		ldr	r2, [r3, #12]
 1385 001c 7B68     		ldr	r3, [r7, #4]
 1386 001e 1B68     		ldr	r3, [r3]
 1387 0020 22F40072 		bic	r2, r2, #512
 1388 0024 DA60     		str	r2, [r3, #12]
 589:Drivers/STM32H7xx_HAL_Driver/Src/stm32h7xx_hal_tim_ex.c **** 
 590:Drivers/STM32H7xx_HAL_Driver/Src/stm32h7xx_hal_tim_ex.c ****   (void)HAL_DMA_Abort_IT(htim->hdma[TIM_DMA_ID_CC1]);
 1389              		.loc 1 590 9
 1390 0026 7B68     		ldr	r3, [r7, #4]
 1391 0028 5B6A     		ldr	r3, [r3, #36]
 1392 002a 1846     		mov	r0, r3
 1393 002c FFF7FEFF 		bl	HAL_DMA_Abort_IT
 591:Drivers/STM32H7xx_HAL_Driver/Src/stm32h7xx_hal_tim_ex.c **** 
 592:Drivers/STM32H7xx_HAL_Driver/Src/stm32h7xx_hal_tim_ex.c ****   /* Disable the Peripheral */
 593:Drivers/STM32H7xx_HAL_Driver/Src/stm32h7xx_hal_tim_ex.c ****   __HAL_TIM_DISABLE(htim);
 1394              		.loc 1 593 3
 1395 0030 7B68     		ldr	r3, [r7, #4]
 1396 0032 1B68     		ldr	r3, [r3]
 1397 0034 1A6A     		ldr	r2, [r3, #32]
 1398 0036 41F21113 		movw	r3, #4369
 1399 003a 1340     		ands	r3, r3, r2
 1400 003c 002B     		cmp	r3, #0
 1401 003e 0FD1     		bne	.L58
 1402              		.loc 1 593 3 is_stmt 0 discriminator 1
 1403 0040 7B68     		ldr	r3, [r7, #4]
 1404 0042 1B68     		ldr	r3, [r3]
 1405 0044 1A6A     		ldr	r2, [r3, #32]
 1406 0046 40F24443 		movw	r3, #1092
 1407 004a 1340     		ands	r3, r3, r2
 1408 004c 002B     		cmp	r3, #0
 1409 004e 07D1     		bne	.L58
 1410              		.loc 1 593 3 discriminator 2
 1411 0050 7B68     		ldr	r3, [r7, #4]
 1412 0052 1B68     		ldr	r3, [r3]
 1413 0054 1A68     		ldr	r2, [r3]
ARM GAS  C:\Users\Su\AppData\Local\Temp\ccm0VnUy.s 			page 36


 1414 0056 7B68     		ldr	r3, [r7, #4]
 1415 0058 1B68     		ldr	r3, [r3]
 1416 005a 22F00102 		bic	r2, r2, #1
 1417 005e 1A60     		str	r2, [r3]
 1418              	.L58:
 594:Drivers/STM32H7xx_HAL_Driver/Src/stm32h7xx_hal_tim_ex.c **** 
 595:Drivers/STM32H7xx_HAL_Driver/Src/stm32h7xx_hal_tim_ex.c ****   /* Set the TIM channel state */
 596:Drivers/STM32H7xx_HAL_Driver/Src/stm32h7xx_hal_tim_ex.c ****   TIM_CHANNEL_STATE_SET(htim, TIM_CHANNEL_1, HAL_TIM_CHANNEL_STATE_READY);
 1419              		.loc 1 596 3 is_stmt 1
 1420 0060 7B68     		ldr	r3, [r7, #4]
 1421 0062 0122     		movs	r2, #1
 1422 0064 83F83E20 		strb	r2, [r3, #62]
 597:Drivers/STM32H7xx_HAL_Driver/Src/stm32h7xx_hal_tim_ex.c ****   TIM_CHANNEL_N_STATE_SET(htim, TIM_CHANNEL_1, HAL_TIM_CHANNEL_STATE_READY);
 1423              		.loc 1 597 3
 1424 0068 7B68     		ldr	r3, [r7, #4]
 1425 006a 0122     		movs	r2, #1
 1426 006c 83F84420 		strb	r2, [r3, #68]
 598:Drivers/STM32H7xx_HAL_Driver/Src/stm32h7xx_hal_tim_ex.c **** 
 599:Drivers/STM32H7xx_HAL_Driver/Src/stm32h7xx_hal_tim_ex.c ****   /* Return function status */
 600:Drivers/STM32H7xx_HAL_Driver/Src/stm32h7xx_hal_tim_ex.c ****   return HAL_OK;
 1427              		.loc 1 600 10
 1428 0070 0023     		movs	r3, #0
 601:Drivers/STM32H7xx_HAL_Driver/Src/stm32h7xx_hal_tim_ex.c **** }
 1429              		.loc 1 601 1
 1430 0072 1846     		mov	r0, r3
 1431 0074 0837     		adds	r7, r7, #8
 1432              	.LCFI50:
 1433              		.cfi_def_cfa_offset 8
 1434 0076 BD46     		mov	sp, r7
 1435              	.LCFI51:
 1436              		.cfi_def_cfa_register 13
 1437              		@ sp needed
 1438 0078 80BD     		pop	{r7, pc}
 1439              		.cfi_endproc
 1440              	.LFE153:
 1442              		.section	.text.HAL_TIMEx_OCN_Start,"ax",%progbits
 1443              		.align	1
 1444              		.global	HAL_TIMEx_OCN_Start
 1445              		.syntax unified
 1446              		.thumb
 1447              		.thumb_func
 1449              	HAL_TIMEx_OCN_Start:
 1450              	.LFB154:
 602:Drivers/STM32H7xx_HAL_Driver/Src/stm32h7xx_hal_tim_ex.c **** 
 603:Drivers/STM32H7xx_HAL_Driver/Src/stm32h7xx_hal_tim_ex.c **** /**
 604:Drivers/STM32H7xx_HAL_Driver/Src/stm32h7xx_hal_tim_ex.c ****   * @}
 605:Drivers/STM32H7xx_HAL_Driver/Src/stm32h7xx_hal_tim_ex.c ****   */
 606:Drivers/STM32H7xx_HAL_Driver/Src/stm32h7xx_hal_tim_ex.c **** 
 607:Drivers/STM32H7xx_HAL_Driver/Src/stm32h7xx_hal_tim_ex.c **** /** @defgroup TIMEx_Exported_Functions_Group2 Extended Timer Complementary Output Compare functions
 608:Drivers/STM32H7xx_HAL_Driver/Src/stm32h7xx_hal_tim_ex.c ****   *  @brief   Timer Complementary Output Compare functions
 609:Drivers/STM32H7xx_HAL_Driver/Src/stm32h7xx_hal_tim_ex.c ****   *
 610:Drivers/STM32H7xx_HAL_Driver/Src/stm32h7xx_hal_tim_ex.c **** @verbatim
 611:Drivers/STM32H7xx_HAL_Driver/Src/stm32h7xx_hal_tim_ex.c ****   ==============================================================================
 612:Drivers/STM32H7xx_HAL_Driver/Src/stm32h7xx_hal_tim_ex.c ****               ##### Timer Complementary Output Compare functions #####
 613:Drivers/STM32H7xx_HAL_Driver/Src/stm32h7xx_hal_tim_ex.c ****   ==============================================================================
 614:Drivers/STM32H7xx_HAL_Driver/Src/stm32h7xx_hal_tim_ex.c ****   [..]
 615:Drivers/STM32H7xx_HAL_Driver/Src/stm32h7xx_hal_tim_ex.c ****     This section provides functions allowing to:
ARM GAS  C:\Users\Su\AppData\Local\Temp\ccm0VnUy.s 			page 37


 616:Drivers/STM32H7xx_HAL_Driver/Src/stm32h7xx_hal_tim_ex.c ****     (+) Start the Complementary Output Compare/PWM.
 617:Drivers/STM32H7xx_HAL_Driver/Src/stm32h7xx_hal_tim_ex.c ****     (+) Stop the Complementary Output Compare/PWM.
 618:Drivers/STM32H7xx_HAL_Driver/Src/stm32h7xx_hal_tim_ex.c ****     (+) Start the Complementary Output Compare/PWM and enable interrupts.
 619:Drivers/STM32H7xx_HAL_Driver/Src/stm32h7xx_hal_tim_ex.c ****     (+) Stop the Complementary Output Compare/PWM and disable interrupts.
 620:Drivers/STM32H7xx_HAL_Driver/Src/stm32h7xx_hal_tim_ex.c ****     (+) Start the Complementary Output Compare/PWM and enable DMA transfers.
 621:Drivers/STM32H7xx_HAL_Driver/Src/stm32h7xx_hal_tim_ex.c ****     (+) Stop the Complementary Output Compare/PWM and disable DMA transfers.
 622:Drivers/STM32H7xx_HAL_Driver/Src/stm32h7xx_hal_tim_ex.c **** 
 623:Drivers/STM32H7xx_HAL_Driver/Src/stm32h7xx_hal_tim_ex.c **** @endverbatim
 624:Drivers/STM32H7xx_HAL_Driver/Src/stm32h7xx_hal_tim_ex.c ****   * @{
 625:Drivers/STM32H7xx_HAL_Driver/Src/stm32h7xx_hal_tim_ex.c ****   */
 626:Drivers/STM32H7xx_HAL_Driver/Src/stm32h7xx_hal_tim_ex.c **** 
 627:Drivers/STM32H7xx_HAL_Driver/Src/stm32h7xx_hal_tim_ex.c **** /**
 628:Drivers/STM32H7xx_HAL_Driver/Src/stm32h7xx_hal_tim_ex.c ****   * @brief  Starts the TIM Output Compare signal generation on the complementary
 629:Drivers/STM32H7xx_HAL_Driver/Src/stm32h7xx_hal_tim_ex.c ****   *         output.
 630:Drivers/STM32H7xx_HAL_Driver/Src/stm32h7xx_hal_tim_ex.c ****   * @param  htim TIM Output Compare handle
 631:Drivers/STM32H7xx_HAL_Driver/Src/stm32h7xx_hal_tim_ex.c ****   * @param  Channel TIM Channel to be enabled
 632:Drivers/STM32H7xx_HAL_Driver/Src/stm32h7xx_hal_tim_ex.c ****   *          This parameter can be one of the following values:
 633:Drivers/STM32H7xx_HAL_Driver/Src/stm32h7xx_hal_tim_ex.c ****   *            @arg TIM_CHANNEL_1: TIM Channel 1 selected
 634:Drivers/STM32H7xx_HAL_Driver/Src/stm32h7xx_hal_tim_ex.c ****   *            @arg TIM_CHANNEL_2: TIM Channel 2 selected
 635:Drivers/STM32H7xx_HAL_Driver/Src/stm32h7xx_hal_tim_ex.c ****   *            @arg TIM_CHANNEL_3: TIM Channel 3 selected
 636:Drivers/STM32H7xx_HAL_Driver/Src/stm32h7xx_hal_tim_ex.c ****   * @retval HAL status
 637:Drivers/STM32H7xx_HAL_Driver/Src/stm32h7xx_hal_tim_ex.c ****   */
 638:Drivers/STM32H7xx_HAL_Driver/Src/stm32h7xx_hal_tim_ex.c **** HAL_StatusTypeDef HAL_TIMEx_OCN_Start(TIM_HandleTypeDef *htim, uint32_t Channel)
 639:Drivers/STM32H7xx_HAL_Driver/Src/stm32h7xx_hal_tim_ex.c **** {
 1451              		.loc 1 639 1
 1452              		.cfi_startproc
 1453              		@ args = 0, pretend = 0, frame = 16
 1454              		@ frame_needed = 1, uses_anonymous_args = 0
 1455 0000 80B5     		push	{r7, lr}
 1456              	.LCFI52:
 1457              		.cfi_def_cfa_offset 8
 1458              		.cfi_offset 7, -8
 1459              		.cfi_offset 14, -4
 1460 0002 84B0     		sub	sp, sp, #16
 1461              	.LCFI53:
 1462              		.cfi_def_cfa_offset 24
 1463 0004 00AF     		add	r7, sp, #0
 1464              	.LCFI54:
 1465              		.cfi_def_cfa_register 7
 1466 0006 7860     		str	r0, [r7, #4]
 1467 0008 3960     		str	r1, [r7]
 640:Drivers/STM32H7xx_HAL_Driver/Src/stm32h7xx_hal_tim_ex.c ****   uint32_t tmpsmcr;
 641:Drivers/STM32H7xx_HAL_Driver/Src/stm32h7xx_hal_tim_ex.c **** 
 642:Drivers/STM32H7xx_HAL_Driver/Src/stm32h7xx_hal_tim_ex.c ****   /* Check the parameters */
 643:Drivers/STM32H7xx_HAL_Driver/Src/stm32h7xx_hal_tim_ex.c ****   assert_param(IS_TIM_CCXN_INSTANCE(htim->Instance, Channel));
 644:Drivers/STM32H7xx_HAL_Driver/Src/stm32h7xx_hal_tim_ex.c **** 
 645:Drivers/STM32H7xx_HAL_Driver/Src/stm32h7xx_hal_tim_ex.c ****   /* Check the TIM complementary channel state */
 646:Drivers/STM32H7xx_HAL_Driver/Src/stm32h7xx_hal_tim_ex.c ****   if (TIM_CHANNEL_N_STATE_GET(htim, Channel) != HAL_TIM_CHANNEL_STATE_READY)
 1468              		.loc 1 646 46
 1469 000a 3B68     		ldr	r3, [r7]
 1470 000c 002B     		cmp	r3, #0
 1471 000e 09D1     		bne	.L61
 1472              		.loc 1 646 7 discriminator 1
 1473 0010 7B68     		ldr	r3, [r7, #4]
 1474 0012 93F84430 		ldrb	r3, [r3, #68]
 1475 0016 DBB2     		uxtb	r3, r3
 1476              		.loc 1 646 46 discriminator 1
ARM GAS  C:\Users\Su\AppData\Local\Temp\ccm0VnUy.s 			page 38


 1477 0018 012B     		cmp	r3, #1
 1478 001a 14BF     		ite	ne
 1479 001c 0123     		movne	r3, #1
 1480 001e 0023     		moveq	r3, #0
 1481 0020 DBB2     		uxtb	r3, r3
 1482 0022 22E0     		b	.L62
 1483              	.L61:
 1484              		.loc 1 646 46 is_stmt 0 discriminator 2
 1485 0024 3B68     		ldr	r3, [r7]
 1486 0026 042B     		cmp	r3, #4
 1487 0028 09D1     		bne	.L63
 1488              		.loc 1 646 7 is_stmt 1 discriminator 4
 1489 002a 7B68     		ldr	r3, [r7, #4]
 1490 002c 93F84530 		ldrb	r3, [r3, #69]
 1491 0030 DBB2     		uxtb	r3, r3
 1492              		.loc 1 646 46 discriminator 4
 1493 0032 012B     		cmp	r3, #1
 1494 0034 14BF     		ite	ne
 1495 0036 0123     		movne	r3, #1
 1496 0038 0023     		moveq	r3, #0
 1497 003a DBB2     		uxtb	r3, r3
 1498 003c 15E0     		b	.L62
 1499              	.L63:
 1500              		.loc 1 646 46 is_stmt 0 discriminator 5
 1501 003e 3B68     		ldr	r3, [r7]
 1502 0040 082B     		cmp	r3, #8
 1503 0042 09D1     		bne	.L65
 1504              		.loc 1 646 7 is_stmt 1 discriminator 7
 1505 0044 7B68     		ldr	r3, [r7, #4]
 1506 0046 93F84630 		ldrb	r3, [r3, #70]
 1507 004a DBB2     		uxtb	r3, r3
 1508              		.loc 1 646 46 discriminator 7
 1509 004c 012B     		cmp	r3, #1
 1510 004e 14BF     		ite	ne
 1511 0050 0123     		movne	r3, #1
 1512 0052 0023     		moveq	r3, #0
 1513 0054 DBB2     		uxtb	r3, r3
 1514 0056 08E0     		b	.L62
 1515              	.L65:
 1516              		.loc 1 646 7 discriminator 8
 1517 0058 7B68     		ldr	r3, [r7, #4]
 1518 005a 93F84730 		ldrb	r3, [r3, #71]
 1519 005e DBB2     		uxtb	r3, r3
 1520              		.loc 1 646 46 discriminator 8
 1521 0060 012B     		cmp	r3, #1
 1522 0062 14BF     		ite	ne
 1523 0064 0123     		movne	r3, #1
 1524 0066 0023     		moveq	r3, #0
 1525 0068 DBB2     		uxtb	r3, r3
 1526              	.L62:
 1527              		.loc 1 646 6 discriminator 12
 1528 006a 002B     		cmp	r3, #0
 1529 006c 01D0     		beq	.L67
 647:Drivers/STM32H7xx_HAL_Driver/Src/stm32h7xx_hal_tim_ex.c ****   {
 648:Drivers/STM32H7xx_HAL_Driver/Src/stm32h7xx_hal_tim_ex.c ****     return HAL_ERROR;
 1530              		.loc 1 648 12
 1531 006e 0123     		movs	r3, #1
ARM GAS  C:\Users\Su\AppData\Local\Temp\ccm0VnUy.s 			page 39


 1532 0070 7DE0     		b	.L68
 1533              	.L67:
 649:Drivers/STM32H7xx_HAL_Driver/Src/stm32h7xx_hal_tim_ex.c ****   }
 650:Drivers/STM32H7xx_HAL_Driver/Src/stm32h7xx_hal_tim_ex.c **** 
 651:Drivers/STM32H7xx_HAL_Driver/Src/stm32h7xx_hal_tim_ex.c ****   /* Set the TIM complementary channel state */
 652:Drivers/STM32H7xx_HAL_Driver/Src/stm32h7xx_hal_tim_ex.c ****   TIM_CHANNEL_N_STATE_SET(htim, Channel, HAL_TIM_CHANNEL_STATE_BUSY);
 1534              		.loc 1 652 3
 1535 0072 3B68     		ldr	r3, [r7]
 1536 0074 002B     		cmp	r3, #0
 1537 0076 04D1     		bne	.L69
 1538              		.loc 1 652 3 is_stmt 0 discriminator 1
 1539 0078 7B68     		ldr	r3, [r7, #4]
 1540 007a 0222     		movs	r2, #2
 1541 007c 83F84420 		strb	r2, [r3, #68]
 1542 0080 13E0     		b	.L70
 1543              	.L69:
 1544              		.loc 1 652 3 discriminator 2
 1545 0082 3B68     		ldr	r3, [r7]
 1546 0084 042B     		cmp	r3, #4
 1547 0086 04D1     		bne	.L71
 1548              		.loc 1 652 3 discriminator 3
 1549 0088 7B68     		ldr	r3, [r7, #4]
 1550 008a 0222     		movs	r2, #2
 1551 008c 83F84520 		strb	r2, [r3, #69]
 1552 0090 0BE0     		b	.L70
 1553              	.L71:
 1554              		.loc 1 652 3 discriminator 4
 1555 0092 3B68     		ldr	r3, [r7]
 1556 0094 082B     		cmp	r3, #8
 1557 0096 04D1     		bne	.L73
 1558              		.loc 1 652 3 discriminator 6
 1559 0098 7B68     		ldr	r3, [r7, #4]
 1560 009a 0222     		movs	r2, #2
 1561 009c 83F84620 		strb	r2, [r3, #70]
 1562 00a0 03E0     		b	.L70
 1563              	.L73:
 1564              		.loc 1 652 3 discriminator 7
 1565 00a2 7B68     		ldr	r3, [r7, #4]
 1566 00a4 0222     		movs	r2, #2
 1567 00a6 83F84720 		strb	r2, [r3, #71]
 1568              	.L70:
 653:Drivers/STM32H7xx_HAL_Driver/Src/stm32h7xx_hal_tim_ex.c **** 
 654:Drivers/STM32H7xx_HAL_Driver/Src/stm32h7xx_hal_tim_ex.c ****   /* Enable the Capture compare channel N */
 655:Drivers/STM32H7xx_HAL_Driver/Src/stm32h7xx_hal_tim_ex.c ****   TIM_CCxNChannelCmd(htim->Instance, Channel, TIM_CCxN_ENABLE);
 1569              		.loc 1 655 3 is_stmt 1
 1570 00aa 7B68     		ldr	r3, [r7, #4]
 1571 00ac 1B68     		ldr	r3, [r3]
 1572 00ae 0422     		movs	r2, #4
 1573 00b0 3968     		ldr	r1, [r7]
 1574 00b2 1846     		mov	r0, r3
 1575 00b4 FFF7FEFF 		bl	TIM_CCxNChannelCmd
 656:Drivers/STM32H7xx_HAL_Driver/Src/stm32h7xx_hal_tim_ex.c **** 
 657:Drivers/STM32H7xx_HAL_Driver/Src/stm32h7xx_hal_tim_ex.c ****   /* Enable the Main Output */
 658:Drivers/STM32H7xx_HAL_Driver/Src/stm32h7xx_hal_tim_ex.c ****   __HAL_TIM_MOE_ENABLE(htim);
 1576              		.loc 1 658 3
 1577 00b8 7B68     		ldr	r3, [r7, #4]
 1578 00ba 1B68     		ldr	r3, [r3]
ARM GAS  C:\Users\Su\AppData\Local\Temp\ccm0VnUy.s 			page 40


 1579 00bc 5A6C     		ldr	r2, [r3, #68]
 1580 00be 7B68     		ldr	r3, [r7, #4]
 1581 00c0 1B68     		ldr	r3, [r3]
 1582 00c2 42F40042 		orr	r2, r2, #32768
 1583 00c6 5A64     		str	r2, [r3, #68]
 659:Drivers/STM32H7xx_HAL_Driver/Src/stm32h7xx_hal_tim_ex.c **** 
 660:Drivers/STM32H7xx_HAL_Driver/Src/stm32h7xx_hal_tim_ex.c ****   /* Enable the Peripheral, except in trigger mode where enable is automatically done with trigger 
 661:Drivers/STM32H7xx_HAL_Driver/Src/stm32h7xx_hal_tim_ex.c ****   if (IS_TIM_SLAVE_INSTANCE(htim->Instance))
 1584              		.loc 1 661 7
 1585 00c8 7B68     		ldr	r3, [r7, #4]
 1586 00ca 1B68     		ldr	r3, [r3]
 1587              		.loc 1 661 6
 1588 00cc 2A4A     		ldr	r2, .L80
 1589 00ce 9342     		cmp	r3, r2
 1590 00d0 2CD0     		beq	.L75
 1591              		.loc 1 661 7 discriminator 1
 1592 00d2 7B68     		ldr	r3, [r7, #4]
 1593 00d4 1B68     		ldr	r3, [r3]
 1594 00d6 B3F1804F 		cmp	r3, #1073741824
 1595 00da 27D0     		beq	.L75
 1596              		.loc 1 661 7 is_stmt 0 discriminator 2
 1597 00dc 7B68     		ldr	r3, [r7, #4]
 1598 00de 1B68     		ldr	r3, [r3]
 1599 00e0 264A     		ldr	r2, .L80+4
 1600 00e2 9342     		cmp	r3, r2
 1601 00e4 22D0     		beq	.L75
 1602              		.loc 1 661 7 discriminator 3
 1603 00e6 7B68     		ldr	r3, [r7, #4]
 1604 00e8 1B68     		ldr	r3, [r3]
 1605 00ea 254A     		ldr	r2, .L80+8
 1606 00ec 9342     		cmp	r3, r2
 1607 00ee 1DD0     		beq	.L75
 1608              		.loc 1 661 7 discriminator 4
 1609 00f0 7B68     		ldr	r3, [r7, #4]
 1610 00f2 1B68     		ldr	r3, [r3]
 1611 00f4 234A     		ldr	r2, .L80+12
 1612 00f6 9342     		cmp	r3, r2
 1613 00f8 18D0     		beq	.L75
 1614              		.loc 1 661 7 discriminator 5
 1615 00fa 7B68     		ldr	r3, [r7, #4]
 1616 00fc 1B68     		ldr	r3, [r3]
 1617 00fe 224A     		ldr	r2, .L80+16
 1618 0100 9342     		cmp	r3, r2
 1619 0102 13D0     		beq	.L75
 1620              		.loc 1 661 7 discriminator 6
 1621 0104 7B68     		ldr	r3, [r7, #4]
 1622 0106 1B68     		ldr	r3, [r3]
 1623 0108 204A     		ldr	r2, .L80+20
 1624 010a 9342     		cmp	r3, r2
 1625 010c 0ED0     		beq	.L75
 1626              		.loc 1 661 7 discriminator 7
 1627 010e 7B68     		ldr	r3, [r7, #4]
 1628 0110 1B68     		ldr	r3, [r3]
 1629 0112 1F4A     		ldr	r2, .L80+24
 1630 0114 9342     		cmp	r3, r2
 1631 0116 09D0     		beq	.L75
 1632              		.loc 1 661 7 discriminator 8
ARM GAS  C:\Users\Su\AppData\Local\Temp\ccm0VnUy.s 			page 41


 1633 0118 7B68     		ldr	r3, [r7, #4]
 1634 011a 1B68     		ldr	r3, [r3]
 1635 011c 1D4A     		ldr	r2, .L80+28
 1636 011e 9342     		cmp	r3, r2
 1637 0120 04D0     		beq	.L75
 1638              		.loc 1 661 7 discriminator 9
 1639 0122 7B68     		ldr	r3, [r7, #4]
 1640 0124 1B68     		ldr	r3, [r3]
 1641 0126 1C4A     		ldr	r2, .L80+32
 1642 0128 9342     		cmp	r3, r2
 1643 012a 15D1     		bne	.L76
 1644              	.L75:
 662:Drivers/STM32H7xx_HAL_Driver/Src/stm32h7xx_hal_tim_ex.c ****   {
 663:Drivers/STM32H7xx_HAL_Driver/Src/stm32h7xx_hal_tim_ex.c ****     tmpsmcr = htim->Instance->SMCR & TIM_SMCR_SMS;
 1645              		.loc 1 663 19 is_stmt 1
 1646 012c 7B68     		ldr	r3, [r7, #4]
 1647 012e 1B68     		ldr	r3, [r3]
 1648              		.loc 1 663 29
 1649 0130 9A68     		ldr	r2, [r3, #8]
 1650              		.loc 1 663 13
 1651 0132 1A4B     		ldr	r3, .L80+36
 1652 0134 1340     		ands	r3, r3, r2
 1653 0136 FB60     		str	r3, [r7, #12]
 664:Drivers/STM32H7xx_HAL_Driver/Src/stm32h7xx_hal_tim_ex.c ****     if (!IS_TIM_SLAVEMODE_TRIGGER_ENABLED(tmpsmcr))
 1654              		.loc 1 664 8
 1655 0138 FB68     		ldr	r3, [r7, #12]
 1656 013a 062B     		cmp	r3, #6
 1657 013c 15D0     		beq	.L79
 1658              		.loc 1 664 9 discriminator 1
 1659 013e FB68     		ldr	r3, [r7, #12]
 1660 0140 B3F5803F 		cmp	r3, #65536
 1661 0144 11D0     		beq	.L79
 665:Drivers/STM32H7xx_HAL_Driver/Src/stm32h7xx_hal_tim_ex.c ****     {
 666:Drivers/STM32H7xx_HAL_Driver/Src/stm32h7xx_hal_tim_ex.c ****       __HAL_TIM_ENABLE(htim);
 1662              		.loc 1 666 7
 1663 0146 7B68     		ldr	r3, [r7, #4]
 1664 0148 1B68     		ldr	r3, [r3]
 1665 014a 1A68     		ldr	r2, [r3]
 1666 014c 7B68     		ldr	r3, [r7, #4]
 1667 014e 1B68     		ldr	r3, [r3]
 1668 0150 42F00102 		orr	r2, r2, #1
 1669 0154 1A60     		str	r2, [r3]
 664:Drivers/STM32H7xx_HAL_Driver/Src/stm32h7xx_hal_tim_ex.c ****     if (!IS_TIM_SLAVEMODE_TRIGGER_ENABLED(tmpsmcr))
 1670              		.loc 1 664 8
 1671 0156 08E0     		b	.L79
 1672              	.L76:
 667:Drivers/STM32H7xx_HAL_Driver/Src/stm32h7xx_hal_tim_ex.c ****     }
 668:Drivers/STM32H7xx_HAL_Driver/Src/stm32h7xx_hal_tim_ex.c ****   }
 669:Drivers/STM32H7xx_HAL_Driver/Src/stm32h7xx_hal_tim_ex.c ****   else
 670:Drivers/STM32H7xx_HAL_Driver/Src/stm32h7xx_hal_tim_ex.c ****   {
 671:Drivers/STM32H7xx_HAL_Driver/Src/stm32h7xx_hal_tim_ex.c ****     __HAL_TIM_ENABLE(htim);
 1673              		.loc 1 671 5
 1674 0158 7B68     		ldr	r3, [r7, #4]
 1675 015a 1B68     		ldr	r3, [r3]
 1676 015c 1A68     		ldr	r2, [r3]
 1677 015e 7B68     		ldr	r3, [r7, #4]
 1678 0160 1B68     		ldr	r3, [r3]
ARM GAS  C:\Users\Su\AppData\Local\Temp\ccm0VnUy.s 			page 42


 1679 0162 42F00102 		orr	r2, r2, #1
 1680 0166 1A60     		str	r2, [r3]
 1681 0168 00E0     		b	.L78
 1682              	.L79:
 664:Drivers/STM32H7xx_HAL_Driver/Src/stm32h7xx_hal_tim_ex.c ****     {
 1683              		.loc 1 664 8
 1684 016a 00BF     		nop
 1685              	.L78:
 672:Drivers/STM32H7xx_HAL_Driver/Src/stm32h7xx_hal_tim_ex.c ****   }
 673:Drivers/STM32H7xx_HAL_Driver/Src/stm32h7xx_hal_tim_ex.c **** 
 674:Drivers/STM32H7xx_HAL_Driver/Src/stm32h7xx_hal_tim_ex.c ****   /* Return function status */
 675:Drivers/STM32H7xx_HAL_Driver/Src/stm32h7xx_hal_tim_ex.c ****   return HAL_OK;
 1686              		.loc 1 675 10
 1687 016c 0023     		movs	r3, #0
 1688              	.L68:
 676:Drivers/STM32H7xx_HAL_Driver/Src/stm32h7xx_hal_tim_ex.c **** }
 1689              		.loc 1 676 1
 1690 016e 1846     		mov	r0, r3
 1691 0170 1037     		adds	r7, r7, #16
 1692              	.LCFI55:
 1693              		.cfi_def_cfa_offset 8
 1694 0172 BD46     		mov	sp, r7
 1695              	.LCFI56:
 1696              		.cfi_def_cfa_register 13
 1697              		@ sp needed
 1698 0174 80BD     		pop	{r7, pc}
 1699              	.L81:
 1700 0176 00BF     		.align	2
 1701              	.L80:
 1702 0178 00000140 		.word	1073807360
 1703 017c 00040040 		.word	1073742848
 1704 0180 00080040 		.word	1073743872
 1705 0184 000C0040 		.word	1073744896
 1706 0188 00040140 		.word	1073808384
 1707 018c 00180040 		.word	1073747968
 1708 0190 00400140 		.word	1073823744
 1709 0194 00E00040 		.word	1073799168
 1710 0198 00E40040 		.word	1073800192
 1711 019c 07000100 		.word	65543
 1712              		.cfi_endproc
 1713              	.LFE154:
 1715              		.section	.text.HAL_TIMEx_OCN_Stop,"ax",%progbits
 1716              		.align	1
 1717              		.global	HAL_TIMEx_OCN_Stop
 1718              		.syntax unified
 1719              		.thumb
 1720              		.thumb_func
 1722              	HAL_TIMEx_OCN_Stop:
 1723              	.LFB155:
 677:Drivers/STM32H7xx_HAL_Driver/Src/stm32h7xx_hal_tim_ex.c **** 
 678:Drivers/STM32H7xx_HAL_Driver/Src/stm32h7xx_hal_tim_ex.c **** /**
 679:Drivers/STM32H7xx_HAL_Driver/Src/stm32h7xx_hal_tim_ex.c ****   * @brief  Stops the TIM Output Compare signal generation on the complementary
 680:Drivers/STM32H7xx_HAL_Driver/Src/stm32h7xx_hal_tim_ex.c ****   *         output.
 681:Drivers/STM32H7xx_HAL_Driver/Src/stm32h7xx_hal_tim_ex.c ****   * @param  htim TIM handle
 682:Drivers/STM32H7xx_HAL_Driver/Src/stm32h7xx_hal_tim_ex.c ****   * @param  Channel TIM Channel to be disabled
 683:Drivers/STM32H7xx_HAL_Driver/Src/stm32h7xx_hal_tim_ex.c ****   *          This parameter can be one of the following values:
 684:Drivers/STM32H7xx_HAL_Driver/Src/stm32h7xx_hal_tim_ex.c ****   *            @arg TIM_CHANNEL_1: TIM Channel 1 selected
ARM GAS  C:\Users\Su\AppData\Local\Temp\ccm0VnUy.s 			page 43


 685:Drivers/STM32H7xx_HAL_Driver/Src/stm32h7xx_hal_tim_ex.c ****   *            @arg TIM_CHANNEL_2: TIM Channel 2 selected
 686:Drivers/STM32H7xx_HAL_Driver/Src/stm32h7xx_hal_tim_ex.c ****   *            @arg TIM_CHANNEL_3: TIM Channel 3 selected
 687:Drivers/STM32H7xx_HAL_Driver/Src/stm32h7xx_hal_tim_ex.c ****   * @retval HAL status
 688:Drivers/STM32H7xx_HAL_Driver/Src/stm32h7xx_hal_tim_ex.c ****   */
 689:Drivers/STM32H7xx_HAL_Driver/Src/stm32h7xx_hal_tim_ex.c **** HAL_StatusTypeDef HAL_TIMEx_OCN_Stop(TIM_HandleTypeDef *htim, uint32_t Channel)
 690:Drivers/STM32H7xx_HAL_Driver/Src/stm32h7xx_hal_tim_ex.c **** {
 1724              		.loc 1 690 1
 1725              		.cfi_startproc
 1726              		@ args = 0, pretend = 0, frame = 8
 1727              		@ frame_needed = 1, uses_anonymous_args = 0
 1728 0000 80B5     		push	{r7, lr}
 1729              	.LCFI57:
 1730              		.cfi_def_cfa_offset 8
 1731              		.cfi_offset 7, -8
 1732              		.cfi_offset 14, -4
 1733 0002 82B0     		sub	sp, sp, #8
 1734              	.LCFI58:
 1735              		.cfi_def_cfa_offset 16
 1736 0004 00AF     		add	r7, sp, #0
 1737              	.LCFI59:
 1738              		.cfi_def_cfa_register 7
 1739 0006 7860     		str	r0, [r7, #4]
 1740 0008 3960     		str	r1, [r7]
 691:Drivers/STM32H7xx_HAL_Driver/Src/stm32h7xx_hal_tim_ex.c ****   /* Check the parameters */
 692:Drivers/STM32H7xx_HAL_Driver/Src/stm32h7xx_hal_tim_ex.c ****   assert_param(IS_TIM_CCXN_INSTANCE(htim->Instance, Channel));
 693:Drivers/STM32H7xx_HAL_Driver/Src/stm32h7xx_hal_tim_ex.c **** 
 694:Drivers/STM32H7xx_HAL_Driver/Src/stm32h7xx_hal_tim_ex.c ****   /* Disable the Capture compare channel N */
 695:Drivers/STM32H7xx_HAL_Driver/Src/stm32h7xx_hal_tim_ex.c ****   TIM_CCxNChannelCmd(htim->Instance, Channel, TIM_CCxN_DISABLE);
 1741              		.loc 1 695 3
 1742 000a 7B68     		ldr	r3, [r7, #4]
 1743 000c 1B68     		ldr	r3, [r3]
 1744 000e 0022     		movs	r2, #0
 1745 0010 3968     		ldr	r1, [r7]
 1746 0012 1846     		mov	r0, r3
 1747 0014 FFF7FEFF 		bl	TIM_CCxNChannelCmd
 696:Drivers/STM32H7xx_HAL_Driver/Src/stm32h7xx_hal_tim_ex.c **** 
 697:Drivers/STM32H7xx_HAL_Driver/Src/stm32h7xx_hal_tim_ex.c ****   /* Disable the Main Output */
 698:Drivers/STM32H7xx_HAL_Driver/Src/stm32h7xx_hal_tim_ex.c ****   __HAL_TIM_MOE_DISABLE(htim);
 1748              		.loc 1 698 3
 1749 0018 7B68     		ldr	r3, [r7, #4]
 1750 001a 1B68     		ldr	r3, [r3]
 1751 001c 1A6A     		ldr	r2, [r3, #32]
 1752 001e 41F21113 		movw	r3, #4369
 1753 0022 1340     		ands	r3, r3, r2
 1754 0024 002B     		cmp	r3, #0
 1755 0026 0FD1     		bne	.L83
 1756              		.loc 1 698 3 is_stmt 0 discriminator 1
 1757 0028 7B68     		ldr	r3, [r7, #4]
 1758 002a 1B68     		ldr	r3, [r3]
 1759 002c 1A6A     		ldr	r2, [r3, #32]
 1760 002e 40F24443 		movw	r3, #1092
 1761 0032 1340     		ands	r3, r3, r2
 1762 0034 002B     		cmp	r3, #0
 1763 0036 07D1     		bne	.L83
 1764              		.loc 1 698 3 discriminator 2
 1765 0038 7B68     		ldr	r3, [r7, #4]
 1766 003a 1B68     		ldr	r3, [r3]
ARM GAS  C:\Users\Su\AppData\Local\Temp\ccm0VnUy.s 			page 44


 1767 003c 5A6C     		ldr	r2, [r3, #68]
 1768 003e 7B68     		ldr	r3, [r7, #4]
 1769 0040 1B68     		ldr	r3, [r3]
 1770 0042 22F40042 		bic	r2, r2, #32768
 1771 0046 5A64     		str	r2, [r3, #68]
 1772              	.L83:
 699:Drivers/STM32H7xx_HAL_Driver/Src/stm32h7xx_hal_tim_ex.c **** 
 700:Drivers/STM32H7xx_HAL_Driver/Src/stm32h7xx_hal_tim_ex.c ****   /* Disable the Peripheral */
 701:Drivers/STM32H7xx_HAL_Driver/Src/stm32h7xx_hal_tim_ex.c ****   __HAL_TIM_DISABLE(htim);
 1773              		.loc 1 701 3 is_stmt 1
 1774 0048 7B68     		ldr	r3, [r7, #4]
 1775 004a 1B68     		ldr	r3, [r3]
 1776 004c 1A6A     		ldr	r2, [r3, #32]
 1777 004e 41F21113 		movw	r3, #4369
 1778 0052 1340     		ands	r3, r3, r2
 1779 0054 002B     		cmp	r3, #0
 1780 0056 0FD1     		bne	.L84
 1781              		.loc 1 701 3 is_stmt 0 discriminator 1
 1782 0058 7B68     		ldr	r3, [r7, #4]
 1783 005a 1B68     		ldr	r3, [r3]
 1784 005c 1A6A     		ldr	r2, [r3, #32]
 1785 005e 40F24443 		movw	r3, #1092
 1786 0062 1340     		ands	r3, r3, r2
 1787 0064 002B     		cmp	r3, #0
 1788 0066 07D1     		bne	.L84
 1789              		.loc 1 701 3 discriminator 2
 1790 0068 7B68     		ldr	r3, [r7, #4]
 1791 006a 1B68     		ldr	r3, [r3]
 1792 006c 1A68     		ldr	r2, [r3]
 1793 006e 7B68     		ldr	r3, [r7, #4]
 1794 0070 1B68     		ldr	r3, [r3]
 1795 0072 22F00102 		bic	r2, r2, #1
 1796 0076 1A60     		str	r2, [r3]
 1797              	.L84:
 702:Drivers/STM32H7xx_HAL_Driver/Src/stm32h7xx_hal_tim_ex.c **** 
 703:Drivers/STM32H7xx_HAL_Driver/Src/stm32h7xx_hal_tim_ex.c ****   /* Set the TIM complementary channel state */
 704:Drivers/STM32H7xx_HAL_Driver/Src/stm32h7xx_hal_tim_ex.c ****   TIM_CHANNEL_N_STATE_SET(htim, Channel, HAL_TIM_CHANNEL_STATE_READY);
 1798              		.loc 1 704 3 is_stmt 1
 1799 0078 3B68     		ldr	r3, [r7]
 1800 007a 002B     		cmp	r3, #0
 1801 007c 04D1     		bne	.L85
 1802              		.loc 1 704 3 is_stmt 0 discriminator 1
 1803 007e 7B68     		ldr	r3, [r7, #4]
 1804 0080 0122     		movs	r2, #1
 1805 0082 83F84420 		strb	r2, [r3, #68]
 1806 0086 13E0     		b	.L86
 1807              	.L85:
 1808              		.loc 1 704 3 discriminator 2
 1809 0088 3B68     		ldr	r3, [r7]
 1810 008a 042B     		cmp	r3, #4
 1811 008c 04D1     		bne	.L87
 1812              		.loc 1 704 3 discriminator 3
 1813 008e 7B68     		ldr	r3, [r7, #4]
 1814 0090 0122     		movs	r2, #1
 1815 0092 83F84520 		strb	r2, [r3, #69]
 1816 0096 0BE0     		b	.L86
 1817              	.L87:
ARM GAS  C:\Users\Su\AppData\Local\Temp\ccm0VnUy.s 			page 45


 1818              		.loc 1 704 3 discriminator 4
 1819 0098 3B68     		ldr	r3, [r7]
 1820 009a 082B     		cmp	r3, #8
 1821 009c 04D1     		bne	.L89
 1822              		.loc 1 704 3 discriminator 6
 1823 009e 7B68     		ldr	r3, [r7, #4]
 1824 00a0 0122     		movs	r2, #1
 1825 00a2 83F84620 		strb	r2, [r3, #70]
 1826 00a6 03E0     		b	.L86
 1827              	.L89:
 1828              		.loc 1 704 3 discriminator 7
 1829 00a8 7B68     		ldr	r3, [r7, #4]
 1830 00aa 0122     		movs	r2, #1
 1831 00ac 83F84720 		strb	r2, [r3, #71]
 1832              	.L86:
 705:Drivers/STM32H7xx_HAL_Driver/Src/stm32h7xx_hal_tim_ex.c **** 
 706:Drivers/STM32H7xx_HAL_Driver/Src/stm32h7xx_hal_tim_ex.c ****   /* Return function status */
 707:Drivers/STM32H7xx_HAL_Driver/Src/stm32h7xx_hal_tim_ex.c ****   return HAL_OK;
 1833              		.loc 1 707 10 is_stmt 1
 1834 00b0 0023     		movs	r3, #0
 708:Drivers/STM32H7xx_HAL_Driver/Src/stm32h7xx_hal_tim_ex.c **** }
 1835              		.loc 1 708 1
 1836 00b2 1846     		mov	r0, r3
 1837 00b4 0837     		adds	r7, r7, #8
 1838              	.LCFI60:
 1839              		.cfi_def_cfa_offset 8
 1840 00b6 BD46     		mov	sp, r7
 1841              	.LCFI61:
 1842              		.cfi_def_cfa_register 13
 1843              		@ sp needed
 1844 00b8 80BD     		pop	{r7, pc}
 1845              		.cfi_endproc
 1846              	.LFE155:
 1848              		.section	.text.HAL_TIMEx_OCN_Start_IT,"ax",%progbits
 1849              		.align	1
 1850              		.global	HAL_TIMEx_OCN_Start_IT
 1851              		.syntax unified
 1852              		.thumb
 1853              		.thumb_func
 1855              	HAL_TIMEx_OCN_Start_IT:
 1856              	.LFB156:
 709:Drivers/STM32H7xx_HAL_Driver/Src/stm32h7xx_hal_tim_ex.c **** 
 710:Drivers/STM32H7xx_HAL_Driver/Src/stm32h7xx_hal_tim_ex.c **** /**
 711:Drivers/STM32H7xx_HAL_Driver/Src/stm32h7xx_hal_tim_ex.c ****   * @brief  Starts the TIM Output Compare signal generation in interrupt mode
 712:Drivers/STM32H7xx_HAL_Driver/Src/stm32h7xx_hal_tim_ex.c ****   *         on the complementary output.
 713:Drivers/STM32H7xx_HAL_Driver/Src/stm32h7xx_hal_tim_ex.c ****   * @param  htim TIM OC handle
 714:Drivers/STM32H7xx_HAL_Driver/Src/stm32h7xx_hal_tim_ex.c ****   * @param  Channel TIM Channel to be enabled
 715:Drivers/STM32H7xx_HAL_Driver/Src/stm32h7xx_hal_tim_ex.c ****   *          This parameter can be one of the following values:
 716:Drivers/STM32H7xx_HAL_Driver/Src/stm32h7xx_hal_tim_ex.c ****   *            @arg TIM_CHANNEL_1: TIM Channel 1 selected
 717:Drivers/STM32H7xx_HAL_Driver/Src/stm32h7xx_hal_tim_ex.c ****   *            @arg TIM_CHANNEL_2: TIM Channel 2 selected
 718:Drivers/STM32H7xx_HAL_Driver/Src/stm32h7xx_hal_tim_ex.c ****   *            @arg TIM_CHANNEL_3: TIM Channel 3 selected
 719:Drivers/STM32H7xx_HAL_Driver/Src/stm32h7xx_hal_tim_ex.c ****   * @retval HAL status
 720:Drivers/STM32H7xx_HAL_Driver/Src/stm32h7xx_hal_tim_ex.c ****   */
 721:Drivers/STM32H7xx_HAL_Driver/Src/stm32h7xx_hal_tim_ex.c **** HAL_StatusTypeDef HAL_TIMEx_OCN_Start_IT(TIM_HandleTypeDef *htim, uint32_t Channel)
 722:Drivers/STM32H7xx_HAL_Driver/Src/stm32h7xx_hal_tim_ex.c **** {
 1857              		.loc 1 722 1
 1858              		.cfi_startproc
ARM GAS  C:\Users\Su\AppData\Local\Temp\ccm0VnUy.s 			page 46


 1859              		@ args = 0, pretend = 0, frame = 16
 1860              		@ frame_needed = 1, uses_anonymous_args = 0
 1861 0000 80B5     		push	{r7, lr}
 1862              	.LCFI62:
 1863              		.cfi_def_cfa_offset 8
 1864              		.cfi_offset 7, -8
 1865              		.cfi_offset 14, -4
 1866 0002 84B0     		sub	sp, sp, #16
 1867              	.LCFI63:
 1868              		.cfi_def_cfa_offset 24
 1869 0004 00AF     		add	r7, sp, #0
 1870              	.LCFI64:
 1871              		.cfi_def_cfa_register 7
 1872 0006 7860     		str	r0, [r7, #4]
 1873 0008 3960     		str	r1, [r7]
 723:Drivers/STM32H7xx_HAL_Driver/Src/stm32h7xx_hal_tim_ex.c ****   HAL_StatusTypeDef status = HAL_OK;
 1874              		.loc 1 723 21
 1875 000a 0023     		movs	r3, #0
 1876 000c FB73     		strb	r3, [r7, #15]
 724:Drivers/STM32H7xx_HAL_Driver/Src/stm32h7xx_hal_tim_ex.c ****   uint32_t tmpsmcr;
 725:Drivers/STM32H7xx_HAL_Driver/Src/stm32h7xx_hal_tim_ex.c **** 
 726:Drivers/STM32H7xx_HAL_Driver/Src/stm32h7xx_hal_tim_ex.c ****   /* Check the parameters */
 727:Drivers/STM32H7xx_HAL_Driver/Src/stm32h7xx_hal_tim_ex.c ****   assert_param(IS_TIM_CCXN_INSTANCE(htim->Instance, Channel));
 728:Drivers/STM32H7xx_HAL_Driver/Src/stm32h7xx_hal_tim_ex.c **** 
 729:Drivers/STM32H7xx_HAL_Driver/Src/stm32h7xx_hal_tim_ex.c ****   /* Check the TIM complementary channel state */
 730:Drivers/STM32H7xx_HAL_Driver/Src/stm32h7xx_hal_tim_ex.c ****   if (TIM_CHANNEL_N_STATE_GET(htim, Channel) != HAL_TIM_CHANNEL_STATE_READY)
 1877              		.loc 1 730 46
 1878 000e 3B68     		ldr	r3, [r7]
 1879 0010 002B     		cmp	r3, #0
 1880 0012 09D1     		bne	.L93
 1881              		.loc 1 730 7 discriminator 1
 1882 0014 7B68     		ldr	r3, [r7, #4]
 1883 0016 93F84430 		ldrb	r3, [r3, #68]
 1884 001a DBB2     		uxtb	r3, r3
 1885              		.loc 1 730 46 discriminator 1
 1886 001c 012B     		cmp	r3, #1
 1887 001e 14BF     		ite	ne
 1888 0020 0123     		movne	r3, #1
 1889 0022 0023     		moveq	r3, #0
 1890 0024 DBB2     		uxtb	r3, r3
 1891 0026 22E0     		b	.L94
 1892              	.L93:
 1893              		.loc 1 730 46 is_stmt 0 discriminator 2
 1894 0028 3B68     		ldr	r3, [r7]
 1895 002a 042B     		cmp	r3, #4
 1896 002c 09D1     		bne	.L95
 1897              		.loc 1 730 7 is_stmt 1 discriminator 4
 1898 002e 7B68     		ldr	r3, [r7, #4]
 1899 0030 93F84530 		ldrb	r3, [r3, #69]
 1900 0034 DBB2     		uxtb	r3, r3
 1901              		.loc 1 730 46 discriminator 4
 1902 0036 012B     		cmp	r3, #1
 1903 0038 14BF     		ite	ne
 1904 003a 0123     		movne	r3, #1
 1905 003c 0023     		moveq	r3, #0
 1906 003e DBB2     		uxtb	r3, r3
 1907 0040 15E0     		b	.L94
ARM GAS  C:\Users\Su\AppData\Local\Temp\ccm0VnUy.s 			page 47


 1908              	.L95:
 1909              		.loc 1 730 46 is_stmt 0 discriminator 5
 1910 0042 3B68     		ldr	r3, [r7]
 1911 0044 082B     		cmp	r3, #8
 1912 0046 09D1     		bne	.L97
 1913              		.loc 1 730 7 is_stmt 1 discriminator 7
 1914 0048 7B68     		ldr	r3, [r7, #4]
 1915 004a 93F84630 		ldrb	r3, [r3, #70]
 1916 004e DBB2     		uxtb	r3, r3
 1917              		.loc 1 730 46 discriminator 7
 1918 0050 012B     		cmp	r3, #1
 1919 0052 14BF     		ite	ne
 1920 0054 0123     		movne	r3, #1
 1921 0056 0023     		moveq	r3, #0
 1922 0058 DBB2     		uxtb	r3, r3
 1923 005a 08E0     		b	.L94
 1924              	.L97:
 1925              		.loc 1 730 7 discriminator 8
 1926 005c 7B68     		ldr	r3, [r7, #4]
 1927 005e 93F84730 		ldrb	r3, [r3, #71]
 1928 0062 DBB2     		uxtb	r3, r3
 1929              		.loc 1 730 46 discriminator 8
 1930 0064 012B     		cmp	r3, #1
 1931 0066 14BF     		ite	ne
 1932 0068 0123     		movne	r3, #1
 1933 006a 0023     		moveq	r3, #0
 1934 006c DBB2     		uxtb	r3, r3
 1935              	.L94:
 1936              		.loc 1 730 6 discriminator 12
 1937 006e 002B     		cmp	r3, #0
 1938 0070 01D0     		beq	.L99
 731:Drivers/STM32H7xx_HAL_Driver/Src/stm32h7xx_hal_tim_ex.c ****   {
 732:Drivers/STM32H7xx_HAL_Driver/Src/stm32h7xx_hal_tim_ex.c ****     return HAL_ERROR;
 1939              		.loc 1 732 12
 1940 0072 0123     		movs	r3, #1
 1941 0074 B3E0     		b	.L100
 1942              	.L99:
 733:Drivers/STM32H7xx_HAL_Driver/Src/stm32h7xx_hal_tim_ex.c ****   }
 734:Drivers/STM32H7xx_HAL_Driver/Src/stm32h7xx_hal_tim_ex.c **** 
 735:Drivers/STM32H7xx_HAL_Driver/Src/stm32h7xx_hal_tim_ex.c ****   /* Set the TIM complementary channel state */
 736:Drivers/STM32H7xx_HAL_Driver/Src/stm32h7xx_hal_tim_ex.c ****   TIM_CHANNEL_N_STATE_SET(htim, Channel, HAL_TIM_CHANNEL_STATE_BUSY);
 1943              		.loc 1 736 3
 1944 0076 3B68     		ldr	r3, [r7]
 1945 0078 002B     		cmp	r3, #0
 1946 007a 04D1     		bne	.L101
 1947              		.loc 1 736 3 is_stmt 0 discriminator 1
 1948 007c 7B68     		ldr	r3, [r7, #4]
 1949 007e 0222     		movs	r2, #2
 1950 0080 83F84420 		strb	r2, [r3, #68]
 1951 0084 13E0     		b	.L102
 1952              	.L101:
 1953              		.loc 1 736 3 discriminator 2
 1954 0086 3B68     		ldr	r3, [r7]
 1955 0088 042B     		cmp	r3, #4
 1956 008a 04D1     		bne	.L103
 1957              		.loc 1 736 3 discriminator 3
 1958 008c 7B68     		ldr	r3, [r7, #4]
ARM GAS  C:\Users\Su\AppData\Local\Temp\ccm0VnUy.s 			page 48


 1959 008e 0222     		movs	r2, #2
 1960 0090 83F84520 		strb	r2, [r3, #69]
 1961 0094 0BE0     		b	.L102
 1962              	.L103:
 1963              		.loc 1 736 3 discriminator 4
 1964 0096 3B68     		ldr	r3, [r7]
 1965 0098 082B     		cmp	r3, #8
 1966 009a 04D1     		bne	.L105
 1967              		.loc 1 736 3 discriminator 6
 1968 009c 7B68     		ldr	r3, [r7, #4]
 1969 009e 0222     		movs	r2, #2
 1970 00a0 83F84620 		strb	r2, [r3, #70]
 1971 00a4 03E0     		b	.L102
 1972              	.L105:
 1973              		.loc 1 736 3 discriminator 7
 1974 00a6 7B68     		ldr	r3, [r7, #4]
 1975 00a8 0222     		movs	r2, #2
 1976 00aa 83F84720 		strb	r2, [r3, #71]
 1977              	.L102:
 737:Drivers/STM32H7xx_HAL_Driver/Src/stm32h7xx_hal_tim_ex.c **** 
 738:Drivers/STM32H7xx_HAL_Driver/Src/stm32h7xx_hal_tim_ex.c ****   switch (Channel)
 1978              		.loc 1 738 3 is_stmt 1
 1979 00ae 3B68     		ldr	r3, [r7]
 1980 00b0 082B     		cmp	r3, #8
 1981 00b2 1BD0     		beq	.L107
 1982 00b4 3B68     		ldr	r3, [r7]
 1983 00b6 082B     		cmp	r3, #8
 1984 00b8 21D8     		bhi	.L108
 1985 00ba 3B68     		ldr	r3, [r7]
 1986 00bc 002B     		cmp	r3, #0
 1987 00be 03D0     		beq	.L109
 1988 00c0 3B68     		ldr	r3, [r7]
 1989 00c2 042B     		cmp	r3, #4
 1990 00c4 09D0     		beq	.L110
 1991 00c6 1AE0     		b	.L108
 1992              	.L109:
 739:Drivers/STM32H7xx_HAL_Driver/Src/stm32h7xx_hal_tim_ex.c ****   {
 740:Drivers/STM32H7xx_HAL_Driver/Src/stm32h7xx_hal_tim_ex.c ****     case TIM_CHANNEL_1:
 741:Drivers/STM32H7xx_HAL_Driver/Src/stm32h7xx_hal_tim_ex.c ****     {
 742:Drivers/STM32H7xx_HAL_Driver/Src/stm32h7xx_hal_tim_ex.c ****       /* Enable the TIM Output Compare interrupt */
 743:Drivers/STM32H7xx_HAL_Driver/Src/stm32h7xx_hal_tim_ex.c ****       __HAL_TIM_ENABLE_IT(htim, TIM_IT_CC1);
 1993              		.loc 1 743 7
 1994 00c8 7B68     		ldr	r3, [r7, #4]
 1995 00ca 1B68     		ldr	r3, [r3]
 1996 00cc DA68     		ldr	r2, [r3, #12]
 1997 00ce 7B68     		ldr	r3, [r7, #4]
 1998 00d0 1B68     		ldr	r3, [r3]
 1999 00d2 42F00202 		orr	r2, r2, #2
 2000 00d6 DA60     		str	r2, [r3, #12]
 744:Drivers/STM32H7xx_HAL_Driver/Src/stm32h7xx_hal_tim_ex.c ****       break;
 2001              		.loc 1 744 7
 2002 00d8 14E0     		b	.L111
 2003              	.L110:
 745:Drivers/STM32H7xx_HAL_Driver/Src/stm32h7xx_hal_tim_ex.c ****     }
 746:Drivers/STM32H7xx_HAL_Driver/Src/stm32h7xx_hal_tim_ex.c **** 
 747:Drivers/STM32H7xx_HAL_Driver/Src/stm32h7xx_hal_tim_ex.c ****     case TIM_CHANNEL_2:
 748:Drivers/STM32H7xx_HAL_Driver/Src/stm32h7xx_hal_tim_ex.c ****     {
ARM GAS  C:\Users\Su\AppData\Local\Temp\ccm0VnUy.s 			page 49


 749:Drivers/STM32H7xx_HAL_Driver/Src/stm32h7xx_hal_tim_ex.c ****       /* Enable the TIM Output Compare interrupt */
 750:Drivers/STM32H7xx_HAL_Driver/Src/stm32h7xx_hal_tim_ex.c ****       __HAL_TIM_ENABLE_IT(htim, TIM_IT_CC2);
 2004              		.loc 1 750 7
 2005 00da 7B68     		ldr	r3, [r7, #4]
 2006 00dc 1B68     		ldr	r3, [r3]
 2007 00de DA68     		ldr	r2, [r3, #12]
 2008 00e0 7B68     		ldr	r3, [r7, #4]
 2009 00e2 1B68     		ldr	r3, [r3]
 2010 00e4 42F00402 		orr	r2, r2, #4
 2011 00e8 DA60     		str	r2, [r3, #12]
 751:Drivers/STM32H7xx_HAL_Driver/Src/stm32h7xx_hal_tim_ex.c ****       break;
 2012              		.loc 1 751 7
 2013 00ea 0BE0     		b	.L111
 2014              	.L107:
 752:Drivers/STM32H7xx_HAL_Driver/Src/stm32h7xx_hal_tim_ex.c ****     }
 753:Drivers/STM32H7xx_HAL_Driver/Src/stm32h7xx_hal_tim_ex.c **** 
 754:Drivers/STM32H7xx_HAL_Driver/Src/stm32h7xx_hal_tim_ex.c ****     case TIM_CHANNEL_3:
 755:Drivers/STM32H7xx_HAL_Driver/Src/stm32h7xx_hal_tim_ex.c ****     {
 756:Drivers/STM32H7xx_HAL_Driver/Src/stm32h7xx_hal_tim_ex.c ****       /* Enable the TIM Output Compare interrupt */
 757:Drivers/STM32H7xx_HAL_Driver/Src/stm32h7xx_hal_tim_ex.c ****       __HAL_TIM_ENABLE_IT(htim, TIM_IT_CC3);
 2015              		.loc 1 757 7
 2016 00ec 7B68     		ldr	r3, [r7, #4]
 2017 00ee 1B68     		ldr	r3, [r3]
 2018 00f0 DA68     		ldr	r2, [r3, #12]
 2019 00f2 7B68     		ldr	r3, [r7, #4]
 2020 00f4 1B68     		ldr	r3, [r3]
 2021 00f6 42F00802 		orr	r2, r2, #8
 2022 00fa DA60     		str	r2, [r3, #12]
 758:Drivers/STM32H7xx_HAL_Driver/Src/stm32h7xx_hal_tim_ex.c ****       break;
 2023              		.loc 1 758 7
 2024 00fc 02E0     		b	.L111
 2025              	.L108:
 759:Drivers/STM32H7xx_HAL_Driver/Src/stm32h7xx_hal_tim_ex.c ****     }
 760:Drivers/STM32H7xx_HAL_Driver/Src/stm32h7xx_hal_tim_ex.c **** 
 761:Drivers/STM32H7xx_HAL_Driver/Src/stm32h7xx_hal_tim_ex.c **** 
 762:Drivers/STM32H7xx_HAL_Driver/Src/stm32h7xx_hal_tim_ex.c ****     default:
 763:Drivers/STM32H7xx_HAL_Driver/Src/stm32h7xx_hal_tim_ex.c ****       status = HAL_ERROR;
 2026              		.loc 1 763 14
 2027 00fe 0123     		movs	r3, #1
 2028 0100 FB73     		strb	r3, [r7, #15]
 764:Drivers/STM32H7xx_HAL_Driver/Src/stm32h7xx_hal_tim_ex.c ****       break;
 2029              		.loc 1 764 7
 2030 0102 00BF     		nop
 2031              	.L111:
 765:Drivers/STM32H7xx_HAL_Driver/Src/stm32h7xx_hal_tim_ex.c ****   }
 766:Drivers/STM32H7xx_HAL_Driver/Src/stm32h7xx_hal_tim_ex.c **** 
 767:Drivers/STM32H7xx_HAL_Driver/Src/stm32h7xx_hal_tim_ex.c ****   if (status == HAL_OK)
 2032              		.loc 1 767 6
 2033 0104 FB7B     		ldrb	r3, [r7, #15]	@ zero_extendqisi2
 2034 0106 002B     		cmp	r3, #0
 2035 0108 68D1     		bne	.L112
 768:Drivers/STM32H7xx_HAL_Driver/Src/stm32h7xx_hal_tim_ex.c ****   {
 769:Drivers/STM32H7xx_HAL_Driver/Src/stm32h7xx_hal_tim_ex.c ****     /* Enable the TIM Break interrupt */
 770:Drivers/STM32H7xx_HAL_Driver/Src/stm32h7xx_hal_tim_ex.c ****     __HAL_TIM_ENABLE_IT(htim, TIM_IT_BREAK);
 2036              		.loc 1 770 5
 2037 010a 7B68     		ldr	r3, [r7, #4]
 2038 010c 1B68     		ldr	r3, [r3]
ARM GAS  C:\Users\Su\AppData\Local\Temp\ccm0VnUy.s 			page 50


 2039 010e DA68     		ldr	r2, [r3, #12]
 2040 0110 7B68     		ldr	r3, [r7, #4]
 2041 0112 1B68     		ldr	r3, [r3]
 2042 0114 42F08002 		orr	r2, r2, #128
 2043 0118 DA60     		str	r2, [r3, #12]
 771:Drivers/STM32H7xx_HAL_Driver/Src/stm32h7xx_hal_tim_ex.c **** 
 772:Drivers/STM32H7xx_HAL_Driver/Src/stm32h7xx_hal_tim_ex.c ****     /* Enable the Capture compare channel N */
 773:Drivers/STM32H7xx_HAL_Driver/Src/stm32h7xx_hal_tim_ex.c ****     TIM_CCxNChannelCmd(htim->Instance, Channel, TIM_CCxN_ENABLE);
 2044              		.loc 1 773 5
 2045 011a 7B68     		ldr	r3, [r7, #4]
 2046 011c 1B68     		ldr	r3, [r3]
 2047 011e 0422     		movs	r2, #4
 2048 0120 3968     		ldr	r1, [r7]
 2049 0122 1846     		mov	r0, r3
 2050 0124 FFF7FEFF 		bl	TIM_CCxNChannelCmd
 774:Drivers/STM32H7xx_HAL_Driver/Src/stm32h7xx_hal_tim_ex.c **** 
 775:Drivers/STM32H7xx_HAL_Driver/Src/stm32h7xx_hal_tim_ex.c ****     /* Enable the Main Output */
 776:Drivers/STM32H7xx_HAL_Driver/Src/stm32h7xx_hal_tim_ex.c ****     __HAL_TIM_MOE_ENABLE(htim);
 2051              		.loc 1 776 5
 2052 0128 7B68     		ldr	r3, [r7, #4]
 2053 012a 1B68     		ldr	r3, [r3]
 2054 012c 5A6C     		ldr	r2, [r3, #68]
 2055 012e 7B68     		ldr	r3, [r7, #4]
 2056 0130 1B68     		ldr	r3, [r3]
 2057 0132 42F40042 		orr	r2, r2, #32768
 2058 0136 5A64     		str	r2, [r3, #68]
 777:Drivers/STM32H7xx_HAL_Driver/Src/stm32h7xx_hal_tim_ex.c **** 
 778:Drivers/STM32H7xx_HAL_Driver/Src/stm32h7xx_hal_tim_ex.c ****     /* Enable the Peripheral, except in trigger mode where enable is automatically done with trigge
 779:Drivers/STM32H7xx_HAL_Driver/Src/stm32h7xx_hal_tim_ex.c ****     if (IS_TIM_SLAVE_INSTANCE(htim->Instance))
 2059              		.loc 1 779 9
 2060 0138 7B68     		ldr	r3, [r7, #4]
 2061 013a 1B68     		ldr	r3, [r3]
 2062              		.loc 1 779 8
 2063 013c 2A4A     		ldr	r2, .L117
 2064 013e 9342     		cmp	r3, r2
 2065 0140 2CD0     		beq	.L113
 2066              		.loc 1 779 9 discriminator 1
 2067 0142 7B68     		ldr	r3, [r7, #4]
 2068 0144 1B68     		ldr	r3, [r3]
 2069 0146 B3F1804F 		cmp	r3, #1073741824
 2070 014a 27D0     		beq	.L113
 2071              		.loc 1 779 9 is_stmt 0 discriminator 2
 2072 014c 7B68     		ldr	r3, [r7, #4]
 2073 014e 1B68     		ldr	r3, [r3]
 2074 0150 264A     		ldr	r2, .L117+4
 2075 0152 9342     		cmp	r3, r2
 2076 0154 22D0     		beq	.L113
 2077              		.loc 1 779 9 discriminator 3
 2078 0156 7B68     		ldr	r3, [r7, #4]
 2079 0158 1B68     		ldr	r3, [r3]
 2080 015a 254A     		ldr	r2, .L117+8
 2081 015c 9342     		cmp	r3, r2
 2082 015e 1DD0     		beq	.L113
 2083              		.loc 1 779 9 discriminator 4
 2084 0160 7B68     		ldr	r3, [r7, #4]
 2085 0162 1B68     		ldr	r3, [r3]
 2086 0164 234A     		ldr	r2, .L117+12
ARM GAS  C:\Users\Su\AppData\Local\Temp\ccm0VnUy.s 			page 51


 2087 0166 9342     		cmp	r3, r2
 2088 0168 18D0     		beq	.L113
 2089              		.loc 1 779 9 discriminator 5
 2090 016a 7B68     		ldr	r3, [r7, #4]
 2091 016c 1B68     		ldr	r3, [r3]
 2092 016e 224A     		ldr	r2, .L117+16
 2093 0170 9342     		cmp	r3, r2
 2094 0172 13D0     		beq	.L113
 2095              		.loc 1 779 9 discriminator 6
 2096 0174 7B68     		ldr	r3, [r7, #4]
 2097 0176 1B68     		ldr	r3, [r3]
 2098 0178 204A     		ldr	r2, .L117+20
 2099 017a 9342     		cmp	r3, r2
 2100 017c 0ED0     		beq	.L113
 2101              		.loc 1 779 9 discriminator 7
 2102 017e 7B68     		ldr	r3, [r7, #4]
 2103 0180 1B68     		ldr	r3, [r3]
 2104 0182 1F4A     		ldr	r2, .L117+24
 2105 0184 9342     		cmp	r3, r2
 2106 0186 09D0     		beq	.L113
 2107              		.loc 1 779 9 discriminator 8
 2108 0188 7B68     		ldr	r3, [r7, #4]
 2109 018a 1B68     		ldr	r3, [r3]
 2110 018c 1D4A     		ldr	r2, .L117+28
 2111 018e 9342     		cmp	r3, r2
 2112 0190 04D0     		beq	.L113
 2113              		.loc 1 779 9 discriminator 9
 2114 0192 7B68     		ldr	r3, [r7, #4]
 2115 0194 1B68     		ldr	r3, [r3]
 2116 0196 1C4A     		ldr	r2, .L117+32
 2117 0198 9342     		cmp	r3, r2
 2118 019a 15D1     		bne	.L114
 2119              	.L113:
 780:Drivers/STM32H7xx_HAL_Driver/Src/stm32h7xx_hal_tim_ex.c ****     {
 781:Drivers/STM32H7xx_HAL_Driver/Src/stm32h7xx_hal_tim_ex.c ****       tmpsmcr = htim->Instance->SMCR & TIM_SMCR_SMS;
 2120              		.loc 1 781 21 is_stmt 1
 2121 019c 7B68     		ldr	r3, [r7, #4]
 2122 019e 1B68     		ldr	r3, [r3]
 2123              		.loc 1 781 31
 2124 01a0 9A68     		ldr	r2, [r3, #8]
 2125              		.loc 1 781 15
 2126 01a2 1A4B     		ldr	r3, .L117+36
 2127 01a4 1340     		ands	r3, r3, r2
 2128 01a6 BB60     		str	r3, [r7, #8]
 782:Drivers/STM32H7xx_HAL_Driver/Src/stm32h7xx_hal_tim_ex.c ****       if (!IS_TIM_SLAVEMODE_TRIGGER_ENABLED(tmpsmcr))
 2129              		.loc 1 782 10
 2130 01a8 BB68     		ldr	r3, [r7, #8]
 2131 01aa 062B     		cmp	r3, #6
 2132 01ac 15D0     		beq	.L116
 2133              		.loc 1 782 11 discriminator 1
 2134 01ae BB68     		ldr	r3, [r7, #8]
 2135 01b0 B3F5803F 		cmp	r3, #65536
 2136 01b4 11D0     		beq	.L116
 783:Drivers/STM32H7xx_HAL_Driver/Src/stm32h7xx_hal_tim_ex.c ****       {
 784:Drivers/STM32H7xx_HAL_Driver/Src/stm32h7xx_hal_tim_ex.c ****         __HAL_TIM_ENABLE(htim);
 2137              		.loc 1 784 9
 2138 01b6 7B68     		ldr	r3, [r7, #4]
ARM GAS  C:\Users\Su\AppData\Local\Temp\ccm0VnUy.s 			page 52


 2139 01b8 1B68     		ldr	r3, [r3]
 2140 01ba 1A68     		ldr	r2, [r3]
 2141 01bc 7B68     		ldr	r3, [r7, #4]
 2142 01be 1B68     		ldr	r3, [r3]
 2143 01c0 42F00102 		orr	r2, r2, #1
 2144 01c4 1A60     		str	r2, [r3]
 782:Drivers/STM32H7xx_HAL_Driver/Src/stm32h7xx_hal_tim_ex.c ****       if (!IS_TIM_SLAVEMODE_TRIGGER_ENABLED(tmpsmcr))
 2145              		.loc 1 782 10
 2146 01c6 08E0     		b	.L116
 2147              	.L114:
 785:Drivers/STM32H7xx_HAL_Driver/Src/stm32h7xx_hal_tim_ex.c ****       }
 786:Drivers/STM32H7xx_HAL_Driver/Src/stm32h7xx_hal_tim_ex.c ****     }
 787:Drivers/STM32H7xx_HAL_Driver/Src/stm32h7xx_hal_tim_ex.c ****     else
 788:Drivers/STM32H7xx_HAL_Driver/Src/stm32h7xx_hal_tim_ex.c ****     {
 789:Drivers/STM32H7xx_HAL_Driver/Src/stm32h7xx_hal_tim_ex.c ****       __HAL_TIM_ENABLE(htim);
 2148              		.loc 1 789 7
 2149 01c8 7B68     		ldr	r3, [r7, #4]
 2150 01ca 1B68     		ldr	r3, [r3]
 2151 01cc 1A68     		ldr	r2, [r3]
 2152 01ce 7B68     		ldr	r3, [r7, #4]
 2153 01d0 1B68     		ldr	r3, [r3]
 2154 01d2 42F00102 		orr	r2, r2, #1
 2155 01d6 1A60     		str	r2, [r3]
 2156 01d8 00E0     		b	.L112
 2157              	.L116:
 782:Drivers/STM32H7xx_HAL_Driver/Src/stm32h7xx_hal_tim_ex.c ****       {
 2158              		.loc 1 782 10
 2159 01da 00BF     		nop
 2160              	.L112:
 790:Drivers/STM32H7xx_HAL_Driver/Src/stm32h7xx_hal_tim_ex.c ****     }
 791:Drivers/STM32H7xx_HAL_Driver/Src/stm32h7xx_hal_tim_ex.c ****   }
 792:Drivers/STM32H7xx_HAL_Driver/Src/stm32h7xx_hal_tim_ex.c **** 
 793:Drivers/STM32H7xx_HAL_Driver/Src/stm32h7xx_hal_tim_ex.c ****   /* Return function status */
 794:Drivers/STM32H7xx_HAL_Driver/Src/stm32h7xx_hal_tim_ex.c ****   return status;
 2161              		.loc 1 794 10
 2162 01dc FB7B     		ldrb	r3, [r7, #15]	@ zero_extendqisi2
 2163              	.L100:
 795:Drivers/STM32H7xx_HAL_Driver/Src/stm32h7xx_hal_tim_ex.c **** }
 2164              		.loc 1 795 1
 2165 01de 1846     		mov	r0, r3
 2166 01e0 1037     		adds	r7, r7, #16
 2167              	.LCFI65:
 2168              		.cfi_def_cfa_offset 8
 2169 01e2 BD46     		mov	sp, r7
 2170              	.LCFI66:
 2171              		.cfi_def_cfa_register 13
 2172              		@ sp needed
 2173 01e4 80BD     		pop	{r7, pc}
 2174              	.L118:
 2175 01e6 00BF     		.align	2
 2176              	.L117:
 2177 01e8 00000140 		.word	1073807360
 2178 01ec 00040040 		.word	1073742848
 2179 01f0 00080040 		.word	1073743872
 2180 01f4 000C0040 		.word	1073744896
 2181 01f8 00040140 		.word	1073808384
 2182 01fc 00180040 		.word	1073747968
ARM GAS  C:\Users\Su\AppData\Local\Temp\ccm0VnUy.s 			page 53


 2183 0200 00400140 		.word	1073823744
 2184 0204 00E00040 		.word	1073799168
 2185 0208 00E40040 		.word	1073800192
 2186 020c 07000100 		.word	65543
 2187              		.cfi_endproc
 2188              	.LFE156:
 2190              		.section	.text.HAL_TIMEx_OCN_Stop_IT,"ax",%progbits
 2191              		.align	1
 2192              		.global	HAL_TIMEx_OCN_Stop_IT
 2193              		.syntax unified
 2194              		.thumb
 2195              		.thumb_func
 2197              	HAL_TIMEx_OCN_Stop_IT:
 2198              	.LFB157:
 796:Drivers/STM32H7xx_HAL_Driver/Src/stm32h7xx_hal_tim_ex.c **** 
 797:Drivers/STM32H7xx_HAL_Driver/Src/stm32h7xx_hal_tim_ex.c **** /**
 798:Drivers/STM32H7xx_HAL_Driver/Src/stm32h7xx_hal_tim_ex.c ****   * @brief  Stops the TIM Output Compare signal generation in interrupt mode
 799:Drivers/STM32H7xx_HAL_Driver/Src/stm32h7xx_hal_tim_ex.c ****   *         on the complementary output.
 800:Drivers/STM32H7xx_HAL_Driver/Src/stm32h7xx_hal_tim_ex.c ****   * @param  htim TIM Output Compare handle
 801:Drivers/STM32H7xx_HAL_Driver/Src/stm32h7xx_hal_tim_ex.c ****   * @param  Channel TIM Channel to be disabled
 802:Drivers/STM32H7xx_HAL_Driver/Src/stm32h7xx_hal_tim_ex.c ****   *          This parameter can be one of the following values:
 803:Drivers/STM32H7xx_HAL_Driver/Src/stm32h7xx_hal_tim_ex.c ****   *            @arg TIM_CHANNEL_1: TIM Channel 1 selected
 804:Drivers/STM32H7xx_HAL_Driver/Src/stm32h7xx_hal_tim_ex.c ****   *            @arg TIM_CHANNEL_2: TIM Channel 2 selected
 805:Drivers/STM32H7xx_HAL_Driver/Src/stm32h7xx_hal_tim_ex.c ****   *            @arg TIM_CHANNEL_3: TIM Channel 3 selected
 806:Drivers/STM32H7xx_HAL_Driver/Src/stm32h7xx_hal_tim_ex.c ****   * @retval HAL status
 807:Drivers/STM32H7xx_HAL_Driver/Src/stm32h7xx_hal_tim_ex.c ****   */
 808:Drivers/STM32H7xx_HAL_Driver/Src/stm32h7xx_hal_tim_ex.c **** HAL_StatusTypeDef HAL_TIMEx_OCN_Stop_IT(TIM_HandleTypeDef *htim, uint32_t Channel)
 809:Drivers/STM32H7xx_HAL_Driver/Src/stm32h7xx_hal_tim_ex.c **** {
 2199              		.loc 1 809 1
 2200              		.cfi_startproc
 2201              		@ args = 0, pretend = 0, frame = 16
 2202              		@ frame_needed = 1, uses_anonymous_args = 0
 2203 0000 80B5     		push	{r7, lr}
 2204              	.LCFI67:
 2205              		.cfi_def_cfa_offset 8
 2206              		.cfi_offset 7, -8
 2207              		.cfi_offset 14, -4
 2208 0002 84B0     		sub	sp, sp, #16
 2209              	.LCFI68:
 2210              		.cfi_def_cfa_offset 24
 2211 0004 00AF     		add	r7, sp, #0
 2212              	.LCFI69:
 2213              		.cfi_def_cfa_register 7
 2214 0006 7860     		str	r0, [r7, #4]
 2215 0008 3960     		str	r1, [r7]
 810:Drivers/STM32H7xx_HAL_Driver/Src/stm32h7xx_hal_tim_ex.c ****   HAL_StatusTypeDef status = HAL_OK;
 2216              		.loc 1 810 21
 2217 000a 0023     		movs	r3, #0
 2218 000c FB73     		strb	r3, [r7, #15]
 811:Drivers/STM32H7xx_HAL_Driver/Src/stm32h7xx_hal_tim_ex.c ****   uint32_t tmpccer;
 812:Drivers/STM32H7xx_HAL_Driver/Src/stm32h7xx_hal_tim_ex.c **** 
 813:Drivers/STM32H7xx_HAL_Driver/Src/stm32h7xx_hal_tim_ex.c ****   /* Check the parameters */
 814:Drivers/STM32H7xx_HAL_Driver/Src/stm32h7xx_hal_tim_ex.c ****   assert_param(IS_TIM_CCXN_INSTANCE(htim->Instance, Channel));
 815:Drivers/STM32H7xx_HAL_Driver/Src/stm32h7xx_hal_tim_ex.c **** 
 816:Drivers/STM32H7xx_HAL_Driver/Src/stm32h7xx_hal_tim_ex.c ****   switch (Channel)
 2219              		.loc 1 816 3
 2220 000e 3B68     		ldr	r3, [r7]
ARM GAS  C:\Users\Su\AppData\Local\Temp\ccm0VnUy.s 			page 54


 2221 0010 082B     		cmp	r3, #8
 2222 0012 1BD0     		beq	.L120
 2223 0014 3B68     		ldr	r3, [r7]
 2224 0016 082B     		cmp	r3, #8
 2225 0018 21D8     		bhi	.L121
 2226 001a 3B68     		ldr	r3, [r7]
 2227 001c 002B     		cmp	r3, #0
 2228 001e 03D0     		beq	.L122
 2229 0020 3B68     		ldr	r3, [r7]
 2230 0022 042B     		cmp	r3, #4
 2231 0024 09D0     		beq	.L123
 2232 0026 1AE0     		b	.L121
 2233              	.L122:
 817:Drivers/STM32H7xx_HAL_Driver/Src/stm32h7xx_hal_tim_ex.c ****   {
 818:Drivers/STM32H7xx_HAL_Driver/Src/stm32h7xx_hal_tim_ex.c ****     case TIM_CHANNEL_1:
 819:Drivers/STM32H7xx_HAL_Driver/Src/stm32h7xx_hal_tim_ex.c ****     {
 820:Drivers/STM32H7xx_HAL_Driver/Src/stm32h7xx_hal_tim_ex.c ****       /* Disable the TIM Output Compare interrupt */
 821:Drivers/STM32H7xx_HAL_Driver/Src/stm32h7xx_hal_tim_ex.c ****       __HAL_TIM_DISABLE_IT(htim, TIM_IT_CC1);
 2234              		.loc 1 821 7
 2235 0028 7B68     		ldr	r3, [r7, #4]
 2236 002a 1B68     		ldr	r3, [r3]
 2237 002c DA68     		ldr	r2, [r3, #12]
 2238 002e 7B68     		ldr	r3, [r7, #4]
 2239 0030 1B68     		ldr	r3, [r3]
 2240 0032 22F00202 		bic	r2, r2, #2
 2241 0036 DA60     		str	r2, [r3, #12]
 822:Drivers/STM32H7xx_HAL_Driver/Src/stm32h7xx_hal_tim_ex.c ****       break;
 2242              		.loc 1 822 7
 2243 0038 14E0     		b	.L124
 2244              	.L123:
 823:Drivers/STM32H7xx_HAL_Driver/Src/stm32h7xx_hal_tim_ex.c ****     }
 824:Drivers/STM32H7xx_HAL_Driver/Src/stm32h7xx_hal_tim_ex.c **** 
 825:Drivers/STM32H7xx_HAL_Driver/Src/stm32h7xx_hal_tim_ex.c ****     case TIM_CHANNEL_2:
 826:Drivers/STM32H7xx_HAL_Driver/Src/stm32h7xx_hal_tim_ex.c ****     {
 827:Drivers/STM32H7xx_HAL_Driver/Src/stm32h7xx_hal_tim_ex.c ****       /* Disable the TIM Output Compare interrupt */
 828:Drivers/STM32H7xx_HAL_Driver/Src/stm32h7xx_hal_tim_ex.c ****       __HAL_TIM_DISABLE_IT(htim, TIM_IT_CC2);
 2245              		.loc 1 828 7
 2246 003a 7B68     		ldr	r3, [r7, #4]
 2247 003c 1B68     		ldr	r3, [r3]
 2248 003e DA68     		ldr	r2, [r3, #12]
 2249 0040 7B68     		ldr	r3, [r7, #4]
 2250 0042 1B68     		ldr	r3, [r3]
 2251 0044 22F00402 		bic	r2, r2, #4
 2252 0048 DA60     		str	r2, [r3, #12]
 829:Drivers/STM32H7xx_HAL_Driver/Src/stm32h7xx_hal_tim_ex.c ****       break;
 2253              		.loc 1 829 7
 2254 004a 0BE0     		b	.L124
 2255              	.L120:
 830:Drivers/STM32H7xx_HAL_Driver/Src/stm32h7xx_hal_tim_ex.c ****     }
 831:Drivers/STM32H7xx_HAL_Driver/Src/stm32h7xx_hal_tim_ex.c **** 
 832:Drivers/STM32H7xx_HAL_Driver/Src/stm32h7xx_hal_tim_ex.c ****     case TIM_CHANNEL_3:
 833:Drivers/STM32H7xx_HAL_Driver/Src/stm32h7xx_hal_tim_ex.c ****     {
 834:Drivers/STM32H7xx_HAL_Driver/Src/stm32h7xx_hal_tim_ex.c ****       /* Disable the TIM Output Compare interrupt */
 835:Drivers/STM32H7xx_HAL_Driver/Src/stm32h7xx_hal_tim_ex.c ****       __HAL_TIM_DISABLE_IT(htim, TIM_IT_CC3);
 2256              		.loc 1 835 7
 2257 004c 7B68     		ldr	r3, [r7, #4]
 2258 004e 1B68     		ldr	r3, [r3]
ARM GAS  C:\Users\Su\AppData\Local\Temp\ccm0VnUy.s 			page 55


 2259 0050 DA68     		ldr	r2, [r3, #12]
 2260 0052 7B68     		ldr	r3, [r7, #4]
 2261 0054 1B68     		ldr	r3, [r3]
 2262 0056 22F00802 		bic	r2, r2, #8
 2263 005a DA60     		str	r2, [r3, #12]
 836:Drivers/STM32H7xx_HAL_Driver/Src/stm32h7xx_hal_tim_ex.c ****       break;
 2264              		.loc 1 836 7
 2265 005c 02E0     		b	.L124
 2266              	.L121:
 837:Drivers/STM32H7xx_HAL_Driver/Src/stm32h7xx_hal_tim_ex.c ****     }
 838:Drivers/STM32H7xx_HAL_Driver/Src/stm32h7xx_hal_tim_ex.c **** 
 839:Drivers/STM32H7xx_HAL_Driver/Src/stm32h7xx_hal_tim_ex.c ****     default:
 840:Drivers/STM32H7xx_HAL_Driver/Src/stm32h7xx_hal_tim_ex.c ****       status = HAL_ERROR;
 2267              		.loc 1 840 14
 2268 005e 0123     		movs	r3, #1
 2269 0060 FB73     		strb	r3, [r7, #15]
 841:Drivers/STM32H7xx_HAL_Driver/Src/stm32h7xx_hal_tim_ex.c ****       break;
 2270              		.loc 1 841 7
 2271 0062 00BF     		nop
 2272              	.L124:
 842:Drivers/STM32H7xx_HAL_Driver/Src/stm32h7xx_hal_tim_ex.c ****   }
 843:Drivers/STM32H7xx_HAL_Driver/Src/stm32h7xx_hal_tim_ex.c **** 
 844:Drivers/STM32H7xx_HAL_Driver/Src/stm32h7xx_hal_tim_ex.c ****   if (status == HAL_OK)
 2273              		.loc 1 844 6
 2274 0064 FB7B     		ldrb	r3, [r7, #15]	@ zero_extendqisi2
 2275 0066 002B     		cmp	r3, #0
 2276 0068 64D1     		bne	.L125
 845:Drivers/STM32H7xx_HAL_Driver/Src/stm32h7xx_hal_tim_ex.c ****   {
 846:Drivers/STM32H7xx_HAL_Driver/Src/stm32h7xx_hal_tim_ex.c ****     /* Disable the Capture compare channel N */
 847:Drivers/STM32H7xx_HAL_Driver/Src/stm32h7xx_hal_tim_ex.c ****     TIM_CCxNChannelCmd(htim->Instance, Channel, TIM_CCxN_DISABLE);
 2277              		.loc 1 847 5
 2278 006a 7B68     		ldr	r3, [r7, #4]
 2279 006c 1B68     		ldr	r3, [r3]
 2280 006e 0022     		movs	r2, #0
 2281 0070 3968     		ldr	r1, [r7]
 2282 0072 1846     		mov	r0, r3
 2283 0074 FFF7FEFF 		bl	TIM_CCxNChannelCmd
 848:Drivers/STM32H7xx_HAL_Driver/Src/stm32h7xx_hal_tim_ex.c **** 
 849:Drivers/STM32H7xx_HAL_Driver/Src/stm32h7xx_hal_tim_ex.c ****     /* Disable the TIM Break interrupt (only if no more channel is active) */
 850:Drivers/STM32H7xx_HAL_Driver/Src/stm32h7xx_hal_tim_ex.c ****     tmpccer = htim->Instance->CCER;
 2284              		.loc 1 850 19
 2285 0078 7B68     		ldr	r3, [r7, #4]
 2286 007a 1B68     		ldr	r3, [r3]
 2287              		.loc 1 850 13
 2288 007c 1B6A     		ldr	r3, [r3, #32]
 2289 007e BB60     		str	r3, [r7, #8]
 851:Drivers/STM32H7xx_HAL_Driver/Src/stm32h7xx_hal_tim_ex.c ****     if ((tmpccer & (TIM_CCER_CC1NE | TIM_CCER_CC2NE | TIM_CCER_CC3NE)) == (uint32_t)RESET)
 2290              		.loc 1 851 18
 2291 0080 BA68     		ldr	r2, [r7, #8]
 2292 0082 40F24443 		movw	r3, #1092
 2293 0086 1340     		ands	r3, r3, r2
 2294              		.loc 1 851 8
 2295 0088 002B     		cmp	r3, #0
 2296 008a 07D1     		bne	.L126
 852:Drivers/STM32H7xx_HAL_Driver/Src/stm32h7xx_hal_tim_ex.c ****     {
 853:Drivers/STM32H7xx_HAL_Driver/Src/stm32h7xx_hal_tim_ex.c ****       __HAL_TIM_DISABLE_IT(htim, TIM_IT_BREAK);
 2297              		.loc 1 853 7
ARM GAS  C:\Users\Su\AppData\Local\Temp\ccm0VnUy.s 			page 56


 2298 008c 7B68     		ldr	r3, [r7, #4]
 2299 008e 1B68     		ldr	r3, [r3]
 2300 0090 DA68     		ldr	r2, [r3, #12]
 2301 0092 7B68     		ldr	r3, [r7, #4]
 2302 0094 1B68     		ldr	r3, [r3]
 2303 0096 22F08002 		bic	r2, r2, #128
 2304 009a DA60     		str	r2, [r3, #12]
 2305              	.L126:
 854:Drivers/STM32H7xx_HAL_Driver/Src/stm32h7xx_hal_tim_ex.c ****     }
 855:Drivers/STM32H7xx_HAL_Driver/Src/stm32h7xx_hal_tim_ex.c **** 
 856:Drivers/STM32H7xx_HAL_Driver/Src/stm32h7xx_hal_tim_ex.c ****     /* Disable the Main Output */
 857:Drivers/STM32H7xx_HAL_Driver/Src/stm32h7xx_hal_tim_ex.c ****     __HAL_TIM_MOE_DISABLE(htim);
 2306              		.loc 1 857 5
 2307 009c 7B68     		ldr	r3, [r7, #4]
 2308 009e 1B68     		ldr	r3, [r3]
 2309 00a0 1A6A     		ldr	r2, [r3, #32]
 2310 00a2 41F21113 		movw	r3, #4369
 2311 00a6 1340     		ands	r3, r3, r2
 2312 00a8 002B     		cmp	r3, #0
 2313 00aa 0FD1     		bne	.L127
 2314              		.loc 1 857 5 is_stmt 0 discriminator 1
 2315 00ac 7B68     		ldr	r3, [r7, #4]
 2316 00ae 1B68     		ldr	r3, [r3]
 2317 00b0 1A6A     		ldr	r2, [r3, #32]
 2318 00b2 40F24443 		movw	r3, #1092
 2319 00b6 1340     		ands	r3, r3, r2
 2320 00b8 002B     		cmp	r3, #0
 2321 00ba 07D1     		bne	.L127
 2322              		.loc 1 857 5 discriminator 2
 2323 00bc 7B68     		ldr	r3, [r7, #4]
 2324 00be 1B68     		ldr	r3, [r3]
 2325 00c0 5A6C     		ldr	r2, [r3, #68]
 2326 00c2 7B68     		ldr	r3, [r7, #4]
 2327 00c4 1B68     		ldr	r3, [r3]
 2328 00c6 22F40042 		bic	r2, r2, #32768
 2329 00ca 5A64     		str	r2, [r3, #68]
 2330              	.L127:
 858:Drivers/STM32H7xx_HAL_Driver/Src/stm32h7xx_hal_tim_ex.c **** 
 859:Drivers/STM32H7xx_HAL_Driver/Src/stm32h7xx_hal_tim_ex.c ****     /* Disable the Peripheral */
 860:Drivers/STM32H7xx_HAL_Driver/Src/stm32h7xx_hal_tim_ex.c ****     __HAL_TIM_DISABLE(htim);
 2331              		.loc 1 860 5 is_stmt 1
 2332 00cc 7B68     		ldr	r3, [r7, #4]
 2333 00ce 1B68     		ldr	r3, [r3]
 2334 00d0 1A6A     		ldr	r2, [r3, #32]
 2335 00d2 41F21113 		movw	r3, #4369
 2336 00d6 1340     		ands	r3, r3, r2
 2337 00d8 002B     		cmp	r3, #0
 2338 00da 0FD1     		bne	.L128
 2339              		.loc 1 860 5 is_stmt 0 discriminator 1
 2340 00dc 7B68     		ldr	r3, [r7, #4]
 2341 00de 1B68     		ldr	r3, [r3]
 2342 00e0 1A6A     		ldr	r2, [r3, #32]
 2343 00e2 40F24443 		movw	r3, #1092
 2344 00e6 1340     		ands	r3, r3, r2
 2345 00e8 002B     		cmp	r3, #0
 2346 00ea 07D1     		bne	.L128
 2347              		.loc 1 860 5 discriminator 2
ARM GAS  C:\Users\Su\AppData\Local\Temp\ccm0VnUy.s 			page 57


 2348 00ec 7B68     		ldr	r3, [r7, #4]
 2349 00ee 1B68     		ldr	r3, [r3]
 2350 00f0 1A68     		ldr	r2, [r3]
 2351 00f2 7B68     		ldr	r3, [r7, #4]
 2352 00f4 1B68     		ldr	r3, [r3]
 2353 00f6 22F00102 		bic	r2, r2, #1
 2354 00fa 1A60     		str	r2, [r3]
 2355              	.L128:
 861:Drivers/STM32H7xx_HAL_Driver/Src/stm32h7xx_hal_tim_ex.c **** 
 862:Drivers/STM32H7xx_HAL_Driver/Src/stm32h7xx_hal_tim_ex.c ****     /* Set the TIM complementary channel state */
 863:Drivers/STM32H7xx_HAL_Driver/Src/stm32h7xx_hal_tim_ex.c ****     TIM_CHANNEL_N_STATE_SET(htim, Channel, HAL_TIM_CHANNEL_STATE_READY);
 2356              		.loc 1 863 5 is_stmt 1
 2357 00fc 3B68     		ldr	r3, [r7]
 2358 00fe 002B     		cmp	r3, #0
 2359 0100 04D1     		bne	.L129
 2360              		.loc 1 863 5 is_stmt 0 discriminator 1
 2361 0102 7B68     		ldr	r3, [r7, #4]
 2362 0104 0122     		movs	r2, #1
 2363 0106 83F84420 		strb	r2, [r3, #68]
 2364 010a 13E0     		b	.L125
 2365              	.L129:
 2366              		.loc 1 863 5 discriminator 2
 2367 010c 3B68     		ldr	r3, [r7]
 2368 010e 042B     		cmp	r3, #4
 2369 0110 04D1     		bne	.L130
 2370              		.loc 1 863 5 discriminator 3
 2371 0112 7B68     		ldr	r3, [r7, #4]
 2372 0114 0122     		movs	r2, #1
 2373 0116 83F84520 		strb	r2, [r3, #69]
 2374 011a 0BE0     		b	.L125
 2375              	.L130:
 2376              		.loc 1 863 5 discriminator 4
 2377 011c 3B68     		ldr	r3, [r7]
 2378 011e 082B     		cmp	r3, #8
 2379 0120 04D1     		bne	.L132
 2380              		.loc 1 863 5 discriminator 6
 2381 0122 7B68     		ldr	r3, [r7, #4]
 2382 0124 0122     		movs	r2, #1
 2383 0126 83F84620 		strb	r2, [r3, #70]
 2384 012a 03E0     		b	.L125
 2385              	.L132:
 2386              		.loc 1 863 5 discriminator 7
 2387 012c 7B68     		ldr	r3, [r7, #4]
 2388 012e 0122     		movs	r2, #1
 2389 0130 83F84720 		strb	r2, [r3, #71]
 2390              	.L125:
 864:Drivers/STM32H7xx_HAL_Driver/Src/stm32h7xx_hal_tim_ex.c ****   }
 865:Drivers/STM32H7xx_HAL_Driver/Src/stm32h7xx_hal_tim_ex.c **** 
 866:Drivers/STM32H7xx_HAL_Driver/Src/stm32h7xx_hal_tim_ex.c ****   /* Return function status */
 867:Drivers/STM32H7xx_HAL_Driver/Src/stm32h7xx_hal_tim_ex.c ****   return status;
 2391              		.loc 1 867 10 is_stmt 1
 2392 0134 FB7B     		ldrb	r3, [r7, #15]	@ zero_extendqisi2
 868:Drivers/STM32H7xx_HAL_Driver/Src/stm32h7xx_hal_tim_ex.c **** }
 2393              		.loc 1 868 1
 2394 0136 1846     		mov	r0, r3
 2395 0138 1037     		adds	r7, r7, #16
 2396              	.LCFI70:
ARM GAS  C:\Users\Su\AppData\Local\Temp\ccm0VnUy.s 			page 58


 2397              		.cfi_def_cfa_offset 8
 2398 013a BD46     		mov	sp, r7
 2399              	.LCFI71:
 2400              		.cfi_def_cfa_register 13
 2401              		@ sp needed
 2402 013c 80BD     		pop	{r7, pc}
 2403              		.cfi_endproc
 2404              	.LFE157:
 2406              		.section	.text.HAL_TIMEx_OCN_Start_DMA,"ax",%progbits
 2407              		.align	1
 2408              		.global	HAL_TIMEx_OCN_Start_DMA
 2409              		.syntax unified
 2410              		.thumb
 2411              		.thumb_func
 2413              	HAL_TIMEx_OCN_Start_DMA:
 2414              	.LFB158:
 869:Drivers/STM32H7xx_HAL_Driver/Src/stm32h7xx_hal_tim_ex.c **** 
 870:Drivers/STM32H7xx_HAL_Driver/Src/stm32h7xx_hal_tim_ex.c **** /**
 871:Drivers/STM32H7xx_HAL_Driver/Src/stm32h7xx_hal_tim_ex.c ****   * @brief  Starts the TIM Output Compare signal generation in DMA mode
 872:Drivers/STM32H7xx_HAL_Driver/Src/stm32h7xx_hal_tim_ex.c ****   *         on the complementary output.
 873:Drivers/STM32H7xx_HAL_Driver/Src/stm32h7xx_hal_tim_ex.c ****   * @param  htim TIM Output Compare handle
 874:Drivers/STM32H7xx_HAL_Driver/Src/stm32h7xx_hal_tim_ex.c ****   * @param  Channel TIM Channel to be enabled
 875:Drivers/STM32H7xx_HAL_Driver/Src/stm32h7xx_hal_tim_ex.c ****   *          This parameter can be one of the following values:
 876:Drivers/STM32H7xx_HAL_Driver/Src/stm32h7xx_hal_tim_ex.c ****   *            @arg TIM_CHANNEL_1: TIM Channel 1 selected
 877:Drivers/STM32H7xx_HAL_Driver/Src/stm32h7xx_hal_tim_ex.c ****   *            @arg TIM_CHANNEL_2: TIM Channel 2 selected
 878:Drivers/STM32H7xx_HAL_Driver/Src/stm32h7xx_hal_tim_ex.c ****   *            @arg TIM_CHANNEL_3: TIM Channel 3 selected
 879:Drivers/STM32H7xx_HAL_Driver/Src/stm32h7xx_hal_tim_ex.c ****   * @param  pData The source Buffer address.
 880:Drivers/STM32H7xx_HAL_Driver/Src/stm32h7xx_hal_tim_ex.c ****   * @param  Length The length of data to be transferred from memory to TIM peripheral
 881:Drivers/STM32H7xx_HAL_Driver/Src/stm32h7xx_hal_tim_ex.c ****   * @retval HAL status
 882:Drivers/STM32H7xx_HAL_Driver/Src/stm32h7xx_hal_tim_ex.c ****   */
 883:Drivers/STM32H7xx_HAL_Driver/Src/stm32h7xx_hal_tim_ex.c **** HAL_StatusTypeDef HAL_TIMEx_OCN_Start_DMA(TIM_HandleTypeDef *htim, uint32_t Channel, uint32_t *pDat
 884:Drivers/STM32H7xx_HAL_Driver/Src/stm32h7xx_hal_tim_ex.c **** {
 2415              		.loc 1 884 1
 2416              		.cfi_startproc
 2417              		@ args = 0, pretend = 0, frame = 24
 2418              		@ frame_needed = 1, uses_anonymous_args = 0
 2419 0000 80B5     		push	{r7, lr}
 2420              	.LCFI72:
 2421              		.cfi_def_cfa_offset 8
 2422              		.cfi_offset 7, -8
 2423              		.cfi_offset 14, -4
 2424 0002 86B0     		sub	sp, sp, #24
 2425              	.LCFI73:
 2426              		.cfi_def_cfa_offset 32
 2427 0004 00AF     		add	r7, sp, #0
 2428              	.LCFI74:
 2429              		.cfi_def_cfa_register 7
 2430 0006 F860     		str	r0, [r7, #12]
 2431 0008 B960     		str	r1, [r7, #8]
 2432 000a 7A60     		str	r2, [r7, #4]
 2433 000c 7B80     		strh	r3, [r7, #2]	@ movhi
 885:Drivers/STM32H7xx_HAL_Driver/Src/stm32h7xx_hal_tim_ex.c ****   HAL_StatusTypeDef status = HAL_OK;
 2434              		.loc 1 885 21
 2435 000e 0023     		movs	r3, #0
 2436 0010 FB75     		strb	r3, [r7, #23]
 886:Drivers/STM32H7xx_HAL_Driver/Src/stm32h7xx_hal_tim_ex.c ****   uint32_t tmpsmcr;
 887:Drivers/STM32H7xx_HAL_Driver/Src/stm32h7xx_hal_tim_ex.c **** 
ARM GAS  C:\Users\Su\AppData\Local\Temp\ccm0VnUy.s 			page 59


 888:Drivers/STM32H7xx_HAL_Driver/Src/stm32h7xx_hal_tim_ex.c ****   /* Check the parameters */
 889:Drivers/STM32H7xx_HAL_Driver/Src/stm32h7xx_hal_tim_ex.c ****   assert_param(IS_TIM_CCXN_INSTANCE(htim->Instance, Channel));
 890:Drivers/STM32H7xx_HAL_Driver/Src/stm32h7xx_hal_tim_ex.c **** 
 891:Drivers/STM32H7xx_HAL_Driver/Src/stm32h7xx_hal_tim_ex.c ****   /* Set the TIM complementary channel state */
 892:Drivers/STM32H7xx_HAL_Driver/Src/stm32h7xx_hal_tim_ex.c ****   if (TIM_CHANNEL_N_STATE_GET(htim, Channel) == HAL_TIM_CHANNEL_STATE_BUSY)
 2437              		.loc 1 892 46
 2438 0012 BB68     		ldr	r3, [r7, #8]
 2439 0014 002B     		cmp	r3, #0
 2440 0016 09D1     		bne	.L136
 2441              		.loc 1 892 7 discriminator 1
 2442 0018 FB68     		ldr	r3, [r7, #12]
 2443 001a 93F84430 		ldrb	r3, [r3, #68]
 2444 001e DBB2     		uxtb	r3, r3
 2445              		.loc 1 892 46 discriminator 1
 2446 0020 022B     		cmp	r3, #2
 2447 0022 0CBF     		ite	eq
 2448 0024 0123     		moveq	r3, #1
 2449 0026 0023     		movne	r3, #0
 2450 0028 DBB2     		uxtb	r3, r3
 2451 002a 22E0     		b	.L137
 2452              	.L136:
 2453              		.loc 1 892 46 is_stmt 0 discriminator 2
 2454 002c BB68     		ldr	r3, [r7, #8]
 2455 002e 042B     		cmp	r3, #4
 2456 0030 09D1     		bne	.L138
 2457              		.loc 1 892 7 is_stmt 1 discriminator 4
 2458 0032 FB68     		ldr	r3, [r7, #12]
 2459 0034 93F84530 		ldrb	r3, [r3, #69]
 2460 0038 DBB2     		uxtb	r3, r3
 2461              		.loc 1 892 46 discriminator 4
 2462 003a 022B     		cmp	r3, #2
 2463 003c 0CBF     		ite	eq
 2464 003e 0123     		moveq	r3, #1
 2465 0040 0023     		movne	r3, #0
 2466 0042 DBB2     		uxtb	r3, r3
 2467 0044 15E0     		b	.L137
 2468              	.L138:
 2469              		.loc 1 892 46 is_stmt 0 discriminator 5
 2470 0046 BB68     		ldr	r3, [r7, #8]
 2471 0048 082B     		cmp	r3, #8
 2472 004a 09D1     		bne	.L140
 2473              		.loc 1 892 7 is_stmt 1 discriminator 7
 2474 004c FB68     		ldr	r3, [r7, #12]
 2475 004e 93F84630 		ldrb	r3, [r3, #70]
 2476 0052 DBB2     		uxtb	r3, r3
 2477              		.loc 1 892 46 discriminator 7
 2478 0054 022B     		cmp	r3, #2
 2479 0056 0CBF     		ite	eq
 2480 0058 0123     		moveq	r3, #1
 2481 005a 0023     		movne	r3, #0
 2482 005c DBB2     		uxtb	r3, r3
 2483 005e 08E0     		b	.L137
 2484              	.L140:
 2485              		.loc 1 892 7 discriminator 8
 2486 0060 FB68     		ldr	r3, [r7, #12]
 2487 0062 93F84730 		ldrb	r3, [r3, #71]
 2488 0066 DBB2     		uxtb	r3, r3
ARM GAS  C:\Users\Su\AppData\Local\Temp\ccm0VnUy.s 			page 60


 2489              		.loc 1 892 46 discriminator 8
 2490 0068 022B     		cmp	r3, #2
 2491 006a 0CBF     		ite	eq
 2492 006c 0123     		moveq	r3, #1
 2493 006e 0023     		movne	r3, #0
 2494 0070 DBB2     		uxtb	r3, r3
 2495              	.L137:
 2496              		.loc 1 892 6 discriminator 12
 2497 0072 002B     		cmp	r3, #0
 2498 0074 01D0     		beq	.L142
 893:Drivers/STM32H7xx_HAL_Driver/Src/stm32h7xx_hal_tim_ex.c ****   {
 894:Drivers/STM32H7xx_HAL_Driver/Src/stm32h7xx_hal_tim_ex.c ****     return HAL_BUSY;
 2499              		.loc 1 894 12
 2500 0076 0223     		movs	r3, #2
 2501 0078 39E1     		b	.L143
 2502              	.L142:
 895:Drivers/STM32H7xx_HAL_Driver/Src/stm32h7xx_hal_tim_ex.c ****   }
 896:Drivers/STM32H7xx_HAL_Driver/Src/stm32h7xx_hal_tim_ex.c ****   else if (TIM_CHANNEL_N_STATE_GET(htim, Channel) == HAL_TIM_CHANNEL_STATE_READY)
 2503              		.loc 1 896 51
 2504 007a BB68     		ldr	r3, [r7, #8]
 2505 007c 002B     		cmp	r3, #0
 2506 007e 09D1     		bne	.L144
 2507              		.loc 1 896 12 discriminator 1
 2508 0080 FB68     		ldr	r3, [r7, #12]
 2509 0082 93F84430 		ldrb	r3, [r3, #68]
 2510 0086 DBB2     		uxtb	r3, r3
 2511              		.loc 1 896 51 discriminator 1
 2512 0088 012B     		cmp	r3, #1
 2513 008a 0CBF     		ite	eq
 2514 008c 0123     		moveq	r3, #1
 2515 008e 0023     		movne	r3, #0
 2516 0090 DBB2     		uxtb	r3, r3
 2517 0092 22E0     		b	.L145
 2518              	.L144:
 2519              		.loc 1 896 51 is_stmt 0 discriminator 2
 2520 0094 BB68     		ldr	r3, [r7, #8]
 2521 0096 042B     		cmp	r3, #4
 2522 0098 09D1     		bne	.L146
 2523              		.loc 1 896 12 is_stmt 1 discriminator 4
 2524 009a FB68     		ldr	r3, [r7, #12]
 2525 009c 93F84530 		ldrb	r3, [r3, #69]
 2526 00a0 DBB2     		uxtb	r3, r3
 2527              		.loc 1 896 51 discriminator 4
 2528 00a2 012B     		cmp	r3, #1
 2529 00a4 0CBF     		ite	eq
 2530 00a6 0123     		moveq	r3, #1
 2531 00a8 0023     		movne	r3, #0
 2532 00aa DBB2     		uxtb	r3, r3
 2533 00ac 15E0     		b	.L145
 2534              	.L146:
 2535              		.loc 1 896 51 is_stmt 0 discriminator 5
 2536 00ae BB68     		ldr	r3, [r7, #8]
 2537 00b0 082B     		cmp	r3, #8
 2538 00b2 09D1     		bne	.L148
 2539              		.loc 1 896 12 is_stmt 1 discriminator 7
 2540 00b4 FB68     		ldr	r3, [r7, #12]
 2541 00b6 93F84630 		ldrb	r3, [r3, #70]
ARM GAS  C:\Users\Su\AppData\Local\Temp\ccm0VnUy.s 			page 61


 2542 00ba DBB2     		uxtb	r3, r3
 2543              		.loc 1 896 51 discriminator 7
 2544 00bc 012B     		cmp	r3, #1
 2545 00be 0CBF     		ite	eq
 2546 00c0 0123     		moveq	r3, #1
 2547 00c2 0023     		movne	r3, #0
 2548 00c4 DBB2     		uxtb	r3, r3
 2549 00c6 08E0     		b	.L145
 2550              	.L148:
 2551              		.loc 1 896 12 discriminator 8
 2552 00c8 FB68     		ldr	r3, [r7, #12]
 2553 00ca 93F84730 		ldrb	r3, [r3, #71]
 2554 00ce DBB2     		uxtb	r3, r3
 2555              		.loc 1 896 51 discriminator 8
 2556 00d0 012B     		cmp	r3, #1
 2557 00d2 0CBF     		ite	eq
 2558 00d4 0123     		moveq	r3, #1
 2559 00d6 0023     		movne	r3, #0
 2560 00d8 DBB2     		uxtb	r3, r3
 2561              	.L145:
 2562              		.loc 1 896 11 discriminator 12
 2563 00da 002B     		cmp	r3, #0
 2564 00dc 24D0     		beq	.L150
 897:Drivers/STM32H7xx_HAL_Driver/Src/stm32h7xx_hal_tim_ex.c ****   {
 898:Drivers/STM32H7xx_HAL_Driver/Src/stm32h7xx_hal_tim_ex.c ****     if ((pData == NULL) && (Length > 0U))
 2565              		.loc 1 898 8
 2566 00de 7B68     		ldr	r3, [r7, #4]
 2567 00e0 002B     		cmp	r3, #0
 2568 00e2 04D1     		bne	.L151
 2569              		.loc 1 898 25 discriminator 1
 2570 00e4 7B88     		ldrh	r3, [r7, #2]
 2571 00e6 002B     		cmp	r3, #0
 2572 00e8 01D0     		beq	.L151
 899:Drivers/STM32H7xx_HAL_Driver/Src/stm32h7xx_hal_tim_ex.c ****     {
 900:Drivers/STM32H7xx_HAL_Driver/Src/stm32h7xx_hal_tim_ex.c ****       return HAL_ERROR;
 2573              		.loc 1 900 14
 2574 00ea 0123     		movs	r3, #1
 2575 00ec FFE0     		b	.L143
 2576              	.L151:
 901:Drivers/STM32H7xx_HAL_Driver/Src/stm32h7xx_hal_tim_ex.c ****     }
 902:Drivers/STM32H7xx_HAL_Driver/Src/stm32h7xx_hal_tim_ex.c ****     else
 903:Drivers/STM32H7xx_HAL_Driver/Src/stm32h7xx_hal_tim_ex.c ****     {
 904:Drivers/STM32H7xx_HAL_Driver/Src/stm32h7xx_hal_tim_ex.c ****       TIM_CHANNEL_N_STATE_SET(htim, Channel, HAL_TIM_CHANNEL_STATE_BUSY);
 2577              		.loc 1 904 7
 2578 00ee BB68     		ldr	r3, [r7, #8]
 2579 00f0 002B     		cmp	r3, #0
 2580 00f2 04D1     		bne	.L152
 2581              		.loc 1 904 7 is_stmt 0 discriminator 1
 2582 00f4 FB68     		ldr	r3, [r7, #12]
 2583 00f6 0222     		movs	r2, #2
 2584 00f8 83F84420 		strb	r2, [r3, #68]
 2585 00fc 16E0     		b	.L153
 2586              	.L152:
 2587              		.loc 1 904 7 discriminator 2
 2588 00fe BB68     		ldr	r3, [r7, #8]
 2589 0100 042B     		cmp	r3, #4
 2590 0102 04D1     		bne	.L154
ARM GAS  C:\Users\Su\AppData\Local\Temp\ccm0VnUy.s 			page 62


 2591              		.loc 1 904 7 discriminator 3
 2592 0104 FB68     		ldr	r3, [r7, #12]
 2593 0106 0222     		movs	r2, #2
 2594 0108 83F84520 		strb	r2, [r3, #69]
 2595 010c 0EE0     		b	.L153
 2596              	.L154:
 2597              		.loc 1 904 7 discriminator 4
 2598 010e BB68     		ldr	r3, [r7, #8]
 2599 0110 082B     		cmp	r3, #8
 2600 0112 04D1     		bne	.L156
 2601              		.loc 1 904 7 discriminator 6
 2602 0114 FB68     		ldr	r3, [r7, #12]
 2603 0116 0222     		movs	r2, #2
 2604 0118 83F84620 		strb	r2, [r3, #70]
 2605 011c 06E0     		b	.L153
 2606              	.L156:
 2607              		.loc 1 904 7 discriminator 7
 2608 011e FB68     		ldr	r3, [r7, #12]
 2609 0120 0222     		movs	r2, #2
 2610 0122 83F84720 		strb	r2, [r3, #71]
 2611 0126 01E0     		b	.L153
 2612              	.L150:
 905:Drivers/STM32H7xx_HAL_Driver/Src/stm32h7xx_hal_tim_ex.c ****     }
 906:Drivers/STM32H7xx_HAL_Driver/Src/stm32h7xx_hal_tim_ex.c ****   }
 907:Drivers/STM32H7xx_HAL_Driver/Src/stm32h7xx_hal_tim_ex.c ****   else
 908:Drivers/STM32H7xx_HAL_Driver/Src/stm32h7xx_hal_tim_ex.c ****   {
 909:Drivers/STM32H7xx_HAL_Driver/Src/stm32h7xx_hal_tim_ex.c ****     return HAL_ERROR;
 2613              		.loc 1 909 12 is_stmt 1
 2614 0128 0123     		movs	r3, #1
 2615 012a E0E0     		b	.L143
 2616              	.L153:
 910:Drivers/STM32H7xx_HAL_Driver/Src/stm32h7xx_hal_tim_ex.c ****   }
 911:Drivers/STM32H7xx_HAL_Driver/Src/stm32h7xx_hal_tim_ex.c **** 
 912:Drivers/STM32H7xx_HAL_Driver/Src/stm32h7xx_hal_tim_ex.c ****   switch (Channel)
 2617              		.loc 1 912 3
 2618 012c BB68     		ldr	r3, [r7, #8]
 2619 012e 082B     		cmp	r3, #8
 2620 0130 51D0     		beq	.L158
 2621 0132 BB68     		ldr	r3, [r7, #8]
 2622 0134 082B     		cmp	r3, #8
 2623 0136 72D8     		bhi	.L159
 2624 0138 BB68     		ldr	r3, [r7, #8]
 2625 013a 002B     		cmp	r3, #0
 2626 013c 03D0     		beq	.L160
 2627 013e BB68     		ldr	r3, [r7, #8]
 2628 0140 042B     		cmp	r3, #4
 2629 0142 24D0     		beq	.L161
 2630 0144 6BE0     		b	.L159
 2631              	.L160:
 913:Drivers/STM32H7xx_HAL_Driver/Src/stm32h7xx_hal_tim_ex.c ****   {
 914:Drivers/STM32H7xx_HAL_Driver/Src/stm32h7xx_hal_tim_ex.c ****     case TIM_CHANNEL_1:
 915:Drivers/STM32H7xx_HAL_Driver/Src/stm32h7xx_hal_tim_ex.c ****     {
 916:Drivers/STM32H7xx_HAL_Driver/Src/stm32h7xx_hal_tim_ex.c ****       /* Set the DMA compare callbacks */
 917:Drivers/STM32H7xx_HAL_Driver/Src/stm32h7xx_hal_tim_ex.c ****       htim->hdma[TIM_DMA_ID_CC1]->XferCpltCallback = TIM_DMADelayPulseNCplt;
 2632              		.loc 1 917 17
 2633 0146 FB68     		ldr	r3, [r7, #12]
 2634 0148 5B6A     		ldr	r3, [r3, #36]
ARM GAS  C:\Users\Su\AppData\Local\Temp\ccm0VnUy.s 			page 63


 2635              		.loc 1 917 52
 2636 014a 6B4A     		ldr	r2, .L171
 2637 014c DA63     		str	r2, [r3, #60]
 918:Drivers/STM32H7xx_HAL_Driver/Src/stm32h7xx_hal_tim_ex.c ****       htim->hdma[TIM_DMA_ID_CC1]->XferHalfCpltCallback = TIM_DMADelayPulseHalfCplt;
 2638              		.loc 1 918 17
 2639 014e FB68     		ldr	r3, [r7, #12]
 2640 0150 5B6A     		ldr	r3, [r3, #36]
 2641              		.loc 1 918 56
 2642 0152 6A4A     		ldr	r2, .L171+4
 2643 0154 1A64     		str	r2, [r3, #64]
 919:Drivers/STM32H7xx_HAL_Driver/Src/stm32h7xx_hal_tim_ex.c **** 
 920:Drivers/STM32H7xx_HAL_Driver/Src/stm32h7xx_hal_tim_ex.c ****       /* Set the DMA error callback */
 921:Drivers/STM32H7xx_HAL_Driver/Src/stm32h7xx_hal_tim_ex.c ****       htim->hdma[TIM_DMA_ID_CC1]->XferErrorCallback = TIM_DMAErrorCCxN ;
 2644              		.loc 1 921 17
 2645 0156 FB68     		ldr	r3, [r7, #12]
 2646 0158 5B6A     		ldr	r3, [r3, #36]
 2647              		.loc 1 921 53
 2648 015a 694A     		ldr	r2, .L171+8
 2649 015c DA64     		str	r2, [r3, #76]
 922:Drivers/STM32H7xx_HAL_Driver/Src/stm32h7xx_hal_tim_ex.c **** 
 923:Drivers/STM32H7xx_HAL_Driver/Src/stm32h7xx_hal_tim_ex.c ****       /* Enable the DMA stream */
 924:Drivers/STM32H7xx_HAL_Driver/Src/stm32h7xx_hal_tim_ex.c ****       if (HAL_DMA_Start_IT(htim->hdma[TIM_DMA_ID_CC1], (uint32_t)pData, (uint32_t)&htim->Instance->
 2650              		.loc 1 924 11
 2651 015e FB68     		ldr	r3, [r7, #12]
 2652 0160 586A     		ldr	r0, [r3, #36]
 2653 0162 7968     		ldr	r1, [r7, #4]
 2654              		.loc 1 924 88
 2655 0164 FB68     		ldr	r3, [r7, #12]
 2656 0166 1B68     		ldr	r3, [r3]
 2657              		.loc 1 924 83
 2658 0168 3433     		adds	r3, r3, #52
 2659              		.loc 1 924 11
 2660 016a 1A46     		mov	r2, r3
 2661 016c 7B88     		ldrh	r3, [r7, #2]
 2662 016e FFF7FEFF 		bl	HAL_DMA_Start_IT
 2663 0172 0346     		mov	r3, r0
 2664              		.loc 1 924 10
 2665 0174 002B     		cmp	r3, #0
 2666 0176 01D0     		beq	.L162
 925:Drivers/STM32H7xx_HAL_Driver/Src/stm32h7xx_hal_tim_ex.c ****                            Length) != HAL_OK)
 926:Drivers/STM32H7xx_HAL_Driver/Src/stm32h7xx_hal_tim_ex.c ****       {
 927:Drivers/STM32H7xx_HAL_Driver/Src/stm32h7xx_hal_tim_ex.c ****         /* Return error status */
 928:Drivers/STM32H7xx_HAL_Driver/Src/stm32h7xx_hal_tim_ex.c ****         return HAL_ERROR;
 2667              		.loc 1 928 16
 2668 0178 0123     		movs	r3, #1
 2669 017a B8E0     		b	.L143
 2670              	.L162:
 929:Drivers/STM32H7xx_HAL_Driver/Src/stm32h7xx_hal_tim_ex.c ****       }
 930:Drivers/STM32H7xx_HAL_Driver/Src/stm32h7xx_hal_tim_ex.c ****       /* Enable the TIM Output Compare DMA request */
 931:Drivers/STM32H7xx_HAL_Driver/Src/stm32h7xx_hal_tim_ex.c ****       __HAL_TIM_ENABLE_DMA(htim, TIM_DMA_CC1);
 2671              		.loc 1 931 7
 2672 017c FB68     		ldr	r3, [r7, #12]
 2673 017e 1B68     		ldr	r3, [r3]
 2674 0180 DA68     		ldr	r2, [r3, #12]
 2675 0182 FB68     		ldr	r3, [r7, #12]
 2676 0184 1B68     		ldr	r3, [r3]
 2677 0186 42F40072 		orr	r2, r2, #512
ARM GAS  C:\Users\Su\AppData\Local\Temp\ccm0VnUy.s 			page 64


 2678 018a DA60     		str	r2, [r3, #12]
 932:Drivers/STM32H7xx_HAL_Driver/Src/stm32h7xx_hal_tim_ex.c ****       break;
 2679              		.loc 1 932 7
 2680 018c 4AE0     		b	.L163
 2681              	.L161:
 933:Drivers/STM32H7xx_HAL_Driver/Src/stm32h7xx_hal_tim_ex.c ****     }
 934:Drivers/STM32H7xx_HAL_Driver/Src/stm32h7xx_hal_tim_ex.c **** 
 935:Drivers/STM32H7xx_HAL_Driver/Src/stm32h7xx_hal_tim_ex.c ****     case TIM_CHANNEL_2:
 936:Drivers/STM32H7xx_HAL_Driver/Src/stm32h7xx_hal_tim_ex.c ****     {
 937:Drivers/STM32H7xx_HAL_Driver/Src/stm32h7xx_hal_tim_ex.c ****       /* Set the DMA compare callbacks */
 938:Drivers/STM32H7xx_HAL_Driver/Src/stm32h7xx_hal_tim_ex.c ****       htim->hdma[TIM_DMA_ID_CC2]->XferCpltCallback = TIM_DMADelayPulseNCplt;
 2682              		.loc 1 938 17
 2683 018e FB68     		ldr	r3, [r7, #12]
 2684 0190 9B6A     		ldr	r3, [r3, #40]
 2685              		.loc 1 938 52
 2686 0192 594A     		ldr	r2, .L171
 2687 0194 DA63     		str	r2, [r3, #60]
 939:Drivers/STM32H7xx_HAL_Driver/Src/stm32h7xx_hal_tim_ex.c ****       htim->hdma[TIM_DMA_ID_CC2]->XferHalfCpltCallback = TIM_DMADelayPulseHalfCplt;
 2688              		.loc 1 939 17
 2689 0196 FB68     		ldr	r3, [r7, #12]
 2690 0198 9B6A     		ldr	r3, [r3, #40]
 2691              		.loc 1 939 56
 2692 019a 584A     		ldr	r2, .L171+4
 2693 019c 1A64     		str	r2, [r3, #64]
 940:Drivers/STM32H7xx_HAL_Driver/Src/stm32h7xx_hal_tim_ex.c **** 
 941:Drivers/STM32H7xx_HAL_Driver/Src/stm32h7xx_hal_tim_ex.c ****       /* Set the DMA error callback */
 942:Drivers/STM32H7xx_HAL_Driver/Src/stm32h7xx_hal_tim_ex.c ****       htim->hdma[TIM_DMA_ID_CC2]->XferErrorCallback = TIM_DMAErrorCCxN ;
 2694              		.loc 1 942 17
 2695 019e FB68     		ldr	r3, [r7, #12]
 2696 01a0 9B6A     		ldr	r3, [r3, #40]
 2697              		.loc 1 942 53
 2698 01a2 574A     		ldr	r2, .L171+8
 2699 01a4 DA64     		str	r2, [r3, #76]
 943:Drivers/STM32H7xx_HAL_Driver/Src/stm32h7xx_hal_tim_ex.c **** 
 944:Drivers/STM32H7xx_HAL_Driver/Src/stm32h7xx_hal_tim_ex.c ****       /* Enable the DMA stream */
 945:Drivers/STM32H7xx_HAL_Driver/Src/stm32h7xx_hal_tim_ex.c ****       if (HAL_DMA_Start_IT(htim->hdma[TIM_DMA_ID_CC2], (uint32_t)pData, (uint32_t)&htim->Instance->
 2700              		.loc 1 945 11
 2701 01a6 FB68     		ldr	r3, [r7, #12]
 2702 01a8 986A     		ldr	r0, [r3, #40]
 2703 01aa 7968     		ldr	r1, [r7, #4]
 2704              		.loc 1 945 88
 2705 01ac FB68     		ldr	r3, [r7, #12]
 2706 01ae 1B68     		ldr	r3, [r3]
 2707              		.loc 1 945 83
 2708 01b0 3833     		adds	r3, r3, #56
 2709              		.loc 1 945 11
 2710 01b2 1A46     		mov	r2, r3
 2711 01b4 7B88     		ldrh	r3, [r7, #2]
 2712 01b6 FFF7FEFF 		bl	HAL_DMA_Start_IT
 2713 01ba 0346     		mov	r3, r0
 2714              		.loc 1 945 10
 2715 01bc 002B     		cmp	r3, #0
 2716 01be 01D0     		beq	.L164
 946:Drivers/STM32H7xx_HAL_Driver/Src/stm32h7xx_hal_tim_ex.c ****                            Length) != HAL_OK)
 947:Drivers/STM32H7xx_HAL_Driver/Src/stm32h7xx_hal_tim_ex.c ****       {
 948:Drivers/STM32H7xx_HAL_Driver/Src/stm32h7xx_hal_tim_ex.c ****         /* Return error status */
 949:Drivers/STM32H7xx_HAL_Driver/Src/stm32h7xx_hal_tim_ex.c ****         return HAL_ERROR;
ARM GAS  C:\Users\Su\AppData\Local\Temp\ccm0VnUy.s 			page 65


 2717              		.loc 1 949 16
 2718 01c0 0123     		movs	r3, #1
 2719 01c2 94E0     		b	.L143
 2720              	.L164:
 950:Drivers/STM32H7xx_HAL_Driver/Src/stm32h7xx_hal_tim_ex.c ****       }
 951:Drivers/STM32H7xx_HAL_Driver/Src/stm32h7xx_hal_tim_ex.c ****       /* Enable the TIM Output Compare DMA request */
 952:Drivers/STM32H7xx_HAL_Driver/Src/stm32h7xx_hal_tim_ex.c ****       __HAL_TIM_ENABLE_DMA(htim, TIM_DMA_CC2);
 2721              		.loc 1 952 7
 2722 01c4 FB68     		ldr	r3, [r7, #12]
 2723 01c6 1B68     		ldr	r3, [r3]
 2724 01c8 DA68     		ldr	r2, [r3, #12]
 2725 01ca FB68     		ldr	r3, [r7, #12]
 2726 01cc 1B68     		ldr	r3, [r3]
 2727 01ce 42F48062 		orr	r2, r2, #1024
 2728 01d2 DA60     		str	r2, [r3, #12]
 953:Drivers/STM32H7xx_HAL_Driver/Src/stm32h7xx_hal_tim_ex.c ****       break;
 2729              		.loc 1 953 7
 2730 01d4 26E0     		b	.L163
 2731              	.L158:
 954:Drivers/STM32H7xx_HAL_Driver/Src/stm32h7xx_hal_tim_ex.c ****     }
 955:Drivers/STM32H7xx_HAL_Driver/Src/stm32h7xx_hal_tim_ex.c **** 
 956:Drivers/STM32H7xx_HAL_Driver/Src/stm32h7xx_hal_tim_ex.c ****     case TIM_CHANNEL_3:
 957:Drivers/STM32H7xx_HAL_Driver/Src/stm32h7xx_hal_tim_ex.c ****     {
 958:Drivers/STM32H7xx_HAL_Driver/Src/stm32h7xx_hal_tim_ex.c ****       /* Set the DMA compare callbacks */
 959:Drivers/STM32H7xx_HAL_Driver/Src/stm32h7xx_hal_tim_ex.c ****       htim->hdma[TIM_DMA_ID_CC3]->XferCpltCallback = TIM_DMADelayPulseNCplt;
 2732              		.loc 1 959 17
 2733 01d6 FB68     		ldr	r3, [r7, #12]
 2734 01d8 DB6A     		ldr	r3, [r3, #44]
 2735              		.loc 1 959 52
 2736 01da 474A     		ldr	r2, .L171
 2737 01dc DA63     		str	r2, [r3, #60]
 960:Drivers/STM32H7xx_HAL_Driver/Src/stm32h7xx_hal_tim_ex.c ****       htim->hdma[TIM_DMA_ID_CC3]->XferHalfCpltCallback = TIM_DMADelayPulseHalfCplt;
 2738              		.loc 1 960 17
 2739 01de FB68     		ldr	r3, [r7, #12]
 2740 01e0 DB6A     		ldr	r3, [r3, #44]
 2741              		.loc 1 960 56
 2742 01e2 464A     		ldr	r2, .L171+4
 2743 01e4 1A64     		str	r2, [r3, #64]
 961:Drivers/STM32H7xx_HAL_Driver/Src/stm32h7xx_hal_tim_ex.c **** 
 962:Drivers/STM32H7xx_HAL_Driver/Src/stm32h7xx_hal_tim_ex.c ****       /* Set the DMA error callback */
 963:Drivers/STM32H7xx_HAL_Driver/Src/stm32h7xx_hal_tim_ex.c ****       htim->hdma[TIM_DMA_ID_CC3]->XferErrorCallback = TIM_DMAErrorCCxN ;
 2744              		.loc 1 963 17
 2745 01e6 FB68     		ldr	r3, [r7, #12]
 2746 01e8 DB6A     		ldr	r3, [r3, #44]
 2747              		.loc 1 963 53
 2748 01ea 454A     		ldr	r2, .L171+8
 2749 01ec DA64     		str	r2, [r3, #76]
 964:Drivers/STM32H7xx_HAL_Driver/Src/stm32h7xx_hal_tim_ex.c **** 
 965:Drivers/STM32H7xx_HAL_Driver/Src/stm32h7xx_hal_tim_ex.c ****       /* Enable the DMA stream */
 966:Drivers/STM32H7xx_HAL_Driver/Src/stm32h7xx_hal_tim_ex.c ****       if (HAL_DMA_Start_IT(htim->hdma[TIM_DMA_ID_CC3], (uint32_t)pData, (uint32_t)&htim->Instance->
 2750              		.loc 1 966 11
 2751 01ee FB68     		ldr	r3, [r7, #12]
 2752 01f0 D86A     		ldr	r0, [r3, #44]
 2753 01f2 7968     		ldr	r1, [r7, #4]
 2754              		.loc 1 966 88
 2755 01f4 FB68     		ldr	r3, [r7, #12]
 2756 01f6 1B68     		ldr	r3, [r3]
ARM GAS  C:\Users\Su\AppData\Local\Temp\ccm0VnUy.s 			page 66


 2757              		.loc 1 966 83
 2758 01f8 3C33     		adds	r3, r3, #60
 2759              		.loc 1 966 11
 2760 01fa 1A46     		mov	r2, r3
 2761 01fc 7B88     		ldrh	r3, [r7, #2]
 2762 01fe FFF7FEFF 		bl	HAL_DMA_Start_IT
 2763 0202 0346     		mov	r3, r0
 2764              		.loc 1 966 10
 2765 0204 002B     		cmp	r3, #0
 2766 0206 01D0     		beq	.L165
 967:Drivers/STM32H7xx_HAL_Driver/Src/stm32h7xx_hal_tim_ex.c ****                            Length) != HAL_OK)
 968:Drivers/STM32H7xx_HAL_Driver/Src/stm32h7xx_hal_tim_ex.c ****       {
 969:Drivers/STM32H7xx_HAL_Driver/Src/stm32h7xx_hal_tim_ex.c ****         /* Return error status */
 970:Drivers/STM32H7xx_HAL_Driver/Src/stm32h7xx_hal_tim_ex.c ****         return HAL_ERROR;
 2767              		.loc 1 970 16
 2768 0208 0123     		movs	r3, #1
 2769 020a 70E0     		b	.L143
 2770              	.L165:
 971:Drivers/STM32H7xx_HAL_Driver/Src/stm32h7xx_hal_tim_ex.c ****       }
 972:Drivers/STM32H7xx_HAL_Driver/Src/stm32h7xx_hal_tim_ex.c ****       /* Enable the TIM Output Compare DMA request */
 973:Drivers/STM32H7xx_HAL_Driver/Src/stm32h7xx_hal_tim_ex.c ****       __HAL_TIM_ENABLE_DMA(htim, TIM_DMA_CC3);
 2771              		.loc 1 973 7
 2772 020c FB68     		ldr	r3, [r7, #12]
 2773 020e 1B68     		ldr	r3, [r3]
 2774 0210 DA68     		ldr	r2, [r3, #12]
 2775 0212 FB68     		ldr	r3, [r7, #12]
 2776 0214 1B68     		ldr	r3, [r3]
 2777 0216 42F40062 		orr	r2, r2, #2048
 2778 021a DA60     		str	r2, [r3, #12]
 974:Drivers/STM32H7xx_HAL_Driver/Src/stm32h7xx_hal_tim_ex.c ****       break;
 2779              		.loc 1 974 7
 2780 021c 02E0     		b	.L163
 2781              	.L159:
 975:Drivers/STM32H7xx_HAL_Driver/Src/stm32h7xx_hal_tim_ex.c ****     }
 976:Drivers/STM32H7xx_HAL_Driver/Src/stm32h7xx_hal_tim_ex.c **** 
 977:Drivers/STM32H7xx_HAL_Driver/Src/stm32h7xx_hal_tim_ex.c ****     default:
 978:Drivers/STM32H7xx_HAL_Driver/Src/stm32h7xx_hal_tim_ex.c ****       status = HAL_ERROR;
 2782              		.loc 1 978 14
 2783 021e 0123     		movs	r3, #1
 2784 0220 FB75     		strb	r3, [r7, #23]
 979:Drivers/STM32H7xx_HAL_Driver/Src/stm32h7xx_hal_tim_ex.c ****       break;
 2785              		.loc 1 979 7
 2786 0222 00BF     		nop
 2787              	.L163:
 980:Drivers/STM32H7xx_HAL_Driver/Src/stm32h7xx_hal_tim_ex.c ****   }
 981:Drivers/STM32H7xx_HAL_Driver/Src/stm32h7xx_hal_tim_ex.c **** 
 982:Drivers/STM32H7xx_HAL_Driver/Src/stm32h7xx_hal_tim_ex.c ****   if (status == HAL_OK)
 2788              		.loc 1 982 6
 2789 0224 FB7D     		ldrb	r3, [r7, #23]	@ zero_extendqisi2
 2790 0226 002B     		cmp	r3, #0
 2791 0228 60D1     		bne	.L166
 983:Drivers/STM32H7xx_HAL_Driver/Src/stm32h7xx_hal_tim_ex.c ****   {
 984:Drivers/STM32H7xx_HAL_Driver/Src/stm32h7xx_hal_tim_ex.c ****     /* Enable the Capture compare channel N */
 985:Drivers/STM32H7xx_HAL_Driver/Src/stm32h7xx_hal_tim_ex.c ****     TIM_CCxNChannelCmd(htim->Instance, Channel, TIM_CCxN_ENABLE);
 2792              		.loc 1 985 5
 2793 022a FB68     		ldr	r3, [r7, #12]
 2794 022c 1B68     		ldr	r3, [r3]
ARM GAS  C:\Users\Su\AppData\Local\Temp\ccm0VnUy.s 			page 67


 2795 022e 0422     		movs	r2, #4
 2796 0230 B968     		ldr	r1, [r7, #8]
 2797 0232 1846     		mov	r0, r3
 2798 0234 FFF7FEFF 		bl	TIM_CCxNChannelCmd
 986:Drivers/STM32H7xx_HAL_Driver/Src/stm32h7xx_hal_tim_ex.c **** 
 987:Drivers/STM32H7xx_HAL_Driver/Src/stm32h7xx_hal_tim_ex.c ****     /* Enable the Main Output */
 988:Drivers/STM32H7xx_HAL_Driver/Src/stm32h7xx_hal_tim_ex.c ****     __HAL_TIM_MOE_ENABLE(htim);
 2799              		.loc 1 988 5
 2800 0238 FB68     		ldr	r3, [r7, #12]
 2801 023a 1B68     		ldr	r3, [r3]
 2802 023c 5A6C     		ldr	r2, [r3, #68]
 2803 023e FB68     		ldr	r3, [r7, #12]
 2804 0240 1B68     		ldr	r3, [r3]
 2805 0242 42F40042 		orr	r2, r2, #32768
 2806 0246 5A64     		str	r2, [r3, #68]
 989:Drivers/STM32H7xx_HAL_Driver/Src/stm32h7xx_hal_tim_ex.c **** 
 990:Drivers/STM32H7xx_HAL_Driver/Src/stm32h7xx_hal_tim_ex.c ****     /* Enable the Peripheral, except in trigger mode where enable is automatically done with trigge
 991:Drivers/STM32H7xx_HAL_Driver/Src/stm32h7xx_hal_tim_ex.c ****     if (IS_TIM_SLAVE_INSTANCE(htim->Instance))
 2807              		.loc 1 991 9
 2808 0248 FB68     		ldr	r3, [r7, #12]
 2809 024a 1B68     		ldr	r3, [r3]
 2810              		.loc 1 991 8
 2811 024c 2D4A     		ldr	r2, .L171+12
 2812 024e 9342     		cmp	r3, r2
 2813 0250 2CD0     		beq	.L167
 2814              		.loc 1 991 9 discriminator 1
 2815 0252 FB68     		ldr	r3, [r7, #12]
 2816 0254 1B68     		ldr	r3, [r3]
 2817 0256 B3F1804F 		cmp	r3, #1073741824
 2818 025a 27D0     		beq	.L167
 2819              		.loc 1 991 9 is_stmt 0 discriminator 2
 2820 025c FB68     		ldr	r3, [r7, #12]
 2821 025e 1B68     		ldr	r3, [r3]
 2822 0260 294A     		ldr	r2, .L171+16
 2823 0262 9342     		cmp	r3, r2
 2824 0264 22D0     		beq	.L167
 2825              		.loc 1 991 9 discriminator 3
 2826 0266 FB68     		ldr	r3, [r7, #12]
 2827 0268 1B68     		ldr	r3, [r3]
 2828 026a 284A     		ldr	r2, .L171+20
 2829 026c 9342     		cmp	r3, r2
 2830 026e 1DD0     		beq	.L167
 2831              		.loc 1 991 9 discriminator 4
 2832 0270 FB68     		ldr	r3, [r7, #12]
 2833 0272 1B68     		ldr	r3, [r3]
 2834 0274 264A     		ldr	r2, .L171+24
 2835 0276 9342     		cmp	r3, r2
 2836 0278 18D0     		beq	.L167
 2837              		.loc 1 991 9 discriminator 5
 2838 027a FB68     		ldr	r3, [r7, #12]
 2839 027c 1B68     		ldr	r3, [r3]
 2840 027e 254A     		ldr	r2, .L171+28
 2841 0280 9342     		cmp	r3, r2
 2842 0282 13D0     		beq	.L167
 2843              		.loc 1 991 9 discriminator 6
 2844 0284 FB68     		ldr	r3, [r7, #12]
 2845 0286 1B68     		ldr	r3, [r3]
ARM GAS  C:\Users\Su\AppData\Local\Temp\ccm0VnUy.s 			page 68


 2846 0288 234A     		ldr	r2, .L171+32
 2847 028a 9342     		cmp	r3, r2
 2848 028c 0ED0     		beq	.L167
 2849              		.loc 1 991 9 discriminator 7
 2850 028e FB68     		ldr	r3, [r7, #12]
 2851 0290 1B68     		ldr	r3, [r3]
 2852 0292 224A     		ldr	r2, .L171+36
 2853 0294 9342     		cmp	r3, r2
 2854 0296 09D0     		beq	.L167
 2855              		.loc 1 991 9 discriminator 8
 2856 0298 FB68     		ldr	r3, [r7, #12]
 2857 029a 1B68     		ldr	r3, [r3]
 2858 029c 204A     		ldr	r2, .L171+40
 2859 029e 9342     		cmp	r3, r2
 2860 02a0 04D0     		beq	.L167
 2861              		.loc 1 991 9 discriminator 9
 2862 02a2 FB68     		ldr	r3, [r7, #12]
 2863 02a4 1B68     		ldr	r3, [r3]
 2864 02a6 1F4A     		ldr	r2, .L171+44
 2865 02a8 9342     		cmp	r3, r2
 2866 02aa 15D1     		bne	.L168
 2867              	.L167:
 992:Drivers/STM32H7xx_HAL_Driver/Src/stm32h7xx_hal_tim_ex.c ****     {
 993:Drivers/STM32H7xx_HAL_Driver/Src/stm32h7xx_hal_tim_ex.c ****       tmpsmcr = htim->Instance->SMCR & TIM_SMCR_SMS;
 2868              		.loc 1 993 21 is_stmt 1
 2869 02ac FB68     		ldr	r3, [r7, #12]
 2870 02ae 1B68     		ldr	r3, [r3]
 2871              		.loc 1 993 31
 2872 02b0 9A68     		ldr	r2, [r3, #8]
 2873              		.loc 1 993 15
 2874 02b2 1D4B     		ldr	r3, .L171+48
 2875 02b4 1340     		ands	r3, r3, r2
 2876 02b6 3B61     		str	r3, [r7, #16]
 994:Drivers/STM32H7xx_HAL_Driver/Src/stm32h7xx_hal_tim_ex.c ****       if (!IS_TIM_SLAVEMODE_TRIGGER_ENABLED(tmpsmcr))
 2877              		.loc 1 994 10
 2878 02b8 3B69     		ldr	r3, [r7, #16]
 2879 02ba 062B     		cmp	r3, #6
 2880 02bc 15D0     		beq	.L170
 2881              		.loc 1 994 11 discriminator 1
 2882 02be 3B69     		ldr	r3, [r7, #16]
 2883 02c0 B3F5803F 		cmp	r3, #65536
 2884 02c4 11D0     		beq	.L170
 995:Drivers/STM32H7xx_HAL_Driver/Src/stm32h7xx_hal_tim_ex.c ****       {
 996:Drivers/STM32H7xx_HAL_Driver/Src/stm32h7xx_hal_tim_ex.c ****         __HAL_TIM_ENABLE(htim);
 2885              		.loc 1 996 9
 2886 02c6 FB68     		ldr	r3, [r7, #12]
 2887 02c8 1B68     		ldr	r3, [r3]
 2888 02ca 1A68     		ldr	r2, [r3]
 2889 02cc FB68     		ldr	r3, [r7, #12]
 2890 02ce 1B68     		ldr	r3, [r3]
 2891 02d0 42F00102 		orr	r2, r2, #1
 2892 02d4 1A60     		str	r2, [r3]
 994:Drivers/STM32H7xx_HAL_Driver/Src/stm32h7xx_hal_tim_ex.c ****       if (!IS_TIM_SLAVEMODE_TRIGGER_ENABLED(tmpsmcr))
 2893              		.loc 1 994 10
 2894 02d6 08E0     		b	.L170
 2895              	.L168:
 997:Drivers/STM32H7xx_HAL_Driver/Src/stm32h7xx_hal_tim_ex.c ****       }
ARM GAS  C:\Users\Su\AppData\Local\Temp\ccm0VnUy.s 			page 69


 998:Drivers/STM32H7xx_HAL_Driver/Src/stm32h7xx_hal_tim_ex.c ****     }
 999:Drivers/STM32H7xx_HAL_Driver/Src/stm32h7xx_hal_tim_ex.c ****     else
1000:Drivers/STM32H7xx_HAL_Driver/Src/stm32h7xx_hal_tim_ex.c ****     {
1001:Drivers/STM32H7xx_HAL_Driver/Src/stm32h7xx_hal_tim_ex.c ****       __HAL_TIM_ENABLE(htim);
 2896              		.loc 1 1001 7
 2897 02d8 FB68     		ldr	r3, [r7, #12]
 2898 02da 1B68     		ldr	r3, [r3]
 2899 02dc 1A68     		ldr	r2, [r3]
 2900 02de FB68     		ldr	r3, [r7, #12]
 2901 02e0 1B68     		ldr	r3, [r3]
 2902 02e2 42F00102 		orr	r2, r2, #1
 2903 02e6 1A60     		str	r2, [r3]
 2904 02e8 00E0     		b	.L166
 2905              	.L170:
 994:Drivers/STM32H7xx_HAL_Driver/Src/stm32h7xx_hal_tim_ex.c ****       {
 2906              		.loc 1 994 10
 2907 02ea 00BF     		nop
 2908              	.L166:
1002:Drivers/STM32H7xx_HAL_Driver/Src/stm32h7xx_hal_tim_ex.c ****     }
1003:Drivers/STM32H7xx_HAL_Driver/Src/stm32h7xx_hal_tim_ex.c ****   }
1004:Drivers/STM32H7xx_HAL_Driver/Src/stm32h7xx_hal_tim_ex.c **** 
1005:Drivers/STM32H7xx_HAL_Driver/Src/stm32h7xx_hal_tim_ex.c ****   /* Return function status */
1006:Drivers/STM32H7xx_HAL_Driver/Src/stm32h7xx_hal_tim_ex.c ****   return status;
 2909              		.loc 1 1006 10
 2910 02ec FB7D     		ldrb	r3, [r7, #23]	@ zero_extendqisi2
 2911              	.L143:
1007:Drivers/STM32H7xx_HAL_Driver/Src/stm32h7xx_hal_tim_ex.c **** }
 2912              		.loc 1 1007 1
 2913 02ee 1846     		mov	r0, r3
 2914 02f0 1837     		adds	r7, r7, #24
 2915              	.LCFI75:
 2916              		.cfi_def_cfa_offset 8
 2917 02f2 BD46     		mov	sp, r7
 2918              	.LCFI76:
 2919              		.cfi_def_cfa_register 13
 2920              		@ sp needed
 2921 02f4 80BD     		pop	{r7, pc}
 2922              	.L172:
 2923 02f6 00BF     		.align	2
 2924              	.L171:
 2925 02f8 00000000 		.word	TIM_DMADelayPulseNCplt
 2926 02fc 00000000 		.word	TIM_DMADelayPulseHalfCplt
 2927 0300 00000000 		.word	TIM_DMAErrorCCxN
 2928 0304 00000140 		.word	1073807360
 2929 0308 00040040 		.word	1073742848
 2930 030c 00080040 		.word	1073743872
 2931 0310 000C0040 		.word	1073744896
 2932 0314 00040140 		.word	1073808384
 2933 0318 00180040 		.word	1073747968
 2934 031c 00400140 		.word	1073823744
 2935 0320 00E00040 		.word	1073799168
 2936 0324 00E40040 		.word	1073800192
 2937 0328 07000100 		.word	65543
 2938              		.cfi_endproc
 2939              	.LFE158:
 2941              		.section	.text.HAL_TIMEx_OCN_Stop_DMA,"ax",%progbits
 2942              		.align	1
ARM GAS  C:\Users\Su\AppData\Local\Temp\ccm0VnUy.s 			page 70


 2943              		.global	HAL_TIMEx_OCN_Stop_DMA
 2944              		.syntax unified
 2945              		.thumb
 2946              		.thumb_func
 2948              	HAL_TIMEx_OCN_Stop_DMA:
 2949              	.LFB159:
1008:Drivers/STM32H7xx_HAL_Driver/Src/stm32h7xx_hal_tim_ex.c **** 
1009:Drivers/STM32H7xx_HAL_Driver/Src/stm32h7xx_hal_tim_ex.c **** /**
1010:Drivers/STM32H7xx_HAL_Driver/Src/stm32h7xx_hal_tim_ex.c ****   * @brief  Stops the TIM Output Compare signal generation in DMA mode
1011:Drivers/STM32H7xx_HAL_Driver/Src/stm32h7xx_hal_tim_ex.c ****   *         on the complementary output.
1012:Drivers/STM32H7xx_HAL_Driver/Src/stm32h7xx_hal_tim_ex.c ****   * @param  htim TIM Output Compare handle
1013:Drivers/STM32H7xx_HAL_Driver/Src/stm32h7xx_hal_tim_ex.c ****   * @param  Channel TIM Channel to be disabled
1014:Drivers/STM32H7xx_HAL_Driver/Src/stm32h7xx_hal_tim_ex.c ****   *          This parameter can be one of the following values:
1015:Drivers/STM32H7xx_HAL_Driver/Src/stm32h7xx_hal_tim_ex.c ****   *            @arg TIM_CHANNEL_1: TIM Channel 1 selected
1016:Drivers/STM32H7xx_HAL_Driver/Src/stm32h7xx_hal_tim_ex.c ****   *            @arg TIM_CHANNEL_2: TIM Channel 2 selected
1017:Drivers/STM32H7xx_HAL_Driver/Src/stm32h7xx_hal_tim_ex.c ****   *            @arg TIM_CHANNEL_3: TIM Channel 3 selected
1018:Drivers/STM32H7xx_HAL_Driver/Src/stm32h7xx_hal_tim_ex.c ****   * @retval HAL status
1019:Drivers/STM32H7xx_HAL_Driver/Src/stm32h7xx_hal_tim_ex.c ****   */
1020:Drivers/STM32H7xx_HAL_Driver/Src/stm32h7xx_hal_tim_ex.c **** HAL_StatusTypeDef HAL_TIMEx_OCN_Stop_DMA(TIM_HandleTypeDef *htim, uint32_t Channel)
1021:Drivers/STM32H7xx_HAL_Driver/Src/stm32h7xx_hal_tim_ex.c **** {
 2950              		.loc 1 1021 1
 2951              		.cfi_startproc
 2952              		@ args = 0, pretend = 0, frame = 16
 2953              		@ frame_needed = 1, uses_anonymous_args = 0
 2954 0000 80B5     		push	{r7, lr}
 2955              	.LCFI77:
 2956              		.cfi_def_cfa_offset 8
 2957              		.cfi_offset 7, -8
 2958              		.cfi_offset 14, -4
 2959 0002 84B0     		sub	sp, sp, #16
 2960              	.LCFI78:
 2961              		.cfi_def_cfa_offset 24
 2962 0004 00AF     		add	r7, sp, #0
 2963              	.LCFI79:
 2964              		.cfi_def_cfa_register 7
 2965 0006 7860     		str	r0, [r7, #4]
 2966 0008 3960     		str	r1, [r7]
1022:Drivers/STM32H7xx_HAL_Driver/Src/stm32h7xx_hal_tim_ex.c ****   HAL_StatusTypeDef status = HAL_OK;
 2967              		.loc 1 1022 21
 2968 000a 0023     		movs	r3, #0
 2969 000c FB73     		strb	r3, [r7, #15]
1023:Drivers/STM32H7xx_HAL_Driver/Src/stm32h7xx_hal_tim_ex.c **** 
1024:Drivers/STM32H7xx_HAL_Driver/Src/stm32h7xx_hal_tim_ex.c ****   /* Check the parameters */
1025:Drivers/STM32H7xx_HAL_Driver/Src/stm32h7xx_hal_tim_ex.c ****   assert_param(IS_TIM_CCXN_INSTANCE(htim->Instance, Channel));
1026:Drivers/STM32H7xx_HAL_Driver/Src/stm32h7xx_hal_tim_ex.c **** 
1027:Drivers/STM32H7xx_HAL_Driver/Src/stm32h7xx_hal_tim_ex.c ****   switch (Channel)
 2970              		.loc 1 1027 3
 2971 000e 3B68     		ldr	r3, [r7]
 2972 0010 082B     		cmp	r3, #8
 2973 0012 25D0     		beq	.L174
 2974 0014 3B68     		ldr	r3, [r7]
 2975 0016 082B     		cmp	r3, #8
 2976 0018 30D8     		bhi	.L175
 2977 001a 3B68     		ldr	r3, [r7]
 2978 001c 002B     		cmp	r3, #0
 2979 001e 03D0     		beq	.L176
 2980 0020 3B68     		ldr	r3, [r7]
ARM GAS  C:\Users\Su\AppData\Local\Temp\ccm0VnUy.s 			page 71


 2981 0022 042B     		cmp	r3, #4
 2982 0024 0ED0     		beq	.L177
 2983 0026 29E0     		b	.L175
 2984              	.L176:
1028:Drivers/STM32H7xx_HAL_Driver/Src/stm32h7xx_hal_tim_ex.c ****   {
1029:Drivers/STM32H7xx_HAL_Driver/Src/stm32h7xx_hal_tim_ex.c ****     case TIM_CHANNEL_1:
1030:Drivers/STM32H7xx_HAL_Driver/Src/stm32h7xx_hal_tim_ex.c ****     {
1031:Drivers/STM32H7xx_HAL_Driver/Src/stm32h7xx_hal_tim_ex.c ****       /* Disable the TIM Output Compare DMA request */
1032:Drivers/STM32H7xx_HAL_Driver/Src/stm32h7xx_hal_tim_ex.c ****       __HAL_TIM_DISABLE_DMA(htim, TIM_DMA_CC1);
 2985              		.loc 1 1032 7
 2986 0028 7B68     		ldr	r3, [r7, #4]
 2987 002a 1B68     		ldr	r3, [r3]
 2988 002c DA68     		ldr	r2, [r3, #12]
 2989 002e 7B68     		ldr	r3, [r7, #4]
 2990 0030 1B68     		ldr	r3, [r3]
 2991 0032 22F40072 		bic	r2, r2, #512
 2992 0036 DA60     		str	r2, [r3, #12]
1033:Drivers/STM32H7xx_HAL_Driver/Src/stm32h7xx_hal_tim_ex.c ****       (void)HAL_DMA_Abort_IT(htim->hdma[TIM_DMA_ID_CC1]);
 2993              		.loc 1 1033 13
 2994 0038 7B68     		ldr	r3, [r7, #4]
 2995 003a 5B6A     		ldr	r3, [r3, #36]
 2996 003c 1846     		mov	r0, r3
 2997 003e FFF7FEFF 		bl	HAL_DMA_Abort_IT
1034:Drivers/STM32H7xx_HAL_Driver/Src/stm32h7xx_hal_tim_ex.c ****       break;
 2998              		.loc 1 1034 7
 2999 0042 1EE0     		b	.L178
 3000              	.L177:
1035:Drivers/STM32H7xx_HAL_Driver/Src/stm32h7xx_hal_tim_ex.c ****     }
1036:Drivers/STM32H7xx_HAL_Driver/Src/stm32h7xx_hal_tim_ex.c **** 
1037:Drivers/STM32H7xx_HAL_Driver/Src/stm32h7xx_hal_tim_ex.c ****     case TIM_CHANNEL_2:
1038:Drivers/STM32H7xx_HAL_Driver/Src/stm32h7xx_hal_tim_ex.c ****     {
1039:Drivers/STM32H7xx_HAL_Driver/Src/stm32h7xx_hal_tim_ex.c ****       /* Disable the TIM Output Compare DMA request */
1040:Drivers/STM32H7xx_HAL_Driver/Src/stm32h7xx_hal_tim_ex.c ****       __HAL_TIM_DISABLE_DMA(htim, TIM_DMA_CC2);
 3001              		.loc 1 1040 7
 3002 0044 7B68     		ldr	r3, [r7, #4]
 3003 0046 1B68     		ldr	r3, [r3]
 3004 0048 DA68     		ldr	r2, [r3, #12]
 3005 004a 7B68     		ldr	r3, [r7, #4]
 3006 004c 1B68     		ldr	r3, [r3]
 3007 004e 22F48062 		bic	r2, r2, #1024
 3008 0052 DA60     		str	r2, [r3, #12]
1041:Drivers/STM32H7xx_HAL_Driver/Src/stm32h7xx_hal_tim_ex.c ****       (void)HAL_DMA_Abort_IT(htim->hdma[TIM_DMA_ID_CC2]);
 3009              		.loc 1 1041 13
 3010 0054 7B68     		ldr	r3, [r7, #4]
 3011 0056 9B6A     		ldr	r3, [r3, #40]
 3012 0058 1846     		mov	r0, r3
 3013 005a FFF7FEFF 		bl	HAL_DMA_Abort_IT
1042:Drivers/STM32H7xx_HAL_Driver/Src/stm32h7xx_hal_tim_ex.c ****       break;
 3014              		.loc 1 1042 7
 3015 005e 10E0     		b	.L178
 3016              	.L174:
1043:Drivers/STM32H7xx_HAL_Driver/Src/stm32h7xx_hal_tim_ex.c ****     }
1044:Drivers/STM32H7xx_HAL_Driver/Src/stm32h7xx_hal_tim_ex.c **** 
1045:Drivers/STM32H7xx_HAL_Driver/Src/stm32h7xx_hal_tim_ex.c ****     case TIM_CHANNEL_3:
1046:Drivers/STM32H7xx_HAL_Driver/Src/stm32h7xx_hal_tim_ex.c ****     {
1047:Drivers/STM32H7xx_HAL_Driver/Src/stm32h7xx_hal_tim_ex.c ****       /* Disable the TIM Output Compare DMA request */
1048:Drivers/STM32H7xx_HAL_Driver/Src/stm32h7xx_hal_tim_ex.c ****       __HAL_TIM_DISABLE_DMA(htim, TIM_DMA_CC3);
ARM GAS  C:\Users\Su\AppData\Local\Temp\ccm0VnUy.s 			page 72


 3017              		.loc 1 1048 7
 3018 0060 7B68     		ldr	r3, [r7, #4]
 3019 0062 1B68     		ldr	r3, [r3]
 3020 0064 DA68     		ldr	r2, [r3, #12]
 3021 0066 7B68     		ldr	r3, [r7, #4]
 3022 0068 1B68     		ldr	r3, [r3]
 3023 006a 22F40062 		bic	r2, r2, #2048
 3024 006e DA60     		str	r2, [r3, #12]
1049:Drivers/STM32H7xx_HAL_Driver/Src/stm32h7xx_hal_tim_ex.c ****       (void)HAL_DMA_Abort_IT(htim->hdma[TIM_DMA_ID_CC3]);
 3025              		.loc 1 1049 13
 3026 0070 7B68     		ldr	r3, [r7, #4]
 3027 0072 DB6A     		ldr	r3, [r3, #44]
 3028 0074 1846     		mov	r0, r3
 3029 0076 FFF7FEFF 		bl	HAL_DMA_Abort_IT
1050:Drivers/STM32H7xx_HAL_Driver/Src/stm32h7xx_hal_tim_ex.c ****       break;
 3030              		.loc 1 1050 7
 3031 007a 02E0     		b	.L178
 3032              	.L175:
1051:Drivers/STM32H7xx_HAL_Driver/Src/stm32h7xx_hal_tim_ex.c ****     }
1052:Drivers/STM32H7xx_HAL_Driver/Src/stm32h7xx_hal_tim_ex.c **** 
1053:Drivers/STM32H7xx_HAL_Driver/Src/stm32h7xx_hal_tim_ex.c ****     default:
1054:Drivers/STM32H7xx_HAL_Driver/Src/stm32h7xx_hal_tim_ex.c ****       status = HAL_ERROR;
 3033              		.loc 1 1054 14
 3034 007c 0123     		movs	r3, #1
 3035 007e FB73     		strb	r3, [r7, #15]
1055:Drivers/STM32H7xx_HAL_Driver/Src/stm32h7xx_hal_tim_ex.c ****       break;
 3036              		.loc 1 1055 7
 3037 0080 00BF     		nop
 3038              	.L178:
1056:Drivers/STM32H7xx_HAL_Driver/Src/stm32h7xx_hal_tim_ex.c ****   }
1057:Drivers/STM32H7xx_HAL_Driver/Src/stm32h7xx_hal_tim_ex.c **** 
1058:Drivers/STM32H7xx_HAL_Driver/Src/stm32h7xx_hal_tim_ex.c ****   if (status == HAL_OK)
 3039              		.loc 1 1058 6
 3040 0082 FB7B     		ldrb	r3, [r7, #15]	@ zero_extendqisi2
 3041 0084 002B     		cmp	r3, #0
 3042 0086 52D1     		bne	.L179
1059:Drivers/STM32H7xx_HAL_Driver/Src/stm32h7xx_hal_tim_ex.c ****   {
1060:Drivers/STM32H7xx_HAL_Driver/Src/stm32h7xx_hal_tim_ex.c ****     /* Disable the Capture compare channel N */
1061:Drivers/STM32H7xx_HAL_Driver/Src/stm32h7xx_hal_tim_ex.c ****     TIM_CCxNChannelCmd(htim->Instance, Channel, TIM_CCxN_DISABLE);
 3043              		.loc 1 1061 5
 3044 0088 7B68     		ldr	r3, [r7, #4]
 3045 008a 1B68     		ldr	r3, [r3]
 3046 008c 0022     		movs	r2, #0
 3047 008e 3968     		ldr	r1, [r7]
 3048 0090 1846     		mov	r0, r3
 3049 0092 FFF7FEFF 		bl	TIM_CCxNChannelCmd
1062:Drivers/STM32H7xx_HAL_Driver/Src/stm32h7xx_hal_tim_ex.c **** 
1063:Drivers/STM32H7xx_HAL_Driver/Src/stm32h7xx_hal_tim_ex.c ****     /* Disable the Main Output */
1064:Drivers/STM32H7xx_HAL_Driver/Src/stm32h7xx_hal_tim_ex.c ****     __HAL_TIM_MOE_DISABLE(htim);
 3050              		.loc 1 1064 5
 3051 0096 7B68     		ldr	r3, [r7, #4]
 3052 0098 1B68     		ldr	r3, [r3]
 3053 009a 1A6A     		ldr	r2, [r3, #32]
 3054 009c 41F21113 		movw	r3, #4369
 3055 00a0 1340     		ands	r3, r3, r2
 3056 00a2 002B     		cmp	r3, #0
 3057 00a4 0FD1     		bne	.L180
ARM GAS  C:\Users\Su\AppData\Local\Temp\ccm0VnUy.s 			page 73


 3058              		.loc 1 1064 5 is_stmt 0 discriminator 1
 3059 00a6 7B68     		ldr	r3, [r7, #4]
 3060 00a8 1B68     		ldr	r3, [r3]
 3061 00aa 1A6A     		ldr	r2, [r3, #32]
 3062 00ac 40F24443 		movw	r3, #1092
 3063 00b0 1340     		ands	r3, r3, r2
 3064 00b2 002B     		cmp	r3, #0
 3065 00b4 07D1     		bne	.L180
 3066              		.loc 1 1064 5 discriminator 2
 3067 00b6 7B68     		ldr	r3, [r7, #4]
 3068 00b8 1B68     		ldr	r3, [r3]
 3069 00ba 5A6C     		ldr	r2, [r3, #68]
 3070 00bc 7B68     		ldr	r3, [r7, #4]
 3071 00be 1B68     		ldr	r3, [r3]
 3072 00c0 22F40042 		bic	r2, r2, #32768
 3073 00c4 5A64     		str	r2, [r3, #68]
 3074              	.L180:
1065:Drivers/STM32H7xx_HAL_Driver/Src/stm32h7xx_hal_tim_ex.c **** 
1066:Drivers/STM32H7xx_HAL_Driver/Src/stm32h7xx_hal_tim_ex.c ****     /* Disable the Peripheral */
1067:Drivers/STM32H7xx_HAL_Driver/Src/stm32h7xx_hal_tim_ex.c ****     __HAL_TIM_DISABLE(htim);
 3075              		.loc 1 1067 5 is_stmt 1
 3076 00c6 7B68     		ldr	r3, [r7, #4]
 3077 00c8 1B68     		ldr	r3, [r3]
 3078 00ca 1A6A     		ldr	r2, [r3, #32]
 3079 00cc 41F21113 		movw	r3, #4369
 3080 00d0 1340     		ands	r3, r3, r2
 3081 00d2 002B     		cmp	r3, #0
 3082 00d4 0FD1     		bne	.L181
 3083              		.loc 1 1067 5 is_stmt 0 discriminator 1
 3084 00d6 7B68     		ldr	r3, [r7, #4]
 3085 00d8 1B68     		ldr	r3, [r3]
 3086 00da 1A6A     		ldr	r2, [r3, #32]
 3087 00dc 40F24443 		movw	r3, #1092
 3088 00e0 1340     		ands	r3, r3, r2
 3089 00e2 002B     		cmp	r3, #0
 3090 00e4 07D1     		bne	.L181
 3091              		.loc 1 1067 5 discriminator 2
 3092 00e6 7B68     		ldr	r3, [r7, #4]
 3093 00e8 1B68     		ldr	r3, [r3]
 3094 00ea 1A68     		ldr	r2, [r3]
 3095 00ec 7B68     		ldr	r3, [r7, #4]
 3096 00ee 1B68     		ldr	r3, [r3]
 3097 00f0 22F00102 		bic	r2, r2, #1
 3098 00f4 1A60     		str	r2, [r3]
 3099              	.L181:
1068:Drivers/STM32H7xx_HAL_Driver/Src/stm32h7xx_hal_tim_ex.c **** 
1069:Drivers/STM32H7xx_HAL_Driver/Src/stm32h7xx_hal_tim_ex.c ****     /* Set the TIM complementary channel state */
1070:Drivers/STM32H7xx_HAL_Driver/Src/stm32h7xx_hal_tim_ex.c ****     TIM_CHANNEL_N_STATE_SET(htim, Channel, HAL_TIM_CHANNEL_STATE_READY);
 3100              		.loc 1 1070 5 is_stmt 1
 3101 00f6 3B68     		ldr	r3, [r7]
 3102 00f8 002B     		cmp	r3, #0
 3103 00fa 04D1     		bne	.L182
 3104              		.loc 1 1070 5 is_stmt 0 discriminator 1
 3105 00fc 7B68     		ldr	r3, [r7, #4]
 3106 00fe 0122     		movs	r2, #1
 3107 0100 83F84420 		strb	r2, [r3, #68]
 3108 0104 13E0     		b	.L179
ARM GAS  C:\Users\Su\AppData\Local\Temp\ccm0VnUy.s 			page 74


 3109              	.L182:
 3110              		.loc 1 1070 5 discriminator 2
 3111 0106 3B68     		ldr	r3, [r7]
 3112 0108 042B     		cmp	r3, #4
 3113 010a 04D1     		bne	.L183
 3114              		.loc 1 1070 5 discriminator 3
 3115 010c 7B68     		ldr	r3, [r7, #4]
 3116 010e 0122     		movs	r2, #1
 3117 0110 83F84520 		strb	r2, [r3, #69]
 3118 0114 0BE0     		b	.L179
 3119              	.L183:
 3120              		.loc 1 1070 5 discriminator 4
 3121 0116 3B68     		ldr	r3, [r7]
 3122 0118 082B     		cmp	r3, #8
 3123 011a 04D1     		bne	.L185
 3124              		.loc 1 1070 5 discriminator 6
 3125 011c 7B68     		ldr	r3, [r7, #4]
 3126 011e 0122     		movs	r2, #1
 3127 0120 83F84620 		strb	r2, [r3, #70]
 3128 0124 03E0     		b	.L179
 3129              	.L185:
 3130              		.loc 1 1070 5 discriminator 7
 3131 0126 7B68     		ldr	r3, [r7, #4]
 3132 0128 0122     		movs	r2, #1
 3133 012a 83F84720 		strb	r2, [r3, #71]
 3134              	.L179:
1071:Drivers/STM32H7xx_HAL_Driver/Src/stm32h7xx_hal_tim_ex.c ****   }
1072:Drivers/STM32H7xx_HAL_Driver/Src/stm32h7xx_hal_tim_ex.c **** 
1073:Drivers/STM32H7xx_HAL_Driver/Src/stm32h7xx_hal_tim_ex.c ****   /* Return function status */
1074:Drivers/STM32H7xx_HAL_Driver/Src/stm32h7xx_hal_tim_ex.c ****   return status;
 3135              		.loc 1 1074 10 is_stmt 1
 3136 012e FB7B     		ldrb	r3, [r7, #15]	@ zero_extendqisi2
1075:Drivers/STM32H7xx_HAL_Driver/Src/stm32h7xx_hal_tim_ex.c **** }
 3137              		.loc 1 1075 1
 3138 0130 1846     		mov	r0, r3
 3139 0132 1037     		adds	r7, r7, #16
 3140              	.LCFI80:
 3141              		.cfi_def_cfa_offset 8
 3142 0134 BD46     		mov	sp, r7
 3143              	.LCFI81:
 3144              		.cfi_def_cfa_register 13
 3145              		@ sp needed
 3146 0136 80BD     		pop	{r7, pc}
 3147              		.cfi_endproc
 3148              	.LFE159:
 3150              		.section	.text.HAL_TIMEx_PWMN_Start,"ax",%progbits
 3151              		.align	1
 3152              		.global	HAL_TIMEx_PWMN_Start
 3153              		.syntax unified
 3154              		.thumb
 3155              		.thumb_func
 3157              	HAL_TIMEx_PWMN_Start:
 3158              	.LFB160:
1076:Drivers/STM32H7xx_HAL_Driver/Src/stm32h7xx_hal_tim_ex.c **** 
1077:Drivers/STM32H7xx_HAL_Driver/Src/stm32h7xx_hal_tim_ex.c **** /**
1078:Drivers/STM32H7xx_HAL_Driver/Src/stm32h7xx_hal_tim_ex.c ****   * @}
1079:Drivers/STM32H7xx_HAL_Driver/Src/stm32h7xx_hal_tim_ex.c ****   */
ARM GAS  C:\Users\Su\AppData\Local\Temp\ccm0VnUy.s 			page 75


1080:Drivers/STM32H7xx_HAL_Driver/Src/stm32h7xx_hal_tim_ex.c **** 
1081:Drivers/STM32H7xx_HAL_Driver/Src/stm32h7xx_hal_tim_ex.c **** /** @defgroup TIMEx_Exported_Functions_Group3 Extended Timer Complementary PWM functions
1082:Drivers/STM32H7xx_HAL_Driver/Src/stm32h7xx_hal_tim_ex.c ****   * @brief    Timer Complementary PWM functions
1083:Drivers/STM32H7xx_HAL_Driver/Src/stm32h7xx_hal_tim_ex.c ****   *
1084:Drivers/STM32H7xx_HAL_Driver/Src/stm32h7xx_hal_tim_ex.c **** @verbatim
1085:Drivers/STM32H7xx_HAL_Driver/Src/stm32h7xx_hal_tim_ex.c ****   ==============================================================================
1086:Drivers/STM32H7xx_HAL_Driver/Src/stm32h7xx_hal_tim_ex.c ****                  ##### Timer Complementary PWM functions #####
1087:Drivers/STM32H7xx_HAL_Driver/Src/stm32h7xx_hal_tim_ex.c ****   ==============================================================================
1088:Drivers/STM32H7xx_HAL_Driver/Src/stm32h7xx_hal_tim_ex.c ****   [..]
1089:Drivers/STM32H7xx_HAL_Driver/Src/stm32h7xx_hal_tim_ex.c ****     This section provides functions allowing to:
1090:Drivers/STM32H7xx_HAL_Driver/Src/stm32h7xx_hal_tim_ex.c ****     (+) Start the Complementary PWM.
1091:Drivers/STM32H7xx_HAL_Driver/Src/stm32h7xx_hal_tim_ex.c ****     (+) Stop the Complementary PWM.
1092:Drivers/STM32H7xx_HAL_Driver/Src/stm32h7xx_hal_tim_ex.c ****     (+) Start the Complementary PWM and enable interrupts.
1093:Drivers/STM32H7xx_HAL_Driver/Src/stm32h7xx_hal_tim_ex.c ****     (+) Stop the Complementary PWM and disable interrupts.
1094:Drivers/STM32H7xx_HAL_Driver/Src/stm32h7xx_hal_tim_ex.c ****     (+) Start the Complementary PWM and enable DMA transfers.
1095:Drivers/STM32H7xx_HAL_Driver/Src/stm32h7xx_hal_tim_ex.c ****     (+) Stop the Complementary PWM and disable DMA transfers.
1096:Drivers/STM32H7xx_HAL_Driver/Src/stm32h7xx_hal_tim_ex.c ****     (+) Start the Complementary Input Capture measurement.
1097:Drivers/STM32H7xx_HAL_Driver/Src/stm32h7xx_hal_tim_ex.c ****     (+) Stop the Complementary Input Capture.
1098:Drivers/STM32H7xx_HAL_Driver/Src/stm32h7xx_hal_tim_ex.c ****     (+) Start the Complementary Input Capture and enable interrupts.
1099:Drivers/STM32H7xx_HAL_Driver/Src/stm32h7xx_hal_tim_ex.c ****     (+) Stop the Complementary Input Capture and disable interrupts.
1100:Drivers/STM32H7xx_HAL_Driver/Src/stm32h7xx_hal_tim_ex.c ****     (+) Start the Complementary Input Capture and enable DMA transfers.
1101:Drivers/STM32H7xx_HAL_Driver/Src/stm32h7xx_hal_tim_ex.c ****     (+) Stop the Complementary Input Capture and disable DMA transfers.
1102:Drivers/STM32H7xx_HAL_Driver/Src/stm32h7xx_hal_tim_ex.c ****     (+) Start the Complementary One Pulse generation.
1103:Drivers/STM32H7xx_HAL_Driver/Src/stm32h7xx_hal_tim_ex.c ****     (+) Stop the Complementary One Pulse.
1104:Drivers/STM32H7xx_HAL_Driver/Src/stm32h7xx_hal_tim_ex.c ****     (+) Start the Complementary One Pulse and enable interrupts.
1105:Drivers/STM32H7xx_HAL_Driver/Src/stm32h7xx_hal_tim_ex.c ****     (+) Stop the Complementary One Pulse and disable interrupts.
1106:Drivers/STM32H7xx_HAL_Driver/Src/stm32h7xx_hal_tim_ex.c **** 
1107:Drivers/STM32H7xx_HAL_Driver/Src/stm32h7xx_hal_tim_ex.c **** @endverbatim
1108:Drivers/STM32H7xx_HAL_Driver/Src/stm32h7xx_hal_tim_ex.c ****   * @{
1109:Drivers/STM32H7xx_HAL_Driver/Src/stm32h7xx_hal_tim_ex.c ****   */
1110:Drivers/STM32H7xx_HAL_Driver/Src/stm32h7xx_hal_tim_ex.c **** 
1111:Drivers/STM32H7xx_HAL_Driver/Src/stm32h7xx_hal_tim_ex.c **** /**
1112:Drivers/STM32H7xx_HAL_Driver/Src/stm32h7xx_hal_tim_ex.c ****   * @brief  Starts the PWM signal generation on the complementary output.
1113:Drivers/STM32H7xx_HAL_Driver/Src/stm32h7xx_hal_tim_ex.c ****   * @param  htim TIM handle
1114:Drivers/STM32H7xx_HAL_Driver/Src/stm32h7xx_hal_tim_ex.c ****   * @param  Channel TIM Channel to be enabled
1115:Drivers/STM32H7xx_HAL_Driver/Src/stm32h7xx_hal_tim_ex.c ****   *          This parameter can be one of the following values:
1116:Drivers/STM32H7xx_HAL_Driver/Src/stm32h7xx_hal_tim_ex.c ****   *            @arg TIM_CHANNEL_1: TIM Channel 1 selected
1117:Drivers/STM32H7xx_HAL_Driver/Src/stm32h7xx_hal_tim_ex.c ****   *            @arg TIM_CHANNEL_2: TIM Channel 2 selected
1118:Drivers/STM32H7xx_HAL_Driver/Src/stm32h7xx_hal_tim_ex.c ****   *            @arg TIM_CHANNEL_3: TIM Channel 3 selected
1119:Drivers/STM32H7xx_HAL_Driver/Src/stm32h7xx_hal_tim_ex.c ****   * @retval HAL status
1120:Drivers/STM32H7xx_HAL_Driver/Src/stm32h7xx_hal_tim_ex.c ****   */
1121:Drivers/STM32H7xx_HAL_Driver/Src/stm32h7xx_hal_tim_ex.c **** HAL_StatusTypeDef HAL_TIMEx_PWMN_Start(TIM_HandleTypeDef *htim, uint32_t Channel)
1122:Drivers/STM32H7xx_HAL_Driver/Src/stm32h7xx_hal_tim_ex.c **** {
 3159              		.loc 1 1122 1
 3160              		.cfi_startproc
 3161              		@ args = 0, pretend = 0, frame = 16
 3162              		@ frame_needed = 1, uses_anonymous_args = 0
 3163 0000 80B5     		push	{r7, lr}
 3164              	.LCFI82:
 3165              		.cfi_def_cfa_offset 8
 3166              		.cfi_offset 7, -8
 3167              		.cfi_offset 14, -4
 3168 0002 84B0     		sub	sp, sp, #16
 3169              	.LCFI83:
 3170              		.cfi_def_cfa_offset 24
 3171 0004 00AF     		add	r7, sp, #0
 3172              	.LCFI84:
ARM GAS  C:\Users\Su\AppData\Local\Temp\ccm0VnUy.s 			page 76


 3173              		.cfi_def_cfa_register 7
 3174 0006 7860     		str	r0, [r7, #4]
 3175 0008 3960     		str	r1, [r7]
1123:Drivers/STM32H7xx_HAL_Driver/Src/stm32h7xx_hal_tim_ex.c ****   uint32_t tmpsmcr;
1124:Drivers/STM32H7xx_HAL_Driver/Src/stm32h7xx_hal_tim_ex.c **** 
1125:Drivers/STM32H7xx_HAL_Driver/Src/stm32h7xx_hal_tim_ex.c ****   /* Check the parameters */
1126:Drivers/STM32H7xx_HAL_Driver/Src/stm32h7xx_hal_tim_ex.c ****   assert_param(IS_TIM_CCXN_INSTANCE(htim->Instance, Channel));
1127:Drivers/STM32H7xx_HAL_Driver/Src/stm32h7xx_hal_tim_ex.c **** 
1128:Drivers/STM32H7xx_HAL_Driver/Src/stm32h7xx_hal_tim_ex.c ****   /* Check the TIM complementary channel state */
1129:Drivers/STM32H7xx_HAL_Driver/Src/stm32h7xx_hal_tim_ex.c ****   if (TIM_CHANNEL_N_STATE_GET(htim, Channel) != HAL_TIM_CHANNEL_STATE_READY)
 3176              		.loc 1 1129 46
 3177 000a 3B68     		ldr	r3, [r7]
 3178 000c 002B     		cmp	r3, #0
 3179 000e 09D1     		bne	.L189
 3180              		.loc 1 1129 7 discriminator 1
 3181 0010 7B68     		ldr	r3, [r7, #4]
 3182 0012 93F84430 		ldrb	r3, [r3, #68]
 3183 0016 DBB2     		uxtb	r3, r3
 3184              		.loc 1 1129 46 discriminator 1
 3185 0018 012B     		cmp	r3, #1
 3186 001a 14BF     		ite	ne
 3187 001c 0123     		movne	r3, #1
 3188 001e 0023     		moveq	r3, #0
 3189 0020 DBB2     		uxtb	r3, r3
 3190 0022 22E0     		b	.L190
 3191              	.L189:
 3192              		.loc 1 1129 46 is_stmt 0 discriminator 2
 3193 0024 3B68     		ldr	r3, [r7]
 3194 0026 042B     		cmp	r3, #4
 3195 0028 09D1     		bne	.L191
 3196              		.loc 1 1129 7 is_stmt 1 discriminator 4
 3197 002a 7B68     		ldr	r3, [r7, #4]
 3198 002c 93F84530 		ldrb	r3, [r3, #69]
 3199 0030 DBB2     		uxtb	r3, r3
 3200              		.loc 1 1129 46 discriminator 4
 3201 0032 012B     		cmp	r3, #1
 3202 0034 14BF     		ite	ne
 3203 0036 0123     		movne	r3, #1
 3204 0038 0023     		moveq	r3, #0
 3205 003a DBB2     		uxtb	r3, r3
 3206 003c 15E0     		b	.L190
 3207              	.L191:
 3208              		.loc 1 1129 46 is_stmt 0 discriminator 5
 3209 003e 3B68     		ldr	r3, [r7]
 3210 0040 082B     		cmp	r3, #8
 3211 0042 09D1     		bne	.L193
 3212              		.loc 1 1129 7 is_stmt 1 discriminator 7
 3213 0044 7B68     		ldr	r3, [r7, #4]
 3214 0046 93F84630 		ldrb	r3, [r3, #70]
 3215 004a DBB2     		uxtb	r3, r3
 3216              		.loc 1 1129 46 discriminator 7
 3217 004c 012B     		cmp	r3, #1
 3218 004e 14BF     		ite	ne
 3219 0050 0123     		movne	r3, #1
 3220 0052 0023     		moveq	r3, #0
 3221 0054 DBB2     		uxtb	r3, r3
 3222 0056 08E0     		b	.L190
ARM GAS  C:\Users\Su\AppData\Local\Temp\ccm0VnUy.s 			page 77


 3223              	.L193:
 3224              		.loc 1 1129 7 discriminator 8
 3225 0058 7B68     		ldr	r3, [r7, #4]
 3226 005a 93F84730 		ldrb	r3, [r3, #71]
 3227 005e DBB2     		uxtb	r3, r3
 3228              		.loc 1 1129 46 discriminator 8
 3229 0060 012B     		cmp	r3, #1
 3230 0062 14BF     		ite	ne
 3231 0064 0123     		movne	r3, #1
 3232 0066 0023     		moveq	r3, #0
 3233 0068 DBB2     		uxtb	r3, r3
 3234              	.L190:
 3235              		.loc 1 1129 6 discriminator 12
 3236 006a 002B     		cmp	r3, #0
 3237 006c 01D0     		beq	.L195
1130:Drivers/STM32H7xx_HAL_Driver/Src/stm32h7xx_hal_tim_ex.c ****   {
1131:Drivers/STM32H7xx_HAL_Driver/Src/stm32h7xx_hal_tim_ex.c ****     return HAL_ERROR;
 3238              		.loc 1 1131 12
 3239 006e 0123     		movs	r3, #1
 3240 0070 7DE0     		b	.L196
 3241              	.L195:
1132:Drivers/STM32H7xx_HAL_Driver/Src/stm32h7xx_hal_tim_ex.c ****   }
1133:Drivers/STM32H7xx_HAL_Driver/Src/stm32h7xx_hal_tim_ex.c **** 
1134:Drivers/STM32H7xx_HAL_Driver/Src/stm32h7xx_hal_tim_ex.c ****   /* Set the TIM complementary channel state */
1135:Drivers/STM32H7xx_HAL_Driver/Src/stm32h7xx_hal_tim_ex.c ****   TIM_CHANNEL_N_STATE_SET(htim, Channel, HAL_TIM_CHANNEL_STATE_BUSY);
 3242              		.loc 1 1135 3
 3243 0072 3B68     		ldr	r3, [r7]
 3244 0074 002B     		cmp	r3, #0
 3245 0076 04D1     		bne	.L197
 3246              		.loc 1 1135 3 is_stmt 0 discriminator 1
 3247 0078 7B68     		ldr	r3, [r7, #4]
 3248 007a 0222     		movs	r2, #2
 3249 007c 83F84420 		strb	r2, [r3, #68]
 3250 0080 13E0     		b	.L198
 3251              	.L197:
 3252              		.loc 1 1135 3 discriminator 2
 3253 0082 3B68     		ldr	r3, [r7]
 3254 0084 042B     		cmp	r3, #4
 3255 0086 04D1     		bne	.L199
 3256              		.loc 1 1135 3 discriminator 3
 3257 0088 7B68     		ldr	r3, [r7, #4]
 3258 008a 0222     		movs	r2, #2
 3259 008c 83F84520 		strb	r2, [r3, #69]
 3260 0090 0BE0     		b	.L198
 3261              	.L199:
 3262              		.loc 1 1135 3 discriminator 4
 3263 0092 3B68     		ldr	r3, [r7]
 3264 0094 082B     		cmp	r3, #8
 3265 0096 04D1     		bne	.L201
 3266              		.loc 1 1135 3 discriminator 6
 3267 0098 7B68     		ldr	r3, [r7, #4]
 3268 009a 0222     		movs	r2, #2
 3269 009c 83F84620 		strb	r2, [r3, #70]
 3270 00a0 03E0     		b	.L198
 3271              	.L201:
 3272              		.loc 1 1135 3 discriminator 7
 3273 00a2 7B68     		ldr	r3, [r7, #4]
ARM GAS  C:\Users\Su\AppData\Local\Temp\ccm0VnUy.s 			page 78


 3274 00a4 0222     		movs	r2, #2
 3275 00a6 83F84720 		strb	r2, [r3, #71]
 3276              	.L198:
1136:Drivers/STM32H7xx_HAL_Driver/Src/stm32h7xx_hal_tim_ex.c **** 
1137:Drivers/STM32H7xx_HAL_Driver/Src/stm32h7xx_hal_tim_ex.c ****   /* Enable the complementary PWM output  */
1138:Drivers/STM32H7xx_HAL_Driver/Src/stm32h7xx_hal_tim_ex.c ****   TIM_CCxNChannelCmd(htim->Instance, Channel, TIM_CCxN_ENABLE);
 3277              		.loc 1 1138 3 is_stmt 1
 3278 00aa 7B68     		ldr	r3, [r7, #4]
 3279 00ac 1B68     		ldr	r3, [r3]
 3280 00ae 0422     		movs	r2, #4
 3281 00b0 3968     		ldr	r1, [r7]
 3282 00b2 1846     		mov	r0, r3
 3283 00b4 FFF7FEFF 		bl	TIM_CCxNChannelCmd
1139:Drivers/STM32H7xx_HAL_Driver/Src/stm32h7xx_hal_tim_ex.c **** 
1140:Drivers/STM32H7xx_HAL_Driver/Src/stm32h7xx_hal_tim_ex.c ****   /* Enable the Main Output */
1141:Drivers/STM32H7xx_HAL_Driver/Src/stm32h7xx_hal_tim_ex.c ****   __HAL_TIM_MOE_ENABLE(htim);
 3284              		.loc 1 1141 3
 3285 00b8 7B68     		ldr	r3, [r7, #4]
 3286 00ba 1B68     		ldr	r3, [r3]
 3287 00bc 5A6C     		ldr	r2, [r3, #68]
 3288 00be 7B68     		ldr	r3, [r7, #4]
 3289 00c0 1B68     		ldr	r3, [r3]
 3290 00c2 42F40042 		orr	r2, r2, #32768
 3291 00c6 5A64     		str	r2, [r3, #68]
1142:Drivers/STM32H7xx_HAL_Driver/Src/stm32h7xx_hal_tim_ex.c **** 
1143:Drivers/STM32H7xx_HAL_Driver/Src/stm32h7xx_hal_tim_ex.c ****   /* Enable the Peripheral, except in trigger mode where enable is automatically done with trigger 
1144:Drivers/STM32H7xx_HAL_Driver/Src/stm32h7xx_hal_tim_ex.c ****   if (IS_TIM_SLAVE_INSTANCE(htim->Instance))
 3292              		.loc 1 1144 7
 3293 00c8 7B68     		ldr	r3, [r7, #4]
 3294 00ca 1B68     		ldr	r3, [r3]
 3295              		.loc 1 1144 6
 3296 00cc 2A4A     		ldr	r2, .L208
 3297 00ce 9342     		cmp	r3, r2
 3298 00d0 2CD0     		beq	.L203
 3299              		.loc 1 1144 7 discriminator 1
 3300 00d2 7B68     		ldr	r3, [r7, #4]
 3301 00d4 1B68     		ldr	r3, [r3]
 3302 00d6 B3F1804F 		cmp	r3, #1073741824
 3303 00da 27D0     		beq	.L203
 3304              		.loc 1 1144 7 is_stmt 0 discriminator 2
 3305 00dc 7B68     		ldr	r3, [r7, #4]
 3306 00de 1B68     		ldr	r3, [r3]
 3307 00e0 264A     		ldr	r2, .L208+4
 3308 00e2 9342     		cmp	r3, r2
 3309 00e4 22D0     		beq	.L203
 3310              		.loc 1 1144 7 discriminator 3
 3311 00e6 7B68     		ldr	r3, [r7, #4]
 3312 00e8 1B68     		ldr	r3, [r3]
 3313 00ea 254A     		ldr	r2, .L208+8
 3314 00ec 9342     		cmp	r3, r2
 3315 00ee 1DD0     		beq	.L203
 3316              		.loc 1 1144 7 discriminator 4
 3317 00f0 7B68     		ldr	r3, [r7, #4]
 3318 00f2 1B68     		ldr	r3, [r3]
 3319 00f4 234A     		ldr	r2, .L208+12
 3320 00f6 9342     		cmp	r3, r2
 3321 00f8 18D0     		beq	.L203
ARM GAS  C:\Users\Su\AppData\Local\Temp\ccm0VnUy.s 			page 79


 3322              		.loc 1 1144 7 discriminator 5
 3323 00fa 7B68     		ldr	r3, [r7, #4]
 3324 00fc 1B68     		ldr	r3, [r3]
 3325 00fe 224A     		ldr	r2, .L208+16
 3326 0100 9342     		cmp	r3, r2
 3327 0102 13D0     		beq	.L203
 3328              		.loc 1 1144 7 discriminator 6
 3329 0104 7B68     		ldr	r3, [r7, #4]
 3330 0106 1B68     		ldr	r3, [r3]
 3331 0108 204A     		ldr	r2, .L208+20
 3332 010a 9342     		cmp	r3, r2
 3333 010c 0ED0     		beq	.L203
 3334              		.loc 1 1144 7 discriminator 7
 3335 010e 7B68     		ldr	r3, [r7, #4]
 3336 0110 1B68     		ldr	r3, [r3]
 3337 0112 1F4A     		ldr	r2, .L208+24
 3338 0114 9342     		cmp	r3, r2
 3339 0116 09D0     		beq	.L203
 3340              		.loc 1 1144 7 discriminator 8
 3341 0118 7B68     		ldr	r3, [r7, #4]
 3342 011a 1B68     		ldr	r3, [r3]
 3343 011c 1D4A     		ldr	r2, .L208+28
 3344 011e 9342     		cmp	r3, r2
 3345 0120 04D0     		beq	.L203
 3346              		.loc 1 1144 7 discriminator 9
 3347 0122 7B68     		ldr	r3, [r7, #4]
 3348 0124 1B68     		ldr	r3, [r3]
 3349 0126 1C4A     		ldr	r2, .L208+32
 3350 0128 9342     		cmp	r3, r2
 3351 012a 15D1     		bne	.L204
 3352              	.L203:
1145:Drivers/STM32H7xx_HAL_Driver/Src/stm32h7xx_hal_tim_ex.c ****   {
1146:Drivers/STM32H7xx_HAL_Driver/Src/stm32h7xx_hal_tim_ex.c ****     tmpsmcr = htim->Instance->SMCR & TIM_SMCR_SMS;
 3353              		.loc 1 1146 19 is_stmt 1
 3354 012c 7B68     		ldr	r3, [r7, #4]
 3355 012e 1B68     		ldr	r3, [r3]
 3356              		.loc 1 1146 29
 3357 0130 9A68     		ldr	r2, [r3, #8]
 3358              		.loc 1 1146 13
 3359 0132 1A4B     		ldr	r3, .L208+36
 3360 0134 1340     		ands	r3, r3, r2
 3361 0136 FB60     		str	r3, [r7, #12]
1147:Drivers/STM32H7xx_HAL_Driver/Src/stm32h7xx_hal_tim_ex.c ****     if (!IS_TIM_SLAVEMODE_TRIGGER_ENABLED(tmpsmcr))
 3362              		.loc 1 1147 8
 3363 0138 FB68     		ldr	r3, [r7, #12]
 3364 013a 062B     		cmp	r3, #6
 3365 013c 15D0     		beq	.L207
 3366              		.loc 1 1147 9 discriminator 1
 3367 013e FB68     		ldr	r3, [r7, #12]
 3368 0140 B3F5803F 		cmp	r3, #65536
 3369 0144 11D0     		beq	.L207
1148:Drivers/STM32H7xx_HAL_Driver/Src/stm32h7xx_hal_tim_ex.c ****     {
1149:Drivers/STM32H7xx_HAL_Driver/Src/stm32h7xx_hal_tim_ex.c ****       __HAL_TIM_ENABLE(htim);
 3370              		.loc 1 1149 7
 3371 0146 7B68     		ldr	r3, [r7, #4]
 3372 0148 1B68     		ldr	r3, [r3]
 3373 014a 1A68     		ldr	r2, [r3]
ARM GAS  C:\Users\Su\AppData\Local\Temp\ccm0VnUy.s 			page 80


 3374 014c 7B68     		ldr	r3, [r7, #4]
 3375 014e 1B68     		ldr	r3, [r3]
 3376 0150 42F00102 		orr	r2, r2, #1
 3377 0154 1A60     		str	r2, [r3]
1147:Drivers/STM32H7xx_HAL_Driver/Src/stm32h7xx_hal_tim_ex.c ****     if (!IS_TIM_SLAVEMODE_TRIGGER_ENABLED(tmpsmcr))
 3378              		.loc 1 1147 8
 3379 0156 08E0     		b	.L207
 3380              	.L204:
1150:Drivers/STM32H7xx_HAL_Driver/Src/stm32h7xx_hal_tim_ex.c ****     }
1151:Drivers/STM32H7xx_HAL_Driver/Src/stm32h7xx_hal_tim_ex.c ****   }
1152:Drivers/STM32H7xx_HAL_Driver/Src/stm32h7xx_hal_tim_ex.c ****   else
1153:Drivers/STM32H7xx_HAL_Driver/Src/stm32h7xx_hal_tim_ex.c ****   {
1154:Drivers/STM32H7xx_HAL_Driver/Src/stm32h7xx_hal_tim_ex.c ****     __HAL_TIM_ENABLE(htim);
 3381              		.loc 1 1154 5
 3382 0158 7B68     		ldr	r3, [r7, #4]
 3383 015a 1B68     		ldr	r3, [r3]
 3384 015c 1A68     		ldr	r2, [r3]
 3385 015e 7B68     		ldr	r3, [r7, #4]
 3386 0160 1B68     		ldr	r3, [r3]
 3387 0162 42F00102 		orr	r2, r2, #1
 3388 0166 1A60     		str	r2, [r3]
 3389 0168 00E0     		b	.L206
 3390              	.L207:
1147:Drivers/STM32H7xx_HAL_Driver/Src/stm32h7xx_hal_tim_ex.c ****     {
 3391              		.loc 1 1147 8
 3392 016a 00BF     		nop
 3393              	.L206:
1155:Drivers/STM32H7xx_HAL_Driver/Src/stm32h7xx_hal_tim_ex.c ****   }
1156:Drivers/STM32H7xx_HAL_Driver/Src/stm32h7xx_hal_tim_ex.c **** 
1157:Drivers/STM32H7xx_HAL_Driver/Src/stm32h7xx_hal_tim_ex.c ****   /* Return function status */
1158:Drivers/STM32H7xx_HAL_Driver/Src/stm32h7xx_hal_tim_ex.c ****   return HAL_OK;
 3394              		.loc 1 1158 10
 3395 016c 0023     		movs	r3, #0
 3396              	.L196:
1159:Drivers/STM32H7xx_HAL_Driver/Src/stm32h7xx_hal_tim_ex.c **** }
 3397              		.loc 1 1159 1
 3398 016e 1846     		mov	r0, r3
 3399 0170 1037     		adds	r7, r7, #16
 3400              	.LCFI85:
 3401              		.cfi_def_cfa_offset 8
 3402 0172 BD46     		mov	sp, r7
 3403              	.LCFI86:
 3404              		.cfi_def_cfa_register 13
 3405              		@ sp needed
 3406 0174 80BD     		pop	{r7, pc}
 3407              	.L209:
 3408 0176 00BF     		.align	2
 3409              	.L208:
 3410 0178 00000140 		.word	1073807360
 3411 017c 00040040 		.word	1073742848
 3412 0180 00080040 		.word	1073743872
 3413 0184 000C0040 		.word	1073744896
 3414 0188 00040140 		.word	1073808384
 3415 018c 00180040 		.word	1073747968
 3416 0190 00400140 		.word	1073823744
 3417 0194 00E00040 		.word	1073799168
 3418 0198 00E40040 		.word	1073800192
ARM GAS  C:\Users\Su\AppData\Local\Temp\ccm0VnUy.s 			page 81


 3419 019c 07000100 		.word	65543
 3420              		.cfi_endproc
 3421              	.LFE160:
 3423              		.section	.text.HAL_TIMEx_PWMN_Stop,"ax",%progbits
 3424              		.align	1
 3425              		.global	HAL_TIMEx_PWMN_Stop
 3426              		.syntax unified
 3427              		.thumb
 3428              		.thumb_func
 3430              	HAL_TIMEx_PWMN_Stop:
 3431              	.LFB161:
1160:Drivers/STM32H7xx_HAL_Driver/Src/stm32h7xx_hal_tim_ex.c **** 
1161:Drivers/STM32H7xx_HAL_Driver/Src/stm32h7xx_hal_tim_ex.c **** /**
1162:Drivers/STM32H7xx_HAL_Driver/Src/stm32h7xx_hal_tim_ex.c ****   * @brief  Stops the PWM signal generation on the complementary output.
1163:Drivers/STM32H7xx_HAL_Driver/Src/stm32h7xx_hal_tim_ex.c ****   * @param  htim TIM handle
1164:Drivers/STM32H7xx_HAL_Driver/Src/stm32h7xx_hal_tim_ex.c ****   * @param  Channel TIM Channel to be disabled
1165:Drivers/STM32H7xx_HAL_Driver/Src/stm32h7xx_hal_tim_ex.c ****   *          This parameter can be one of the following values:
1166:Drivers/STM32H7xx_HAL_Driver/Src/stm32h7xx_hal_tim_ex.c ****   *            @arg TIM_CHANNEL_1: TIM Channel 1 selected
1167:Drivers/STM32H7xx_HAL_Driver/Src/stm32h7xx_hal_tim_ex.c ****   *            @arg TIM_CHANNEL_2: TIM Channel 2 selected
1168:Drivers/STM32H7xx_HAL_Driver/Src/stm32h7xx_hal_tim_ex.c ****   *            @arg TIM_CHANNEL_3: TIM Channel 3 selected
1169:Drivers/STM32H7xx_HAL_Driver/Src/stm32h7xx_hal_tim_ex.c ****   * @retval HAL status
1170:Drivers/STM32H7xx_HAL_Driver/Src/stm32h7xx_hal_tim_ex.c ****   */
1171:Drivers/STM32H7xx_HAL_Driver/Src/stm32h7xx_hal_tim_ex.c **** HAL_StatusTypeDef HAL_TIMEx_PWMN_Stop(TIM_HandleTypeDef *htim, uint32_t Channel)
1172:Drivers/STM32H7xx_HAL_Driver/Src/stm32h7xx_hal_tim_ex.c **** {
 3432              		.loc 1 1172 1
 3433              		.cfi_startproc
 3434              		@ args = 0, pretend = 0, frame = 8
 3435              		@ frame_needed = 1, uses_anonymous_args = 0
 3436 0000 80B5     		push	{r7, lr}
 3437              	.LCFI87:
 3438              		.cfi_def_cfa_offset 8
 3439              		.cfi_offset 7, -8
 3440              		.cfi_offset 14, -4
 3441 0002 82B0     		sub	sp, sp, #8
 3442              	.LCFI88:
 3443              		.cfi_def_cfa_offset 16
 3444 0004 00AF     		add	r7, sp, #0
 3445              	.LCFI89:
 3446              		.cfi_def_cfa_register 7
 3447 0006 7860     		str	r0, [r7, #4]
 3448 0008 3960     		str	r1, [r7]
1173:Drivers/STM32H7xx_HAL_Driver/Src/stm32h7xx_hal_tim_ex.c ****   /* Check the parameters */
1174:Drivers/STM32H7xx_HAL_Driver/Src/stm32h7xx_hal_tim_ex.c ****   assert_param(IS_TIM_CCXN_INSTANCE(htim->Instance, Channel));
1175:Drivers/STM32H7xx_HAL_Driver/Src/stm32h7xx_hal_tim_ex.c **** 
1176:Drivers/STM32H7xx_HAL_Driver/Src/stm32h7xx_hal_tim_ex.c ****   /* Disable the complementary PWM output  */
1177:Drivers/STM32H7xx_HAL_Driver/Src/stm32h7xx_hal_tim_ex.c ****   TIM_CCxNChannelCmd(htim->Instance, Channel, TIM_CCxN_DISABLE);
 3449              		.loc 1 1177 3
 3450 000a 7B68     		ldr	r3, [r7, #4]
 3451 000c 1B68     		ldr	r3, [r3]
 3452 000e 0022     		movs	r2, #0
 3453 0010 3968     		ldr	r1, [r7]
 3454 0012 1846     		mov	r0, r3
 3455 0014 FFF7FEFF 		bl	TIM_CCxNChannelCmd
1178:Drivers/STM32H7xx_HAL_Driver/Src/stm32h7xx_hal_tim_ex.c **** 
1179:Drivers/STM32H7xx_HAL_Driver/Src/stm32h7xx_hal_tim_ex.c ****   /* Disable the Main Output */
1180:Drivers/STM32H7xx_HAL_Driver/Src/stm32h7xx_hal_tim_ex.c ****   __HAL_TIM_MOE_DISABLE(htim);
 3456              		.loc 1 1180 3
ARM GAS  C:\Users\Su\AppData\Local\Temp\ccm0VnUy.s 			page 82


 3457 0018 7B68     		ldr	r3, [r7, #4]
 3458 001a 1B68     		ldr	r3, [r3]
 3459 001c 1A6A     		ldr	r2, [r3, #32]
 3460 001e 41F21113 		movw	r3, #4369
 3461 0022 1340     		ands	r3, r3, r2
 3462 0024 002B     		cmp	r3, #0
 3463 0026 0FD1     		bne	.L211
 3464              		.loc 1 1180 3 is_stmt 0 discriminator 1
 3465 0028 7B68     		ldr	r3, [r7, #4]
 3466 002a 1B68     		ldr	r3, [r3]
 3467 002c 1A6A     		ldr	r2, [r3, #32]
 3468 002e 40F24443 		movw	r3, #1092
 3469 0032 1340     		ands	r3, r3, r2
 3470 0034 002B     		cmp	r3, #0
 3471 0036 07D1     		bne	.L211
 3472              		.loc 1 1180 3 discriminator 2
 3473 0038 7B68     		ldr	r3, [r7, #4]
 3474 003a 1B68     		ldr	r3, [r3]
 3475 003c 5A6C     		ldr	r2, [r3, #68]
 3476 003e 7B68     		ldr	r3, [r7, #4]
 3477 0040 1B68     		ldr	r3, [r3]
 3478 0042 22F40042 		bic	r2, r2, #32768
 3479 0046 5A64     		str	r2, [r3, #68]
 3480              	.L211:
1181:Drivers/STM32H7xx_HAL_Driver/Src/stm32h7xx_hal_tim_ex.c **** 
1182:Drivers/STM32H7xx_HAL_Driver/Src/stm32h7xx_hal_tim_ex.c ****   /* Disable the Peripheral */
1183:Drivers/STM32H7xx_HAL_Driver/Src/stm32h7xx_hal_tim_ex.c ****   __HAL_TIM_DISABLE(htim);
 3481              		.loc 1 1183 3 is_stmt 1
 3482 0048 7B68     		ldr	r3, [r7, #4]
 3483 004a 1B68     		ldr	r3, [r3]
 3484 004c 1A6A     		ldr	r2, [r3, #32]
 3485 004e 41F21113 		movw	r3, #4369
 3486 0052 1340     		ands	r3, r3, r2
 3487 0054 002B     		cmp	r3, #0
 3488 0056 0FD1     		bne	.L212
 3489              		.loc 1 1183 3 is_stmt 0 discriminator 1
 3490 0058 7B68     		ldr	r3, [r7, #4]
 3491 005a 1B68     		ldr	r3, [r3]
 3492 005c 1A6A     		ldr	r2, [r3, #32]
 3493 005e 40F24443 		movw	r3, #1092
 3494 0062 1340     		ands	r3, r3, r2
 3495 0064 002B     		cmp	r3, #0
 3496 0066 07D1     		bne	.L212
 3497              		.loc 1 1183 3 discriminator 2
 3498 0068 7B68     		ldr	r3, [r7, #4]
 3499 006a 1B68     		ldr	r3, [r3]
 3500 006c 1A68     		ldr	r2, [r3]
 3501 006e 7B68     		ldr	r3, [r7, #4]
 3502 0070 1B68     		ldr	r3, [r3]
 3503 0072 22F00102 		bic	r2, r2, #1
 3504 0076 1A60     		str	r2, [r3]
 3505              	.L212:
1184:Drivers/STM32H7xx_HAL_Driver/Src/stm32h7xx_hal_tim_ex.c **** 
1185:Drivers/STM32H7xx_HAL_Driver/Src/stm32h7xx_hal_tim_ex.c ****   /* Set the TIM complementary channel state */
1186:Drivers/STM32H7xx_HAL_Driver/Src/stm32h7xx_hal_tim_ex.c ****   TIM_CHANNEL_N_STATE_SET(htim, Channel, HAL_TIM_CHANNEL_STATE_READY);
 3506              		.loc 1 1186 3 is_stmt 1
 3507 0078 3B68     		ldr	r3, [r7]
ARM GAS  C:\Users\Su\AppData\Local\Temp\ccm0VnUy.s 			page 83


 3508 007a 002B     		cmp	r3, #0
 3509 007c 04D1     		bne	.L213
 3510              		.loc 1 1186 3 is_stmt 0 discriminator 1
 3511 007e 7B68     		ldr	r3, [r7, #4]
 3512 0080 0122     		movs	r2, #1
 3513 0082 83F84420 		strb	r2, [r3, #68]
 3514 0086 13E0     		b	.L214
 3515              	.L213:
 3516              		.loc 1 1186 3 discriminator 2
 3517 0088 3B68     		ldr	r3, [r7]
 3518 008a 042B     		cmp	r3, #4
 3519 008c 04D1     		bne	.L215
 3520              		.loc 1 1186 3 discriminator 3
 3521 008e 7B68     		ldr	r3, [r7, #4]
 3522 0090 0122     		movs	r2, #1
 3523 0092 83F84520 		strb	r2, [r3, #69]
 3524 0096 0BE0     		b	.L214
 3525              	.L215:
 3526              		.loc 1 1186 3 discriminator 4
 3527 0098 3B68     		ldr	r3, [r7]
 3528 009a 082B     		cmp	r3, #8
 3529 009c 04D1     		bne	.L217
 3530              		.loc 1 1186 3 discriminator 6
 3531 009e 7B68     		ldr	r3, [r7, #4]
 3532 00a0 0122     		movs	r2, #1
 3533 00a2 83F84620 		strb	r2, [r3, #70]
 3534 00a6 03E0     		b	.L214
 3535              	.L217:
 3536              		.loc 1 1186 3 discriminator 7
 3537 00a8 7B68     		ldr	r3, [r7, #4]
 3538 00aa 0122     		movs	r2, #1
 3539 00ac 83F84720 		strb	r2, [r3, #71]
 3540              	.L214:
1187:Drivers/STM32H7xx_HAL_Driver/Src/stm32h7xx_hal_tim_ex.c **** 
1188:Drivers/STM32H7xx_HAL_Driver/Src/stm32h7xx_hal_tim_ex.c ****   /* Return function status */
1189:Drivers/STM32H7xx_HAL_Driver/Src/stm32h7xx_hal_tim_ex.c ****   return HAL_OK;
 3541              		.loc 1 1189 10 is_stmt 1
 3542 00b0 0023     		movs	r3, #0
1190:Drivers/STM32H7xx_HAL_Driver/Src/stm32h7xx_hal_tim_ex.c **** }
 3543              		.loc 1 1190 1
 3544 00b2 1846     		mov	r0, r3
 3545 00b4 0837     		adds	r7, r7, #8
 3546              	.LCFI90:
 3547              		.cfi_def_cfa_offset 8
 3548 00b6 BD46     		mov	sp, r7
 3549              	.LCFI91:
 3550              		.cfi_def_cfa_register 13
 3551              		@ sp needed
 3552 00b8 80BD     		pop	{r7, pc}
 3553              		.cfi_endproc
 3554              	.LFE161:
 3556              		.section	.text.HAL_TIMEx_PWMN_Start_IT,"ax",%progbits
 3557              		.align	1
 3558              		.global	HAL_TIMEx_PWMN_Start_IT
 3559              		.syntax unified
 3560              		.thumb
 3561              		.thumb_func
ARM GAS  C:\Users\Su\AppData\Local\Temp\ccm0VnUy.s 			page 84


 3563              	HAL_TIMEx_PWMN_Start_IT:
 3564              	.LFB162:
1191:Drivers/STM32H7xx_HAL_Driver/Src/stm32h7xx_hal_tim_ex.c **** 
1192:Drivers/STM32H7xx_HAL_Driver/Src/stm32h7xx_hal_tim_ex.c **** /**
1193:Drivers/STM32H7xx_HAL_Driver/Src/stm32h7xx_hal_tim_ex.c ****   * @brief  Starts the PWM signal generation in interrupt mode on the
1194:Drivers/STM32H7xx_HAL_Driver/Src/stm32h7xx_hal_tim_ex.c ****   *         complementary output.
1195:Drivers/STM32H7xx_HAL_Driver/Src/stm32h7xx_hal_tim_ex.c ****   * @param  htim TIM handle
1196:Drivers/STM32H7xx_HAL_Driver/Src/stm32h7xx_hal_tim_ex.c ****   * @param  Channel TIM Channel to be disabled
1197:Drivers/STM32H7xx_HAL_Driver/Src/stm32h7xx_hal_tim_ex.c ****   *          This parameter can be one of the following values:
1198:Drivers/STM32H7xx_HAL_Driver/Src/stm32h7xx_hal_tim_ex.c ****   *            @arg TIM_CHANNEL_1: TIM Channel 1 selected
1199:Drivers/STM32H7xx_HAL_Driver/Src/stm32h7xx_hal_tim_ex.c ****   *            @arg TIM_CHANNEL_2: TIM Channel 2 selected
1200:Drivers/STM32H7xx_HAL_Driver/Src/stm32h7xx_hal_tim_ex.c ****   *            @arg TIM_CHANNEL_3: TIM Channel 3 selected
1201:Drivers/STM32H7xx_HAL_Driver/Src/stm32h7xx_hal_tim_ex.c ****   * @retval HAL status
1202:Drivers/STM32H7xx_HAL_Driver/Src/stm32h7xx_hal_tim_ex.c ****   */
1203:Drivers/STM32H7xx_HAL_Driver/Src/stm32h7xx_hal_tim_ex.c **** HAL_StatusTypeDef HAL_TIMEx_PWMN_Start_IT(TIM_HandleTypeDef *htim, uint32_t Channel)
1204:Drivers/STM32H7xx_HAL_Driver/Src/stm32h7xx_hal_tim_ex.c **** {
 3565              		.loc 1 1204 1
 3566              		.cfi_startproc
 3567              		@ args = 0, pretend = 0, frame = 16
 3568              		@ frame_needed = 1, uses_anonymous_args = 0
 3569 0000 80B5     		push	{r7, lr}
 3570              	.LCFI92:
 3571              		.cfi_def_cfa_offset 8
 3572              		.cfi_offset 7, -8
 3573              		.cfi_offset 14, -4
 3574 0002 84B0     		sub	sp, sp, #16
 3575              	.LCFI93:
 3576              		.cfi_def_cfa_offset 24
 3577 0004 00AF     		add	r7, sp, #0
 3578              	.LCFI94:
 3579              		.cfi_def_cfa_register 7
 3580 0006 7860     		str	r0, [r7, #4]
 3581 0008 3960     		str	r1, [r7]
1205:Drivers/STM32H7xx_HAL_Driver/Src/stm32h7xx_hal_tim_ex.c ****   HAL_StatusTypeDef status = HAL_OK;
 3582              		.loc 1 1205 21
 3583 000a 0023     		movs	r3, #0
 3584 000c FB73     		strb	r3, [r7, #15]
1206:Drivers/STM32H7xx_HAL_Driver/Src/stm32h7xx_hal_tim_ex.c ****   uint32_t tmpsmcr;
1207:Drivers/STM32H7xx_HAL_Driver/Src/stm32h7xx_hal_tim_ex.c **** 
1208:Drivers/STM32H7xx_HAL_Driver/Src/stm32h7xx_hal_tim_ex.c ****   /* Check the parameters */
1209:Drivers/STM32H7xx_HAL_Driver/Src/stm32h7xx_hal_tim_ex.c ****   assert_param(IS_TIM_CCXN_INSTANCE(htim->Instance, Channel));
1210:Drivers/STM32H7xx_HAL_Driver/Src/stm32h7xx_hal_tim_ex.c **** 
1211:Drivers/STM32H7xx_HAL_Driver/Src/stm32h7xx_hal_tim_ex.c ****   /* Check the TIM complementary channel state */
1212:Drivers/STM32H7xx_HAL_Driver/Src/stm32h7xx_hal_tim_ex.c ****   if (TIM_CHANNEL_N_STATE_GET(htim, Channel) != HAL_TIM_CHANNEL_STATE_READY)
 3585              		.loc 1 1212 46
 3586 000e 3B68     		ldr	r3, [r7]
 3587 0010 002B     		cmp	r3, #0
 3588 0012 09D1     		bne	.L221
 3589              		.loc 1 1212 7 discriminator 1
 3590 0014 7B68     		ldr	r3, [r7, #4]
 3591 0016 93F84430 		ldrb	r3, [r3, #68]
 3592 001a DBB2     		uxtb	r3, r3
 3593              		.loc 1 1212 46 discriminator 1
 3594 001c 012B     		cmp	r3, #1
 3595 001e 14BF     		ite	ne
 3596 0020 0123     		movne	r3, #1
 3597 0022 0023     		moveq	r3, #0
ARM GAS  C:\Users\Su\AppData\Local\Temp\ccm0VnUy.s 			page 85


 3598 0024 DBB2     		uxtb	r3, r3
 3599 0026 22E0     		b	.L222
 3600              	.L221:
 3601              		.loc 1 1212 46 is_stmt 0 discriminator 2
 3602 0028 3B68     		ldr	r3, [r7]
 3603 002a 042B     		cmp	r3, #4
 3604 002c 09D1     		bne	.L223
 3605              		.loc 1 1212 7 is_stmt 1 discriminator 4
 3606 002e 7B68     		ldr	r3, [r7, #4]
 3607 0030 93F84530 		ldrb	r3, [r3, #69]
 3608 0034 DBB2     		uxtb	r3, r3
 3609              		.loc 1 1212 46 discriminator 4
 3610 0036 012B     		cmp	r3, #1
 3611 0038 14BF     		ite	ne
 3612 003a 0123     		movne	r3, #1
 3613 003c 0023     		moveq	r3, #0
 3614 003e DBB2     		uxtb	r3, r3
 3615 0040 15E0     		b	.L222
 3616              	.L223:
 3617              		.loc 1 1212 46 is_stmt 0 discriminator 5
 3618 0042 3B68     		ldr	r3, [r7]
 3619 0044 082B     		cmp	r3, #8
 3620 0046 09D1     		bne	.L225
 3621              		.loc 1 1212 7 is_stmt 1 discriminator 7
 3622 0048 7B68     		ldr	r3, [r7, #4]
 3623 004a 93F84630 		ldrb	r3, [r3, #70]
 3624 004e DBB2     		uxtb	r3, r3
 3625              		.loc 1 1212 46 discriminator 7
 3626 0050 012B     		cmp	r3, #1
 3627 0052 14BF     		ite	ne
 3628 0054 0123     		movne	r3, #1
 3629 0056 0023     		moveq	r3, #0
 3630 0058 DBB2     		uxtb	r3, r3
 3631 005a 08E0     		b	.L222
 3632              	.L225:
 3633              		.loc 1 1212 7 discriminator 8
 3634 005c 7B68     		ldr	r3, [r7, #4]
 3635 005e 93F84730 		ldrb	r3, [r3, #71]
 3636 0062 DBB2     		uxtb	r3, r3
 3637              		.loc 1 1212 46 discriminator 8
 3638 0064 012B     		cmp	r3, #1
 3639 0066 14BF     		ite	ne
 3640 0068 0123     		movne	r3, #1
 3641 006a 0023     		moveq	r3, #0
 3642 006c DBB2     		uxtb	r3, r3
 3643              	.L222:
 3644              		.loc 1 1212 6 discriminator 12
 3645 006e 002B     		cmp	r3, #0
 3646 0070 01D0     		beq	.L227
1213:Drivers/STM32H7xx_HAL_Driver/Src/stm32h7xx_hal_tim_ex.c ****   {
1214:Drivers/STM32H7xx_HAL_Driver/Src/stm32h7xx_hal_tim_ex.c ****     return HAL_ERROR;
 3647              		.loc 1 1214 12
 3648 0072 0123     		movs	r3, #1
 3649 0074 B3E0     		b	.L228
 3650              	.L227:
1215:Drivers/STM32H7xx_HAL_Driver/Src/stm32h7xx_hal_tim_ex.c ****   }
1216:Drivers/STM32H7xx_HAL_Driver/Src/stm32h7xx_hal_tim_ex.c **** 
ARM GAS  C:\Users\Su\AppData\Local\Temp\ccm0VnUy.s 			page 86


1217:Drivers/STM32H7xx_HAL_Driver/Src/stm32h7xx_hal_tim_ex.c ****   /* Set the TIM complementary channel state */
1218:Drivers/STM32H7xx_HAL_Driver/Src/stm32h7xx_hal_tim_ex.c ****   TIM_CHANNEL_N_STATE_SET(htim, Channel, HAL_TIM_CHANNEL_STATE_BUSY);
 3651              		.loc 1 1218 3
 3652 0076 3B68     		ldr	r3, [r7]
 3653 0078 002B     		cmp	r3, #0
 3654 007a 04D1     		bne	.L229
 3655              		.loc 1 1218 3 is_stmt 0 discriminator 1
 3656 007c 7B68     		ldr	r3, [r7, #4]
 3657 007e 0222     		movs	r2, #2
 3658 0080 83F84420 		strb	r2, [r3, #68]
 3659 0084 13E0     		b	.L230
 3660              	.L229:
 3661              		.loc 1 1218 3 discriminator 2
 3662 0086 3B68     		ldr	r3, [r7]
 3663 0088 042B     		cmp	r3, #4
 3664 008a 04D1     		bne	.L231
 3665              		.loc 1 1218 3 discriminator 3
 3666 008c 7B68     		ldr	r3, [r7, #4]
 3667 008e 0222     		movs	r2, #2
 3668 0090 83F84520 		strb	r2, [r3, #69]
 3669 0094 0BE0     		b	.L230
 3670              	.L231:
 3671              		.loc 1 1218 3 discriminator 4
 3672 0096 3B68     		ldr	r3, [r7]
 3673 0098 082B     		cmp	r3, #8
 3674 009a 04D1     		bne	.L233
 3675              		.loc 1 1218 3 discriminator 6
 3676 009c 7B68     		ldr	r3, [r7, #4]
 3677 009e 0222     		movs	r2, #2
 3678 00a0 83F84620 		strb	r2, [r3, #70]
 3679 00a4 03E0     		b	.L230
 3680              	.L233:
 3681              		.loc 1 1218 3 discriminator 7
 3682 00a6 7B68     		ldr	r3, [r7, #4]
 3683 00a8 0222     		movs	r2, #2
 3684 00aa 83F84720 		strb	r2, [r3, #71]
 3685              	.L230:
1219:Drivers/STM32H7xx_HAL_Driver/Src/stm32h7xx_hal_tim_ex.c **** 
1220:Drivers/STM32H7xx_HAL_Driver/Src/stm32h7xx_hal_tim_ex.c ****   switch (Channel)
 3686              		.loc 1 1220 3 is_stmt 1
 3687 00ae 3B68     		ldr	r3, [r7]
 3688 00b0 082B     		cmp	r3, #8
 3689 00b2 1BD0     		beq	.L235
 3690 00b4 3B68     		ldr	r3, [r7]
 3691 00b6 082B     		cmp	r3, #8
 3692 00b8 21D8     		bhi	.L236
 3693 00ba 3B68     		ldr	r3, [r7]
 3694 00bc 002B     		cmp	r3, #0
 3695 00be 03D0     		beq	.L237
 3696 00c0 3B68     		ldr	r3, [r7]
 3697 00c2 042B     		cmp	r3, #4
 3698 00c4 09D0     		beq	.L238
 3699 00c6 1AE0     		b	.L236
 3700              	.L237:
1221:Drivers/STM32H7xx_HAL_Driver/Src/stm32h7xx_hal_tim_ex.c ****   {
1222:Drivers/STM32H7xx_HAL_Driver/Src/stm32h7xx_hal_tim_ex.c ****     case TIM_CHANNEL_1:
1223:Drivers/STM32H7xx_HAL_Driver/Src/stm32h7xx_hal_tim_ex.c ****     {
ARM GAS  C:\Users\Su\AppData\Local\Temp\ccm0VnUy.s 			page 87


1224:Drivers/STM32H7xx_HAL_Driver/Src/stm32h7xx_hal_tim_ex.c ****       /* Enable the TIM Capture/Compare 1 interrupt */
1225:Drivers/STM32H7xx_HAL_Driver/Src/stm32h7xx_hal_tim_ex.c ****       __HAL_TIM_ENABLE_IT(htim, TIM_IT_CC1);
 3701              		.loc 1 1225 7
 3702 00c8 7B68     		ldr	r3, [r7, #4]
 3703 00ca 1B68     		ldr	r3, [r3]
 3704 00cc DA68     		ldr	r2, [r3, #12]
 3705 00ce 7B68     		ldr	r3, [r7, #4]
 3706 00d0 1B68     		ldr	r3, [r3]
 3707 00d2 42F00202 		orr	r2, r2, #2
 3708 00d6 DA60     		str	r2, [r3, #12]
1226:Drivers/STM32H7xx_HAL_Driver/Src/stm32h7xx_hal_tim_ex.c ****       break;
 3709              		.loc 1 1226 7
 3710 00d8 14E0     		b	.L239
 3711              	.L238:
1227:Drivers/STM32H7xx_HAL_Driver/Src/stm32h7xx_hal_tim_ex.c ****     }
1228:Drivers/STM32H7xx_HAL_Driver/Src/stm32h7xx_hal_tim_ex.c **** 
1229:Drivers/STM32H7xx_HAL_Driver/Src/stm32h7xx_hal_tim_ex.c ****     case TIM_CHANNEL_2:
1230:Drivers/STM32H7xx_HAL_Driver/Src/stm32h7xx_hal_tim_ex.c ****     {
1231:Drivers/STM32H7xx_HAL_Driver/Src/stm32h7xx_hal_tim_ex.c ****       /* Enable the TIM Capture/Compare 2 interrupt */
1232:Drivers/STM32H7xx_HAL_Driver/Src/stm32h7xx_hal_tim_ex.c ****       __HAL_TIM_ENABLE_IT(htim, TIM_IT_CC2);
 3712              		.loc 1 1232 7
 3713 00da 7B68     		ldr	r3, [r7, #4]
 3714 00dc 1B68     		ldr	r3, [r3]
 3715 00de DA68     		ldr	r2, [r3, #12]
 3716 00e0 7B68     		ldr	r3, [r7, #4]
 3717 00e2 1B68     		ldr	r3, [r3]
 3718 00e4 42F00402 		orr	r2, r2, #4
 3719 00e8 DA60     		str	r2, [r3, #12]
1233:Drivers/STM32H7xx_HAL_Driver/Src/stm32h7xx_hal_tim_ex.c ****       break;
 3720              		.loc 1 1233 7
 3721 00ea 0BE0     		b	.L239
 3722              	.L235:
1234:Drivers/STM32H7xx_HAL_Driver/Src/stm32h7xx_hal_tim_ex.c ****     }
1235:Drivers/STM32H7xx_HAL_Driver/Src/stm32h7xx_hal_tim_ex.c **** 
1236:Drivers/STM32H7xx_HAL_Driver/Src/stm32h7xx_hal_tim_ex.c ****     case TIM_CHANNEL_3:
1237:Drivers/STM32H7xx_HAL_Driver/Src/stm32h7xx_hal_tim_ex.c ****     {
1238:Drivers/STM32H7xx_HAL_Driver/Src/stm32h7xx_hal_tim_ex.c ****       /* Enable the TIM Capture/Compare 3 interrupt */
1239:Drivers/STM32H7xx_HAL_Driver/Src/stm32h7xx_hal_tim_ex.c ****       __HAL_TIM_ENABLE_IT(htim, TIM_IT_CC3);
 3723              		.loc 1 1239 7
 3724 00ec 7B68     		ldr	r3, [r7, #4]
 3725 00ee 1B68     		ldr	r3, [r3]
 3726 00f0 DA68     		ldr	r2, [r3, #12]
 3727 00f2 7B68     		ldr	r3, [r7, #4]
 3728 00f4 1B68     		ldr	r3, [r3]
 3729 00f6 42F00802 		orr	r2, r2, #8
 3730 00fa DA60     		str	r2, [r3, #12]
1240:Drivers/STM32H7xx_HAL_Driver/Src/stm32h7xx_hal_tim_ex.c ****       break;
 3731              		.loc 1 1240 7
 3732 00fc 02E0     		b	.L239
 3733              	.L236:
1241:Drivers/STM32H7xx_HAL_Driver/Src/stm32h7xx_hal_tim_ex.c ****     }
1242:Drivers/STM32H7xx_HAL_Driver/Src/stm32h7xx_hal_tim_ex.c **** 
1243:Drivers/STM32H7xx_HAL_Driver/Src/stm32h7xx_hal_tim_ex.c ****     default:
1244:Drivers/STM32H7xx_HAL_Driver/Src/stm32h7xx_hal_tim_ex.c ****       status = HAL_ERROR;
 3734              		.loc 1 1244 14
 3735 00fe 0123     		movs	r3, #1
 3736 0100 FB73     		strb	r3, [r7, #15]
ARM GAS  C:\Users\Su\AppData\Local\Temp\ccm0VnUy.s 			page 88


1245:Drivers/STM32H7xx_HAL_Driver/Src/stm32h7xx_hal_tim_ex.c ****       break;
 3737              		.loc 1 1245 7
 3738 0102 00BF     		nop
 3739              	.L239:
1246:Drivers/STM32H7xx_HAL_Driver/Src/stm32h7xx_hal_tim_ex.c ****   }
1247:Drivers/STM32H7xx_HAL_Driver/Src/stm32h7xx_hal_tim_ex.c **** 
1248:Drivers/STM32H7xx_HAL_Driver/Src/stm32h7xx_hal_tim_ex.c ****   if (status == HAL_OK)
 3740              		.loc 1 1248 6
 3741 0104 FB7B     		ldrb	r3, [r7, #15]	@ zero_extendqisi2
 3742 0106 002B     		cmp	r3, #0
 3743 0108 68D1     		bne	.L240
1249:Drivers/STM32H7xx_HAL_Driver/Src/stm32h7xx_hal_tim_ex.c ****   {
1250:Drivers/STM32H7xx_HAL_Driver/Src/stm32h7xx_hal_tim_ex.c ****     /* Enable the TIM Break interrupt */
1251:Drivers/STM32H7xx_HAL_Driver/Src/stm32h7xx_hal_tim_ex.c ****     __HAL_TIM_ENABLE_IT(htim, TIM_IT_BREAK);
 3744              		.loc 1 1251 5
 3745 010a 7B68     		ldr	r3, [r7, #4]
 3746 010c 1B68     		ldr	r3, [r3]
 3747 010e DA68     		ldr	r2, [r3, #12]
 3748 0110 7B68     		ldr	r3, [r7, #4]
 3749 0112 1B68     		ldr	r3, [r3]
 3750 0114 42F08002 		orr	r2, r2, #128
 3751 0118 DA60     		str	r2, [r3, #12]
1252:Drivers/STM32H7xx_HAL_Driver/Src/stm32h7xx_hal_tim_ex.c **** 
1253:Drivers/STM32H7xx_HAL_Driver/Src/stm32h7xx_hal_tim_ex.c ****     /* Enable the complementary PWM output  */
1254:Drivers/STM32H7xx_HAL_Driver/Src/stm32h7xx_hal_tim_ex.c ****     TIM_CCxNChannelCmd(htim->Instance, Channel, TIM_CCxN_ENABLE);
 3752              		.loc 1 1254 5
 3753 011a 7B68     		ldr	r3, [r7, #4]
 3754 011c 1B68     		ldr	r3, [r3]
 3755 011e 0422     		movs	r2, #4
 3756 0120 3968     		ldr	r1, [r7]
 3757 0122 1846     		mov	r0, r3
 3758 0124 FFF7FEFF 		bl	TIM_CCxNChannelCmd
1255:Drivers/STM32H7xx_HAL_Driver/Src/stm32h7xx_hal_tim_ex.c **** 
1256:Drivers/STM32H7xx_HAL_Driver/Src/stm32h7xx_hal_tim_ex.c ****     /* Enable the Main Output */
1257:Drivers/STM32H7xx_HAL_Driver/Src/stm32h7xx_hal_tim_ex.c ****     __HAL_TIM_MOE_ENABLE(htim);
 3759              		.loc 1 1257 5
 3760 0128 7B68     		ldr	r3, [r7, #4]
 3761 012a 1B68     		ldr	r3, [r3]
 3762 012c 5A6C     		ldr	r2, [r3, #68]
 3763 012e 7B68     		ldr	r3, [r7, #4]
 3764 0130 1B68     		ldr	r3, [r3]
 3765 0132 42F40042 		orr	r2, r2, #32768
 3766 0136 5A64     		str	r2, [r3, #68]
1258:Drivers/STM32H7xx_HAL_Driver/Src/stm32h7xx_hal_tim_ex.c **** 
1259:Drivers/STM32H7xx_HAL_Driver/Src/stm32h7xx_hal_tim_ex.c ****     /* Enable the Peripheral, except in trigger mode where enable is automatically done with trigge
1260:Drivers/STM32H7xx_HAL_Driver/Src/stm32h7xx_hal_tim_ex.c ****     if (IS_TIM_SLAVE_INSTANCE(htim->Instance))
 3767              		.loc 1 1260 9
 3768 0138 7B68     		ldr	r3, [r7, #4]
 3769 013a 1B68     		ldr	r3, [r3]
 3770              		.loc 1 1260 8
 3771 013c 2A4A     		ldr	r2, .L245
 3772 013e 9342     		cmp	r3, r2
 3773 0140 2CD0     		beq	.L241
 3774              		.loc 1 1260 9 discriminator 1
 3775 0142 7B68     		ldr	r3, [r7, #4]
 3776 0144 1B68     		ldr	r3, [r3]
 3777 0146 B3F1804F 		cmp	r3, #1073741824
ARM GAS  C:\Users\Su\AppData\Local\Temp\ccm0VnUy.s 			page 89


 3778 014a 27D0     		beq	.L241
 3779              		.loc 1 1260 9 is_stmt 0 discriminator 2
 3780 014c 7B68     		ldr	r3, [r7, #4]
 3781 014e 1B68     		ldr	r3, [r3]
 3782 0150 264A     		ldr	r2, .L245+4
 3783 0152 9342     		cmp	r3, r2
 3784 0154 22D0     		beq	.L241
 3785              		.loc 1 1260 9 discriminator 3
 3786 0156 7B68     		ldr	r3, [r7, #4]
 3787 0158 1B68     		ldr	r3, [r3]
 3788 015a 254A     		ldr	r2, .L245+8
 3789 015c 9342     		cmp	r3, r2
 3790 015e 1DD0     		beq	.L241
 3791              		.loc 1 1260 9 discriminator 4
 3792 0160 7B68     		ldr	r3, [r7, #4]
 3793 0162 1B68     		ldr	r3, [r3]
 3794 0164 234A     		ldr	r2, .L245+12
 3795 0166 9342     		cmp	r3, r2
 3796 0168 18D0     		beq	.L241
 3797              		.loc 1 1260 9 discriminator 5
 3798 016a 7B68     		ldr	r3, [r7, #4]
 3799 016c 1B68     		ldr	r3, [r3]
 3800 016e 224A     		ldr	r2, .L245+16
 3801 0170 9342     		cmp	r3, r2
 3802 0172 13D0     		beq	.L241
 3803              		.loc 1 1260 9 discriminator 6
 3804 0174 7B68     		ldr	r3, [r7, #4]
 3805 0176 1B68     		ldr	r3, [r3]
 3806 0178 204A     		ldr	r2, .L245+20
 3807 017a 9342     		cmp	r3, r2
 3808 017c 0ED0     		beq	.L241
 3809              		.loc 1 1260 9 discriminator 7
 3810 017e 7B68     		ldr	r3, [r7, #4]
 3811 0180 1B68     		ldr	r3, [r3]
 3812 0182 1F4A     		ldr	r2, .L245+24
 3813 0184 9342     		cmp	r3, r2
 3814 0186 09D0     		beq	.L241
 3815              		.loc 1 1260 9 discriminator 8
 3816 0188 7B68     		ldr	r3, [r7, #4]
 3817 018a 1B68     		ldr	r3, [r3]
 3818 018c 1D4A     		ldr	r2, .L245+28
 3819 018e 9342     		cmp	r3, r2
 3820 0190 04D0     		beq	.L241
 3821              		.loc 1 1260 9 discriminator 9
 3822 0192 7B68     		ldr	r3, [r7, #4]
 3823 0194 1B68     		ldr	r3, [r3]
 3824 0196 1C4A     		ldr	r2, .L245+32
 3825 0198 9342     		cmp	r3, r2
 3826 019a 15D1     		bne	.L242
 3827              	.L241:
1261:Drivers/STM32H7xx_HAL_Driver/Src/stm32h7xx_hal_tim_ex.c ****     {
1262:Drivers/STM32H7xx_HAL_Driver/Src/stm32h7xx_hal_tim_ex.c ****       tmpsmcr = htim->Instance->SMCR & TIM_SMCR_SMS;
 3828              		.loc 1 1262 21 is_stmt 1
 3829 019c 7B68     		ldr	r3, [r7, #4]
 3830 019e 1B68     		ldr	r3, [r3]
 3831              		.loc 1 1262 31
 3832 01a0 9A68     		ldr	r2, [r3, #8]
ARM GAS  C:\Users\Su\AppData\Local\Temp\ccm0VnUy.s 			page 90


 3833              		.loc 1 1262 15
 3834 01a2 1A4B     		ldr	r3, .L245+36
 3835 01a4 1340     		ands	r3, r3, r2
 3836 01a6 BB60     		str	r3, [r7, #8]
1263:Drivers/STM32H7xx_HAL_Driver/Src/stm32h7xx_hal_tim_ex.c ****       if (!IS_TIM_SLAVEMODE_TRIGGER_ENABLED(tmpsmcr))
 3837              		.loc 1 1263 10
 3838 01a8 BB68     		ldr	r3, [r7, #8]
 3839 01aa 062B     		cmp	r3, #6
 3840 01ac 15D0     		beq	.L244
 3841              		.loc 1 1263 11 discriminator 1
 3842 01ae BB68     		ldr	r3, [r7, #8]
 3843 01b0 B3F5803F 		cmp	r3, #65536
 3844 01b4 11D0     		beq	.L244
1264:Drivers/STM32H7xx_HAL_Driver/Src/stm32h7xx_hal_tim_ex.c ****       {
1265:Drivers/STM32H7xx_HAL_Driver/Src/stm32h7xx_hal_tim_ex.c ****         __HAL_TIM_ENABLE(htim);
 3845              		.loc 1 1265 9
 3846 01b6 7B68     		ldr	r3, [r7, #4]
 3847 01b8 1B68     		ldr	r3, [r3]
 3848 01ba 1A68     		ldr	r2, [r3]
 3849 01bc 7B68     		ldr	r3, [r7, #4]
 3850 01be 1B68     		ldr	r3, [r3]
 3851 01c0 42F00102 		orr	r2, r2, #1
 3852 01c4 1A60     		str	r2, [r3]
1263:Drivers/STM32H7xx_HAL_Driver/Src/stm32h7xx_hal_tim_ex.c ****       if (!IS_TIM_SLAVEMODE_TRIGGER_ENABLED(tmpsmcr))
 3853              		.loc 1 1263 10
 3854 01c6 08E0     		b	.L244
 3855              	.L242:
1266:Drivers/STM32H7xx_HAL_Driver/Src/stm32h7xx_hal_tim_ex.c ****       }
1267:Drivers/STM32H7xx_HAL_Driver/Src/stm32h7xx_hal_tim_ex.c ****     }
1268:Drivers/STM32H7xx_HAL_Driver/Src/stm32h7xx_hal_tim_ex.c ****     else
1269:Drivers/STM32H7xx_HAL_Driver/Src/stm32h7xx_hal_tim_ex.c ****     {
1270:Drivers/STM32H7xx_HAL_Driver/Src/stm32h7xx_hal_tim_ex.c ****       __HAL_TIM_ENABLE(htim);
 3856              		.loc 1 1270 7
 3857 01c8 7B68     		ldr	r3, [r7, #4]
 3858 01ca 1B68     		ldr	r3, [r3]
 3859 01cc 1A68     		ldr	r2, [r3]
 3860 01ce 7B68     		ldr	r3, [r7, #4]
 3861 01d0 1B68     		ldr	r3, [r3]
 3862 01d2 42F00102 		orr	r2, r2, #1
 3863 01d6 1A60     		str	r2, [r3]
 3864 01d8 00E0     		b	.L240
 3865              	.L244:
1263:Drivers/STM32H7xx_HAL_Driver/Src/stm32h7xx_hal_tim_ex.c ****       {
 3866              		.loc 1 1263 10
 3867 01da 00BF     		nop
 3868              	.L240:
1271:Drivers/STM32H7xx_HAL_Driver/Src/stm32h7xx_hal_tim_ex.c ****     }
1272:Drivers/STM32H7xx_HAL_Driver/Src/stm32h7xx_hal_tim_ex.c ****   }
1273:Drivers/STM32H7xx_HAL_Driver/Src/stm32h7xx_hal_tim_ex.c **** 
1274:Drivers/STM32H7xx_HAL_Driver/Src/stm32h7xx_hal_tim_ex.c ****   /* Return function status */
1275:Drivers/STM32H7xx_HAL_Driver/Src/stm32h7xx_hal_tim_ex.c ****   return status;
 3869              		.loc 1 1275 10
 3870 01dc FB7B     		ldrb	r3, [r7, #15]	@ zero_extendqisi2
 3871              	.L228:
1276:Drivers/STM32H7xx_HAL_Driver/Src/stm32h7xx_hal_tim_ex.c **** }
 3872              		.loc 1 1276 1
 3873 01de 1846     		mov	r0, r3
ARM GAS  C:\Users\Su\AppData\Local\Temp\ccm0VnUy.s 			page 91


 3874 01e0 1037     		adds	r7, r7, #16
 3875              	.LCFI95:
 3876              		.cfi_def_cfa_offset 8
 3877 01e2 BD46     		mov	sp, r7
 3878              	.LCFI96:
 3879              		.cfi_def_cfa_register 13
 3880              		@ sp needed
 3881 01e4 80BD     		pop	{r7, pc}
 3882              	.L246:
 3883 01e6 00BF     		.align	2
 3884              	.L245:
 3885 01e8 00000140 		.word	1073807360
 3886 01ec 00040040 		.word	1073742848
 3887 01f0 00080040 		.word	1073743872
 3888 01f4 000C0040 		.word	1073744896
 3889 01f8 00040140 		.word	1073808384
 3890 01fc 00180040 		.word	1073747968
 3891 0200 00400140 		.word	1073823744
 3892 0204 00E00040 		.word	1073799168
 3893 0208 00E40040 		.word	1073800192
 3894 020c 07000100 		.word	65543
 3895              		.cfi_endproc
 3896              	.LFE162:
 3898              		.section	.text.HAL_TIMEx_PWMN_Stop_IT,"ax",%progbits
 3899              		.align	1
 3900              		.global	HAL_TIMEx_PWMN_Stop_IT
 3901              		.syntax unified
 3902              		.thumb
 3903              		.thumb_func
 3905              	HAL_TIMEx_PWMN_Stop_IT:
 3906              	.LFB163:
1277:Drivers/STM32H7xx_HAL_Driver/Src/stm32h7xx_hal_tim_ex.c **** 
1278:Drivers/STM32H7xx_HAL_Driver/Src/stm32h7xx_hal_tim_ex.c **** /**
1279:Drivers/STM32H7xx_HAL_Driver/Src/stm32h7xx_hal_tim_ex.c ****   * @brief  Stops the PWM signal generation in interrupt mode on the
1280:Drivers/STM32H7xx_HAL_Driver/Src/stm32h7xx_hal_tim_ex.c ****   *         complementary output.
1281:Drivers/STM32H7xx_HAL_Driver/Src/stm32h7xx_hal_tim_ex.c ****   * @param  htim TIM handle
1282:Drivers/STM32H7xx_HAL_Driver/Src/stm32h7xx_hal_tim_ex.c ****   * @param  Channel TIM Channel to be disabled
1283:Drivers/STM32H7xx_HAL_Driver/Src/stm32h7xx_hal_tim_ex.c ****   *          This parameter can be one of the following values:
1284:Drivers/STM32H7xx_HAL_Driver/Src/stm32h7xx_hal_tim_ex.c ****   *            @arg TIM_CHANNEL_1: TIM Channel 1 selected
1285:Drivers/STM32H7xx_HAL_Driver/Src/stm32h7xx_hal_tim_ex.c ****   *            @arg TIM_CHANNEL_2: TIM Channel 2 selected
1286:Drivers/STM32H7xx_HAL_Driver/Src/stm32h7xx_hal_tim_ex.c ****   *            @arg TIM_CHANNEL_3: TIM Channel 3 selected
1287:Drivers/STM32H7xx_HAL_Driver/Src/stm32h7xx_hal_tim_ex.c ****   * @retval HAL status
1288:Drivers/STM32H7xx_HAL_Driver/Src/stm32h7xx_hal_tim_ex.c ****   */
1289:Drivers/STM32H7xx_HAL_Driver/Src/stm32h7xx_hal_tim_ex.c **** HAL_StatusTypeDef HAL_TIMEx_PWMN_Stop_IT(TIM_HandleTypeDef *htim, uint32_t Channel)
1290:Drivers/STM32H7xx_HAL_Driver/Src/stm32h7xx_hal_tim_ex.c **** {
 3907              		.loc 1 1290 1
 3908              		.cfi_startproc
 3909              		@ args = 0, pretend = 0, frame = 16
 3910              		@ frame_needed = 1, uses_anonymous_args = 0
 3911 0000 80B5     		push	{r7, lr}
 3912              	.LCFI97:
 3913              		.cfi_def_cfa_offset 8
 3914              		.cfi_offset 7, -8
 3915              		.cfi_offset 14, -4
 3916 0002 84B0     		sub	sp, sp, #16
 3917              	.LCFI98:
 3918              		.cfi_def_cfa_offset 24
ARM GAS  C:\Users\Su\AppData\Local\Temp\ccm0VnUy.s 			page 92


 3919 0004 00AF     		add	r7, sp, #0
 3920              	.LCFI99:
 3921              		.cfi_def_cfa_register 7
 3922 0006 7860     		str	r0, [r7, #4]
 3923 0008 3960     		str	r1, [r7]
1291:Drivers/STM32H7xx_HAL_Driver/Src/stm32h7xx_hal_tim_ex.c ****   HAL_StatusTypeDef status = HAL_OK;
 3924              		.loc 1 1291 21
 3925 000a 0023     		movs	r3, #0
 3926 000c FB73     		strb	r3, [r7, #15]
1292:Drivers/STM32H7xx_HAL_Driver/Src/stm32h7xx_hal_tim_ex.c ****   uint32_t tmpccer;
1293:Drivers/STM32H7xx_HAL_Driver/Src/stm32h7xx_hal_tim_ex.c **** 
1294:Drivers/STM32H7xx_HAL_Driver/Src/stm32h7xx_hal_tim_ex.c ****   /* Check the parameters */
1295:Drivers/STM32H7xx_HAL_Driver/Src/stm32h7xx_hal_tim_ex.c ****   assert_param(IS_TIM_CCXN_INSTANCE(htim->Instance, Channel));
1296:Drivers/STM32H7xx_HAL_Driver/Src/stm32h7xx_hal_tim_ex.c **** 
1297:Drivers/STM32H7xx_HAL_Driver/Src/stm32h7xx_hal_tim_ex.c ****   switch (Channel)
 3927              		.loc 1 1297 3
 3928 000e 3B68     		ldr	r3, [r7]
 3929 0010 082B     		cmp	r3, #8
 3930 0012 1BD0     		beq	.L248
 3931 0014 3B68     		ldr	r3, [r7]
 3932 0016 082B     		cmp	r3, #8
 3933 0018 21D8     		bhi	.L249
 3934 001a 3B68     		ldr	r3, [r7]
 3935 001c 002B     		cmp	r3, #0
 3936 001e 03D0     		beq	.L250
 3937 0020 3B68     		ldr	r3, [r7]
 3938 0022 042B     		cmp	r3, #4
 3939 0024 09D0     		beq	.L251
 3940 0026 1AE0     		b	.L249
 3941              	.L250:
1298:Drivers/STM32H7xx_HAL_Driver/Src/stm32h7xx_hal_tim_ex.c ****   {
1299:Drivers/STM32H7xx_HAL_Driver/Src/stm32h7xx_hal_tim_ex.c ****     case TIM_CHANNEL_1:
1300:Drivers/STM32H7xx_HAL_Driver/Src/stm32h7xx_hal_tim_ex.c ****     {
1301:Drivers/STM32H7xx_HAL_Driver/Src/stm32h7xx_hal_tim_ex.c ****       /* Disable the TIM Capture/Compare 1 interrupt */
1302:Drivers/STM32H7xx_HAL_Driver/Src/stm32h7xx_hal_tim_ex.c ****       __HAL_TIM_DISABLE_IT(htim, TIM_IT_CC1);
 3942              		.loc 1 1302 7
 3943 0028 7B68     		ldr	r3, [r7, #4]
 3944 002a 1B68     		ldr	r3, [r3]
 3945 002c DA68     		ldr	r2, [r3, #12]
 3946 002e 7B68     		ldr	r3, [r7, #4]
 3947 0030 1B68     		ldr	r3, [r3]
 3948 0032 22F00202 		bic	r2, r2, #2
 3949 0036 DA60     		str	r2, [r3, #12]
1303:Drivers/STM32H7xx_HAL_Driver/Src/stm32h7xx_hal_tim_ex.c ****       break;
 3950              		.loc 1 1303 7
 3951 0038 14E0     		b	.L252
 3952              	.L251:
1304:Drivers/STM32H7xx_HAL_Driver/Src/stm32h7xx_hal_tim_ex.c ****     }
1305:Drivers/STM32H7xx_HAL_Driver/Src/stm32h7xx_hal_tim_ex.c **** 
1306:Drivers/STM32H7xx_HAL_Driver/Src/stm32h7xx_hal_tim_ex.c ****     case TIM_CHANNEL_2:
1307:Drivers/STM32H7xx_HAL_Driver/Src/stm32h7xx_hal_tim_ex.c ****     {
1308:Drivers/STM32H7xx_HAL_Driver/Src/stm32h7xx_hal_tim_ex.c ****       /* Disable the TIM Capture/Compare 2 interrupt */
1309:Drivers/STM32H7xx_HAL_Driver/Src/stm32h7xx_hal_tim_ex.c ****       __HAL_TIM_DISABLE_IT(htim, TIM_IT_CC2);
 3953              		.loc 1 1309 7
 3954 003a 7B68     		ldr	r3, [r7, #4]
 3955 003c 1B68     		ldr	r3, [r3]
 3956 003e DA68     		ldr	r2, [r3, #12]
ARM GAS  C:\Users\Su\AppData\Local\Temp\ccm0VnUy.s 			page 93


 3957 0040 7B68     		ldr	r3, [r7, #4]
 3958 0042 1B68     		ldr	r3, [r3]
 3959 0044 22F00402 		bic	r2, r2, #4
 3960 0048 DA60     		str	r2, [r3, #12]
1310:Drivers/STM32H7xx_HAL_Driver/Src/stm32h7xx_hal_tim_ex.c ****       break;
 3961              		.loc 1 1310 7
 3962 004a 0BE0     		b	.L252
 3963              	.L248:
1311:Drivers/STM32H7xx_HAL_Driver/Src/stm32h7xx_hal_tim_ex.c ****     }
1312:Drivers/STM32H7xx_HAL_Driver/Src/stm32h7xx_hal_tim_ex.c **** 
1313:Drivers/STM32H7xx_HAL_Driver/Src/stm32h7xx_hal_tim_ex.c ****     case TIM_CHANNEL_3:
1314:Drivers/STM32H7xx_HAL_Driver/Src/stm32h7xx_hal_tim_ex.c ****     {
1315:Drivers/STM32H7xx_HAL_Driver/Src/stm32h7xx_hal_tim_ex.c ****       /* Disable the TIM Capture/Compare 3 interrupt */
1316:Drivers/STM32H7xx_HAL_Driver/Src/stm32h7xx_hal_tim_ex.c ****       __HAL_TIM_DISABLE_IT(htim, TIM_IT_CC3);
 3964              		.loc 1 1316 7
 3965 004c 7B68     		ldr	r3, [r7, #4]
 3966 004e 1B68     		ldr	r3, [r3]
 3967 0050 DA68     		ldr	r2, [r3, #12]
 3968 0052 7B68     		ldr	r3, [r7, #4]
 3969 0054 1B68     		ldr	r3, [r3]
 3970 0056 22F00802 		bic	r2, r2, #8
 3971 005a DA60     		str	r2, [r3, #12]
1317:Drivers/STM32H7xx_HAL_Driver/Src/stm32h7xx_hal_tim_ex.c ****       break;
 3972              		.loc 1 1317 7
 3973 005c 02E0     		b	.L252
 3974              	.L249:
1318:Drivers/STM32H7xx_HAL_Driver/Src/stm32h7xx_hal_tim_ex.c ****     }
1319:Drivers/STM32H7xx_HAL_Driver/Src/stm32h7xx_hal_tim_ex.c **** 
1320:Drivers/STM32H7xx_HAL_Driver/Src/stm32h7xx_hal_tim_ex.c ****     default:
1321:Drivers/STM32H7xx_HAL_Driver/Src/stm32h7xx_hal_tim_ex.c ****       status = HAL_ERROR;
 3975              		.loc 1 1321 14
 3976 005e 0123     		movs	r3, #1
 3977 0060 FB73     		strb	r3, [r7, #15]
1322:Drivers/STM32H7xx_HAL_Driver/Src/stm32h7xx_hal_tim_ex.c ****       break;
 3978              		.loc 1 1322 7
 3979 0062 00BF     		nop
 3980              	.L252:
1323:Drivers/STM32H7xx_HAL_Driver/Src/stm32h7xx_hal_tim_ex.c ****   }
1324:Drivers/STM32H7xx_HAL_Driver/Src/stm32h7xx_hal_tim_ex.c **** 
1325:Drivers/STM32H7xx_HAL_Driver/Src/stm32h7xx_hal_tim_ex.c ****   if (status == HAL_OK)
 3981              		.loc 1 1325 6
 3982 0064 FB7B     		ldrb	r3, [r7, #15]	@ zero_extendqisi2
 3983 0066 002B     		cmp	r3, #0
 3984 0068 64D1     		bne	.L253
1326:Drivers/STM32H7xx_HAL_Driver/Src/stm32h7xx_hal_tim_ex.c ****   {
1327:Drivers/STM32H7xx_HAL_Driver/Src/stm32h7xx_hal_tim_ex.c ****     /* Disable the complementary PWM output  */
1328:Drivers/STM32H7xx_HAL_Driver/Src/stm32h7xx_hal_tim_ex.c ****     TIM_CCxNChannelCmd(htim->Instance, Channel, TIM_CCxN_DISABLE);
 3985              		.loc 1 1328 5
 3986 006a 7B68     		ldr	r3, [r7, #4]
 3987 006c 1B68     		ldr	r3, [r3]
 3988 006e 0022     		movs	r2, #0
 3989 0070 3968     		ldr	r1, [r7]
 3990 0072 1846     		mov	r0, r3
 3991 0074 FFF7FEFF 		bl	TIM_CCxNChannelCmd
1329:Drivers/STM32H7xx_HAL_Driver/Src/stm32h7xx_hal_tim_ex.c **** 
1330:Drivers/STM32H7xx_HAL_Driver/Src/stm32h7xx_hal_tim_ex.c ****     /* Disable the TIM Break interrupt (only if no more channel is active) */
1331:Drivers/STM32H7xx_HAL_Driver/Src/stm32h7xx_hal_tim_ex.c ****     tmpccer = htim->Instance->CCER;
ARM GAS  C:\Users\Su\AppData\Local\Temp\ccm0VnUy.s 			page 94


 3992              		.loc 1 1331 19
 3993 0078 7B68     		ldr	r3, [r7, #4]
 3994 007a 1B68     		ldr	r3, [r3]
 3995              		.loc 1 1331 13
 3996 007c 1B6A     		ldr	r3, [r3, #32]
 3997 007e BB60     		str	r3, [r7, #8]
1332:Drivers/STM32H7xx_HAL_Driver/Src/stm32h7xx_hal_tim_ex.c ****     if ((tmpccer & (TIM_CCER_CC1NE | TIM_CCER_CC2NE | TIM_CCER_CC3NE)) == (uint32_t)RESET)
 3998              		.loc 1 1332 18
 3999 0080 BA68     		ldr	r2, [r7, #8]
 4000 0082 40F24443 		movw	r3, #1092
 4001 0086 1340     		ands	r3, r3, r2
 4002              		.loc 1 1332 8
 4003 0088 002B     		cmp	r3, #0
 4004 008a 07D1     		bne	.L254
1333:Drivers/STM32H7xx_HAL_Driver/Src/stm32h7xx_hal_tim_ex.c ****     {
1334:Drivers/STM32H7xx_HAL_Driver/Src/stm32h7xx_hal_tim_ex.c ****       __HAL_TIM_DISABLE_IT(htim, TIM_IT_BREAK);
 4005              		.loc 1 1334 7
 4006 008c 7B68     		ldr	r3, [r7, #4]
 4007 008e 1B68     		ldr	r3, [r3]
 4008 0090 DA68     		ldr	r2, [r3, #12]
 4009 0092 7B68     		ldr	r3, [r7, #4]
 4010 0094 1B68     		ldr	r3, [r3]
 4011 0096 22F08002 		bic	r2, r2, #128
 4012 009a DA60     		str	r2, [r3, #12]
 4013              	.L254:
1335:Drivers/STM32H7xx_HAL_Driver/Src/stm32h7xx_hal_tim_ex.c ****     }
1336:Drivers/STM32H7xx_HAL_Driver/Src/stm32h7xx_hal_tim_ex.c **** 
1337:Drivers/STM32H7xx_HAL_Driver/Src/stm32h7xx_hal_tim_ex.c ****     /* Disable the Main Output */
1338:Drivers/STM32H7xx_HAL_Driver/Src/stm32h7xx_hal_tim_ex.c ****     __HAL_TIM_MOE_DISABLE(htim);
 4014              		.loc 1 1338 5
 4015 009c 7B68     		ldr	r3, [r7, #4]
 4016 009e 1B68     		ldr	r3, [r3]
 4017 00a0 1A6A     		ldr	r2, [r3, #32]
 4018 00a2 41F21113 		movw	r3, #4369
 4019 00a6 1340     		ands	r3, r3, r2
 4020 00a8 002B     		cmp	r3, #0
 4021 00aa 0FD1     		bne	.L255
 4022              		.loc 1 1338 5 is_stmt 0 discriminator 1
 4023 00ac 7B68     		ldr	r3, [r7, #4]
 4024 00ae 1B68     		ldr	r3, [r3]
 4025 00b0 1A6A     		ldr	r2, [r3, #32]
 4026 00b2 40F24443 		movw	r3, #1092
 4027 00b6 1340     		ands	r3, r3, r2
 4028 00b8 002B     		cmp	r3, #0
 4029 00ba 07D1     		bne	.L255
 4030              		.loc 1 1338 5 discriminator 2
 4031 00bc 7B68     		ldr	r3, [r7, #4]
 4032 00be 1B68     		ldr	r3, [r3]
 4033 00c0 5A6C     		ldr	r2, [r3, #68]
 4034 00c2 7B68     		ldr	r3, [r7, #4]
 4035 00c4 1B68     		ldr	r3, [r3]
 4036 00c6 22F40042 		bic	r2, r2, #32768
 4037 00ca 5A64     		str	r2, [r3, #68]
 4038              	.L255:
1339:Drivers/STM32H7xx_HAL_Driver/Src/stm32h7xx_hal_tim_ex.c **** 
1340:Drivers/STM32H7xx_HAL_Driver/Src/stm32h7xx_hal_tim_ex.c ****     /* Disable the Peripheral */
1341:Drivers/STM32H7xx_HAL_Driver/Src/stm32h7xx_hal_tim_ex.c ****     __HAL_TIM_DISABLE(htim);
ARM GAS  C:\Users\Su\AppData\Local\Temp\ccm0VnUy.s 			page 95


 4039              		.loc 1 1341 5 is_stmt 1
 4040 00cc 7B68     		ldr	r3, [r7, #4]
 4041 00ce 1B68     		ldr	r3, [r3]
 4042 00d0 1A6A     		ldr	r2, [r3, #32]
 4043 00d2 41F21113 		movw	r3, #4369
 4044 00d6 1340     		ands	r3, r3, r2
 4045 00d8 002B     		cmp	r3, #0
 4046 00da 0FD1     		bne	.L256
 4047              		.loc 1 1341 5 is_stmt 0 discriminator 1
 4048 00dc 7B68     		ldr	r3, [r7, #4]
 4049 00de 1B68     		ldr	r3, [r3]
 4050 00e0 1A6A     		ldr	r2, [r3, #32]
 4051 00e2 40F24443 		movw	r3, #1092
 4052 00e6 1340     		ands	r3, r3, r2
 4053 00e8 002B     		cmp	r3, #0
 4054 00ea 07D1     		bne	.L256
 4055              		.loc 1 1341 5 discriminator 2
 4056 00ec 7B68     		ldr	r3, [r7, #4]
 4057 00ee 1B68     		ldr	r3, [r3]
 4058 00f0 1A68     		ldr	r2, [r3]
 4059 00f2 7B68     		ldr	r3, [r7, #4]
 4060 00f4 1B68     		ldr	r3, [r3]
 4061 00f6 22F00102 		bic	r2, r2, #1
 4062 00fa 1A60     		str	r2, [r3]
 4063              	.L256:
1342:Drivers/STM32H7xx_HAL_Driver/Src/stm32h7xx_hal_tim_ex.c **** 
1343:Drivers/STM32H7xx_HAL_Driver/Src/stm32h7xx_hal_tim_ex.c ****     /* Set the TIM complementary channel state */
1344:Drivers/STM32H7xx_HAL_Driver/Src/stm32h7xx_hal_tim_ex.c ****     TIM_CHANNEL_N_STATE_SET(htim, Channel, HAL_TIM_CHANNEL_STATE_READY);
 4064              		.loc 1 1344 5 is_stmt 1
 4065 00fc 3B68     		ldr	r3, [r7]
 4066 00fe 002B     		cmp	r3, #0
 4067 0100 04D1     		bne	.L257
 4068              		.loc 1 1344 5 is_stmt 0 discriminator 1
 4069 0102 7B68     		ldr	r3, [r7, #4]
 4070 0104 0122     		movs	r2, #1
 4071 0106 83F84420 		strb	r2, [r3, #68]
 4072 010a 13E0     		b	.L253
 4073              	.L257:
 4074              		.loc 1 1344 5 discriminator 2
 4075 010c 3B68     		ldr	r3, [r7]
 4076 010e 042B     		cmp	r3, #4
 4077 0110 04D1     		bne	.L258
 4078              		.loc 1 1344 5 discriminator 3
 4079 0112 7B68     		ldr	r3, [r7, #4]
 4080 0114 0122     		movs	r2, #1
 4081 0116 83F84520 		strb	r2, [r3, #69]
 4082 011a 0BE0     		b	.L253
 4083              	.L258:
 4084              		.loc 1 1344 5 discriminator 4
 4085 011c 3B68     		ldr	r3, [r7]
 4086 011e 082B     		cmp	r3, #8
 4087 0120 04D1     		bne	.L260
 4088              		.loc 1 1344 5 discriminator 6
 4089 0122 7B68     		ldr	r3, [r7, #4]
 4090 0124 0122     		movs	r2, #1
 4091 0126 83F84620 		strb	r2, [r3, #70]
 4092 012a 03E0     		b	.L253
ARM GAS  C:\Users\Su\AppData\Local\Temp\ccm0VnUy.s 			page 96


 4093              	.L260:
 4094              		.loc 1 1344 5 discriminator 7
 4095 012c 7B68     		ldr	r3, [r7, #4]
 4096 012e 0122     		movs	r2, #1
 4097 0130 83F84720 		strb	r2, [r3, #71]
 4098              	.L253:
1345:Drivers/STM32H7xx_HAL_Driver/Src/stm32h7xx_hal_tim_ex.c ****   }
1346:Drivers/STM32H7xx_HAL_Driver/Src/stm32h7xx_hal_tim_ex.c **** 
1347:Drivers/STM32H7xx_HAL_Driver/Src/stm32h7xx_hal_tim_ex.c ****   /* Return function status */
1348:Drivers/STM32H7xx_HAL_Driver/Src/stm32h7xx_hal_tim_ex.c ****   return status;
 4099              		.loc 1 1348 10 is_stmt 1
 4100 0134 FB7B     		ldrb	r3, [r7, #15]	@ zero_extendqisi2
1349:Drivers/STM32H7xx_HAL_Driver/Src/stm32h7xx_hal_tim_ex.c **** }
 4101              		.loc 1 1349 1
 4102 0136 1846     		mov	r0, r3
 4103 0138 1037     		adds	r7, r7, #16
 4104              	.LCFI100:
 4105              		.cfi_def_cfa_offset 8
 4106 013a BD46     		mov	sp, r7
 4107              	.LCFI101:
 4108              		.cfi_def_cfa_register 13
 4109              		@ sp needed
 4110 013c 80BD     		pop	{r7, pc}
 4111              		.cfi_endproc
 4112              	.LFE163:
 4114              		.section	.text.HAL_TIMEx_PWMN_Start_DMA,"ax",%progbits
 4115              		.align	1
 4116              		.global	HAL_TIMEx_PWMN_Start_DMA
 4117              		.syntax unified
 4118              		.thumb
 4119              		.thumb_func
 4121              	HAL_TIMEx_PWMN_Start_DMA:
 4122              	.LFB164:
1350:Drivers/STM32H7xx_HAL_Driver/Src/stm32h7xx_hal_tim_ex.c **** 
1351:Drivers/STM32H7xx_HAL_Driver/Src/stm32h7xx_hal_tim_ex.c **** /**
1352:Drivers/STM32H7xx_HAL_Driver/Src/stm32h7xx_hal_tim_ex.c ****   * @brief  Starts the TIM PWM signal generation in DMA mode on the
1353:Drivers/STM32H7xx_HAL_Driver/Src/stm32h7xx_hal_tim_ex.c ****   *         complementary output
1354:Drivers/STM32H7xx_HAL_Driver/Src/stm32h7xx_hal_tim_ex.c ****   * @param  htim TIM handle
1355:Drivers/STM32H7xx_HAL_Driver/Src/stm32h7xx_hal_tim_ex.c ****   * @param  Channel TIM Channel to be enabled
1356:Drivers/STM32H7xx_HAL_Driver/Src/stm32h7xx_hal_tim_ex.c ****   *          This parameter can be one of the following values:
1357:Drivers/STM32H7xx_HAL_Driver/Src/stm32h7xx_hal_tim_ex.c ****   *            @arg TIM_CHANNEL_1: TIM Channel 1 selected
1358:Drivers/STM32H7xx_HAL_Driver/Src/stm32h7xx_hal_tim_ex.c ****   *            @arg TIM_CHANNEL_2: TIM Channel 2 selected
1359:Drivers/STM32H7xx_HAL_Driver/Src/stm32h7xx_hal_tim_ex.c ****   *            @arg TIM_CHANNEL_3: TIM Channel 3 selected
1360:Drivers/STM32H7xx_HAL_Driver/Src/stm32h7xx_hal_tim_ex.c ****   * @param  pData The source Buffer address.
1361:Drivers/STM32H7xx_HAL_Driver/Src/stm32h7xx_hal_tim_ex.c ****   * @param  Length The length of data to be transferred from memory to TIM peripheral
1362:Drivers/STM32H7xx_HAL_Driver/Src/stm32h7xx_hal_tim_ex.c ****   * @retval HAL status
1363:Drivers/STM32H7xx_HAL_Driver/Src/stm32h7xx_hal_tim_ex.c ****   */
1364:Drivers/STM32H7xx_HAL_Driver/Src/stm32h7xx_hal_tim_ex.c **** HAL_StatusTypeDef HAL_TIMEx_PWMN_Start_DMA(TIM_HandleTypeDef *htim, uint32_t Channel, uint32_t *pDa
1365:Drivers/STM32H7xx_HAL_Driver/Src/stm32h7xx_hal_tim_ex.c **** {
 4123              		.loc 1 1365 1
 4124              		.cfi_startproc
 4125              		@ args = 0, pretend = 0, frame = 24
 4126              		@ frame_needed = 1, uses_anonymous_args = 0
 4127 0000 80B5     		push	{r7, lr}
 4128              	.LCFI102:
 4129              		.cfi_def_cfa_offset 8
 4130              		.cfi_offset 7, -8
ARM GAS  C:\Users\Su\AppData\Local\Temp\ccm0VnUy.s 			page 97


 4131              		.cfi_offset 14, -4
 4132 0002 86B0     		sub	sp, sp, #24
 4133              	.LCFI103:
 4134              		.cfi_def_cfa_offset 32
 4135 0004 00AF     		add	r7, sp, #0
 4136              	.LCFI104:
 4137              		.cfi_def_cfa_register 7
 4138 0006 F860     		str	r0, [r7, #12]
 4139 0008 B960     		str	r1, [r7, #8]
 4140 000a 7A60     		str	r2, [r7, #4]
 4141 000c 7B80     		strh	r3, [r7, #2]	@ movhi
1366:Drivers/STM32H7xx_HAL_Driver/Src/stm32h7xx_hal_tim_ex.c ****   HAL_StatusTypeDef status = HAL_OK;
 4142              		.loc 1 1366 21
 4143 000e 0023     		movs	r3, #0
 4144 0010 FB75     		strb	r3, [r7, #23]
1367:Drivers/STM32H7xx_HAL_Driver/Src/stm32h7xx_hal_tim_ex.c ****   uint32_t tmpsmcr;
1368:Drivers/STM32H7xx_HAL_Driver/Src/stm32h7xx_hal_tim_ex.c **** 
1369:Drivers/STM32H7xx_HAL_Driver/Src/stm32h7xx_hal_tim_ex.c ****   /* Check the parameters */
1370:Drivers/STM32H7xx_HAL_Driver/Src/stm32h7xx_hal_tim_ex.c ****   assert_param(IS_TIM_CCXN_INSTANCE(htim->Instance, Channel));
1371:Drivers/STM32H7xx_HAL_Driver/Src/stm32h7xx_hal_tim_ex.c **** 
1372:Drivers/STM32H7xx_HAL_Driver/Src/stm32h7xx_hal_tim_ex.c ****   /* Set the TIM complementary channel state */
1373:Drivers/STM32H7xx_HAL_Driver/Src/stm32h7xx_hal_tim_ex.c ****   if (TIM_CHANNEL_N_STATE_GET(htim, Channel) == HAL_TIM_CHANNEL_STATE_BUSY)
 4145              		.loc 1 1373 46
 4146 0012 BB68     		ldr	r3, [r7, #8]
 4147 0014 002B     		cmp	r3, #0
 4148 0016 09D1     		bne	.L264
 4149              		.loc 1 1373 7 discriminator 1
 4150 0018 FB68     		ldr	r3, [r7, #12]
 4151 001a 93F84430 		ldrb	r3, [r3, #68]
 4152 001e DBB2     		uxtb	r3, r3
 4153              		.loc 1 1373 46 discriminator 1
 4154 0020 022B     		cmp	r3, #2
 4155 0022 0CBF     		ite	eq
 4156 0024 0123     		moveq	r3, #1
 4157 0026 0023     		movne	r3, #0
 4158 0028 DBB2     		uxtb	r3, r3
 4159 002a 22E0     		b	.L265
 4160              	.L264:
 4161              		.loc 1 1373 46 is_stmt 0 discriminator 2
 4162 002c BB68     		ldr	r3, [r7, #8]
 4163 002e 042B     		cmp	r3, #4
 4164 0030 09D1     		bne	.L266
 4165              		.loc 1 1373 7 is_stmt 1 discriminator 4
 4166 0032 FB68     		ldr	r3, [r7, #12]
 4167 0034 93F84530 		ldrb	r3, [r3, #69]
 4168 0038 DBB2     		uxtb	r3, r3
 4169              		.loc 1 1373 46 discriminator 4
 4170 003a 022B     		cmp	r3, #2
 4171 003c 0CBF     		ite	eq
 4172 003e 0123     		moveq	r3, #1
 4173 0040 0023     		movne	r3, #0
 4174 0042 DBB2     		uxtb	r3, r3
 4175 0044 15E0     		b	.L265
 4176              	.L266:
 4177              		.loc 1 1373 46 is_stmt 0 discriminator 5
 4178 0046 BB68     		ldr	r3, [r7, #8]
 4179 0048 082B     		cmp	r3, #8
ARM GAS  C:\Users\Su\AppData\Local\Temp\ccm0VnUy.s 			page 98


 4180 004a 09D1     		bne	.L268
 4181              		.loc 1 1373 7 is_stmt 1 discriminator 7
 4182 004c FB68     		ldr	r3, [r7, #12]
 4183 004e 93F84630 		ldrb	r3, [r3, #70]
 4184 0052 DBB2     		uxtb	r3, r3
 4185              		.loc 1 1373 46 discriminator 7
 4186 0054 022B     		cmp	r3, #2
 4187 0056 0CBF     		ite	eq
 4188 0058 0123     		moveq	r3, #1
 4189 005a 0023     		movne	r3, #0
 4190 005c DBB2     		uxtb	r3, r3
 4191 005e 08E0     		b	.L265
 4192              	.L268:
 4193              		.loc 1 1373 7 discriminator 8
 4194 0060 FB68     		ldr	r3, [r7, #12]
 4195 0062 93F84730 		ldrb	r3, [r3, #71]
 4196 0066 DBB2     		uxtb	r3, r3
 4197              		.loc 1 1373 46 discriminator 8
 4198 0068 022B     		cmp	r3, #2
 4199 006a 0CBF     		ite	eq
 4200 006c 0123     		moveq	r3, #1
 4201 006e 0023     		movne	r3, #0
 4202 0070 DBB2     		uxtb	r3, r3
 4203              	.L265:
 4204              		.loc 1 1373 6 discriminator 12
 4205 0072 002B     		cmp	r3, #0
 4206 0074 01D0     		beq	.L270
1374:Drivers/STM32H7xx_HAL_Driver/Src/stm32h7xx_hal_tim_ex.c ****   {
1375:Drivers/STM32H7xx_HAL_Driver/Src/stm32h7xx_hal_tim_ex.c ****     return HAL_BUSY;
 4207              		.loc 1 1375 12
 4208 0076 0223     		movs	r3, #2
 4209 0078 39E1     		b	.L271
 4210              	.L270:
1376:Drivers/STM32H7xx_HAL_Driver/Src/stm32h7xx_hal_tim_ex.c ****   }
1377:Drivers/STM32H7xx_HAL_Driver/Src/stm32h7xx_hal_tim_ex.c ****   else if (TIM_CHANNEL_N_STATE_GET(htim, Channel) == HAL_TIM_CHANNEL_STATE_READY)
 4211              		.loc 1 1377 51
 4212 007a BB68     		ldr	r3, [r7, #8]
 4213 007c 002B     		cmp	r3, #0
 4214 007e 09D1     		bne	.L272
 4215              		.loc 1 1377 12 discriminator 1
 4216 0080 FB68     		ldr	r3, [r7, #12]
 4217 0082 93F84430 		ldrb	r3, [r3, #68]
 4218 0086 DBB2     		uxtb	r3, r3
 4219              		.loc 1 1377 51 discriminator 1
 4220 0088 012B     		cmp	r3, #1
 4221 008a 0CBF     		ite	eq
 4222 008c 0123     		moveq	r3, #1
 4223 008e 0023     		movne	r3, #0
 4224 0090 DBB2     		uxtb	r3, r3
 4225 0092 22E0     		b	.L273
 4226              	.L272:
 4227              		.loc 1 1377 51 is_stmt 0 discriminator 2
 4228 0094 BB68     		ldr	r3, [r7, #8]
 4229 0096 042B     		cmp	r3, #4
 4230 0098 09D1     		bne	.L274
 4231              		.loc 1 1377 12 is_stmt 1 discriminator 4
 4232 009a FB68     		ldr	r3, [r7, #12]
ARM GAS  C:\Users\Su\AppData\Local\Temp\ccm0VnUy.s 			page 99


 4233 009c 93F84530 		ldrb	r3, [r3, #69]
 4234 00a0 DBB2     		uxtb	r3, r3
 4235              		.loc 1 1377 51 discriminator 4
 4236 00a2 012B     		cmp	r3, #1
 4237 00a4 0CBF     		ite	eq
 4238 00a6 0123     		moveq	r3, #1
 4239 00a8 0023     		movne	r3, #0
 4240 00aa DBB2     		uxtb	r3, r3
 4241 00ac 15E0     		b	.L273
 4242              	.L274:
 4243              		.loc 1 1377 51 is_stmt 0 discriminator 5
 4244 00ae BB68     		ldr	r3, [r7, #8]
 4245 00b0 082B     		cmp	r3, #8
 4246 00b2 09D1     		bne	.L276
 4247              		.loc 1 1377 12 is_stmt 1 discriminator 7
 4248 00b4 FB68     		ldr	r3, [r7, #12]
 4249 00b6 93F84630 		ldrb	r3, [r3, #70]
 4250 00ba DBB2     		uxtb	r3, r3
 4251              		.loc 1 1377 51 discriminator 7
 4252 00bc 012B     		cmp	r3, #1
 4253 00be 0CBF     		ite	eq
 4254 00c0 0123     		moveq	r3, #1
 4255 00c2 0023     		movne	r3, #0
 4256 00c4 DBB2     		uxtb	r3, r3
 4257 00c6 08E0     		b	.L273
 4258              	.L276:
 4259              		.loc 1 1377 12 discriminator 8
 4260 00c8 FB68     		ldr	r3, [r7, #12]
 4261 00ca 93F84730 		ldrb	r3, [r3, #71]
 4262 00ce DBB2     		uxtb	r3, r3
 4263              		.loc 1 1377 51 discriminator 8
 4264 00d0 012B     		cmp	r3, #1
 4265 00d2 0CBF     		ite	eq
 4266 00d4 0123     		moveq	r3, #1
 4267 00d6 0023     		movne	r3, #0
 4268 00d8 DBB2     		uxtb	r3, r3
 4269              	.L273:
 4270              		.loc 1 1377 11 discriminator 12
 4271 00da 002B     		cmp	r3, #0
 4272 00dc 24D0     		beq	.L278
1378:Drivers/STM32H7xx_HAL_Driver/Src/stm32h7xx_hal_tim_ex.c ****   {
1379:Drivers/STM32H7xx_HAL_Driver/Src/stm32h7xx_hal_tim_ex.c ****     if ((pData == NULL) && (Length > 0U))
 4273              		.loc 1 1379 8
 4274 00de 7B68     		ldr	r3, [r7, #4]
 4275 00e0 002B     		cmp	r3, #0
 4276 00e2 04D1     		bne	.L279
 4277              		.loc 1 1379 25 discriminator 1
 4278 00e4 7B88     		ldrh	r3, [r7, #2]
 4279 00e6 002B     		cmp	r3, #0
 4280 00e8 01D0     		beq	.L279
1380:Drivers/STM32H7xx_HAL_Driver/Src/stm32h7xx_hal_tim_ex.c ****     {
1381:Drivers/STM32H7xx_HAL_Driver/Src/stm32h7xx_hal_tim_ex.c ****       return HAL_ERROR;
 4281              		.loc 1 1381 14
 4282 00ea 0123     		movs	r3, #1
 4283 00ec FFE0     		b	.L271
 4284              	.L279:
1382:Drivers/STM32H7xx_HAL_Driver/Src/stm32h7xx_hal_tim_ex.c ****     }
ARM GAS  C:\Users\Su\AppData\Local\Temp\ccm0VnUy.s 			page 100


1383:Drivers/STM32H7xx_HAL_Driver/Src/stm32h7xx_hal_tim_ex.c ****     else
1384:Drivers/STM32H7xx_HAL_Driver/Src/stm32h7xx_hal_tim_ex.c ****     {
1385:Drivers/STM32H7xx_HAL_Driver/Src/stm32h7xx_hal_tim_ex.c ****       TIM_CHANNEL_N_STATE_SET(htim, Channel, HAL_TIM_CHANNEL_STATE_BUSY);
 4285              		.loc 1 1385 7
 4286 00ee BB68     		ldr	r3, [r7, #8]
 4287 00f0 002B     		cmp	r3, #0
 4288 00f2 04D1     		bne	.L280
 4289              		.loc 1 1385 7 is_stmt 0 discriminator 1
 4290 00f4 FB68     		ldr	r3, [r7, #12]
 4291 00f6 0222     		movs	r2, #2
 4292 00f8 83F84420 		strb	r2, [r3, #68]
 4293 00fc 16E0     		b	.L281
 4294              	.L280:
 4295              		.loc 1 1385 7 discriminator 2
 4296 00fe BB68     		ldr	r3, [r7, #8]
 4297 0100 042B     		cmp	r3, #4
 4298 0102 04D1     		bne	.L282
 4299              		.loc 1 1385 7 discriminator 3
 4300 0104 FB68     		ldr	r3, [r7, #12]
 4301 0106 0222     		movs	r2, #2
 4302 0108 83F84520 		strb	r2, [r3, #69]
 4303 010c 0EE0     		b	.L281
 4304              	.L282:
 4305              		.loc 1 1385 7 discriminator 4
 4306 010e BB68     		ldr	r3, [r7, #8]
 4307 0110 082B     		cmp	r3, #8
 4308 0112 04D1     		bne	.L284
 4309              		.loc 1 1385 7 discriminator 6
 4310 0114 FB68     		ldr	r3, [r7, #12]
 4311 0116 0222     		movs	r2, #2
 4312 0118 83F84620 		strb	r2, [r3, #70]
 4313 011c 06E0     		b	.L281
 4314              	.L284:
 4315              		.loc 1 1385 7 discriminator 7
 4316 011e FB68     		ldr	r3, [r7, #12]
 4317 0120 0222     		movs	r2, #2
 4318 0122 83F84720 		strb	r2, [r3, #71]
 4319 0126 01E0     		b	.L281
 4320              	.L278:
1386:Drivers/STM32H7xx_HAL_Driver/Src/stm32h7xx_hal_tim_ex.c ****     }
1387:Drivers/STM32H7xx_HAL_Driver/Src/stm32h7xx_hal_tim_ex.c ****   }
1388:Drivers/STM32H7xx_HAL_Driver/Src/stm32h7xx_hal_tim_ex.c ****   else
1389:Drivers/STM32H7xx_HAL_Driver/Src/stm32h7xx_hal_tim_ex.c ****   {
1390:Drivers/STM32H7xx_HAL_Driver/Src/stm32h7xx_hal_tim_ex.c ****     return HAL_ERROR;
 4321              		.loc 1 1390 12 is_stmt 1
 4322 0128 0123     		movs	r3, #1
 4323 012a E0E0     		b	.L271
 4324              	.L281:
1391:Drivers/STM32H7xx_HAL_Driver/Src/stm32h7xx_hal_tim_ex.c ****   }
1392:Drivers/STM32H7xx_HAL_Driver/Src/stm32h7xx_hal_tim_ex.c **** 
1393:Drivers/STM32H7xx_HAL_Driver/Src/stm32h7xx_hal_tim_ex.c ****   switch (Channel)
 4325              		.loc 1 1393 3
 4326 012c BB68     		ldr	r3, [r7, #8]
 4327 012e 082B     		cmp	r3, #8
 4328 0130 51D0     		beq	.L286
 4329 0132 BB68     		ldr	r3, [r7, #8]
 4330 0134 082B     		cmp	r3, #8
ARM GAS  C:\Users\Su\AppData\Local\Temp\ccm0VnUy.s 			page 101


 4331 0136 72D8     		bhi	.L287
 4332 0138 BB68     		ldr	r3, [r7, #8]
 4333 013a 002B     		cmp	r3, #0
 4334 013c 03D0     		beq	.L288
 4335 013e BB68     		ldr	r3, [r7, #8]
 4336 0140 042B     		cmp	r3, #4
 4337 0142 24D0     		beq	.L289
 4338 0144 6BE0     		b	.L287
 4339              	.L288:
1394:Drivers/STM32H7xx_HAL_Driver/Src/stm32h7xx_hal_tim_ex.c ****   {
1395:Drivers/STM32H7xx_HAL_Driver/Src/stm32h7xx_hal_tim_ex.c ****     case TIM_CHANNEL_1:
1396:Drivers/STM32H7xx_HAL_Driver/Src/stm32h7xx_hal_tim_ex.c ****     {
1397:Drivers/STM32H7xx_HAL_Driver/Src/stm32h7xx_hal_tim_ex.c ****       /* Set the DMA compare callbacks */
1398:Drivers/STM32H7xx_HAL_Driver/Src/stm32h7xx_hal_tim_ex.c ****       htim->hdma[TIM_DMA_ID_CC1]->XferCpltCallback = TIM_DMADelayPulseNCplt;
 4340              		.loc 1 1398 17
 4341 0146 FB68     		ldr	r3, [r7, #12]
 4342 0148 5B6A     		ldr	r3, [r3, #36]
 4343              		.loc 1 1398 52
 4344 014a 6B4A     		ldr	r2, .L299
 4345 014c DA63     		str	r2, [r3, #60]
1399:Drivers/STM32H7xx_HAL_Driver/Src/stm32h7xx_hal_tim_ex.c ****       htim->hdma[TIM_DMA_ID_CC1]->XferHalfCpltCallback = TIM_DMADelayPulseHalfCplt;
 4346              		.loc 1 1399 17
 4347 014e FB68     		ldr	r3, [r7, #12]
 4348 0150 5B6A     		ldr	r3, [r3, #36]
 4349              		.loc 1 1399 56
 4350 0152 6A4A     		ldr	r2, .L299+4
 4351 0154 1A64     		str	r2, [r3, #64]
1400:Drivers/STM32H7xx_HAL_Driver/Src/stm32h7xx_hal_tim_ex.c **** 
1401:Drivers/STM32H7xx_HAL_Driver/Src/stm32h7xx_hal_tim_ex.c ****       /* Set the DMA error callback */
1402:Drivers/STM32H7xx_HAL_Driver/Src/stm32h7xx_hal_tim_ex.c ****       htim->hdma[TIM_DMA_ID_CC1]->XferErrorCallback = TIM_DMAErrorCCxN ;
 4352              		.loc 1 1402 17
 4353 0156 FB68     		ldr	r3, [r7, #12]
 4354 0158 5B6A     		ldr	r3, [r3, #36]
 4355              		.loc 1 1402 53
 4356 015a 694A     		ldr	r2, .L299+8
 4357 015c DA64     		str	r2, [r3, #76]
1403:Drivers/STM32H7xx_HAL_Driver/Src/stm32h7xx_hal_tim_ex.c **** 
1404:Drivers/STM32H7xx_HAL_Driver/Src/stm32h7xx_hal_tim_ex.c ****       /* Enable the DMA stream */
1405:Drivers/STM32H7xx_HAL_Driver/Src/stm32h7xx_hal_tim_ex.c ****       if (HAL_DMA_Start_IT(htim->hdma[TIM_DMA_ID_CC1], (uint32_t)pData, (uint32_t)&htim->Instance->
 4358              		.loc 1 1405 11
 4359 015e FB68     		ldr	r3, [r7, #12]
 4360 0160 586A     		ldr	r0, [r3, #36]
 4361 0162 7968     		ldr	r1, [r7, #4]
 4362              		.loc 1 1405 88
 4363 0164 FB68     		ldr	r3, [r7, #12]
 4364 0166 1B68     		ldr	r3, [r3]
 4365              		.loc 1 1405 83
 4366 0168 3433     		adds	r3, r3, #52
 4367              		.loc 1 1405 11
 4368 016a 1A46     		mov	r2, r3
 4369 016c 7B88     		ldrh	r3, [r7, #2]
 4370 016e FFF7FEFF 		bl	HAL_DMA_Start_IT
 4371 0172 0346     		mov	r3, r0
 4372              		.loc 1 1405 10
 4373 0174 002B     		cmp	r3, #0
 4374 0176 01D0     		beq	.L290
1406:Drivers/STM32H7xx_HAL_Driver/Src/stm32h7xx_hal_tim_ex.c ****                            Length) != HAL_OK)
ARM GAS  C:\Users\Su\AppData\Local\Temp\ccm0VnUy.s 			page 102


1407:Drivers/STM32H7xx_HAL_Driver/Src/stm32h7xx_hal_tim_ex.c ****       {
1408:Drivers/STM32H7xx_HAL_Driver/Src/stm32h7xx_hal_tim_ex.c ****         /* Return error status */
1409:Drivers/STM32H7xx_HAL_Driver/Src/stm32h7xx_hal_tim_ex.c ****         return HAL_ERROR;
 4375              		.loc 1 1409 16
 4376 0178 0123     		movs	r3, #1
 4377 017a B8E0     		b	.L271
 4378              	.L290:
1410:Drivers/STM32H7xx_HAL_Driver/Src/stm32h7xx_hal_tim_ex.c ****       }
1411:Drivers/STM32H7xx_HAL_Driver/Src/stm32h7xx_hal_tim_ex.c ****       /* Enable the TIM Capture/Compare 1 DMA request */
1412:Drivers/STM32H7xx_HAL_Driver/Src/stm32h7xx_hal_tim_ex.c ****       __HAL_TIM_ENABLE_DMA(htim, TIM_DMA_CC1);
 4379              		.loc 1 1412 7
 4380 017c FB68     		ldr	r3, [r7, #12]
 4381 017e 1B68     		ldr	r3, [r3]
 4382 0180 DA68     		ldr	r2, [r3, #12]
 4383 0182 FB68     		ldr	r3, [r7, #12]
 4384 0184 1B68     		ldr	r3, [r3]
 4385 0186 42F40072 		orr	r2, r2, #512
 4386 018a DA60     		str	r2, [r3, #12]
1413:Drivers/STM32H7xx_HAL_Driver/Src/stm32h7xx_hal_tim_ex.c ****       break;
 4387              		.loc 1 1413 7
 4388 018c 4AE0     		b	.L291
 4389              	.L289:
1414:Drivers/STM32H7xx_HAL_Driver/Src/stm32h7xx_hal_tim_ex.c ****     }
1415:Drivers/STM32H7xx_HAL_Driver/Src/stm32h7xx_hal_tim_ex.c **** 
1416:Drivers/STM32H7xx_HAL_Driver/Src/stm32h7xx_hal_tim_ex.c ****     case TIM_CHANNEL_2:
1417:Drivers/STM32H7xx_HAL_Driver/Src/stm32h7xx_hal_tim_ex.c ****     {
1418:Drivers/STM32H7xx_HAL_Driver/Src/stm32h7xx_hal_tim_ex.c ****       /* Set the DMA compare callbacks */
1419:Drivers/STM32H7xx_HAL_Driver/Src/stm32h7xx_hal_tim_ex.c ****       htim->hdma[TIM_DMA_ID_CC2]->XferCpltCallback = TIM_DMADelayPulseNCplt;
 4390              		.loc 1 1419 17
 4391 018e FB68     		ldr	r3, [r7, #12]
 4392 0190 9B6A     		ldr	r3, [r3, #40]
 4393              		.loc 1 1419 52
 4394 0192 594A     		ldr	r2, .L299
 4395 0194 DA63     		str	r2, [r3, #60]
1420:Drivers/STM32H7xx_HAL_Driver/Src/stm32h7xx_hal_tim_ex.c ****       htim->hdma[TIM_DMA_ID_CC2]->XferHalfCpltCallback = TIM_DMADelayPulseHalfCplt;
 4396              		.loc 1 1420 17
 4397 0196 FB68     		ldr	r3, [r7, #12]
 4398 0198 9B6A     		ldr	r3, [r3, #40]
 4399              		.loc 1 1420 56
 4400 019a 584A     		ldr	r2, .L299+4
 4401 019c 1A64     		str	r2, [r3, #64]
1421:Drivers/STM32H7xx_HAL_Driver/Src/stm32h7xx_hal_tim_ex.c **** 
1422:Drivers/STM32H7xx_HAL_Driver/Src/stm32h7xx_hal_tim_ex.c ****       /* Set the DMA error callback */
1423:Drivers/STM32H7xx_HAL_Driver/Src/stm32h7xx_hal_tim_ex.c ****       htim->hdma[TIM_DMA_ID_CC2]->XferErrorCallback = TIM_DMAErrorCCxN ;
 4402              		.loc 1 1423 17
 4403 019e FB68     		ldr	r3, [r7, #12]
 4404 01a0 9B6A     		ldr	r3, [r3, #40]
 4405              		.loc 1 1423 53
 4406 01a2 574A     		ldr	r2, .L299+8
 4407 01a4 DA64     		str	r2, [r3, #76]
1424:Drivers/STM32H7xx_HAL_Driver/Src/stm32h7xx_hal_tim_ex.c **** 
1425:Drivers/STM32H7xx_HAL_Driver/Src/stm32h7xx_hal_tim_ex.c ****       /* Enable the DMA stream */
1426:Drivers/STM32H7xx_HAL_Driver/Src/stm32h7xx_hal_tim_ex.c ****       if (HAL_DMA_Start_IT(htim->hdma[TIM_DMA_ID_CC2], (uint32_t)pData, (uint32_t)&htim->Instance->
 4408              		.loc 1 1426 11
 4409 01a6 FB68     		ldr	r3, [r7, #12]
 4410 01a8 986A     		ldr	r0, [r3, #40]
 4411 01aa 7968     		ldr	r1, [r7, #4]
ARM GAS  C:\Users\Su\AppData\Local\Temp\ccm0VnUy.s 			page 103


 4412              		.loc 1 1426 88
 4413 01ac FB68     		ldr	r3, [r7, #12]
 4414 01ae 1B68     		ldr	r3, [r3]
 4415              		.loc 1 1426 83
 4416 01b0 3833     		adds	r3, r3, #56
 4417              		.loc 1 1426 11
 4418 01b2 1A46     		mov	r2, r3
 4419 01b4 7B88     		ldrh	r3, [r7, #2]
 4420 01b6 FFF7FEFF 		bl	HAL_DMA_Start_IT
 4421 01ba 0346     		mov	r3, r0
 4422              		.loc 1 1426 10
 4423 01bc 002B     		cmp	r3, #0
 4424 01be 01D0     		beq	.L292
1427:Drivers/STM32H7xx_HAL_Driver/Src/stm32h7xx_hal_tim_ex.c ****                            Length) != HAL_OK)
1428:Drivers/STM32H7xx_HAL_Driver/Src/stm32h7xx_hal_tim_ex.c ****       {
1429:Drivers/STM32H7xx_HAL_Driver/Src/stm32h7xx_hal_tim_ex.c ****         /* Return error status */
1430:Drivers/STM32H7xx_HAL_Driver/Src/stm32h7xx_hal_tim_ex.c ****         return HAL_ERROR;
 4425              		.loc 1 1430 16
 4426 01c0 0123     		movs	r3, #1
 4427 01c2 94E0     		b	.L271
 4428              	.L292:
1431:Drivers/STM32H7xx_HAL_Driver/Src/stm32h7xx_hal_tim_ex.c ****       }
1432:Drivers/STM32H7xx_HAL_Driver/Src/stm32h7xx_hal_tim_ex.c ****       /* Enable the TIM Capture/Compare 2 DMA request */
1433:Drivers/STM32H7xx_HAL_Driver/Src/stm32h7xx_hal_tim_ex.c ****       __HAL_TIM_ENABLE_DMA(htim, TIM_DMA_CC2);
 4429              		.loc 1 1433 7
 4430 01c4 FB68     		ldr	r3, [r7, #12]
 4431 01c6 1B68     		ldr	r3, [r3]
 4432 01c8 DA68     		ldr	r2, [r3, #12]
 4433 01ca FB68     		ldr	r3, [r7, #12]
 4434 01cc 1B68     		ldr	r3, [r3]
 4435 01ce 42F48062 		orr	r2, r2, #1024
 4436 01d2 DA60     		str	r2, [r3, #12]
1434:Drivers/STM32H7xx_HAL_Driver/Src/stm32h7xx_hal_tim_ex.c ****       break;
 4437              		.loc 1 1434 7
 4438 01d4 26E0     		b	.L291
 4439              	.L286:
1435:Drivers/STM32H7xx_HAL_Driver/Src/stm32h7xx_hal_tim_ex.c ****     }
1436:Drivers/STM32H7xx_HAL_Driver/Src/stm32h7xx_hal_tim_ex.c **** 
1437:Drivers/STM32H7xx_HAL_Driver/Src/stm32h7xx_hal_tim_ex.c ****     case TIM_CHANNEL_3:
1438:Drivers/STM32H7xx_HAL_Driver/Src/stm32h7xx_hal_tim_ex.c ****     {
1439:Drivers/STM32H7xx_HAL_Driver/Src/stm32h7xx_hal_tim_ex.c ****       /* Set the DMA compare callbacks */
1440:Drivers/STM32H7xx_HAL_Driver/Src/stm32h7xx_hal_tim_ex.c ****       htim->hdma[TIM_DMA_ID_CC3]->XferCpltCallback = TIM_DMADelayPulseNCplt;
 4440              		.loc 1 1440 17
 4441 01d6 FB68     		ldr	r3, [r7, #12]
 4442 01d8 DB6A     		ldr	r3, [r3, #44]
 4443              		.loc 1 1440 52
 4444 01da 474A     		ldr	r2, .L299
 4445 01dc DA63     		str	r2, [r3, #60]
1441:Drivers/STM32H7xx_HAL_Driver/Src/stm32h7xx_hal_tim_ex.c ****       htim->hdma[TIM_DMA_ID_CC3]->XferHalfCpltCallback = TIM_DMADelayPulseHalfCplt;
 4446              		.loc 1 1441 17
 4447 01de FB68     		ldr	r3, [r7, #12]
 4448 01e0 DB6A     		ldr	r3, [r3, #44]
 4449              		.loc 1 1441 56
 4450 01e2 464A     		ldr	r2, .L299+4
 4451 01e4 1A64     		str	r2, [r3, #64]
1442:Drivers/STM32H7xx_HAL_Driver/Src/stm32h7xx_hal_tim_ex.c **** 
1443:Drivers/STM32H7xx_HAL_Driver/Src/stm32h7xx_hal_tim_ex.c ****       /* Set the DMA error callback */
ARM GAS  C:\Users\Su\AppData\Local\Temp\ccm0VnUy.s 			page 104


1444:Drivers/STM32H7xx_HAL_Driver/Src/stm32h7xx_hal_tim_ex.c ****       htim->hdma[TIM_DMA_ID_CC3]->XferErrorCallback = TIM_DMAErrorCCxN ;
 4452              		.loc 1 1444 17
 4453 01e6 FB68     		ldr	r3, [r7, #12]
 4454 01e8 DB6A     		ldr	r3, [r3, #44]
 4455              		.loc 1 1444 53
 4456 01ea 454A     		ldr	r2, .L299+8
 4457 01ec DA64     		str	r2, [r3, #76]
1445:Drivers/STM32H7xx_HAL_Driver/Src/stm32h7xx_hal_tim_ex.c **** 
1446:Drivers/STM32H7xx_HAL_Driver/Src/stm32h7xx_hal_tim_ex.c ****       /* Enable the DMA stream */
1447:Drivers/STM32H7xx_HAL_Driver/Src/stm32h7xx_hal_tim_ex.c ****       if (HAL_DMA_Start_IT(htim->hdma[TIM_DMA_ID_CC3], (uint32_t)pData, (uint32_t)&htim->Instance->
 4458              		.loc 1 1447 11
 4459 01ee FB68     		ldr	r3, [r7, #12]
 4460 01f0 D86A     		ldr	r0, [r3, #44]
 4461 01f2 7968     		ldr	r1, [r7, #4]
 4462              		.loc 1 1447 88
 4463 01f4 FB68     		ldr	r3, [r7, #12]
 4464 01f6 1B68     		ldr	r3, [r3]
 4465              		.loc 1 1447 83
 4466 01f8 3C33     		adds	r3, r3, #60
 4467              		.loc 1 1447 11
 4468 01fa 1A46     		mov	r2, r3
 4469 01fc 7B88     		ldrh	r3, [r7, #2]
 4470 01fe FFF7FEFF 		bl	HAL_DMA_Start_IT
 4471 0202 0346     		mov	r3, r0
 4472              		.loc 1 1447 10
 4473 0204 002B     		cmp	r3, #0
 4474 0206 01D0     		beq	.L293
1448:Drivers/STM32H7xx_HAL_Driver/Src/stm32h7xx_hal_tim_ex.c ****                            Length) != HAL_OK)
1449:Drivers/STM32H7xx_HAL_Driver/Src/stm32h7xx_hal_tim_ex.c ****       {
1450:Drivers/STM32H7xx_HAL_Driver/Src/stm32h7xx_hal_tim_ex.c ****         /* Return error status */
1451:Drivers/STM32H7xx_HAL_Driver/Src/stm32h7xx_hal_tim_ex.c ****         return HAL_ERROR;
 4475              		.loc 1 1451 16
 4476 0208 0123     		movs	r3, #1
 4477 020a 70E0     		b	.L271
 4478              	.L293:
1452:Drivers/STM32H7xx_HAL_Driver/Src/stm32h7xx_hal_tim_ex.c ****       }
1453:Drivers/STM32H7xx_HAL_Driver/Src/stm32h7xx_hal_tim_ex.c ****       /* Enable the TIM Capture/Compare 3 DMA request */
1454:Drivers/STM32H7xx_HAL_Driver/Src/stm32h7xx_hal_tim_ex.c ****       __HAL_TIM_ENABLE_DMA(htim, TIM_DMA_CC3);
 4479              		.loc 1 1454 7
 4480 020c FB68     		ldr	r3, [r7, #12]
 4481 020e 1B68     		ldr	r3, [r3]
 4482 0210 DA68     		ldr	r2, [r3, #12]
 4483 0212 FB68     		ldr	r3, [r7, #12]
 4484 0214 1B68     		ldr	r3, [r3]
 4485 0216 42F40062 		orr	r2, r2, #2048
 4486 021a DA60     		str	r2, [r3, #12]
1455:Drivers/STM32H7xx_HAL_Driver/Src/stm32h7xx_hal_tim_ex.c ****       break;
 4487              		.loc 1 1455 7
 4488 021c 02E0     		b	.L291
 4489              	.L287:
1456:Drivers/STM32H7xx_HAL_Driver/Src/stm32h7xx_hal_tim_ex.c ****     }
1457:Drivers/STM32H7xx_HAL_Driver/Src/stm32h7xx_hal_tim_ex.c **** 
1458:Drivers/STM32H7xx_HAL_Driver/Src/stm32h7xx_hal_tim_ex.c ****     default:
1459:Drivers/STM32H7xx_HAL_Driver/Src/stm32h7xx_hal_tim_ex.c ****       status = HAL_ERROR;
 4490              		.loc 1 1459 14
 4491 021e 0123     		movs	r3, #1
 4492 0220 FB75     		strb	r3, [r7, #23]
ARM GAS  C:\Users\Su\AppData\Local\Temp\ccm0VnUy.s 			page 105


1460:Drivers/STM32H7xx_HAL_Driver/Src/stm32h7xx_hal_tim_ex.c ****       break;
 4493              		.loc 1 1460 7
 4494 0222 00BF     		nop
 4495              	.L291:
1461:Drivers/STM32H7xx_HAL_Driver/Src/stm32h7xx_hal_tim_ex.c ****   }
1462:Drivers/STM32H7xx_HAL_Driver/Src/stm32h7xx_hal_tim_ex.c **** 
1463:Drivers/STM32H7xx_HAL_Driver/Src/stm32h7xx_hal_tim_ex.c ****   if (status == HAL_OK)
 4496              		.loc 1 1463 6
 4497 0224 FB7D     		ldrb	r3, [r7, #23]	@ zero_extendqisi2
 4498 0226 002B     		cmp	r3, #0
 4499 0228 60D1     		bne	.L294
1464:Drivers/STM32H7xx_HAL_Driver/Src/stm32h7xx_hal_tim_ex.c ****   {
1465:Drivers/STM32H7xx_HAL_Driver/Src/stm32h7xx_hal_tim_ex.c ****     /* Enable the complementary PWM output  */
1466:Drivers/STM32H7xx_HAL_Driver/Src/stm32h7xx_hal_tim_ex.c ****     TIM_CCxNChannelCmd(htim->Instance, Channel, TIM_CCxN_ENABLE);
 4500              		.loc 1 1466 5
 4501 022a FB68     		ldr	r3, [r7, #12]
 4502 022c 1B68     		ldr	r3, [r3]
 4503 022e 0422     		movs	r2, #4
 4504 0230 B968     		ldr	r1, [r7, #8]
 4505 0232 1846     		mov	r0, r3
 4506 0234 FFF7FEFF 		bl	TIM_CCxNChannelCmd
1467:Drivers/STM32H7xx_HAL_Driver/Src/stm32h7xx_hal_tim_ex.c **** 
1468:Drivers/STM32H7xx_HAL_Driver/Src/stm32h7xx_hal_tim_ex.c ****     /* Enable the Main Output */
1469:Drivers/STM32H7xx_HAL_Driver/Src/stm32h7xx_hal_tim_ex.c ****     __HAL_TIM_MOE_ENABLE(htim);
 4507              		.loc 1 1469 5
 4508 0238 FB68     		ldr	r3, [r7, #12]
 4509 023a 1B68     		ldr	r3, [r3]
 4510 023c 5A6C     		ldr	r2, [r3, #68]
 4511 023e FB68     		ldr	r3, [r7, #12]
 4512 0240 1B68     		ldr	r3, [r3]
 4513 0242 42F40042 		orr	r2, r2, #32768
 4514 0246 5A64     		str	r2, [r3, #68]
1470:Drivers/STM32H7xx_HAL_Driver/Src/stm32h7xx_hal_tim_ex.c **** 
1471:Drivers/STM32H7xx_HAL_Driver/Src/stm32h7xx_hal_tim_ex.c ****     /* Enable the Peripheral, except in trigger mode where enable is automatically done with trigge
1472:Drivers/STM32H7xx_HAL_Driver/Src/stm32h7xx_hal_tim_ex.c ****     if (IS_TIM_SLAVE_INSTANCE(htim->Instance))
 4515              		.loc 1 1472 9
 4516 0248 FB68     		ldr	r3, [r7, #12]
 4517 024a 1B68     		ldr	r3, [r3]
 4518              		.loc 1 1472 8
 4519 024c 2D4A     		ldr	r2, .L299+12
 4520 024e 9342     		cmp	r3, r2
 4521 0250 2CD0     		beq	.L295
 4522              		.loc 1 1472 9 discriminator 1
 4523 0252 FB68     		ldr	r3, [r7, #12]
 4524 0254 1B68     		ldr	r3, [r3]
 4525 0256 B3F1804F 		cmp	r3, #1073741824
 4526 025a 27D0     		beq	.L295
 4527              		.loc 1 1472 9 is_stmt 0 discriminator 2
 4528 025c FB68     		ldr	r3, [r7, #12]
 4529 025e 1B68     		ldr	r3, [r3]
 4530 0260 294A     		ldr	r2, .L299+16
 4531 0262 9342     		cmp	r3, r2
 4532 0264 22D0     		beq	.L295
 4533              		.loc 1 1472 9 discriminator 3
 4534 0266 FB68     		ldr	r3, [r7, #12]
 4535 0268 1B68     		ldr	r3, [r3]
 4536 026a 284A     		ldr	r2, .L299+20
ARM GAS  C:\Users\Su\AppData\Local\Temp\ccm0VnUy.s 			page 106


 4537 026c 9342     		cmp	r3, r2
 4538 026e 1DD0     		beq	.L295
 4539              		.loc 1 1472 9 discriminator 4
 4540 0270 FB68     		ldr	r3, [r7, #12]
 4541 0272 1B68     		ldr	r3, [r3]
 4542 0274 264A     		ldr	r2, .L299+24
 4543 0276 9342     		cmp	r3, r2
 4544 0278 18D0     		beq	.L295
 4545              		.loc 1 1472 9 discriminator 5
 4546 027a FB68     		ldr	r3, [r7, #12]
 4547 027c 1B68     		ldr	r3, [r3]
 4548 027e 254A     		ldr	r2, .L299+28
 4549 0280 9342     		cmp	r3, r2
 4550 0282 13D0     		beq	.L295
 4551              		.loc 1 1472 9 discriminator 6
 4552 0284 FB68     		ldr	r3, [r7, #12]
 4553 0286 1B68     		ldr	r3, [r3]
 4554 0288 234A     		ldr	r2, .L299+32
 4555 028a 9342     		cmp	r3, r2
 4556 028c 0ED0     		beq	.L295
 4557              		.loc 1 1472 9 discriminator 7
 4558 028e FB68     		ldr	r3, [r7, #12]
 4559 0290 1B68     		ldr	r3, [r3]
 4560 0292 224A     		ldr	r2, .L299+36
 4561 0294 9342     		cmp	r3, r2
 4562 0296 09D0     		beq	.L295
 4563              		.loc 1 1472 9 discriminator 8
 4564 0298 FB68     		ldr	r3, [r7, #12]
 4565 029a 1B68     		ldr	r3, [r3]
 4566 029c 204A     		ldr	r2, .L299+40
 4567 029e 9342     		cmp	r3, r2
 4568 02a0 04D0     		beq	.L295
 4569              		.loc 1 1472 9 discriminator 9
 4570 02a2 FB68     		ldr	r3, [r7, #12]
 4571 02a4 1B68     		ldr	r3, [r3]
 4572 02a6 1F4A     		ldr	r2, .L299+44
 4573 02a8 9342     		cmp	r3, r2
 4574 02aa 15D1     		bne	.L296
 4575              	.L295:
1473:Drivers/STM32H7xx_HAL_Driver/Src/stm32h7xx_hal_tim_ex.c ****     {
1474:Drivers/STM32H7xx_HAL_Driver/Src/stm32h7xx_hal_tim_ex.c ****       tmpsmcr = htim->Instance->SMCR & TIM_SMCR_SMS;
 4576              		.loc 1 1474 21 is_stmt 1
 4577 02ac FB68     		ldr	r3, [r7, #12]
 4578 02ae 1B68     		ldr	r3, [r3]
 4579              		.loc 1 1474 31
 4580 02b0 9A68     		ldr	r2, [r3, #8]
 4581              		.loc 1 1474 15
 4582 02b2 1D4B     		ldr	r3, .L299+48
 4583 02b4 1340     		ands	r3, r3, r2
 4584 02b6 3B61     		str	r3, [r7, #16]
1475:Drivers/STM32H7xx_HAL_Driver/Src/stm32h7xx_hal_tim_ex.c ****       if (!IS_TIM_SLAVEMODE_TRIGGER_ENABLED(tmpsmcr))
 4585              		.loc 1 1475 10
 4586 02b8 3B69     		ldr	r3, [r7, #16]
 4587 02ba 062B     		cmp	r3, #6
 4588 02bc 15D0     		beq	.L298
 4589              		.loc 1 1475 11 discriminator 1
 4590 02be 3B69     		ldr	r3, [r7, #16]
ARM GAS  C:\Users\Su\AppData\Local\Temp\ccm0VnUy.s 			page 107


 4591 02c0 B3F5803F 		cmp	r3, #65536
 4592 02c4 11D0     		beq	.L298
1476:Drivers/STM32H7xx_HAL_Driver/Src/stm32h7xx_hal_tim_ex.c ****       {
1477:Drivers/STM32H7xx_HAL_Driver/Src/stm32h7xx_hal_tim_ex.c ****         __HAL_TIM_ENABLE(htim);
 4593              		.loc 1 1477 9
 4594 02c6 FB68     		ldr	r3, [r7, #12]
 4595 02c8 1B68     		ldr	r3, [r3]
 4596 02ca 1A68     		ldr	r2, [r3]
 4597 02cc FB68     		ldr	r3, [r7, #12]
 4598 02ce 1B68     		ldr	r3, [r3]
 4599 02d0 42F00102 		orr	r2, r2, #1
 4600 02d4 1A60     		str	r2, [r3]
1475:Drivers/STM32H7xx_HAL_Driver/Src/stm32h7xx_hal_tim_ex.c ****       if (!IS_TIM_SLAVEMODE_TRIGGER_ENABLED(tmpsmcr))
 4601              		.loc 1 1475 10
 4602 02d6 08E0     		b	.L298
 4603              	.L296:
1478:Drivers/STM32H7xx_HAL_Driver/Src/stm32h7xx_hal_tim_ex.c ****       }
1479:Drivers/STM32H7xx_HAL_Driver/Src/stm32h7xx_hal_tim_ex.c ****     }
1480:Drivers/STM32H7xx_HAL_Driver/Src/stm32h7xx_hal_tim_ex.c ****     else
1481:Drivers/STM32H7xx_HAL_Driver/Src/stm32h7xx_hal_tim_ex.c ****     {
1482:Drivers/STM32H7xx_HAL_Driver/Src/stm32h7xx_hal_tim_ex.c ****       __HAL_TIM_ENABLE(htim);
 4604              		.loc 1 1482 7
 4605 02d8 FB68     		ldr	r3, [r7, #12]
 4606 02da 1B68     		ldr	r3, [r3]
 4607 02dc 1A68     		ldr	r2, [r3]
 4608 02de FB68     		ldr	r3, [r7, #12]
 4609 02e0 1B68     		ldr	r3, [r3]
 4610 02e2 42F00102 		orr	r2, r2, #1
 4611 02e6 1A60     		str	r2, [r3]
 4612 02e8 00E0     		b	.L294
 4613              	.L298:
1475:Drivers/STM32H7xx_HAL_Driver/Src/stm32h7xx_hal_tim_ex.c ****       {
 4614              		.loc 1 1475 10
 4615 02ea 00BF     		nop
 4616              	.L294:
1483:Drivers/STM32H7xx_HAL_Driver/Src/stm32h7xx_hal_tim_ex.c ****     }
1484:Drivers/STM32H7xx_HAL_Driver/Src/stm32h7xx_hal_tim_ex.c ****   }
1485:Drivers/STM32H7xx_HAL_Driver/Src/stm32h7xx_hal_tim_ex.c **** 
1486:Drivers/STM32H7xx_HAL_Driver/Src/stm32h7xx_hal_tim_ex.c ****   /* Return function status */
1487:Drivers/STM32H7xx_HAL_Driver/Src/stm32h7xx_hal_tim_ex.c ****   return status;
 4617              		.loc 1 1487 10
 4618 02ec FB7D     		ldrb	r3, [r7, #23]	@ zero_extendqisi2
 4619              	.L271:
1488:Drivers/STM32H7xx_HAL_Driver/Src/stm32h7xx_hal_tim_ex.c **** }
 4620              		.loc 1 1488 1
 4621 02ee 1846     		mov	r0, r3
 4622 02f0 1837     		adds	r7, r7, #24
 4623              	.LCFI105:
 4624              		.cfi_def_cfa_offset 8
 4625 02f2 BD46     		mov	sp, r7
 4626              	.LCFI106:
 4627              		.cfi_def_cfa_register 13
 4628              		@ sp needed
 4629 02f4 80BD     		pop	{r7, pc}
 4630              	.L300:
 4631 02f6 00BF     		.align	2
 4632              	.L299:
ARM GAS  C:\Users\Su\AppData\Local\Temp\ccm0VnUy.s 			page 108


 4633 02f8 00000000 		.word	TIM_DMADelayPulseNCplt
 4634 02fc 00000000 		.word	TIM_DMADelayPulseHalfCplt
 4635 0300 00000000 		.word	TIM_DMAErrorCCxN
 4636 0304 00000140 		.word	1073807360
 4637 0308 00040040 		.word	1073742848
 4638 030c 00080040 		.word	1073743872
 4639 0310 000C0040 		.word	1073744896
 4640 0314 00040140 		.word	1073808384
 4641 0318 00180040 		.word	1073747968
 4642 031c 00400140 		.word	1073823744
 4643 0320 00E00040 		.word	1073799168
 4644 0324 00E40040 		.word	1073800192
 4645 0328 07000100 		.word	65543
 4646              		.cfi_endproc
 4647              	.LFE164:
 4649              		.section	.text.HAL_TIMEx_PWMN_Stop_DMA,"ax",%progbits
 4650              		.align	1
 4651              		.global	HAL_TIMEx_PWMN_Stop_DMA
 4652              		.syntax unified
 4653              		.thumb
 4654              		.thumb_func
 4656              	HAL_TIMEx_PWMN_Stop_DMA:
 4657              	.LFB165:
1489:Drivers/STM32H7xx_HAL_Driver/Src/stm32h7xx_hal_tim_ex.c **** 
1490:Drivers/STM32H7xx_HAL_Driver/Src/stm32h7xx_hal_tim_ex.c **** /**
1491:Drivers/STM32H7xx_HAL_Driver/Src/stm32h7xx_hal_tim_ex.c ****   * @brief  Stops the TIM PWM signal generation in DMA mode on the complementary
1492:Drivers/STM32H7xx_HAL_Driver/Src/stm32h7xx_hal_tim_ex.c ****   *         output
1493:Drivers/STM32H7xx_HAL_Driver/Src/stm32h7xx_hal_tim_ex.c ****   * @param  htim TIM handle
1494:Drivers/STM32H7xx_HAL_Driver/Src/stm32h7xx_hal_tim_ex.c ****   * @param  Channel TIM Channel to be disabled
1495:Drivers/STM32H7xx_HAL_Driver/Src/stm32h7xx_hal_tim_ex.c ****   *          This parameter can be one of the following values:
1496:Drivers/STM32H7xx_HAL_Driver/Src/stm32h7xx_hal_tim_ex.c ****   *            @arg TIM_CHANNEL_1: TIM Channel 1 selected
1497:Drivers/STM32H7xx_HAL_Driver/Src/stm32h7xx_hal_tim_ex.c ****   *            @arg TIM_CHANNEL_2: TIM Channel 2 selected
1498:Drivers/STM32H7xx_HAL_Driver/Src/stm32h7xx_hal_tim_ex.c ****   *            @arg TIM_CHANNEL_3: TIM Channel 3 selected
1499:Drivers/STM32H7xx_HAL_Driver/Src/stm32h7xx_hal_tim_ex.c ****   * @retval HAL status
1500:Drivers/STM32H7xx_HAL_Driver/Src/stm32h7xx_hal_tim_ex.c ****   */
1501:Drivers/STM32H7xx_HAL_Driver/Src/stm32h7xx_hal_tim_ex.c **** HAL_StatusTypeDef HAL_TIMEx_PWMN_Stop_DMA(TIM_HandleTypeDef *htim, uint32_t Channel)
1502:Drivers/STM32H7xx_HAL_Driver/Src/stm32h7xx_hal_tim_ex.c **** {
 4658              		.loc 1 1502 1
 4659              		.cfi_startproc
 4660              		@ args = 0, pretend = 0, frame = 16
 4661              		@ frame_needed = 1, uses_anonymous_args = 0
 4662 0000 80B5     		push	{r7, lr}
 4663              	.LCFI107:
 4664              		.cfi_def_cfa_offset 8
 4665              		.cfi_offset 7, -8
 4666              		.cfi_offset 14, -4
 4667 0002 84B0     		sub	sp, sp, #16
 4668              	.LCFI108:
 4669              		.cfi_def_cfa_offset 24
 4670 0004 00AF     		add	r7, sp, #0
 4671              	.LCFI109:
 4672              		.cfi_def_cfa_register 7
 4673 0006 7860     		str	r0, [r7, #4]
 4674 0008 3960     		str	r1, [r7]
1503:Drivers/STM32H7xx_HAL_Driver/Src/stm32h7xx_hal_tim_ex.c ****   HAL_StatusTypeDef status = HAL_OK;
 4675              		.loc 1 1503 21
 4676 000a 0023     		movs	r3, #0
ARM GAS  C:\Users\Su\AppData\Local\Temp\ccm0VnUy.s 			page 109


 4677 000c FB73     		strb	r3, [r7, #15]
1504:Drivers/STM32H7xx_HAL_Driver/Src/stm32h7xx_hal_tim_ex.c **** 
1505:Drivers/STM32H7xx_HAL_Driver/Src/stm32h7xx_hal_tim_ex.c ****   /* Check the parameters */
1506:Drivers/STM32H7xx_HAL_Driver/Src/stm32h7xx_hal_tim_ex.c ****   assert_param(IS_TIM_CCXN_INSTANCE(htim->Instance, Channel));
1507:Drivers/STM32H7xx_HAL_Driver/Src/stm32h7xx_hal_tim_ex.c **** 
1508:Drivers/STM32H7xx_HAL_Driver/Src/stm32h7xx_hal_tim_ex.c ****   switch (Channel)
 4678              		.loc 1 1508 3
 4679 000e 3B68     		ldr	r3, [r7]
 4680 0010 082B     		cmp	r3, #8
 4681 0012 25D0     		beq	.L302
 4682 0014 3B68     		ldr	r3, [r7]
 4683 0016 082B     		cmp	r3, #8
 4684 0018 30D8     		bhi	.L303
 4685 001a 3B68     		ldr	r3, [r7]
 4686 001c 002B     		cmp	r3, #0
 4687 001e 03D0     		beq	.L304
 4688 0020 3B68     		ldr	r3, [r7]
 4689 0022 042B     		cmp	r3, #4
 4690 0024 0ED0     		beq	.L305
 4691 0026 29E0     		b	.L303
 4692              	.L304:
1509:Drivers/STM32H7xx_HAL_Driver/Src/stm32h7xx_hal_tim_ex.c ****   {
1510:Drivers/STM32H7xx_HAL_Driver/Src/stm32h7xx_hal_tim_ex.c ****     case TIM_CHANNEL_1:
1511:Drivers/STM32H7xx_HAL_Driver/Src/stm32h7xx_hal_tim_ex.c ****     {
1512:Drivers/STM32H7xx_HAL_Driver/Src/stm32h7xx_hal_tim_ex.c ****       /* Disable the TIM Capture/Compare 1 DMA request */
1513:Drivers/STM32H7xx_HAL_Driver/Src/stm32h7xx_hal_tim_ex.c ****       __HAL_TIM_DISABLE_DMA(htim, TIM_DMA_CC1);
 4693              		.loc 1 1513 7
 4694 0028 7B68     		ldr	r3, [r7, #4]
 4695 002a 1B68     		ldr	r3, [r3]
 4696 002c DA68     		ldr	r2, [r3, #12]
 4697 002e 7B68     		ldr	r3, [r7, #4]
 4698 0030 1B68     		ldr	r3, [r3]
 4699 0032 22F40072 		bic	r2, r2, #512
 4700 0036 DA60     		str	r2, [r3, #12]
1514:Drivers/STM32H7xx_HAL_Driver/Src/stm32h7xx_hal_tim_ex.c ****       (void)HAL_DMA_Abort_IT(htim->hdma[TIM_DMA_ID_CC1]);
 4701              		.loc 1 1514 13
 4702 0038 7B68     		ldr	r3, [r7, #4]
 4703 003a 5B6A     		ldr	r3, [r3, #36]
 4704 003c 1846     		mov	r0, r3
 4705 003e FFF7FEFF 		bl	HAL_DMA_Abort_IT
1515:Drivers/STM32H7xx_HAL_Driver/Src/stm32h7xx_hal_tim_ex.c ****       break;
 4706              		.loc 1 1515 7
 4707 0042 1EE0     		b	.L306
 4708              	.L305:
1516:Drivers/STM32H7xx_HAL_Driver/Src/stm32h7xx_hal_tim_ex.c ****     }
1517:Drivers/STM32H7xx_HAL_Driver/Src/stm32h7xx_hal_tim_ex.c **** 
1518:Drivers/STM32H7xx_HAL_Driver/Src/stm32h7xx_hal_tim_ex.c ****     case TIM_CHANNEL_2:
1519:Drivers/STM32H7xx_HAL_Driver/Src/stm32h7xx_hal_tim_ex.c ****     {
1520:Drivers/STM32H7xx_HAL_Driver/Src/stm32h7xx_hal_tim_ex.c ****       /* Disable the TIM Capture/Compare 2 DMA request */
1521:Drivers/STM32H7xx_HAL_Driver/Src/stm32h7xx_hal_tim_ex.c ****       __HAL_TIM_DISABLE_DMA(htim, TIM_DMA_CC2);
 4709              		.loc 1 1521 7
 4710 0044 7B68     		ldr	r3, [r7, #4]
 4711 0046 1B68     		ldr	r3, [r3]
 4712 0048 DA68     		ldr	r2, [r3, #12]
 4713 004a 7B68     		ldr	r3, [r7, #4]
 4714 004c 1B68     		ldr	r3, [r3]
 4715 004e 22F48062 		bic	r2, r2, #1024
ARM GAS  C:\Users\Su\AppData\Local\Temp\ccm0VnUy.s 			page 110


 4716 0052 DA60     		str	r2, [r3, #12]
1522:Drivers/STM32H7xx_HAL_Driver/Src/stm32h7xx_hal_tim_ex.c ****       (void)HAL_DMA_Abort_IT(htim->hdma[TIM_DMA_ID_CC2]);
 4717              		.loc 1 1522 13
 4718 0054 7B68     		ldr	r3, [r7, #4]
 4719 0056 9B6A     		ldr	r3, [r3, #40]
 4720 0058 1846     		mov	r0, r3
 4721 005a FFF7FEFF 		bl	HAL_DMA_Abort_IT
1523:Drivers/STM32H7xx_HAL_Driver/Src/stm32h7xx_hal_tim_ex.c ****       break;
 4722              		.loc 1 1523 7
 4723 005e 10E0     		b	.L306
 4724              	.L302:
1524:Drivers/STM32H7xx_HAL_Driver/Src/stm32h7xx_hal_tim_ex.c ****     }
1525:Drivers/STM32H7xx_HAL_Driver/Src/stm32h7xx_hal_tim_ex.c **** 
1526:Drivers/STM32H7xx_HAL_Driver/Src/stm32h7xx_hal_tim_ex.c ****     case TIM_CHANNEL_3:
1527:Drivers/STM32H7xx_HAL_Driver/Src/stm32h7xx_hal_tim_ex.c ****     {
1528:Drivers/STM32H7xx_HAL_Driver/Src/stm32h7xx_hal_tim_ex.c ****       /* Disable the TIM Capture/Compare 3 DMA request */
1529:Drivers/STM32H7xx_HAL_Driver/Src/stm32h7xx_hal_tim_ex.c ****       __HAL_TIM_DISABLE_DMA(htim, TIM_DMA_CC3);
 4725              		.loc 1 1529 7
 4726 0060 7B68     		ldr	r3, [r7, #4]
 4727 0062 1B68     		ldr	r3, [r3]
 4728 0064 DA68     		ldr	r2, [r3, #12]
 4729 0066 7B68     		ldr	r3, [r7, #4]
 4730 0068 1B68     		ldr	r3, [r3]
 4731 006a 22F40062 		bic	r2, r2, #2048
 4732 006e DA60     		str	r2, [r3, #12]
1530:Drivers/STM32H7xx_HAL_Driver/Src/stm32h7xx_hal_tim_ex.c ****       (void)HAL_DMA_Abort_IT(htim->hdma[TIM_DMA_ID_CC3]);
 4733              		.loc 1 1530 13
 4734 0070 7B68     		ldr	r3, [r7, #4]
 4735 0072 DB6A     		ldr	r3, [r3, #44]
 4736 0074 1846     		mov	r0, r3
 4737 0076 FFF7FEFF 		bl	HAL_DMA_Abort_IT
1531:Drivers/STM32H7xx_HAL_Driver/Src/stm32h7xx_hal_tim_ex.c ****       break;
 4738              		.loc 1 1531 7
 4739 007a 02E0     		b	.L306
 4740              	.L303:
1532:Drivers/STM32H7xx_HAL_Driver/Src/stm32h7xx_hal_tim_ex.c ****     }
1533:Drivers/STM32H7xx_HAL_Driver/Src/stm32h7xx_hal_tim_ex.c **** 
1534:Drivers/STM32H7xx_HAL_Driver/Src/stm32h7xx_hal_tim_ex.c ****     default:
1535:Drivers/STM32H7xx_HAL_Driver/Src/stm32h7xx_hal_tim_ex.c ****       status = HAL_ERROR;
 4741              		.loc 1 1535 14
 4742 007c 0123     		movs	r3, #1
 4743 007e FB73     		strb	r3, [r7, #15]
1536:Drivers/STM32H7xx_HAL_Driver/Src/stm32h7xx_hal_tim_ex.c ****       break;
 4744              		.loc 1 1536 7
 4745 0080 00BF     		nop
 4746              	.L306:
1537:Drivers/STM32H7xx_HAL_Driver/Src/stm32h7xx_hal_tim_ex.c ****   }
1538:Drivers/STM32H7xx_HAL_Driver/Src/stm32h7xx_hal_tim_ex.c **** 
1539:Drivers/STM32H7xx_HAL_Driver/Src/stm32h7xx_hal_tim_ex.c ****   if (status == HAL_OK)
 4747              		.loc 1 1539 6
 4748 0082 FB7B     		ldrb	r3, [r7, #15]	@ zero_extendqisi2
 4749 0084 002B     		cmp	r3, #0
 4750 0086 52D1     		bne	.L307
1540:Drivers/STM32H7xx_HAL_Driver/Src/stm32h7xx_hal_tim_ex.c ****   {
1541:Drivers/STM32H7xx_HAL_Driver/Src/stm32h7xx_hal_tim_ex.c ****     /* Disable the complementary PWM output */
1542:Drivers/STM32H7xx_HAL_Driver/Src/stm32h7xx_hal_tim_ex.c ****     TIM_CCxNChannelCmd(htim->Instance, Channel, TIM_CCxN_DISABLE);
 4751              		.loc 1 1542 5
ARM GAS  C:\Users\Su\AppData\Local\Temp\ccm0VnUy.s 			page 111


 4752 0088 7B68     		ldr	r3, [r7, #4]
 4753 008a 1B68     		ldr	r3, [r3]
 4754 008c 0022     		movs	r2, #0
 4755 008e 3968     		ldr	r1, [r7]
 4756 0090 1846     		mov	r0, r3
 4757 0092 FFF7FEFF 		bl	TIM_CCxNChannelCmd
1543:Drivers/STM32H7xx_HAL_Driver/Src/stm32h7xx_hal_tim_ex.c **** 
1544:Drivers/STM32H7xx_HAL_Driver/Src/stm32h7xx_hal_tim_ex.c ****     /* Disable the Main Output */
1545:Drivers/STM32H7xx_HAL_Driver/Src/stm32h7xx_hal_tim_ex.c ****     __HAL_TIM_MOE_DISABLE(htim);
 4758              		.loc 1 1545 5
 4759 0096 7B68     		ldr	r3, [r7, #4]
 4760 0098 1B68     		ldr	r3, [r3]
 4761 009a 1A6A     		ldr	r2, [r3, #32]
 4762 009c 41F21113 		movw	r3, #4369
 4763 00a0 1340     		ands	r3, r3, r2
 4764 00a2 002B     		cmp	r3, #0
 4765 00a4 0FD1     		bne	.L308
 4766              		.loc 1 1545 5 is_stmt 0 discriminator 1
 4767 00a6 7B68     		ldr	r3, [r7, #4]
 4768 00a8 1B68     		ldr	r3, [r3]
 4769 00aa 1A6A     		ldr	r2, [r3, #32]
 4770 00ac 40F24443 		movw	r3, #1092
 4771 00b0 1340     		ands	r3, r3, r2
 4772 00b2 002B     		cmp	r3, #0
 4773 00b4 07D1     		bne	.L308
 4774              		.loc 1 1545 5 discriminator 2
 4775 00b6 7B68     		ldr	r3, [r7, #4]
 4776 00b8 1B68     		ldr	r3, [r3]
 4777 00ba 5A6C     		ldr	r2, [r3, #68]
 4778 00bc 7B68     		ldr	r3, [r7, #4]
 4779 00be 1B68     		ldr	r3, [r3]
 4780 00c0 22F40042 		bic	r2, r2, #32768
 4781 00c4 5A64     		str	r2, [r3, #68]
 4782              	.L308:
1546:Drivers/STM32H7xx_HAL_Driver/Src/stm32h7xx_hal_tim_ex.c **** 
1547:Drivers/STM32H7xx_HAL_Driver/Src/stm32h7xx_hal_tim_ex.c ****     /* Disable the Peripheral */
1548:Drivers/STM32H7xx_HAL_Driver/Src/stm32h7xx_hal_tim_ex.c ****     __HAL_TIM_DISABLE(htim);
 4783              		.loc 1 1548 5 is_stmt 1
 4784 00c6 7B68     		ldr	r3, [r7, #4]
 4785 00c8 1B68     		ldr	r3, [r3]
 4786 00ca 1A6A     		ldr	r2, [r3, #32]
 4787 00cc 41F21113 		movw	r3, #4369
 4788 00d0 1340     		ands	r3, r3, r2
 4789 00d2 002B     		cmp	r3, #0
 4790 00d4 0FD1     		bne	.L309
 4791              		.loc 1 1548 5 is_stmt 0 discriminator 1
 4792 00d6 7B68     		ldr	r3, [r7, #4]
 4793 00d8 1B68     		ldr	r3, [r3]
 4794 00da 1A6A     		ldr	r2, [r3, #32]
 4795 00dc 40F24443 		movw	r3, #1092
 4796 00e0 1340     		ands	r3, r3, r2
 4797 00e2 002B     		cmp	r3, #0
 4798 00e4 07D1     		bne	.L309
 4799              		.loc 1 1548 5 discriminator 2
 4800 00e6 7B68     		ldr	r3, [r7, #4]
 4801 00e8 1B68     		ldr	r3, [r3]
 4802 00ea 1A68     		ldr	r2, [r3]
ARM GAS  C:\Users\Su\AppData\Local\Temp\ccm0VnUy.s 			page 112


 4803 00ec 7B68     		ldr	r3, [r7, #4]
 4804 00ee 1B68     		ldr	r3, [r3]
 4805 00f0 22F00102 		bic	r2, r2, #1
 4806 00f4 1A60     		str	r2, [r3]
 4807              	.L309:
1549:Drivers/STM32H7xx_HAL_Driver/Src/stm32h7xx_hal_tim_ex.c **** 
1550:Drivers/STM32H7xx_HAL_Driver/Src/stm32h7xx_hal_tim_ex.c ****     /* Set the TIM complementary channel state */
1551:Drivers/STM32H7xx_HAL_Driver/Src/stm32h7xx_hal_tim_ex.c ****     TIM_CHANNEL_N_STATE_SET(htim, Channel, HAL_TIM_CHANNEL_STATE_READY);
 4808              		.loc 1 1551 5 is_stmt 1
 4809 00f6 3B68     		ldr	r3, [r7]
 4810 00f8 002B     		cmp	r3, #0
 4811 00fa 04D1     		bne	.L310
 4812              		.loc 1 1551 5 is_stmt 0 discriminator 1
 4813 00fc 7B68     		ldr	r3, [r7, #4]
 4814 00fe 0122     		movs	r2, #1
 4815 0100 83F84420 		strb	r2, [r3, #68]
 4816 0104 13E0     		b	.L307
 4817              	.L310:
 4818              		.loc 1 1551 5 discriminator 2
 4819 0106 3B68     		ldr	r3, [r7]
 4820 0108 042B     		cmp	r3, #4
 4821 010a 04D1     		bne	.L311
 4822              		.loc 1 1551 5 discriminator 3
 4823 010c 7B68     		ldr	r3, [r7, #4]
 4824 010e 0122     		movs	r2, #1
 4825 0110 83F84520 		strb	r2, [r3, #69]
 4826 0114 0BE0     		b	.L307
 4827              	.L311:
 4828              		.loc 1 1551 5 discriminator 4
 4829 0116 3B68     		ldr	r3, [r7]
 4830 0118 082B     		cmp	r3, #8
 4831 011a 04D1     		bne	.L313
 4832              		.loc 1 1551 5 discriminator 6
 4833 011c 7B68     		ldr	r3, [r7, #4]
 4834 011e 0122     		movs	r2, #1
 4835 0120 83F84620 		strb	r2, [r3, #70]
 4836 0124 03E0     		b	.L307
 4837              	.L313:
 4838              		.loc 1 1551 5 discriminator 7
 4839 0126 7B68     		ldr	r3, [r7, #4]
 4840 0128 0122     		movs	r2, #1
 4841 012a 83F84720 		strb	r2, [r3, #71]
 4842              	.L307:
1552:Drivers/STM32H7xx_HAL_Driver/Src/stm32h7xx_hal_tim_ex.c ****   }
1553:Drivers/STM32H7xx_HAL_Driver/Src/stm32h7xx_hal_tim_ex.c **** 
1554:Drivers/STM32H7xx_HAL_Driver/Src/stm32h7xx_hal_tim_ex.c ****   /* Return function status */
1555:Drivers/STM32H7xx_HAL_Driver/Src/stm32h7xx_hal_tim_ex.c ****   return status;
 4843              		.loc 1 1555 10 is_stmt 1
 4844 012e FB7B     		ldrb	r3, [r7, #15]	@ zero_extendqisi2
1556:Drivers/STM32H7xx_HAL_Driver/Src/stm32h7xx_hal_tim_ex.c **** }
 4845              		.loc 1 1556 1
 4846 0130 1846     		mov	r0, r3
 4847 0132 1037     		adds	r7, r7, #16
 4848              	.LCFI110:
 4849              		.cfi_def_cfa_offset 8
 4850 0134 BD46     		mov	sp, r7
 4851              	.LCFI111:
ARM GAS  C:\Users\Su\AppData\Local\Temp\ccm0VnUy.s 			page 113


 4852              		.cfi_def_cfa_register 13
 4853              		@ sp needed
 4854 0136 80BD     		pop	{r7, pc}
 4855              		.cfi_endproc
 4856              	.LFE165:
 4858              		.section	.text.HAL_TIMEx_OnePulseN_Start,"ax",%progbits
 4859              		.align	1
 4860              		.global	HAL_TIMEx_OnePulseN_Start
 4861              		.syntax unified
 4862              		.thumb
 4863              		.thumb_func
 4865              	HAL_TIMEx_OnePulseN_Start:
 4866              	.LFB166:
1557:Drivers/STM32H7xx_HAL_Driver/Src/stm32h7xx_hal_tim_ex.c **** 
1558:Drivers/STM32H7xx_HAL_Driver/Src/stm32h7xx_hal_tim_ex.c **** /**
1559:Drivers/STM32H7xx_HAL_Driver/Src/stm32h7xx_hal_tim_ex.c ****   * @}
1560:Drivers/STM32H7xx_HAL_Driver/Src/stm32h7xx_hal_tim_ex.c ****   */
1561:Drivers/STM32H7xx_HAL_Driver/Src/stm32h7xx_hal_tim_ex.c **** 
1562:Drivers/STM32H7xx_HAL_Driver/Src/stm32h7xx_hal_tim_ex.c **** /** @defgroup TIMEx_Exported_Functions_Group4 Extended Timer Complementary One Pulse functions
1563:Drivers/STM32H7xx_HAL_Driver/Src/stm32h7xx_hal_tim_ex.c ****   * @brief    Timer Complementary One Pulse functions
1564:Drivers/STM32H7xx_HAL_Driver/Src/stm32h7xx_hal_tim_ex.c ****   *
1565:Drivers/STM32H7xx_HAL_Driver/Src/stm32h7xx_hal_tim_ex.c **** @verbatim
1566:Drivers/STM32H7xx_HAL_Driver/Src/stm32h7xx_hal_tim_ex.c ****   ==============================================================================
1567:Drivers/STM32H7xx_HAL_Driver/Src/stm32h7xx_hal_tim_ex.c ****                 ##### Timer Complementary One Pulse functions #####
1568:Drivers/STM32H7xx_HAL_Driver/Src/stm32h7xx_hal_tim_ex.c ****   ==============================================================================
1569:Drivers/STM32H7xx_HAL_Driver/Src/stm32h7xx_hal_tim_ex.c ****   [..]
1570:Drivers/STM32H7xx_HAL_Driver/Src/stm32h7xx_hal_tim_ex.c ****     This section provides functions allowing to:
1571:Drivers/STM32H7xx_HAL_Driver/Src/stm32h7xx_hal_tim_ex.c ****     (+) Start the Complementary One Pulse generation.
1572:Drivers/STM32H7xx_HAL_Driver/Src/stm32h7xx_hal_tim_ex.c ****     (+) Stop the Complementary One Pulse.
1573:Drivers/STM32H7xx_HAL_Driver/Src/stm32h7xx_hal_tim_ex.c ****     (+) Start the Complementary One Pulse and enable interrupts.
1574:Drivers/STM32H7xx_HAL_Driver/Src/stm32h7xx_hal_tim_ex.c ****     (+) Stop the Complementary One Pulse and disable interrupts.
1575:Drivers/STM32H7xx_HAL_Driver/Src/stm32h7xx_hal_tim_ex.c **** 
1576:Drivers/STM32H7xx_HAL_Driver/Src/stm32h7xx_hal_tim_ex.c **** @endverbatim
1577:Drivers/STM32H7xx_HAL_Driver/Src/stm32h7xx_hal_tim_ex.c ****   * @{
1578:Drivers/STM32H7xx_HAL_Driver/Src/stm32h7xx_hal_tim_ex.c ****   */
1579:Drivers/STM32H7xx_HAL_Driver/Src/stm32h7xx_hal_tim_ex.c **** 
1580:Drivers/STM32H7xx_HAL_Driver/Src/stm32h7xx_hal_tim_ex.c **** /**
1581:Drivers/STM32H7xx_HAL_Driver/Src/stm32h7xx_hal_tim_ex.c ****   * @brief  Starts the TIM One Pulse signal generation on the complementary
1582:Drivers/STM32H7xx_HAL_Driver/Src/stm32h7xx_hal_tim_ex.c ****   *         output.
1583:Drivers/STM32H7xx_HAL_Driver/Src/stm32h7xx_hal_tim_ex.c ****   * @note OutputChannel must match the pulse output channel chosen when calling
1584:Drivers/STM32H7xx_HAL_Driver/Src/stm32h7xx_hal_tim_ex.c ****   *       @ref HAL_TIM_OnePulse_ConfigChannel().
1585:Drivers/STM32H7xx_HAL_Driver/Src/stm32h7xx_hal_tim_ex.c ****   * @param  htim TIM One Pulse handle
1586:Drivers/STM32H7xx_HAL_Driver/Src/stm32h7xx_hal_tim_ex.c ****   * @param  OutputChannel pulse output channel to enable
1587:Drivers/STM32H7xx_HAL_Driver/Src/stm32h7xx_hal_tim_ex.c ****   *          This parameter can be one of the following values:
1588:Drivers/STM32H7xx_HAL_Driver/Src/stm32h7xx_hal_tim_ex.c ****   *            @arg TIM_CHANNEL_1: TIM Channel 1 selected
1589:Drivers/STM32H7xx_HAL_Driver/Src/stm32h7xx_hal_tim_ex.c ****   *            @arg TIM_CHANNEL_2: TIM Channel 2 selected
1590:Drivers/STM32H7xx_HAL_Driver/Src/stm32h7xx_hal_tim_ex.c ****   * @retval HAL status
1591:Drivers/STM32H7xx_HAL_Driver/Src/stm32h7xx_hal_tim_ex.c ****   */
1592:Drivers/STM32H7xx_HAL_Driver/Src/stm32h7xx_hal_tim_ex.c **** HAL_StatusTypeDef HAL_TIMEx_OnePulseN_Start(TIM_HandleTypeDef *htim, uint32_t OutputChannel)
1593:Drivers/STM32H7xx_HAL_Driver/Src/stm32h7xx_hal_tim_ex.c **** {
 4867              		.loc 1 1593 1
 4868              		.cfi_startproc
 4869              		@ args = 0, pretend = 0, frame = 16
 4870              		@ frame_needed = 1, uses_anonymous_args = 0
 4871 0000 80B5     		push	{r7, lr}
 4872              	.LCFI112:
 4873              		.cfi_def_cfa_offset 8
ARM GAS  C:\Users\Su\AppData\Local\Temp\ccm0VnUy.s 			page 114


 4874              		.cfi_offset 7, -8
 4875              		.cfi_offset 14, -4
 4876 0002 84B0     		sub	sp, sp, #16
 4877              	.LCFI113:
 4878              		.cfi_def_cfa_offset 24
 4879 0004 00AF     		add	r7, sp, #0
 4880              	.LCFI114:
 4881              		.cfi_def_cfa_register 7
 4882 0006 7860     		str	r0, [r7, #4]
 4883 0008 3960     		str	r1, [r7]
1594:Drivers/STM32H7xx_HAL_Driver/Src/stm32h7xx_hal_tim_ex.c ****   uint32_t input_channel = (OutputChannel == TIM_CHANNEL_1) ? TIM_CHANNEL_2 : TIM_CHANNEL_1;
 4884              		.loc 1 1594 77
 4885 000a 3B68     		ldr	r3, [r7]
 4886 000c 002B     		cmp	r3, #0
 4887 000e 01D1     		bne	.L317
 4888              		.loc 1 1594 77 is_stmt 0 discriminator 1
 4889 0010 0423     		movs	r3, #4
 4890 0012 00E0     		b	.L318
 4891              	.L317:
 4892              		.loc 1 1594 77 discriminator 2
 4893 0014 0023     		movs	r3, #0
 4894              	.L318:
 4895              		.loc 1 1594 12 is_stmt 1 discriminator 4
 4896 0016 FB60     		str	r3, [r7, #12]
1595:Drivers/STM32H7xx_HAL_Driver/Src/stm32h7xx_hal_tim_ex.c ****   HAL_TIM_ChannelStateTypeDef channel_1_state = TIM_CHANNEL_STATE_GET(htim, TIM_CHANNEL_1);
 4897              		.loc 1 1595 31 discriminator 4
 4898 0018 7B68     		ldr	r3, [r7, #4]
 4899 001a 93F83E30 		ldrb	r3, [r3, #62]
 4900 001e FB72     		strb	r3, [r7, #11]
1596:Drivers/STM32H7xx_HAL_Driver/Src/stm32h7xx_hal_tim_ex.c ****   HAL_TIM_ChannelStateTypeDef channel_2_state = TIM_CHANNEL_STATE_GET(htim, TIM_CHANNEL_2);
 4901              		.loc 1 1596 31 discriminator 4
 4902 0020 7B68     		ldr	r3, [r7, #4]
 4903 0022 93F83F30 		ldrb	r3, [r3, #63]
 4904 0026 BB72     		strb	r3, [r7, #10]
1597:Drivers/STM32H7xx_HAL_Driver/Src/stm32h7xx_hal_tim_ex.c ****   HAL_TIM_ChannelStateTypeDef complementary_channel_1_state = TIM_CHANNEL_N_STATE_GET(htim, TIM_CHA
 4905              		.loc 1 1597 31 discriminator 4
 4906 0028 7B68     		ldr	r3, [r7, #4]
 4907 002a 93F84430 		ldrb	r3, [r3, #68]
 4908 002e 7B72     		strb	r3, [r7, #9]
1598:Drivers/STM32H7xx_HAL_Driver/Src/stm32h7xx_hal_tim_ex.c ****   HAL_TIM_ChannelStateTypeDef complementary_channel_2_state = TIM_CHANNEL_N_STATE_GET(htim, TIM_CHA
 4909              		.loc 1 1598 31 discriminator 4
 4910 0030 7B68     		ldr	r3, [r7, #4]
 4911 0032 93F84530 		ldrb	r3, [r3, #69]
 4912 0036 3B72     		strb	r3, [r7, #8]
1599:Drivers/STM32H7xx_HAL_Driver/Src/stm32h7xx_hal_tim_ex.c **** 
1600:Drivers/STM32H7xx_HAL_Driver/Src/stm32h7xx_hal_tim_ex.c ****   /* Check the parameters */
1601:Drivers/STM32H7xx_HAL_Driver/Src/stm32h7xx_hal_tim_ex.c ****   assert_param(IS_TIM_CCXN_INSTANCE(htim->Instance, OutputChannel));
1602:Drivers/STM32H7xx_HAL_Driver/Src/stm32h7xx_hal_tim_ex.c **** 
1603:Drivers/STM32H7xx_HAL_Driver/Src/stm32h7xx_hal_tim_ex.c ****   /* Check the TIM channels state */
1604:Drivers/STM32H7xx_HAL_Driver/Src/stm32h7xx_hal_tim_ex.c ****   if ((channel_1_state != HAL_TIM_CHANNEL_STATE_READY)
 4913              		.loc 1 1604 6 discriminator 4
 4914 0038 FB7A     		ldrb	r3, [r7, #11]	@ zero_extendqisi2
 4915 003a 012B     		cmp	r3, #1
 4916 003c 08D1     		bne	.L319
1605:Drivers/STM32H7xx_HAL_Driver/Src/stm32h7xx_hal_tim_ex.c ****       || (channel_2_state != HAL_TIM_CHANNEL_STATE_READY)
 4917              		.loc 1 1605 7
 4918 003e BB7A     		ldrb	r3, [r7, #10]	@ zero_extendqisi2
ARM GAS  C:\Users\Su\AppData\Local\Temp\ccm0VnUy.s 			page 115


 4919 0040 012B     		cmp	r3, #1
 4920 0042 05D1     		bne	.L319
1606:Drivers/STM32H7xx_HAL_Driver/Src/stm32h7xx_hal_tim_ex.c ****       || (complementary_channel_1_state != HAL_TIM_CHANNEL_STATE_READY)
 4921              		.loc 1 1606 7
 4922 0044 7B7A     		ldrb	r3, [r7, #9]	@ zero_extendqisi2
 4923 0046 012B     		cmp	r3, #1
 4924 0048 02D1     		bne	.L319
1607:Drivers/STM32H7xx_HAL_Driver/Src/stm32h7xx_hal_tim_ex.c ****       || (complementary_channel_2_state != HAL_TIM_CHANNEL_STATE_READY))
 4925              		.loc 1 1607 7
 4926 004a 3B7A     		ldrb	r3, [r7, #8]	@ zero_extendqisi2
 4927 004c 012B     		cmp	r3, #1
 4928 004e 01D0     		beq	.L320
 4929              	.L319:
1608:Drivers/STM32H7xx_HAL_Driver/Src/stm32h7xx_hal_tim_ex.c ****   {
1609:Drivers/STM32H7xx_HAL_Driver/Src/stm32h7xx_hal_tim_ex.c ****     return HAL_ERROR;
 4930              		.loc 1 1609 12
 4931 0050 0123     		movs	r3, #1
 4932 0052 26E0     		b	.L321
 4933              	.L320:
1610:Drivers/STM32H7xx_HAL_Driver/Src/stm32h7xx_hal_tim_ex.c ****   }
1611:Drivers/STM32H7xx_HAL_Driver/Src/stm32h7xx_hal_tim_ex.c **** 
1612:Drivers/STM32H7xx_HAL_Driver/Src/stm32h7xx_hal_tim_ex.c ****   /* Set the TIM channels state */
1613:Drivers/STM32H7xx_HAL_Driver/Src/stm32h7xx_hal_tim_ex.c ****   TIM_CHANNEL_STATE_SET(htim, TIM_CHANNEL_1, HAL_TIM_CHANNEL_STATE_BUSY);
 4934              		.loc 1 1613 3
 4935 0054 7B68     		ldr	r3, [r7, #4]
 4936 0056 0222     		movs	r2, #2
 4937 0058 83F83E20 		strb	r2, [r3, #62]
1614:Drivers/STM32H7xx_HAL_Driver/Src/stm32h7xx_hal_tim_ex.c ****   TIM_CHANNEL_STATE_SET(htim, TIM_CHANNEL_2, HAL_TIM_CHANNEL_STATE_BUSY);
 4938              		.loc 1 1614 3
 4939 005c 7B68     		ldr	r3, [r7, #4]
 4940 005e 0222     		movs	r2, #2
 4941 0060 83F83F20 		strb	r2, [r3, #63]
1615:Drivers/STM32H7xx_HAL_Driver/Src/stm32h7xx_hal_tim_ex.c ****   TIM_CHANNEL_N_STATE_SET(htim, TIM_CHANNEL_1, HAL_TIM_CHANNEL_STATE_BUSY);
 4942              		.loc 1 1615 3
 4943 0064 7B68     		ldr	r3, [r7, #4]
 4944 0066 0222     		movs	r2, #2
 4945 0068 83F84420 		strb	r2, [r3, #68]
1616:Drivers/STM32H7xx_HAL_Driver/Src/stm32h7xx_hal_tim_ex.c ****   TIM_CHANNEL_N_STATE_SET(htim, TIM_CHANNEL_2, HAL_TIM_CHANNEL_STATE_BUSY);
 4946              		.loc 1 1616 3
 4947 006c 7B68     		ldr	r3, [r7, #4]
 4948 006e 0222     		movs	r2, #2
 4949 0070 83F84520 		strb	r2, [r3, #69]
1617:Drivers/STM32H7xx_HAL_Driver/Src/stm32h7xx_hal_tim_ex.c **** 
1618:Drivers/STM32H7xx_HAL_Driver/Src/stm32h7xx_hal_tim_ex.c ****   /* Enable the complementary One Pulse output channel and the Input Capture channel */
1619:Drivers/STM32H7xx_HAL_Driver/Src/stm32h7xx_hal_tim_ex.c ****   TIM_CCxNChannelCmd(htim->Instance, OutputChannel, TIM_CCxN_ENABLE);
 4950              		.loc 1 1619 3
 4951 0074 7B68     		ldr	r3, [r7, #4]
 4952 0076 1B68     		ldr	r3, [r3]
 4953 0078 0422     		movs	r2, #4
 4954 007a 3968     		ldr	r1, [r7]
 4955 007c 1846     		mov	r0, r3
 4956 007e FFF7FEFF 		bl	TIM_CCxNChannelCmd
1620:Drivers/STM32H7xx_HAL_Driver/Src/stm32h7xx_hal_tim_ex.c ****   TIM_CCxChannelCmd(htim->Instance, input_channel, TIM_CCx_ENABLE);
 4957              		.loc 1 1620 3
 4958 0082 7B68     		ldr	r3, [r7, #4]
 4959 0084 1B68     		ldr	r3, [r3]
 4960 0086 0122     		movs	r2, #1
ARM GAS  C:\Users\Su\AppData\Local\Temp\ccm0VnUy.s 			page 116


 4961 0088 F968     		ldr	r1, [r7, #12]
 4962 008a 1846     		mov	r0, r3
 4963 008c FFF7FEFF 		bl	TIM_CCxChannelCmd
1621:Drivers/STM32H7xx_HAL_Driver/Src/stm32h7xx_hal_tim_ex.c **** 
1622:Drivers/STM32H7xx_HAL_Driver/Src/stm32h7xx_hal_tim_ex.c ****   /* Enable the Main Output */
1623:Drivers/STM32H7xx_HAL_Driver/Src/stm32h7xx_hal_tim_ex.c ****   __HAL_TIM_MOE_ENABLE(htim);
 4964              		.loc 1 1623 3
 4965 0090 7B68     		ldr	r3, [r7, #4]
 4966 0092 1B68     		ldr	r3, [r3]
 4967 0094 5A6C     		ldr	r2, [r3, #68]
 4968 0096 7B68     		ldr	r3, [r7, #4]
 4969 0098 1B68     		ldr	r3, [r3]
 4970 009a 42F40042 		orr	r2, r2, #32768
 4971 009e 5A64     		str	r2, [r3, #68]
1624:Drivers/STM32H7xx_HAL_Driver/Src/stm32h7xx_hal_tim_ex.c **** 
1625:Drivers/STM32H7xx_HAL_Driver/Src/stm32h7xx_hal_tim_ex.c ****   /* Return function status */
1626:Drivers/STM32H7xx_HAL_Driver/Src/stm32h7xx_hal_tim_ex.c ****   return HAL_OK;
 4972              		.loc 1 1626 10
 4973 00a0 0023     		movs	r3, #0
 4974              	.L321:
1627:Drivers/STM32H7xx_HAL_Driver/Src/stm32h7xx_hal_tim_ex.c **** }
 4975              		.loc 1 1627 1
 4976 00a2 1846     		mov	r0, r3
 4977 00a4 1037     		adds	r7, r7, #16
 4978              	.LCFI115:
 4979              		.cfi_def_cfa_offset 8
 4980 00a6 BD46     		mov	sp, r7
 4981              	.LCFI116:
 4982              		.cfi_def_cfa_register 13
 4983              		@ sp needed
 4984 00a8 80BD     		pop	{r7, pc}
 4985              		.cfi_endproc
 4986              	.LFE166:
 4988              		.section	.text.HAL_TIMEx_OnePulseN_Stop,"ax",%progbits
 4989              		.align	1
 4990              		.global	HAL_TIMEx_OnePulseN_Stop
 4991              		.syntax unified
 4992              		.thumb
 4993              		.thumb_func
 4995              	HAL_TIMEx_OnePulseN_Stop:
 4996              	.LFB167:
1628:Drivers/STM32H7xx_HAL_Driver/Src/stm32h7xx_hal_tim_ex.c **** 
1629:Drivers/STM32H7xx_HAL_Driver/Src/stm32h7xx_hal_tim_ex.c **** /**
1630:Drivers/STM32H7xx_HAL_Driver/Src/stm32h7xx_hal_tim_ex.c ****   * @brief  Stops the TIM One Pulse signal generation on the complementary
1631:Drivers/STM32H7xx_HAL_Driver/Src/stm32h7xx_hal_tim_ex.c ****   *         output.
1632:Drivers/STM32H7xx_HAL_Driver/Src/stm32h7xx_hal_tim_ex.c ****   * @note OutputChannel must match the pulse output channel chosen when calling
1633:Drivers/STM32H7xx_HAL_Driver/Src/stm32h7xx_hal_tim_ex.c ****   *       @ref HAL_TIM_OnePulse_ConfigChannel().
1634:Drivers/STM32H7xx_HAL_Driver/Src/stm32h7xx_hal_tim_ex.c ****   * @param  htim TIM One Pulse handle
1635:Drivers/STM32H7xx_HAL_Driver/Src/stm32h7xx_hal_tim_ex.c ****   * @param  OutputChannel pulse output channel to disable
1636:Drivers/STM32H7xx_HAL_Driver/Src/stm32h7xx_hal_tim_ex.c ****   *          This parameter can be one of the following values:
1637:Drivers/STM32H7xx_HAL_Driver/Src/stm32h7xx_hal_tim_ex.c ****   *            @arg TIM_CHANNEL_1: TIM Channel 1 selected
1638:Drivers/STM32H7xx_HAL_Driver/Src/stm32h7xx_hal_tim_ex.c ****   *            @arg TIM_CHANNEL_2: TIM Channel 2 selected
1639:Drivers/STM32H7xx_HAL_Driver/Src/stm32h7xx_hal_tim_ex.c ****   * @retval HAL status
1640:Drivers/STM32H7xx_HAL_Driver/Src/stm32h7xx_hal_tim_ex.c ****   */
1641:Drivers/STM32H7xx_HAL_Driver/Src/stm32h7xx_hal_tim_ex.c **** HAL_StatusTypeDef HAL_TIMEx_OnePulseN_Stop(TIM_HandleTypeDef *htim, uint32_t OutputChannel)
1642:Drivers/STM32H7xx_HAL_Driver/Src/stm32h7xx_hal_tim_ex.c **** {
 4997              		.loc 1 1642 1
ARM GAS  C:\Users\Su\AppData\Local\Temp\ccm0VnUy.s 			page 117


 4998              		.cfi_startproc
 4999              		@ args = 0, pretend = 0, frame = 16
 5000              		@ frame_needed = 1, uses_anonymous_args = 0
 5001 0000 80B5     		push	{r7, lr}
 5002              	.LCFI117:
 5003              		.cfi_def_cfa_offset 8
 5004              		.cfi_offset 7, -8
 5005              		.cfi_offset 14, -4
 5006 0002 84B0     		sub	sp, sp, #16
 5007              	.LCFI118:
 5008              		.cfi_def_cfa_offset 24
 5009 0004 00AF     		add	r7, sp, #0
 5010              	.LCFI119:
 5011              		.cfi_def_cfa_register 7
 5012 0006 7860     		str	r0, [r7, #4]
 5013 0008 3960     		str	r1, [r7]
1643:Drivers/STM32H7xx_HAL_Driver/Src/stm32h7xx_hal_tim_ex.c ****   uint32_t input_channel = (OutputChannel == TIM_CHANNEL_1) ? TIM_CHANNEL_2 : TIM_CHANNEL_1;
 5014              		.loc 1 1643 77
 5015 000a 3B68     		ldr	r3, [r7]
 5016 000c 002B     		cmp	r3, #0
 5017 000e 01D1     		bne	.L323
 5018              		.loc 1 1643 77 is_stmt 0 discriminator 1
 5019 0010 0423     		movs	r3, #4
 5020 0012 00E0     		b	.L324
 5021              	.L323:
 5022              		.loc 1 1643 77 discriminator 2
 5023 0014 0023     		movs	r3, #0
 5024              	.L324:
 5025              		.loc 1 1643 12 is_stmt 1 discriminator 4
 5026 0016 FB60     		str	r3, [r7, #12]
1644:Drivers/STM32H7xx_HAL_Driver/Src/stm32h7xx_hal_tim_ex.c **** 
1645:Drivers/STM32H7xx_HAL_Driver/Src/stm32h7xx_hal_tim_ex.c ****   /* Check the parameters */
1646:Drivers/STM32H7xx_HAL_Driver/Src/stm32h7xx_hal_tim_ex.c ****   assert_param(IS_TIM_CCXN_INSTANCE(htim->Instance, OutputChannel));
1647:Drivers/STM32H7xx_HAL_Driver/Src/stm32h7xx_hal_tim_ex.c **** 
1648:Drivers/STM32H7xx_HAL_Driver/Src/stm32h7xx_hal_tim_ex.c ****   /* Disable the complementary One Pulse output channel and the Input Capture channel */
1649:Drivers/STM32H7xx_HAL_Driver/Src/stm32h7xx_hal_tim_ex.c ****   TIM_CCxNChannelCmd(htim->Instance, OutputChannel, TIM_CCxN_DISABLE);
 5027              		.loc 1 1649 3 discriminator 4
 5028 0018 7B68     		ldr	r3, [r7, #4]
 5029 001a 1B68     		ldr	r3, [r3]
 5030 001c 0022     		movs	r2, #0
 5031 001e 3968     		ldr	r1, [r7]
 5032 0020 1846     		mov	r0, r3
 5033 0022 FFF7FEFF 		bl	TIM_CCxNChannelCmd
1650:Drivers/STM32H7xx_HAL_Driver/Src/stm32h7xx_hal_tim_ex.c ****   TIM_CCxChannelCmd(htim->Instance, input_channel, TIM_CCx_DISABLE);
 5034              		.loc 1 1650 3 discriminator 4
 5035 0026 7B68     		ldr	r3, [r7, #4]
 5036 0028 1B68     		ldr	r3, [r3]
 5037 002a 0022     		movs	r2, #0
 5038 002c F968     		ldr	r1, [r7, #12]
 5039 002e 1846     		mov	r0, r3
 5040 0030 FFF7FEFF 		bl	TIM_CCxChannelCmd
1651:Drivers/STM32H7xx_HAL_Driver/Src/stm32h7xx_hal_tim_ex.c **** 
1652:Drivers/STM32H7xx_HAL_Driver/Src/stm32h7xx_hal_tim_ex.c ****   /* Disable the Main Output */
1653:Drivers/STM32H7xx_HAL_Driver/Src/stm32h7xx_hal_tim_ex.c ****   __HAL_TIM_MOE_DISABLE(htim);
 5041              		.loc 1 1653 3 discriminator 4
 5042 0034 7B68     		ldr	r3, [r7, #4]
 5043 0036 1B68     		ldr	r3, [r3]
ARM GAS  C:\Users\Su\AppData\Local\Temp\ccm0VnUy.s 			page 118


 5044 0038 1A6A     		ldr	r2, [r3, #32]
 5045 003a 41F21113 		movw	r3, #4369
 5046 003e 1340     		ands	r3, r3, r2
 5047 0040 002B     		cmp	r3, #0
 5048 0042 0FD1     		bne	.L325
 5049              		.loc 1 1653 3 is_stmt 0 discriminator 1
 5050 0044 7B68     		ldr	r3, [r7, #4]
 5051 0046 1B68     		ldr	r3, [r3]
 5052 0048 1A6A     		ldr	r2, [r3, #32]
 5053 004a 40F24443 		movw	r3, #1092
 5054 004e 1340     		ands	r3, r3, r2
 5055 0050 002B     		cmp	r3, #0
 5056 0052 07D1     		bne	.L325
 5057              		.loc 1 1653 3 discriminator 2
 5058 0054 7B68     		ldr	r3, [r7, #4]
 5059 0056 1B68     		ldr	r3, [r3]
 5060 0058 5A6C     		ldr	r2, [r3, #68]
 5061 005a 7B68     		ldr	r3, [r7, #4]
 5062 005c 1B68     		ldr	r3, [r3]
 5063 005e 22F40042 		bic	r2, r2, #32768
 5064 0062 5A64     		str	r2, [r3, #68]
 5065              	.L325:
1654:Drivers/STM32H7xx_HAL_Driver/Src/stm32h7xx_hal_tim_ex.c **** 
1655:Drivers/STM32H7xx_HAL_Driver/Src/stm32h7xx_hal_tim_ex.c ****   /* Disable the Peripheral */
1656:Drivers/STM32H7xx_HAL_Driver/Src/stm32h7xx_hal_tim_ex.c ****   __HAL_TIM_DISABLE(htim);
 5066              		.loc 1 1656 3 is_stmt 1
 5067 0064 7B68     		ldr	r3, [r7, #4]
 5068 0066 1B68     		ldr	r3, [r3]
 5069 0068 1A6A     		ldr	r2, [r3, #32]
 5070 006a 41F21113 		movw	r3, #4369
 5071 006e 1340     		ands	r3, r3, r2
 5072 0070 002B     		cmp	r3, #0
 5073 0072 0FD1     		bne	.L326
 5074              		.loc 1 1656 3 is_stmt 0 discriminator 1
 5075 0074 7B68     		ldr	r3, [r7, #4]
 5076 0076 1B68     		ldr	r3, [r3]
 5077 0078 1A6A     		ldr	r2, [r3, #32]
 5078 007a 40F24443 		movw	r3, #1092
 5079 007e 1340     		ands	r3, r3, r2
 5080 0080 002B     		cmp	r3, #0
 5081 0082 07D1     		bne	.L326
 5082              		.loc 1 1656 3 discriminator 2
 5083 0084 7B68     		ldr	r3, [r7, #4]
 5084 0086 1B68     		ldr	r3, [r3]
 5085 0088 1A68     		ldr	r2, [r3]
 5086 008a 7B68     		ldr	r3, [r7, #4]
 5087 008c 1B68     		ldr	r3, [r3]
 5088 008e 22F00102 		bic	r2, r2, #1
 5089 0092 1A60     		str	r2, [r3]
 5090              	.L326:
1657:Drivers/STM32H7xx_HAL_Driver/Src/stm32h7xx_hal_tim_ex.c **** 
1658:Drivers/STM32H7xx_HAL_Driver/Src/stm32h7xx_hal_tim_ex.c ****   /* Set the TIM  channels state */
1659:Drivers/STM32H7xx_HAL_Driver/Src/stm32h7xx_hal_tim_ex.c ****   TIM_CHANNEL_STATE_SET(htim, TIM_CHANNEL_1, HAL_TIM_CHANNEL_STATE_READY);
 5091              		.loc 1 1659 3 is_stmt 1
 5092 0094 7B68     		ldr	r3, [r7, #4]
 5093 0096 0122     		movs	r2, #1
 5094 0098 83F83E20 		strb	r2, [r3, #62]
ARM GAS  C:\Users\Su\AppData\Local\Temp\ccm0VnUy.s 			page 119


1660:Drivers/STM32H7xx_HAL_Driver/Src/stm32h7xx_hal_tim_ex.c ****   TIM_CHANNEL_STATE_SET(htim, TIM_CHANNEL_2, HAL_TIM_CHANNEL_STATE_READY);
 5095              		.loc 1 1660 3
 5096 009c 7B68     		ldr	r3, [r7, #4]
 5097 009e 0122     		movs	r2, #1
 5098 00a0 83F83F20 		strb	r2, [r3, #63]
1661:Drivers/STM32H7xx_HAL_Driver/Src/stm32h7xx_hal_tim_ex.c ****   TIM_CHANNEL_N_STATE_SET(htim, TIM_CHANNEL_1, HAL_TIM_CHANNEL_STATE_READY);
 5099              		.loc 1 1661 3
 5100 00a4 7B68     		ldr	r3, [r7, #4]
 5101 00a6 0122     		movs	r2, #1
 5102 00a8 83F84420 		strb	r2, [r3, #68]
1662:Drivers/STM32H7xx_HAL_Driver/Src/stm32h7xx_hal_tim_ex.c ****   TIM_CHANNEL_N_STATE_SET(htim, TIM_CHANNEL_2, HAL_TIM_CHANNEL_STATE_READY);
 5103              		.loc 1 1662 3
 5104 00ac 7B68     		ldr	r3, [r7, #4]
 5105 00ae 0122     		movs	r2, #1
 5106 00b0 83F84520 		strb	r2, [r3, #69]
1663:Drivers/STM32H7xx_HAL_Driver/Src/stm32h7xx_hal_tim_ex.c **** 
1664:Drivers/STM32H7xx_HAL_Driver/Src/stm32h7xx_hal_tim_ex.c ****   /* Return function status */
1665:Drivers/STM32H7xx_HAL_Driver/Src/stm32h7xx_hal_tim_ex.c ****   return HAL_OK;
 5107              		.loc 1 1665 10
 5108 00b4 0023     		movs	r3, #0
1666:Drivers/STM32H7xx_HAL_Driver/Src/stm32h7xx_hal_tim_ex.c **** }
 5109              		.loc 1 1666 1
 5110 00b6 1846     		mov	r0, r3
 5111 00b8 1037     		adds	r7, r7, #16
 5112              	.LCFI120:
 5113              		.cfi_def_cfa_offset 8
 5114 00ba BD46     		mov	sp, r7
 5115              	.LCFI121:
 5116              		.cfi_def_cfa_register 13
 5117              		@ sp needed
 5118 00bc 80BD     		pop	{r7, pc}
 5119              		.cfi_endproc
 5120              	.LFE167:
 5122              		.section	.text.HAL_TIMEx_OnePulseN_Start_IT,"ax",%progbits
 5123              		.align	1
 5124              		.global	HAL_TIMEx_OnePulseN_Start_IT
 5125              		.syntax unified
 5126              		.thumb
 5127              		.thumb_func
 5129              	HAL_TIMEx_OnePulseN_Start_IT:
 5130              	.LFB168:
1667:Drivers/STM32H7xx_HAL_Driver/Src/stm32h7xx_hal_tim_ex.c **** 
1668:Drivers/STM32H7xx_HAL_Driver/Src/stm32h7xx_hal_tim_ex.c **** /**
1669:Drivers/STM32H7xx_HAL_Driver/Src/stm32h7xx_hal_tim_ex.c ****   * @brief  Starts the TIM One Pulse signal generation in interrupt mode on the
1670:Drivers/STM32H7xx_HAL_Driver/Src/stm32h7xx_hal_tim_ex.c ****   *         complementary channel.
1671:Drivers/STM32H7xx_HAL_Driver/Src/stm32h7xx_hal_tim_ex.c ****   * @note OutputChannel must match the pulse output channel chosen when calling
1672:Drivers/STM32H7xx_HAL_Driver/Src/stm32h7xx_hal_tim_ex.c ****   *       @ref HAL_TIM_OnePulse_ConfigChannel().
1673:Drivers/STM32H7xx_HAL_Driver/Src/stm32h7xx_hal_tim_ex.c ****   * @param  htim TIM One Pulse handle
1674:Drivers/STM32H7xx_HAL_Driver/Src/stm32h7xx_hal_tim_ex.c ****   * @param  OutputChannel pulse output channel to enable
1675:Drivers/STM32H7xx_HAL_Driver/Src/stm32h7xx_hal_tim_ex.c ****   *          This parameter can be one of the following values:
1676:Drivers/STM32H7xx_HAL_Driver/Src/stm32h7xx_hal_tim_ex.c ****   *            @arg TIM_CHANNEL_1: TIM Channel 1 selected
1677:Drivers/STM32H7xx_HAL_Driver/Src/stm32h7xx_hal_tim_ex.c ****   *            @arg TIM_CHANNEL_2: TIM Channel 2 selected
1678:Drivers/STM32H7xx_HAL_Driver/Src/stm32h7xx_hal_tim_ex.c ****   * @retval HAL status
1679:Drivers/STM32H7xx_HAL_Driver/Src/stm32h7xx_hal_tim_ex.c ****   */
1680:Drivers/STM32H7xx_HAL_Driver/Src/stm32h7xx_hal_tim_ex.c **** HAL_StatusTypeDef HAL_TIMEx_OnePulseN_Start_IT(TIM_HandleTypeDef *htim, uint32_t OutputChannel)
1681:Drivers/STM32H7xx_HAL_Driver/Src/stm32h7xx_hal_tim_ex.c **** {
 5131              		.loc 1 1681 1
ARM GAS  C:\Users\Su\AppData\Local\Temp\ccm0VnUy.s 			page 120


 5132              		.cfi_startproc
 5133              		@ args = 0, pretend = 0, frame = 16
 5134              		@ frame_needed = 1, uses_anonymous_args = 0
 5135 0000 80B5     		push	{r7, lr}
 5136              	.LCFI122:
 5137              		.cfi_def_cfa_offset 8
 5138              		.cfi_offset 7, -8
 5139              		.cfi_offset 14, -4
 5140 0002 84B0     		sub	sp, sp, #16
 5141              	.LCFI123:
 5142              		.cfi_def_cfa_offset 24
 5143 0004 00AF     		add	r7, sp, #0
 5144              	.LCFI124:
 5145              		.cfi_def_cfa_register 7
 5146 0006 7860     		str	r0, [r7, #4]
 5147 0008 3960     		str	r1, [r7]
1682:Drivers/STM32H7xx_HAL_Driver/Src/stm32h7xx_hal_tim_ex.c ****   uint32_t input_channel = (OutputChannel == TIM_CHANNEL_1) ? TIM_CHANNEL_2 : TIM_CHANNEL_1;
 5148              		.loc 1 1682 77
 5149 000a 3B68     		ldr	r3, [r7]
 5150 000c 002B     		cmp	r3, #0
 5151 000e 01D1     		bne	.L329
 5152              		.loc 1 1682 77 is_stmt 0 discriminator 1
 5153 0010 0423     		movs	r3, #4
 5154 0012 00E0     		b	.L330
 5155              	.L329:
 5156              		.loc 1 1682 77 discriminator 2
 5157 0014 0023     		movs	r3, #0
 5158              	.L330:
 5159              		.loc 1 1682 12 is_stmt 1 discriminator 4
 5160 0016 FB60     		str	r3, [r7, #12]
1683:Drivers/STM32H7xx_HAL_Driver/Src/stm32h7xx_hal_tim_ex.c ****   HAL_TIM_ChannelStateTypeDef channel_1_state = TIM_CHANNEL_STATE_GET(htim, TIM_CHANNEL_1);
 5161              		.loc 1 1683 31 discriminator 4
 5162 0018 7B68     		ldr	r3, [r7, #4]
 5163 001a 93F83E30 		ldrb	r3, [r3, #62]
 5164 001e FB72     		strb	r3, [r7, #11]
1684:Drivers/STM32H7xx_HAL_Driver/Src/stm32h7xx_hal_tim_ex.c ****   HAL_TIM_ChannelStateTypeDef channel_2_state = TIM_CHANNEL_STATE_GET(htim, TIM_CHANNEL_2);
 5165              		.loc 1 1684 31 discriminator 4
 5166 0020 7B68     		ldr	r3, [r7, #4]
 5167 0022 93F83F30 		ldrb	r3, [r3, #63]
 5168 0026 BB72     		strb	r3, [r7, #10]
1685:Drivers/STM32H7xx_HAL_Driver/Src/stm32h7xx_hal_tim_ex.c ****   HAL_TIM_ChannelStateTypeDef complementary_channel_1_state = TIM_CHANNEL_N_STATE_GET(htim, TIM_CHA
 5169              		.loc 1 1685 31 discriminator 4
 5170 0028 7B68     		ldr	r3, [r7, #4]
 5171 002a 93F84430 		ldrb	r3, [r3, #68]
 5172 002e 7B72     		strb	r3, [r7, #9]
1686:Drivers/STM32H7xx_HAL_Driver/Src/stm32h7xx_hal_tim_ex.c ****   HAL_TIM_ChannelStateTypeDef complementary_channel_2_state = TIM_CHANNEL_N_STATE_GET(htim, TIM_CHA
 5173              		.loc 1 1686 31 discriminator 4
 5174 0030 7B68     		ldr	r3, [r7, #4]
 5175 0032 93F84530 		ldrb	r3, [r3, #69]
 5176 0036 3B72     		strb	r3, [r7, #8]
1687:Drivers/STM32H7xx_HAL_Driver/Src/stm32h7xx_hal_tim_ex.c **** 
1688:Drivers/STM32H7xx_HAL_Driver/Src/stm32h7xx_hal_tim_ex.c ****   /* Check the parameters */
1689:Drivers/STM32H7xx_HAL_Driver/Src/stm32h7xx_hal_tim_ex.c ****   assert_param(IS_TIM_CCXN_INSTANCE(htim->Instance, OutputChannel));
1690:Drivers/STM32H7xx_HAL_Driver/Src/stm32h7xx_hal_tim_ex.c **** 
1691:Drivers/STM32H7xx_HAL_Driver/Src/stm32h7xx_hal_tim_ex.c ****   /* Check the TIM channels state */
1692:Drivers/STM32H7xx_HAL_Driver/Src/stm32h7xx_hal_tim_ex.c ****   if ((channel_1_state != HAL_TIM_CHANNEL_STATE_READY)
 5177              		.loc 1 1692 6 discriminator 4
ARM GAS  C:\Users\Su\AppData\Local\Temp\ccm0VnUy.s 			page 121


 5178 0038 FB7A     		ldrb	r3, [r7, #11]	@ zero_extendqisi2
 5179 003a 012B     		cmp	r3, #1
 5180 003c 08D1     		bne	.L331
1693:Drivers/STM32H7xx_HAL_Driver/Src/stm32h7xx_hal_tim_ex.c ****       || (channel_2_state != HAL_TIM_CHANNEL_STATE_READY)
 5181              		.loc 1 1693 7
 5182 003e BB7A     		ldrb	r3, [r7, #10]	@ zero_extendqisi2
 5183 0040 012B     		cmp	r3, #1
 5184 0042 05D1     		bne	.L331
1694:Drivers/STM32H7xx_HAL_Driver/Src/stm32h7xx_hal_tim_ex.c ****       || (complementary_channel_1_state != HAL_TIM_CHANNEL_STATE_READY)
 5185              		.loc 1 1694 7
 5186 0044 7B7A     		ldrb	r3, [r7, #9]	@ zero_extendqisi2
 5187 0046 012B     		cmp	r3, #1
 5188 0048 02D1     		bne	.L331
1695:Drivers/STM32H7xx_HAL_Driver/Src/stm32h7xx_hal_tim_ex.c ****       || (complementary_channel_2_state != HAL_TIM_CHANNEL_STATE_READY))
 5189              		.loc 1 1695 7
 5190 004a 3B7A     		ldrb	r3, [r7, #8]	@ zero_extendqisi2
 5191 004c 012B     		cmp	r3, #1
 5192 004e 01D0     		beq	.L332
 5193              	.L331:
1696:Drivers/STM32H7xx_HAL_Driver/Src/stm32h7xx_hal_tim_ex.c ****   {
1697:Drivers/STM32H7xx_HAL_Driver/Src/stm32h7xx_hal_tim_ex.c ****     return HAL_ERROR;
 5194              		.loc 1 1697 12
 5195 0050 0123     		movs	r3, #1
 5196 0052 36E0     		b	.L333
 5197              	.L332:
1698:Drivers/STM32H7xx_HAL_Driver/Src/stm32h7xx_hal_tim_ex.c ****   }
1699:Drivers/STM32H7xx_HAL_Driver/Src/stm32h7xx_hal_tim_ex.c **** 
1700:Drivers/STM32H7xx_HAL_Driver/Src/stm32h7xx_hal_tim_ex.c ****   /* Set the TIM channels state */
1701:Drivers/STM32H7xx_HAL_Driver/Src/stm32h7xx_hal_tim_ex.c ****   TIM_CHANNEL_STATE_SET(htim, TIM_CHANNEL_1, HAL_TIM_CHANNEL_STATE_BUSY);
 5198              		.loc 1 1701 3
 5199 0054 7B68     		ldr	r3, [r7, #4]
 5200 0056 0222     		movs	r2, #2
 5201 0058 83F83E20 		strb	r2, [r3, #62]
1702:Drivers/STM32H7xx_HAL_Driver/Src/stm32h7xx_hal_tim_ex.c ****   TIM_CHANNEL_STATE_SET(htim, TIM_CHANNEL_2, HAL_TIM_CHANNEL_STATE_BUSY);
 5202              		.loc 1 1702 3
 5203 005c 7B68     		ldr	r3, [r7, #4]
 5204 005e 0222     		movs	r2, #2
 5205 0060 83F83F20 		strb	r2, [r3, #63]
1703:Drivers/STM32H7xx_HAL_Driver/Src/stm32h7xx_hal_tim_ex.c ****   TIM_CHANNEL_N_STATE_SET(htim, TIM_CHANNEL_1, HAL_TIM_CHANNEL_STATE_BUSY);
 5206              		.loc 1 1703 3
 5207 0064 7B68     		ldr	r3, [r7, #4]
 5208 0066 0222     		movs	r2, #2
 5209 0068 83F84420 		strb	r2, [r3, #68]
1704:Drivers/STM32H7xx_HAL_Driver/Src/stm32h7xx_hal_tim_ex.c ****   TIM_CHANNEL_N_STATE_SET(htim, TIM_CHANNEL_2, HAL_TIM_CHANNEL_STATE_BUSY);
 5210              		.loc 1 1704 3
 5211 006c 7B68     		ldr	r3, [r7, #4]
 5212 006e 0222     		movs	r2, #2
 5213 0070 83F84520 		strb	r2, [r3, #69]
1705:Drivers/STM32H7xx_HAL_Driver/Src/stm32h7xx_hal_tim_ex.c **** 
1706:Drivers/STM32H7xx_HAL_Driver/Src/stm32h7xx_hal_tim_ex.c ****   /* Enable the TIM Capture/Compare 1 interrupt */
1707:Drivers/STM32H7xx_HAL_Driver/Src/stm32h7xx_hal_tim_ex.c ****   __HAL_TIM_ENABLE_IT(htim, TIM_IT_CC1);
 5214              		.loc 1 1707 3
 5215 0074 7B68     		ldr	r3, [r7, #4]
 5216 0076 1B68     		ldr	r3, [r3]
 5217 0078 DA68     		ldr	r2, [r3, #12]
 5218 007a 7B68     		ldr	r3, [r7, #4]
 5219 007c 1B68     		ldr	r3, [r3]
ARM GAS  C:\Users\Su\AppData\Local\Temp\ccm0VnUy.s 			page 122


 5220 007e 42F00202 		orr	r2, r2, #2
 5221 0082 DA60     		str	r2, [r3, #12]
1708:Drivers/STM32H7xx_HAL_Driver/Src/stm32h7xx_hal_tim_ex.c **** 
1709:Drivers/STM32H7xx_HAL_Driver/Src/stm32h7xx_hal_tim_ex.c ****   /* Enable the TIM Capture/Compare 2 interrupt */
1710:Drivers/STM32H7xx_HAL_Driver/Src/stm32h7xx_hal_tim_ex.c ****   __HAL_TIM_ENABLE_IT(htim, TIM_IT_CC2);
 5222              		.loc 1 1710 3
 5223 0084 7B68     		ldr	r3, [r7, #4]
 5224 0086 1B68     		ldr	r3, [r3]
 5225 0088 DA68     		ldr	r2, [r3, #12]
 5226 008a 7B68     		ldr	r3, [r7, #4]
 5227 008c 1B68     		ldr	r3, [r3]
 5228 008e 42F00402 		orr	r2, r2, #4
 5229 0092 DA60     		str	r2, [r3, #12]
1711:Drivers/STM32H7xx_HAL_Driver/Src/stm32h7xx_hal_tim_ex.c **** 
1712:Drivers/STM32H7xx_HAL_Driver/Src/stm32h7xx_hal_tim_ex.c ****   /* Enable the complementary One Pulse output channel and the Input Capture channel */
1713:Drivers/STM32H7xx_HAL_Driver/Src/stm32h7xx_hal_tim_ex.c ****   TIM_CCxNChannelCmd(htim->Instance, OutputChannel, TIM_CCxN_ENABLE);
 5230              		.loc 1 1713 3
 5231 0094 7B68     		ldr	r3, [r7, #4]
 5232 0096 1B68     		ldr	r3, [r3]
 5233 0098 0422     		movs	r2, #4
 5234 009a 3968     		ldr	r1, [r7]
 5235 009c 1846     		mov	r0, r3
 5236 009e FFF7FEFF 		bl	TIM_CCxNChannelCmd
1714:Drivers/STM32H7xx_HAL_Driver/Src/stm32h7xx_hal_tim_ex.c ****   TIM_CCxChannelCmd(htim->Instance, input_channel, TIM_CCx_ENABLE);
 5237              		.loc 1 1714 3
 5238 00a2 7B68     		ldr	r3, [r7, #4]
 5239 00a4 1B68     		ldr	r3, [r3]
 5240 00a6 0122     		movs	r2, #1
 5241 00a8 F968     		ldr	r1, [r7, #12]
 5242 00aa 1846     		mov	r0, r3
 5243 00ac FFF7FEFF 		bl	TIM_CCxChannelCmd
1715:Drivers/STM32H7xx_HAL_Driver/Src/stm32h7xx_hal_tim_ex.c **** 
1716:Drivers/STM32H7xx_HAL_Driver/Src/stm32h7xx_hal_tim_ex.c ****   /* Enable the Main Output */
1717:Drivers/STM32H7xx_HAL_Driver/Src/stm32h7xx_hal_tim_ex.c ****   __HAL_TIM_MOE_ENABLE(htim);
 5244              		.loc 1 1717 3
 5245 00b0 7B68     		ldr	r3, [r7, #4]
 5246 00b2 1B68     		ldr	r3, [r3]
 5247 00b4 5A6C     		ldr	r2, [r3, #68]
 5248 00b6 7B68     		ldr	r3, [r7, #4]
 5249 00b8 1B68     		ldr	r3, [r3]
 5250 00ba 42F40042 		orr	r2, r2, #32768
 5251 00be 5A64     		str	r2, [r3, #68]
1718:Drivers/STM32H7xx_HAL_Driver/Src/stm32h7xx_hal_tim_ex.c **** 
1719:Drivers/STM32H7xx_HAL_Driver/Src/stm32h7xx_hal_tim_ex.c ****   /* Return function status */
1720:Drivers/STM32H7xx_HAL_Driver/Src/stm32h7xx_hal_tim_ex.c ****   return HAL_OK;
 5252              		.loc 1 1720 10
 5253 00c0 0023     		movs	r3, #0
 5254              	.L333:
1721:Drivers/STM32H7xx_HAL_Driver/Src/stm32h7xx_hal_tim_ex.c **** }
 5255              		.loc 1 1721 1
 5256 00c2 1846     		mov	r0, r3
 5257 00c4 1037     		adds	r7, r7, #16
 5258              	.LCFI125:
 5259              		.cfi_def_cfa_offset 8
 5260 00c6 BD46     		mov	sp, r7
 5261              	.LCFI126:
 5262              		.cfi_def_cfa_register 13
ARM GAS  C:\Users\Su\AppData\Local\Temp\ccm0VnUy.s 			page 123


 5263              		@ sp needed
 5264 00c8 80BD     		pop	{r7, pc}
 5265              		.cfi_endproc
 5266              	.LFE168:
 5268              		.section	.text.HAL_TIMEx_OnePulseN_Stop_IT,"ax",%progbits
 5269              		.align	1
 5270              		.global	HAL_TIMEx_OnePulseN_Stop_IT
 5271              		.syntax unified
 5272              		.thumb
 5273              		.thumb_func
 5275              	HAL_TIMEx_OnePulseN_Stop_IT:
 5276              	.LFB169:
1722:Drivers/STM32H7xx_HAL_Driver/Src/stm32h7xx_hal_tim_ex.c **** 
1723:Drivers/STM32H7xx_HAL_Driver/Src/stm32h7xx_hal_tim_ex.c **** /**
1724:Drivers/STM32H7xx_HAL_Driver/Src/stm32h7xx_hal_tim_ex.c ****   * @brief  Stops the TIM One Pulse signal generation in interrupt mode on the
1725:Drivers/STM32H7xx_HAL_Driver/Src/stm32h7xx_hal_tim_ex.c ****   *         complementary channel.
1726:Drivers/STM32H7xx_HAL_Driver/Src/stm32h7xx_hal_tim_ex.c ****   * @note OutputChannel must match the pulse output channel chosen when calling
1727:Drivers/STM32H7xx_HAL_Driver/Src/stm32h7xx_hal_tim_ex.c ****   *       @ref HAL_TIM_OnePulse_ConfigChannel().
1728:Drivers/STM32H7xx_HAL_Driver/Src/stm32h7xx_hal_tim_ex.c ****   * @param  htim TIM One Pulse handle
1729:Drivers/STM32H7xx_HAL_Driver/Src/stm32h7xx_hal_tim_ex.c ****   * @param  OutputChannel pulse output channel to disable
1730:Drivers/STM32H7xx_HAL_Driver/Src/stm32h7xx_hal_tim_ex.c ****   *          This parameter can be one of the following values:
1731:Drivers/STM32H7xx_HAL_Driver/Src/stm32h7xx_hal_tim_ex.c ****   *            @arg TIM_CHANNEL_1: TIM Channel 1 selected
1732:Drivers/STM32H7xx_HAL_Driver/Src/stm32h7xx_hal_tim_ex.c ****   *            @arg TIM_CHANNEL_2: TIM Channel 2 selected
1733:Drivers/STM32H7xx_HAL_Driver/Src/stm32h7xx_hal_tim_ex.c ****   * @retval HAL status
1734:Drivers/STM32H7xx_HAL_Driver/Src/stm32h7xx_hal_tim_ex.c ****   */
1735:Drivers/STM32H7xx_HAL_Driver/Src/stm32h7xx_hal_tim_ex.c **** HAL_StatusTypeDef HAL_TIMEx_OnePulseN_Stop_IT(TIM_HandleTypeDef *htim, uint32_t OutputChannel)
1736:Drivers/STM32H7xx_HAL_Driver/Src/stm32h7xx_hal_tim_ex.c **** {
 5277              		.loc 1 1736 1
 5278              		.cfi_startproc
 5279              		@ args = 0, pretend = 0, frame = 16
 5280              		@ frame_needed = 1, uses_anonymous_args = 0
 5281 0000 80B5     		push	{r7, lr}
 5282              	.LCFI127:
 5283              		.cfi_def_cfa_offset 8
 5284              		.cfi_offset 7, -8
 5285              		.cfi_offset 14, -4
 5286 0002 84B0     		sub	sp, sp, #16
 5287              	.LCFI128:
 5288              		.cfi_def_cfa_offset 24
 5289 0004 00AF     		add	r7, sp, #0
 5290              	.LCFI129:
 5291              		.cfi_def_cfa_register 7
 5292 0006 7860     		str	r0, [r7, #4]
 5293 0008 3960     		str	r1, [r7]
1737:Drivers/STM32H7xx_HAL_Driver/Src/stm32h7xx_hal_tim_ex.c ****   uint32_t input_channel = (OutputChannel == TIM_CHANNEL_1) ? TIM_CHANNEL_2 : TIM_CHANNEL_1;
 5294              		.loc 1 1737 77
 5295 000a 3B68     		ldr	r3, [r7]
 5296 000c 002B     		cmp	r3, #0
 5297 000e 01D1     		bne	.L335
 5298              		.loc 1 1737 77 is_stmt 0 discriminator 1
 5299 0010 0423     		movs	r3, #4
 5300 0012 00E0     		b	.L336
 5301              	.L335:
 5302              		.loc 1 1737 77 discriminator 2
 5303 0014 0023     		movs	r3, #0
 5304              	.L336:
 5305              		.loc 1 1737 12 is_stmt 1 discriminator 4
ARM GAS  C:\Users\Su\AppData\Local\Temp\ccm0VnUy.s 			page 124


 5306 0016 FB60     		str	r3, [r7, #12]
1738:Drivers/STM32H7xx_HAL_Driver/Src/stm32h7xx_hal_tim_ex.c **** 
1739:Drivers/STM32H7xx_HAL_Driver/Src/stm32h7xx_hal_tim_ex.c ****   /* Check the parameters */
1740:Drivers/STM32H7xx_HAL_Driver/Src/stm32h7xx_hal_tim_ex.c ****   assert_param(IS_TIM_CCXN_INSTANCE(htim->Instance, OutputChannel));
1741:Drivers/STM32H7xx_HAL_Driver/Src/stm32h7xx_hal_tim_ex.c **** 
1742:Drivers/STM32H7xx_HAL_Driver/Src/stm32h7xx_hal_tim_ex.c ****   /* Disable the TIM Capture/Compare 1 interrupt */
1743:Drivers/STM32H7xx_HAL_Driver/Src/stm32h7xx_hal_tim_ex.c ****   __HAL_TIM_DISABLE_IT(htim, TIM_IT_CC1);
 5307              		.loc 1 1743 3 discriminator 4
 5308 0018 7B68     		ldr	r3, [r7, #4]
 5309 001a 1B68     		ldr	r3, [r3]
 5310 001c DA68     		ldr	r2, [r3, #12]
 5311 001e 7B68     		ldr	r3, [r7, #4]
 5312 0020 1B68     		ldr	r3, [r3]
 5313 0022 22F00202 		bic	r2, r2, #2
 5314 0026 DA60     		str	r2, [r3, #12]
1744:Drivers/STM32H7xx_HAL_Driver/Src/stm32h7xx_hal_tim_ex.c **** 
1745:Drivers/STM32H7xx_HAL_Driver/Src/stm32h7xx_hal_tim_ex.c ****   /* Disable the TIM Capture/Compare 2 interrupt */
1746:Drivers/STM32H7xx_HAL_Driver/Src/stm32h7xx_hal_tim_ex.c ****   __HAL_TIM_DISABLE_IT(htim, TIM_IT_CC2);
 5315              		.loc 1 1746 3 discriminator 4
 5316 0028 7B68     		ldr	r3, [r7, #4]
 5317 002a 1B68     		ldr	r3, [r3]
 5318 002c DA68     		ldr	r2, [r3, #12]
 5319 002e 7B68     		ldr	r3, [r7, #4]
 5320 0030 1B68     		ldr	r3, [r3]
 5321 0032 22F00402 		bic	r2, r2, #4
 5322 0036 DA60     		str	r2, [r3, #12]
1747:Drivers/STM32H7xx_HAL_Driver/Src/stm32h7xx_hal_tim_ex.c **** 
1748:Drivers/STM32H7xx_HAL_Driver/Src/stm32h7xx_hal_tim_ex.c ****   /* Disable the complementary One Pulse output channel and the Input Capture channel */
1749:Drivers/STM32H7xx_HAL_Driver/Src/stm32h7xx_hal_tim_ex.c ****   TIM_CCxNChannelCmd(htim->Instance, OutputChannel, TIM_CCxN_DISABLE);
 5323              		.loc 1 1749 3 discriminator 4
 5324 0038 7B68     		ldr	r3, [r7, #4]
 5325 003a 1B68     		ldr	r3, [r3]
 5326 003c 0022     		movs	r2, #0
 5327 003e 3968     		ldr	r1, [r7]
 5328 0040 1846     		mov	r0, r3
 5329 0042 FFF7FEFF 		bl	TIM_CCxNChannelCmd
1750:Drivers/STM32H7xx_HAL_Driver/Src/stm32h7xx_hal_tim_ex.c ****   TIM_CCxChannelCmd(htim->Instance, input_channel, TIM_CCx_DISABLE);
 5330              		.loc 1 1750 3 discriminator 4
 5331 0046 7B68     		ldr	r3, [r7, #4]
 5332 0048 1B68     		ldr	r3, [r3]
 5333 004a 0022     		movs	r2, #0
 5334 004c F968     		ldr	r1, [r7, #12]
 5335 004e 1846     		mov	r0, r3
 5336 0050 FFF7FEFF 		bl	TIM_CCxChannelCmd
1751:Drivers/STM32H7xx_HAL_Driver/Src/stm32h7xx_hal_tim_ex.c **** 
1752:Drivers/STM32H7xx_HAL_Driver/Src/stm32h7xx_hal_tim_ex.c ****   /* Disable the Main Output */
1753:Drivers/STM32H7xx_HAL_Driver/Src/stm32h7xx_hal_tim_ex.c ****   __HAL_TIM_MOE_DISABLE(htim);
 5337              		.loc 1 1753 3 discriminator 4
 5338 0054 7B68     		ldr	r3, [r7, #4]
 5339 0056 1B68     		ldr	r3, [r3]
 5340 0058 1A6A     		ldr	r2, [r3, #32]
 5341 005a 41F21113 		movw	r3, #4369
 5342 005e 1340     		ands	r3, r3, r2
 5343 0060 002B     		cmp	r3, #0
 5344 0062 0FD1     		bne	.L337
 5345              		.loc 1 1753 3 is_stmt 0 discriminator 1
 5346 0064 7B68     		ldr	r3, [r7, #4]
ARM GAS  C:\Users\Su\AppData\Local\Temp\ccm0VnUy.s 			page 125


 5347 0066 1B68     		ldr	r3, [r3]
 5348 0068 1A6A     		ldr	r2, [r3, #32]
 5349 006a 40F24443 		movw	r3, #1092
 5350 006e 1340     		ands	r3, r3, r2
 5351 0070 002B     		cmp	r3, #0
 5352 0072 07D1     		bne	.L337
 5353              		.loc 1 1753 3 discriminator 2
 5354 0074 7B68     		ldr	r3, [r7, #4]
 5355 0076 1B68     		ldr	r3, [r3]
 5356 0078 5A6C     		ldr	r2, [r3, #68]
 5357 007a 7B68     		ldr	r3, [r7, #4]
 5358 007c 1B68     		ldr	r3, [r3]
 5359 007e 22F40042 		bic	r2, r2, #32768
 5360 0082 5A64     		str	r2, [r3, #68]
 5361              	.L337:
1754:Drivers/STM32H7xx_HAL_Driver/Src/stm32h7xx_hal_tim_ex.c **** 
1755:Drivers/STM32H7xx_HAL_Driver/Src/stm32h7xx_hal_tim_ex.c ****   /* Disable the Peripheral */
1756:Drivers/STM32H7xx_HAL_Driver/Src/stm32h7xx_hal_tim_ex.c ****   __HAL_TIM_DISABLE(htim);
 5362              		.loc 1 1756 3 is_stmt 1
 5363 0084 7B68     		ldr	r3, [r7, #4]
 5364 0086 1B68     		ldr	r3, [r3]
 5365 0088 1A6A     		ldr	r2, [r3, #32]
 5366 008a 41F21113 		movw	r3, #4369
 5367 008e 1340     		ands	r3, r3, r2
 5368 0090 002B     		cmp	r3, #0
 5369 0092 0FD1     		bne	.L338
 5370              		.loc 1 1756 3 is_stmt 0 discriminator 1
 5371 0094 7B68     		ldr	r3, [r7, #4]
 5372 0096 1B68     		ldr	r3, [r3]
 5373 0098 1A6A     		ldr	r2, [r3, #32]
 5374 009a 40F24443 		movw	r3, #1092
 5375 009e 1340     		ands	r3, r3, r2
 5376 00a0 002B     		cmp	r3, #0
 5377 00a2 07D1     		bne	.L338
 5378              		.loc 1 1756 3 discriminator 2
 5379 00a4 7B68     		ldr	r3, [r7, #4]
 5380 00a6 1B68     		ldr	r3, [r3]
 5381 00a8 1A68     		ldr	r2, [r3]
 5382 00aa 7B68     		ldr	r3, [r7, #4]
 5383 00ac 1B68     		ldr	r3, [r3]
 5384 00ae 22F00102 		bic	r2, r2, #1
 5385 00b2 1A60     		str	r2, [r3]
 5386              	.L338:
1757:Drivers/STM32H7xx_HAL_Driver/Src/stm32h7xx_hal_tim_ex.c **** 
1758:Drivers/STM32H7xx_HAL_Driver/Src/stm32h7xx_hal_tim_ex.c ****   /* Set the TIM  channels state */
1759:Drivers/STM32H7xx_HAL_Driver/Src/stm32h7xx_hal_tim_ex.c ****   TIM_CHANNEL_STATE_SET(htim, TIM_CHANNEL_1, HAL_TIM_CHANNEL_STATE_READY);
 5387              		.loc 1 1759 3 is_stmt 1
 5388 00b4 7B68     		ldr	r3, [r7, #4]
 5389 00b6 0122     		movs	r2, #1
 5390 00b8 83F83E20 		strb	r2, [r3, #62]
1760:Drivers/STM32H7xx_HAL_Driver/Src/stm32h7xx_hal_tim_ex.c ****   TIM_CHANNEL_STATE_SET(htim, TIM_CHANNEL_2, HAL_TIM_CHANNEL_STATE_READY);
 5391              		.loc 1 1760 3
 5392 00bc 7B68     		ldr	r3, [r7, #4]
 5393 00be 0122     		movs	r2, #1
 5394 00c0 83F83F20 		strb	r2, [r3, #63]
1761:Drivers/STM32H7xx_HAL_Driver/Src/stm32h7xx_hal_tim_ex.c ****   TIM_CHANNEL_N_STATE_SET(htim, TIM_CHANNEL_1, HAL_TIM_CHANNEL_STATE_READY);
 5395              		.loc 1 1761 3
ARM GAS  C:\Users\Su\AppData\Local\Temp\ccm0VnUy.s 			page 126


 5396 00c4 7B68     		ldr	r3, [r7, #4]
 5397 00c6 0122     		movs	r2, #1
 5398 00c8 83F84420 		strb	r2, [r3, #68]
1762:Drivers/STM32H7xx_HAL_Driver/Src/stm32h7xx_hal_tim_ex.c ****   TIM_CHANNEL_N_STATE_SET(htim, TIM_CHANNEL_2, HAL_TIM_CHANNEL_STATE_READY);
 5399              		.loc 1 1762 3
 5400 00cc 7B68     		ldr	r3, [r7, #4]
 5401 00ce 0122     		movs	r2, #1
 5402 00d0 83F84520 		strb	r2, [r3, #69]
1763:Drivers/STM32H7xx_HAL_Driver/Src/stm32h7xx_hal_tim_ex.c **** 
1764:Drivers/STM32H7xx_HAL_Driver/Src/stm32h7xx_hal_tim_ex.c ****   /* Return function status */
1765:Drivers/STM32H7xx_HAL_Driver/Src/stm32h7xx_hal_tim_ex.c ****   return HAL_OK;
 5403              		.loc 1 1765 10
 5404 00d4 0023     		movs	r3, #0
1766:Drivers/STM32H7xx_HAL_Driver/Src/stm32h7xx_hal_tim_ex.c **** }
 5405              		.loc 1 1766 1
 5406 00d6 1846     		mov	r0, r3
 5407 00d8 1037     		adds	r7, r7, #16
 5408              	.LCFI130:
 5409              		.cfi_def_cfa_offset 8
 5410 00da BD46     		mov	sp, r7
 5411              	.LCFI131:
 5412              		.cfi_def_cfa_register 13
 5413              		@ sp needed
 5414 00dc 80BD     		pop	{r7, pc}
 5415              		.cfi_endproc
 5416              	.LFE169:
 5418              		.section	.text.HAL_TIMEx_ConfigCommutEvent,"ax",%progbits
 5419              		.align	1
 5420              		.global	HAL_TIMEx_ConfigCommutEvent
 5421              		.syntax unified
 5422              		.thumb
 5423              		.thumb_func
 5425              	HAL_TIMEx_ConfigCommutEvent:
 5426              	.LFB170:
1767:Drivers/STM32H7xx_HAL_Driver/Src/stm32h7xx_hal_tim_ex.c **** 
1768:Drivers/STM32H7xx_HAL_Driver/Src/stm32h7xx_hal_tim_ex.c **** /**
1769:Drivers/STM32H7xx_HAL_Driver/Src/stm32h7xx_hal_tim_ex.c ****   * @}
1770:Drivers/STM32H7xx_HAL_Driver/Src/stm32h7xx_hal_tim_ex.c ****   */
1771:Drivers/STM32H7xx_HAL_Driver/Src/stm32h7xx_hal_tim_ex.c **** 
1772:Drivers/STM32H7xx_HAL_Driver/Src/stm32h7xx_hal_tim_ex.c **** /** @defgroup TIMEx_Exported_Functions_Group5 Extended Peripheral Control functions
1773:Drivers/STM32H7xx_HAL_Driver/Src/stm32h7xx_hal_tim_ex.c ****   * @brief    Peripheral Control functions
1774:Drivers/STM32H7xx_HAL_Driver/Src/stm32h7xx_hal_tim_ex.c ****   *
1775:Drivers/STM32H7xx_HAL_Driver/Src/stm32h7xx_hal_tim_ex.c **** @verbatim
1776:Drivers/STM32H7xx_HAL_Driver/Src/stm32h7xx_hal_tim_ex.c ****   ==============================================================================
1777:Drivers/STM32H7xx_HAL_Driver/Src/stm32h7xx_hal_tim_ex.c ****                     ##### Peripheral Control functions #####
1778:Drivers/STM32H7xx_HAL_Driver/Src/stm32h7xx_hal_tim_ex.c ****   ==============================================================================
1779:Drivers/STM32H7xx_HAL_Driver/Src/stm32h7xx_hal_tim_ex.c ****   [..]
1780:Drivers/STM32H7xx_HAL_Driver/Src/stm32h7xx_hal_tim_ex.c ****     This section provides functions allowing to:
1781:Drivers/STM32H7xx_HAL_Driver/Src/stm32h7xx_hal_tim_ex.c ****       (+) Configure the commutation event in case of use of the Hall sensor interface.
1782:Drivers/STM32H7xx_HAL_Driver/Src/stm32h7xx_hal_tim_ex.c ****       (+) Configure Output channels for OC and PWM mode.
1783:Drivers/STM32H7xx_HAL_Driver/Src/stm32h7xx_hal_tim_ex.c **** 
1784:Drivers/STM32H7xx_HAL_Driver/Src/stm32h7xx_hal_tim_ex.c ****       (+) Configure Complementary channels, break features and dead time.
1785:Drivers/STM32H7xx_HAL_Driver/Src/stm32h7xx_hal_tim_ex.c ****       (+) Configure Master synchronization.
1786:Drivers/STM32H7xx_HAL_Driver/Src/stm32h7xx_hal_tim_ex.c ****       (+) Configure timer remapping capabilities.
1787:Drivers/STM32H7xx_HAL_Driver/Src/stm32h7xx_hal_tim_ex.c ****       (+) Select timer input source.
1788:Drivers/STM32H7xx_HAL_Driver/Src/stm32h7xx_hal_tim_ex.c ****       (+) Enable or disable channel grouping.
1789:Drivers/STM32H7xx_HAL_Driver/Src/stm32h7xx_hal_tim_ex.c **** 
ARM GAS  C:\Users\Su\AppData\Local\Temp\ccm0VnUy.s 			page 127


1790:Drivers/STM32H7xx_HAL_Driver/Src/stm32h7xx_hal_tim_ex.c **** @endverbatim
1791:Drivers/STM32H7xx_HAL_Driver/Src/stm32h7xx_hal_tim_ex.c ****   * @{
1792:Drivers/STM32H7xx_HAL_Driver/Src/stm32h7xx_hal_tim_ex.c ****   */
1793:Drivers/STM32H7xx_HAL_Driver/Src/stm32h7xx_hal_tim_ex.c **** 
1794:Drivers/STM32H7xx_HAL_Driver/Src/stm32h7xx_hal_tim_ex.c **** /**
1795:Drivers/STM32H7xx_HAL_Driver/Src/stm32h7xx_hal_tim_ex.c ****   * @brief  Configure the TIM commutation event sequence.
1796:Drivers/STM32H7xx_HAL_Driver/Src/stm32h7xx_hal_tim_ex.c ****   * @note  This function is mandatory to use the commutation event in order to
1797:Drivers/STM32H7xx_HAL_Driver/Src/stm32h7xx_hal_tim_ex.c ****   *        update the configuration at each commutation detection on the TRGI input of the Timer,
1798:Drivers/STM32H7xx_HAL_Driver/Src/stm32h7xx_hal_tim_ex.c ****   *        the typical use of this feature is with the use of another Timer(interface Timer)
1799:Drivers/STM32H7xx_HAL_Driver/Src/stm32h7xx_hal_tim_ex.c ****   *        configured in Hall sensor interface, this interface Timer will generate the
1800:Drivers/STM32H7xx_HAL_Driver/Src/stm32h7xx_hal_tim_ex.c ****   *        commutation at its TRGO output (connected to Timer used in this function) each time
1801:Drivers/STM32H7xx_HAL_Driver/Src/stm32h7xx_hal_tim_ex.c ****   *        the TI1 of the Interface Timer detect a commutation at its input TI1.
1802:Drivers/STM32H7xx_HAL_Driver/Src/stm32h7xx_hal_tim_ex.c ****   * @param  htim TIM handle
1803:Drivers/STM32H7xx_HAL_Driver/Src/stm32h7xx_hal_tim_ex.c ****   * @param  InputTrigger the Internal trigger corresponding to the Timer Interfacing with the Hall 
1804:Drivers/STM32H7xx_HAL_Driver/Src/stm32h7xx_hal_tim_ex.c ****   *          This parameter can be one of the following values:
1805:Drivers/STM32H7xx_HAL_Driver/Src/stm32h7xx_hal_tim_ex.c ****   *            @arg TIM_TS_ITR0: Internal trigger 0 selected
1806:Drivers/STM32H7xx_HAL_Driver/Src/stm32h7xx_hal_tim_ex.c ****   *            @arg TIM_TS_ITR1: Internal trigger 1 selected
1807:Drivers/STM32H7xx_HAL_Driver/Src/stm32h7xx_hal_tim_ex.c ****   *            @arg TIM_TS_ITR2: Internal trigger 2 selected
1808:Drivers/STM32H7xx_HAL_Driver/Src/stm32h7xx_hal_tim_ex.c ****   *            @arg TIM_TS_ITR3: Internal trigger 3 selected
1809:Drivers/STM32H7xx_HAL_Driver/Src/stm32h7xx_hal_tim_ex.c ****   *            @arg TIM_TS_ITR12: Internal trigger 12 selected (*)
1810:Drivers/STM32H7xx_HAL_Driver/Src/stm32h7xx_hal_tim_ex.c ****   *            @arg TIM_TS_ITR13: Internal trigger 13 selected (*)
1811:Drivers/STM32H7xx_HAL_Driver/Src/stm32h7xx_hal_tim_ex.c ****   *            @arg TIM_TS_NONE: No trigger is needed
1812:Drivers/STM32H7xx_HAL_Driver/Src/stm32h7xx_hal_tim_ex.c ****   * @param  CommutationSource the Commutation Event source
1813:Drivers/STM32H7xx_HAL_Driver/Src/stm32h7xx_hal_tim_ex.c ****   *          This parameter can be one of the following values:
1814:Drivers/STM32H7xx_HAL_Driver/Src/stm32h7xx_hal_tim_ex.c ****   *            @arg TIM_COMMUTATION_TRGI: Commutation source is the TRGI of the Interface Timer
1815:Drivers/STM32H7xx_HAL_Driver/Src/stm32h7xx_hal_tim_ex.c ****   *            @arg TIM_COMMUTATION_SOFTWARE:  Commutation source is set by software using the COMG
1816:Drivers/STM32H7xx_HAL_Driver/Src/stm32h7xx_hal_tim_ex.c ****   * @retval HAL status
1817:Drivers/STM32H7xx_HAL_Driver/Src/stm32h7xx_hal_tim_ex.c ****   */
1818:Drivers/STM32H7xx_HAL_Driver/Src/stm32h7xx_hal_tim_ex.c **** HAL_StatusTypeDef HAL_TIMEx_ConfigCommutEvent(TIM_HandleTypeDef *htim, uint32_t  InputTrigger,
1819:Drivers/STM32H7xx_HAL_Driver/Src/stm32h7xx_hal_tim_ex.c ****                                               uint32_t  CommutationSource)
1820:Drivers/STM32H7xx_HAL_Driver/Src/stm32h7xx_hal_tim_ex.c **** {
 5427              		.loc 1 1820 1
 5428              		.cfi_startproc
 5429              		@ args = 0, pretend = 0, frame = 16
 5430              		@ frame_needed = 1, uses_anonymous_args = 0
 5431              		@ link register save eliminated.
 5432 0000 80B4     		push	{r7}
 5433              	.LCFI132:
 5434              		.cfi_def_cfa_offset 4
 5435              		.cfi_offset 7, -4
 5436 0002 85B0     		sub	sp, sp, #20
 5437              	.LCFI133:
 5438              		.cfi_def_cfa_offset 24
 5439 0004 00AF     		add	r7, sp, #0
 5440              	.LCFI134:
 5441              		.cfi_def_cfa_register 7
 5442 0006 F860     		str	r0, [r7, #12]
 5443 0008 B960     		str	r1, [r7, #8]
 5444 000a 7A60     		str	r2, [r7, #4]
1821:Drivers/STM32H7xx_HAL_Driver/Src/stm32h7xx_hal_tim_ex.c ****   /* Check the parameters */
1822:Drivers/STM32H7xx_HAL_Driver/Src/stm32h7xx_hal_tim_ex.c ****   assert_param(IS_TIM_COMMUTATION_EVENT_INSTANCE(htim->Instance));
1823:Drivers/STM32H7xx_HAL_Driver/Src/stm32h7xx_hal_tim_ex.c ****   assert_param(IS_TIM_INTERNAL_TRIGGEREVENT_SELECTION(InputTrigger));
1824:Drivers/STM32H7xx_HAL_Driver/Src/stm32h7xx_hal_tim_ex.c **** 
1825:Drivers/STM32H7xx_HAL_Driver/Src/stm32h7xx_hal_tim_ex.c ****   __HAL_LOCK(htim);
 5445              		.loc 1 1825 3
 5446 000c FB68     		ldr	r3, [r7, #12]
 5447 000e 93F83C30 		ldrb	r3, [r3, #60]	@ zero_extendqisi2
ARM GAS  C:\Users\Su\AppData\Local\Temp\ccm0VnUy.s 			page 128


 5448 0012 012B     		cmp	r3, #1
 5449 0014 01D1     		bne	.L341
 5450              		.loc 1 1825 3 is_stmt 0 discriminator 1
 5451 0016 0223     		movs	r3, #2
 5452 0018 54E0     		b	.L342
 5453              	.L341:
 5454              		.loc 1 1825 3 discriminator 2
 5455 001a FB68     		ldr	r3, [r7, #12]
 5456 001c 0122     		movs	r2, #1
 5457 001e 83F83C20 		strb	r2, [r3, #60]
1826:Drivers/STM32H7xx_HAL_Driver/Src/stm32h7xx_hal_tim_ex.c **** 
1827:Drivers/STM32H7xx_HAL_Driver/Src/stm32h7xx_hal_tim_ex.c ****   if ((InputTrigger == TIM_TS_ITR0)  || (InputTrigger == TIM_TS_ITR1) ||
 5458              		.loc 1 1827 6 is_stmt 1 discriminator 2
 5459 0022 BB68     		ldr	r3, [r7, #8]
 5460 0024 002B     		cmp	r3, #0
 5461 0026 10D0     		beq	.L343
 5462              		.loc 1 1827 38 discriminator 1
 5463 0028 BB68     		ldr	r3, [r7, #8]
 5464 002a 102B     		cmp	r3, #16
 5465 002c 0DD0     		beq	.L343
 5466              		.loc 1 1827 71 discriminator 2
 5467 002e BB68     		ldr	r3, [r7, #8]
 5468 0030 202B     		cmp	r3, #32
 5469 0032 0AD0     		beq	.L343
1828:Drivers/STM32H7xx_HAL_Driver/Src/stm32h7xx_hal_tim_ex.c ****       (InputTrigger == TIM_TS_ITR2)  || (InputTrigger == TIM_TS_ITR3) ||
 5470              		.loc 1 1828 38
 5471 0034 BB68     		ldr	r3, [r7, #8]
 5472 0036 302B     		cmp	r3, #48
 5473 0038 07D0     		beq	.L343
 5474              		.loc 1 1828 71 discriminator 1
 5475 003a BB68     		ldr	r3, [r7, #8]
 5476 003c B3F5001F 		cmp	r3, #2097152
 5477 0040 03D0     		beq	.L343
1829:Drivers/STM32H7xx_HAL_Driver/Src/stm32h7xx_hal_tim_ex.c ****       (InputTrigger == TIM_TS_ITR12)  || (InputTrigger == TIM_TS_ITR13))
 5478              		.loc 1 1829 39
 5479 0042 BB68     		ldr	r3, [r7, #8]
 5480 0044 224A     		ldr	r2, .L345
 5481 0046 9342     		cmp	r3, r2
 5482 0048 0FD1     		bne	.L344
 5483              	.L343:
1830:Drivers/STM32H7xx_HAL_Driver/Src/stm32h7xx_hal_tim_ex.c ****   {
1831:Drivers/STM32H7xx_HAL_Driver/Src/stm32h7xx_hal_tim_ex.c ****     /* Select the Input trigger */
1832:Drivers/STM32H7xx_HAL_Driver/Src/stm32h7xx_hal_tim_ex.c ****     htim->Instance->SMCR &= ~TIM_SMCR_TS;
 5484              		.loc 1 1832 9
 5485 004a FB68     		ldr	r3, [r7, #12]
 5486 004c 1B68     		ldr	r3, [r3]
 5487              		.loc 1 1832 26
 5488 004e 9968     		ldr	r1, [r3, #8]
 5489              		.loc 1 1832 9
 5490 0050 FB68     		ldr	r3, [r7, #12]
 5491 0052 1A68     		ldr	r2, [r3]
 5492              		.loc 1 1832 26
 5493 0054 1F4B     		ldr	r3, .L345+4
 5494 0056 0B40     		ands	r3, r3, r1
 5495 0058 9360     		str	r3, [r2, #8]
1833:Drivers/STM32H7xx_HAL_Driver/Src/stm32h7xx_hal_tim_ex.c ****     htim->Instance->SMCR |= InputTrigger;
 5496              		.loc 1 1833 9
ARM GAS  C:\Users\Su\AppData\Local\Temp\ccm0VnUy.s 			page 129


 5497 005a FB68     		ldr	r3, [r7, #12]
 5498 005c 1B68     		ldr	r3, [r3]
 5499              		.loc 1 1833 26
 5500 005e 9968     		ldr	r1, [r3, #8]
 5501              		.loc 1 1833 9
 5502 0060 FB68     		ldr	r3, [r7, #12]
 5503 0062 1B68     		ldr	r3, [r3]
 5504              		.loc 1 1833 26
 5505 0064 BA68     		ldr	r2, [r7, #8]
 5506 0066 0A43     		orrs	r2, r2, r1
 5507 0068 9A60     		str	r2, [r3, #8]
 5508              	.L344:
1834:Drivers/STM32H7xx_HAL_Driver/Src/stm32h7xx_hal_tim_ex.c ****   }
1835:Drivers/STM32H7xx_HAL_Driver/Src/stm32h7xx_hal_tim_ex.c **** 
1836:Drivers/STM32H7xx_HAL_Driver/Src/stm32h7xx_hal_tim_ex.c ****   /* Select the Capture Compare preload feature */
1837:Drivers/STM32H7xx_HAL_Driver/Src/stm32h7xx_hal_tim_ex.c ****   htim->Instance->CR2 |= TIM_CR2_CCPC;
 5509              		.loc 1 1837 7
 5510 006a FB68     		ldr	r3, [r7, #12]
 5511 006c 1B68     		ldr	r3, [r3]
 5512              		.loc 1 1837 23
 5513 006e 5A68     		ldr	r2, [r3, #4]
 5514              		.loc 1 1837 7
 5515 0070 FB68     		ldr	r3, [r7, #12]
 5516 0072 1B68     		ldr	r3, [r3]
 5517              		.loc 1 1837 23
 5518 0074 42F00102 		orr	r2, r2, #1
 5519 0078 5A60     		str	r2, [r3, #4]
1838:Drivers/STM32H7xx_HAL_Driver/Src/stm32h7xx_hal_tim_ex.c ****   /* Select the Commutation event source */
1839:Drivers/STM32H7xx_HAL_Driver/Src/stm32h7xx_hal_tim_ex.c ****   htim->Instance->CR2 &= ~TIM_CR2_CCUS;
 5520              		.loc 1 1839 7
 5521 007a FB68     		ldr	r3, [r7, #12]
 5522 007c 1B68     		ldr	r3, [r3]
 5523              		.loc 1 1839 23
 5524 007e 5A68     		ldr	r2, [r3, #4]
 5525              		.loc 1 1839 7
 5526 0080 FB68     		ldr	r3, [r7, #12]
 5527 0082 1B68     		ldr	r3, [r3]
 5528              		.loc 1 1839 23
 5529 0084 22F00402 		bic	r2, r2, #4
 5530 0088 5A60     		str	r2, [r3, #4]
1840:Drivers/STM32H7xx_HAL_Driver/Src/stm32h7xx_hal_tim_ex.c ****   htim->Instance->CR2 |= CommutationSource;
 5531              		.loc 1 1840 7
 5532 008a FB68     		ldr	r3, [r7, #12]
 5533 008c 1B68     		ldr	r3, [r3]
 5534              		.loc 1 1840 23
 5535 008e 5968     		ldr	r1, [r3, #4]
 5536              		.loc 1 1840 7
 5537 0090 FB68     		ldr	r3, [r7, #12]
 5538 0092 1B68     		ldr	r3, [r3]
 5539              		.loc 1 1840 23
 5540 0094 7A68     		ldr	r2, [r7, #4]
 5541 0096 0A43     		orrs	r2, r2, r1
 5542 0098 5A60     		str	r2, [r3, #4]
1841:Drivers/STM32H7xx_HAL_Driver/Src/stm32h7xx_hal_tim_ex.c **** 
1842:Drivers/STM32H7xx_HAL_Driver/Src/stm32h7xx_hal_tim_ex.c ****   /* Disable Commutation Interrupt */
1843:Drivers/STM32H7xx_HAL_Driver/Src/stm32h7xx_hal_tim_ex.c ****   __HAL_TIM_DISABLE_IT(htim, TIM_IT_COM);
 5543              		.loc 1 1843 3
ARM GAS  C:\Users\Su\AppData\Local\Temp\ccm0VnUy.s 			page 130


 5544 009a FB68     		ldr	r3, [r7, #12]
 5545 009c 1B68     		ldr	r3, [r3]
 5546 009e DA68     		ldr	r2, [r3, #12]
 5547 00a0 FB68     		ldr	r3, [r7, #12]
 5548 00a2 1B68     		ldr	r3, [r3]
 5549 00a4 22F02002 		bic	r2, r2, #32
 5550 00a8 DA60     		str	r2, [r3, #12]
1844:Drivers/STM32H7xx_HAL_Driver/Src/stm32h7xx_hal_tim_ex.c **** 
1845:Drivers/STM32H7xx_HAL_Driver/Src/stm32h7xx_hal_tim_ex.c ****   /* Disable Commutation DMA request */
1846:Drivers/STM32H7xx_HAL_Driver/Src/stm32h7xx_hal_tim_ex.c ****   __HAL_TIM_DISABLE_DMA(htim, TIM_DMA_COM);
 5551              		.loc 1 1846 3
 5552 00aa FB68     		ldr	r3, [r7, #12]
 5553 00ac 1B68     		ldr	r3, [r3]
 5554 00ae DA68     		ldr	r2, [r3, #12]
 5555 00b0 FB68     		ldr	r3, [r7, #12]
 5556 00b2 1B68     		ldr	r3, [r3]
 5557 00b4 22F40052 		bic	r2, r2, #8192
 5558 00b8 DA60     		str	r2, [r3, #12]
1847:Drivers/STM32H7xx_HAL_Driver/Src/stm32h7xx_hal_tim_ex.c **** 
1848:Drivers/STM32H7xx_HAL_Driver/Src/stm32h7xx_hal_tim_ex.c ****   __HAL_UNLOCK(htim);
 5559              		.loc 1 1848 3
 5560 00ba FB68     		ldr	r3, [r7, #12]
 5561 00bc 0022     		movs	r2, #0
 5562 00be 83F83C20 		strb	r2, [r3, #60]
1849:Drivers/STM32H7xx_HAL_Driver/Src/stm32h7xx_hal_tim_ex.c **** 
1850:Drivers/STM32H7xx_HAL_Driver/Src/stm32h7xx_hal_tim_ex.c ****   return HAL_OK;
 5563              		.loc 1 1850 10
 5564 00c2 0023     		movs	r3, #0
 5565              	.L342:
1851:Drivers/STM32H7xx_HAL_Driver/Src/stm32h7xx_hal_tim_ex.c **** }
 5566              		.loc 1 1851 1
 5567 00c4 1846     		mov	r0, r3
 5568 00c6 1437     		adds	r7, r7, #20
 5569              	.LCFI135:
 5570              		.cfi_def_cfa_offset 4
 5571 00c8 BD46     		mov	sp, r7
 5572              	.LCFI136:
 5573              		.cfi_def_cfa_register 13
 5574              		@ sp needed
 5575 00ca 5DF8047B 		ldr	r7, [sp], #4
 5576              	.LCFI137:
 5577              		.cfi_restore 7
 5578              		.cfi_def_cfa_offset 0
 5579 00ce 7047     		bx	lr
 5580              	.L346:
 5581              		.align	2
 5582              	.L345:
 5583 00d0 10002000 		.word	2097168
 5584 00d4 8FFFCFFF 		.word	-3145841
 5585              		.cfi_endproc
 5586              	.LFE170:
 5588              		.section	.text.HAL_TIMEx_ConfigCommutEvent_IT,"ax",%progbits
 5589              		.align	1
 5590              		.global	HAL_TIMEx_ConfigCommutEvent_IT
 5591              		.syntax unified
 5592              		.thumb
 5593              		.thumb_func
ARM GAS  C:\Users\Su\AppData\Local\Temp\ccm0VnUy.s 			page 131


 5595              	HAL_TIMEx_ConfigCommutEvent_IT:
 5596              	.LFB171:
1852:Drivers/STM32H7xx_HAL_Driver/Src/stm32h7xx_hal_tim_ex.c **** 
1853:Drivers/STM32H7xx_HAL_Driver/Src/stm32h7xx_hal_tim_ex.c **** /**
1854:Drivers/STM32H7xx_HAL_Driver/Src/stm32h7xx_hal_tim_ex.c ****   * @brief  Configure the TIM commutation event sequence with interrupt.
1855:Drivers/STM32H7xx_HAL_Driver/Src/stm32h7xx_hal_tim_ex.c ****   * @note  This function is mandatory to use the commutation event in order to
1856:Drivers/STM32H7xx_HAL_Driver/Src/stm32h7xx_hal_tim_ex.c ****   *        update the configuration at each commutation detection on the TRGI input of the Timer,
1857:Drivers/STM32H7xx_HAL_Driver/Src/stm32h7xx_hal_tim_ex.c ****   *        the typical use of this feature is with the use of another Timer(interface Timer)
1858:Drivers/STM32H7xx_HAL_Driver/Src/stm32h7xx_hal_tim_ex.c ****   *        configured in Hall sensor interface, this interface Timer will generate the
1859:Drivers/STM32H7xx_HAL_Driver/Src/stm32h7xx_hal_tim_ex.c ****   *        commutation at its TRGO output (connected to Timer used in this function) each time
1860:Drivers/STM32H7xx_HAL_Driver/Src/stm32h7xx_hal_tim_ex.c ****   *        the TI1 of the Interface Timer detect a commutation at its input TI1.
1861:Drivers/STM32H7xx_HAL_Driver/Src/stm32h7xx_hal_tim_ex.c ****   * @param  htim TIM handle
1862:Drivers/STM32H7xx_HAL_Driver/Src/stm32h7xx_hal_tim_ex.c ****   * @param  InputTrigger the Internal trigger corresponding to the Timer Interfacing with the Hall 
1863:Drivers/STM32H7xx_HAL_Driver/Src/stm32h7xx_hal_tim_ex.c ****   *          This parameter can be one of the following values:
1864:Drivers/STM32H7xx_HAL_Driver/Src/stm32h7xx_hal_tim_ex.c ****   *            @arg TIM_TS_ITR0: Internal trigger 0 selected
1865:Drivers/STM32H7xx_HAL_Driver/Src/stm32h7xx_hal_tim_ex.c ****   *            @arg TIM_TS_ITR1: Internal trigger 1 selected
1866:Drivers/STM32H7xx_HAL_Driver/Src/stm32h7xx_hal_tim_ex.c ****   *            @arg TIM_TS_ITR2: Internal trigger 2 selected
1867:Drivers/STM32H7xx_HAL_Driver/Src/stm32h7xx_hal_tim_ex.c ****   *            @arg TIM_TS_ITR3: Internal trigger 3 selected
1868:Drivers/STM32H7xx_HAL_Driver/Src/stm32h7xx_hal_tim_ex.c ****   *            @arg TIM_TS_ITR2: Internal trigger 12 selected (*)
1869:Drivers/STM32H7xx_HAL_Driver/Src/stm32h7xx_hal_tim_ex.c ****   *            @arg TIM_TS_ITR3: Internal trigger 13 selected (*)
1870:Drivers/STM32H7xx_HAL_Driver/Src/stm32h7xx_hal_tim_ex.c ****   *            @arg TIM_TS_NONE: No trigger is needed
1871:Drivers/STM32H7xx_HAL_Driver/Src/stm32h7xx_hal_tim_ex.c ****   * @param  CommutationSource the Commutation Event source
1872:Drivers/STM32H7xx_HAL_Driver/Src/stm32h7xx_hal_tim_ex.c ****   *          This parameter can be one of the following values:
1873:Drivers/STM32H7xx_HAL_Driver/Src/stm32h7xx_hal_tim_ex.c ****   *            @arg TIM_COMMUTATION_TRGI: Commutation source is the TRGI of the Interface Timer
1874:Drivers/STM32H7xx_HAL_Driver/Src/stm32h7xx_hal_tim_ex.c ****   *            @arg TIM_COMMUTATION_SOFTWARE:  Commutation source is set by software using the COMG
1875:Drivers/STM32H7xx_HAL_Driver/Src/stm32h7xx_hal_tim_ex.c ****   * @retval HAL status
1876:Drivers/STM32H7xx_HAL_Driver/Src/stm32h7xx_hal_tim_ex.c ****   */
1877:Drivers/STM32H7xx_HAL_Driver/Src/stm32h7xx_hal_tim_ex.c **** HAL_StatusTypeDef HAL_TIMEx_ConfigCommutEvent_IT(TIM_HandleTypeDef *htim, uint32_t  InputTrigger,
1878:Drivers/STM32H7xx_HAL_Driver/Src/stm32h7xx_hal_tim_ex.c ****                                                  uint32_t  CommutationSource)
1879:Drivers/STM32H7xx_HAL_Driver/Src/stm32h7xx_hal_tim_ex.c **** {
 5597              		.loc 1 1879 1
 5598              		.cfi_startproc
 5599              		@ args = 0, pretend = 0, frame = 16
 5600              		@ frame_needed = 1, uses_anonymous_args = 0
 5601              		@ link register save eliminated.
 5602 0000 80B4     		push	{r7}
 5603              	.LCFI138:
 5604              		.cfi_def_cfa_offset 4
 5605              		.cfi_offset 7, -4
 5606 0002 85B0     		sub	sp, sp, #20
 5607              	.LCFI139:
 5608              		.cfi_def_cfa_offset 24
 5609 0004 00AF     		add	r7, sp, #0
 5610              	.LCFI140:
 5611              		.cfi_def_cfa_register 7
 5612 0006 F860     		str	r0, [r7, #12]
 5613 0008 B960     		str	r1, [r7, #8]
 5614 000a 7A60     		str	r2, [r7, #4]
1880:Drivers/STM32H7xx_HAL_Driver/Src/stm32h7xx_hal_tim_ex.c ****   /* Check the parameters */
1881:Drivers/STM32H7xx_HAL_Driver/Src/stm32h7xx_hal_tim_ex.c ****   assert_param(IS_TIM_COMMUTATION_EVENT_INSTANCE(htim->Instance));
1882:Drivers/STM32H7xx_HAL_Driver/Src/stm32h7xx_hal_tim_ex.c ****   assert_param(IS_TIM_INTERNAL_TRIGGEREVENT_SELECTION(InputTrigger));
1883:Drivers/STM32H7xx_HAL_Driver/Src/stm32h7xx_hal_tim_ex.c **** 
1884:Drivers/STM32H7xx_HAL_Driver/Src/stm32h7xx_hal_tim_ex.c ****   __HAL_LOCK(htim);
 5615              		.loc 1 1884 3
 5616 000c FB68     		ldr	r3, [r7, #12]
 5617 000e 93F83C30 		ldrb	r3, [r3, #60]	@ zero_extendqisi2
 5618 0012 012B     		cmp	r3, #1
ARM GAS  C:\Users\Su\AppData\Local\Temp\ccm0VnUy.s 			page 132


 5619 0014 01D1     		bne	.L348
 5620              		.loc 1 1884 3 is_stmt 0 discriminator 1
 5621 0016 0223     		movs	r3, #2
 5622 0018 54E0     		b	.L349
 5623              	.L348:
 5624              		.loc 1 1884 3 discriminator 2
 5625 001a FB68     		ldr	r3, [r7, #12]
 5626 001c 0122     		movs	r2, #1
 5627 001e 83F83C20 		strb	r2, [r3, #60]
1885:Drivers/STM32H7xx_HAL_Driver/Src/stm32h7xx_hal_tim_ex.c **** 
1886:Drivers/STM32H7xx_HAL_Driver/Src/stm32h7xx_hal_tim_ex.c ****   if ((InputTrigger == TIM_TS_ITR0)  || (InputTrigger == TIM_TS_ITR1) ||
 5628              		.loc 1 1886 6 is_stmt 1 discriminator 2
 5629 0022 BB68     		ldr	r3, [r7, #8]
 5630 0024 002B     		cmp	r3, #0
 5631 0026 10D0     		beq	.L350
 5632              		.loc 1 1886 38 discriminator 1
 5633 0028 BB68     		ldr	r3, [r7, #8]
 5634 002a 102B     		cmp	r3, #16
 5635 002c 0DD0     		beq	.L350
 5636              		.loc 1 1886 71 discriminator 2
 5637 002e BB68     		ldr	r3, [r7, #8]
 5638 0030 202B     		cmp	r3, #32
 5639 0032 0AD0     		beq	.L350
1887:Drivers/STM32H7xx_HAL_Driver/Src/stm32h7xx_hal_tim_ex.c ****       (InputTrigger == TIM_TS_ITR2)  || (InputTrigger == TIM_TS_ITR3) ||
 5640              		.loc 1 1887 38
 5641 0034 BB68     		ldr	r3, [r7, #8]
 5642 0036 302B     		cmp	r3, #48
 5643 0038 07D0     		beq	.L350
 5644              		.loc 1 1887 71 discriminator 1
 5645 003a BB68     		ldr	r3, [r7, #8]
 5646 003c B3F5001F 		cmp	r3, #2097152
 5647 0040 03D0     		beq	.L350
1888:Drivers/STM32H7xx_HAL_Driver/Src/stm32h7xx_hal_tim_ex.c ****       (InputTrigger == TIM_TS_ITR12)  || (InputTrigger == TIM_TS_ITR13))
 5648              		.loc 1 1888 39
 5649 0042 BB68     		ldr	r3, [r7, #8]
 5650 0044 224A     		ldr	r2, .L352
 5651 0046 9342     		cmp	r3, r2
 5652 0048 0FD1     		bne	.L351
 5653              	.L350:
1889:Drivers/STM32H7xx_HAL_Driver/Src/stm32h7xx_hal_tim_ex.c ****   {
1890:Drivers/STM32H7xx_HAL_Driver/Src/stm32h7xx_hal_tim_ex.c ****     /* Select the Input trigger */
1891:Drivers/STM32H7xx_HAL_Driver/Src/stm32h7xx_hal_tim_ex.c ****     htim->Instance->SMCR &= ~TIM_SMCR_TS;
 5654              		.loc 1 1891 9
 5655 004a FB68     		ldr	r3, [r7, #12]
 5656 004c 1B68     		ldr	r3, [r3]
 5657              		.loc 1 1891 26
 5658 004e 9968     		ldr	r1, [r3, #8]
 5659              		.loc 1 1891 9
 5660 0050 FB68     		ldr	r3, [r7, #12]
 5661 0052 1A68     		ldr	r2, [r3]
 5662              		.loc 1 1891 26
 5663 0054 1F4B     		ldr	r3, .L352+4
 5664 0056 0B40     		ands	r3, r3, r1
 5665 0058 9360     		str	r3, [r2, #8]
1892:Drivers/STM32H7xx_HAL_Driver/Src/stm32h7xx_hal_tim_ex.c ****     htim->Instance->SMCR |= InputTrigger;
 5666              		.loc 1 1892 9
 5667 005a FB68     		ldr	r3, [r7, #12]
ARM GAS  C:\Users\Su\AppData\Local\Temp\ccm0VnUy.s 			page 133


 5668 005c 1B68     		ldr	r3, [r3]
 5669              		.loc 1 1892 26
 5670 005e 9968     		ldr	r1, [r3, #8]
 5671              		.loc 1 1892 9
 5672 0060 FB68     		ldr	r3, [r7, #12]
 5673 0062 1B68     		ldr	r3, [r3]
 5674              		.loc 1 1892 26
 5675 0064 BA68     		ldr	r2, [r7, #8]
 5676 0066 0A43     		orrs	r2, r2, r1
 5677 0068 9A60     		str	r2, [r3, #8]
 5678              	.L351:
1893:Drivers/STM32H7xx_HAL_Driver/Src/stm32h7xx_hal_tim_ex.c ****   }
1894:Drivers/STM32H7xx_HAL_Driver/Src/stm32h7xx_hal_tim_ex.c **** 
1895:Drivers/STM32H7xx_HAL_Driver/Src/stm32h7xx_hal_tim_ex.c ****   /* Select the Capture Compare preload feature */
1896:Drivers/STM32H7xx_HAL_Driver/Src/stm32h7xx_hal_tim_ex.c ****   htim->Instance->CR2 |= TIM_CR2_CCPC;
 5679              		.loc 1 1896 7
 5680 006a FB68     		ldr	r3, [r7, #12]
 5681 006c 1B68     		ldr	r3, [r3]
 5682              		.loc 1 1896 23
 5683 006e 5A68     		ldr	r2, [r3, #4]
 5684              		.loc 1 1896 7
 5685 0070 FB68     		ldr	r3, [r7, #12]
 5686 0072 1B68     		ldr	r3, [r3]
 5687              		.loc 1 1896 23
 5688 0074 42F00102 		orr	r2, r2, #1
 5689 0078 5A60     		str	r2, [r3, #4]
1897:Drivers/STM32H7xx_HAL_Driver/Src/stm32h7xx_hal_tim_ex.c ****   /* Select the Commutation event source */
1898:Drivers/STM32H7xx_HAL_Driver/Src/stm32h7xx_hal_tim_ex.c ****   htim->Instance->CR2 &= ~TIM_CR2_CCUS;
 5690              		.loc 1 1898 7
 5691 007a FB68     		ldr	r3, [r7, #12]
 5692 007c 1B68     		ldr	r3, [r3]
 5693              		.loc 1 1898 23
 5694 007e 5A68     		ldr	r2, [r3, #4]
 5695              		.loc 1 1898 7
 5696 0080 FB68     		ldr	r3, [r7, #12]
 5697 0082 1B68     		ldr	r3, [r3]
 5698              		.loc 1 1898 23
 5699 0084 22F00402 		bic	r2, r2, #4
 5700 0088 5A60     		str	r2, [r3, #4]
1899:Drivers/STM32H7xx_HAL_Driver/Src/stm32h7xx_hal_tim_ex.c ****   htim->Instance->CR2 |= CommutationSource;
 5701              		.loc 1 1899 7
 5702 008a FB68     		ldr	r3, [r7, #12]
 5703 008c 1B68     		ldr	r3, [r3]
 5704              		.loc 1 1899 23
 5705 008e 5968     		ldr	r1, [r3, #4]
 5706              		.loc 1 1899 7
 5707 0090 FB68     		ldr	r3, [r7, #12]
 5708 0092 1B68     		ldr	r3, [r3]
 5709              		.loc 1 1899 23
 5710 0094 7A68     		ldr	r2, [r7, #4]
 5711 0096 0A43     		orrs	r2, r2, r1
 5712 0098 5A60     		str	r2, [r3, #4]
1900:Drivers/STM32H7xx_HAL_Driver/Src/stm32h7xx_hal_tim_ex.c **** 
1901:Drivers/STM32H7xx_HAL_Driver/Src/stm32h7xx_hal_tim_ex.c ****   /* Disable Commutation DMA request */
1902:Drivers/STM32H7xx_HAL_Driver/Src/stm32h7xx_hal_tim_ex.c ****   __HAL_TIM_DISABLE_DMA(htim, TIM_DMA_COM);
 5713              		.loc 1 1902 3
 5714 009a FB68     		ldr	r3, [r7, #12]
ARM GAS  C:\Users\Su\AppData\Local\Temp\ccm0VnUy.s 			page 134


 5715 009c 1B68     		ldr	r3, [r3]
 5716 009e DA68     		ldr	r2, [r3, #12]
 5717 00a0 FB68     		ldr	r3, [r7, #12]
 5718 00a2 1B68     		ldr	r3, [r3]
 5719 00a4 22F40052 		bic	r2, r2, #8192
 5720 00a8 DA60     		str	r2, [r3, #12]
1903:Drivers/STM32H7xx_HAL_Driver/Src/stm32h7xx_hal_tim_ex.c **** 
1904:Drivers/STM32H7xx_HAL_Driver/Src/stm32h7xx_hal_tim_ex.c ****   /* Enable the Commutation Interrupt */
1905:Drivers/STM32H7xx_HAL_Driver/Src/stm32h7xx_hal_tim_ex.c ****   __HAL_TIM_ENABLE_IT(htim, TIM_IT_COM);
 5721              		.loc 1 1905 3
 5722 00aa FB68     		ldr	r3, [r7, #12]
 5723 00ac 1B68     		ldr	r3, [r3]
 5724 00ae DA68     		ldr	r2, [r3, #12]
 5725 00b0 FB68     		ldr	r3, [r7, #12]
 5726 00b2 1B68     		ldr	r3, [r3]
 5727 00b4 42F02002 		orr	r2, r2, #32
 5728 00b8 DA60     		str	r2, [r3, #12]
1906:Drivers/STM32H7xx_HAL_Driver/Src/stm32h7xx_hal_tim_ex.c **** 
1907:Drivers/STM32H7xx_HAL_Driver/Src/stm32h7xx_hal_tim_ex.c ****   __HAL_UNLOCK(htim);
 5729              		.loc 1 1907 3
 5730 00ba FB68     		ldr	r3, [r7, #12]
 5731 00bc 0022     		movs	r2, #0
 5732 00be 83F83C20 		strb	r2, [r3, #60]
1908:Drivers/STM32H7xx_HAL_Driver/Src/stm32h7xx_hal_tim_ex.c **** 
1909:Drivers/STM32H7xx_HAL_Driver/Src/stm32h7xx_hal_tim_ex.c ****   return HAL_OK;
 5733              		.loc 1 1909 10
 5734 00c2 0023     		movs	r3, #0
 5735              	.L349:
1910:Drivers/STM32H7xx_HAL_Driver/Src/stm32h7xx_hal_tim_ex.c **** }
 5736              		.loc 1 1910 1
 5737 00c4 1846     		mov	r0, r3
 5738 00c6 1437     		adds	r7, r7, #20
 5739              	.LCFI141:
 5740              		.cfi_def_cfa_offset 4
 5741 00c8 BD46     		mov	sp, r7
 5742              	.LCFI142:
 5743              		.cfi_def_cfa_register 13
 5744              		@ sp needed
 5745 00ca 5DF8047B 		ldr	r7, [sp], #4
 5746              	.LCFI143:
 5747              		.cfi_restore 7
 5748              		.cfi_def_cfa_offset 0
 5749 00ce 7047     		bx	lr
 5750              	.L353:
 5751              		.align	2
 5752              	.L352:
 5753 00d0 10002000 		.word	2097168
 5754 00d4 8FFFCFFF 		.word	-3145841
 5755              		.cfi_endproc
 5756              	.LFE171:
 5758              		.section	.text.HAL_TIMEx_ConfigCommutEvent_DMA,"ax",%progbits
 5759              		.align	1
 5760              		.global	HAL_TIMEx_ConfigCommutEvent_DMA
 5761              		.syntax unified
 5762              		.thumb
 5763              		.thumb_func
 5765              	HAL_TIMEx_ConfigCommutEvent_DMA:
ARM GAS  C:\Users\Su\AppData\Local\Temp\ccm0VnUy.s 			page 135


 5766              	.LFB172:
1911:Drivers/STM32H7xx_HAL_Driver/Src/stm32h7xx_hal_tim_ex.c **** 
1912:Drivers/STM32H7xx_HAL_Driver/Src/stm32h7xx_hal_tim_ex.c **** /**
1913:Drivers/STM32H7xx_HAL_Driver/Src/stm32h7xx_hal_tim_ex.c ****   * @brief  Configure the TIM commutation event sequence with DMA.
1914:Drivers/STM32H7xx_HAL_Driver/Src/stm32h7xx_hal_tim_ex.c ****   * @note  This function is mandatory to use the commutation event in order to
1915:Drivers/STM32H7xx_HAL_Driver/Src/stm32h7xx_hal_tim_ex.c ****   *        update the configuration at each commutation detection on the TRGI input of the Timer,
1916:Drivers/STM32H7xx_HAL_Driver/Src/stm32h7xx_hal_tim_ex.c ****   *        the typical use of this feature is with the use of another Timer(interface Timer)
1917:Drivers/STM32H7xx_HAL_Driver/Src/stm32h7xx_hal_tim_ex.c ****   *        configured in Hall sensor interface, this interface Timer will generate the
1918:Drivers/STM32H7xx_HAL_Driver/Src/stm32h7xx_hal_tim_ex.c ****   *        commutation at its TRGO output (connected to Timer used in this function) each time
1919:Drivers/STM32H7xx_HAL_Driver/Src/stm32h7xx_hal_tim_ex.c ****   *        the TI1 of the Interface Timer detect a commutation at its input TI1.
1920:Drivers/STM32H7xx_HAL_Driver/Src/stm32h7xx_hal_tim_ex.c ****   * @note  The user should configure the DMA in his own software, in This function only the COMDE b
1921:Drivers/STM32H7xx_HAL_Driver/Src/stm32h7xx_hal_tim_ex.c ****   * @param  htim TIM handle
1922:Drivers/STM32H7xx_HAL_Driver/Src/stm32h7xx_hal_tim_ex.c ****   * @param  InputTrigger the Internal trigger corresponding to the Timer Interfacing with the Hall 
1923:Drivers/STM32H7xx_HAL_Driver/Src/stm32h7xx_hal_tim_ex.c ****   *          This parameter can be one of the following values:
1924:Drivers/STM32H7xx_HAL_Driver/Src/stm32h7xx_hal_tim_ex.c ****   *            @arg TIM_TS_ITR0: Internal trigger 0 selected
1925:Drivers/STM32H7xx_HAL_Driver/Src/stm32h7xx_hal_tim_ex.c ****   *            @arg TIM_TS_ITR1: Internal trigger 1 selected
1926:Drivers/STM32H7xx_HAL_Driver/Src/stm32h7xx_hal_tim_ex.c ****   *            @arg TIM_TS_ITR2: Internal trigger 2 selected
1927:Drivers/STM32H7xx_HAL_Driver/Src/stm32h7xx_hal_tim_ex.c ****   *            @arg TIM_TS_ITR3: Internal trigger 3 selected
1928:Drivers/STM32H7xx_HAL_Driver/Src/stm32h7xx_hal_tim_ex.c ****   *            @arg TIM_TS_ITR2: Internal trigger 12 selected (*)
1929:Drivers/STM32H7xx_HAL_Driver/Src/stm32h7xx_hal_tim_ex.c ****   *            @arg TIM_TS_ITR3: Internal trigger 13 selected (*)
1930:Drivers/STM32H7xx_HAL_Driver/Src/stm32h7xx_hal_tim_ex.c ****   *            @arg TIM_TS_NONE: No trigger is needed
1931:Drivers/STM32H7xx_HAL_Driver/Src/stm32h7xx_hal_tim_ex.c ****   *
1932:Drivers/STM32H7xx_HAL_Driver/Src/stm32h7xx_hal_tim_ex.c ****   *         (*)  Value not defined in all devices.
1933:Drivers/STM32H7xx_HAL_Driver/Src/stm32h7xx_hal_tim_ex.c ****   *
1934:Drivers/STM32H7xx_HAL_Driver/Src/stm32h7xx_hal_tim_ex.c ****   * @param  CommutationSource the Commutation Event source
1935:Drivers/STM32H7xx_HAL_Driver/Src/stm32h7xx_hal_tim_ex.c ****   *          This parameter can be one of the following values:
1936:Drivers/STM32H7xx_HAL_Driver/Src/stm32h7xx_hal_tim_ex.c ****   *            @arg TIM_COMMUTATION_TRGI: Commutation source is the TRGI of the Interface Timer
1937:Drivers/STM32H7xx_HAL_Driver/Src/stm32h7xx_hal_tim_ex.c ****   *            @arg TIM_COMMUTATION_SOFTWARE:  Commutation source is set by software using the COMG
1938:Drivers/STM32H7xx_HAL_Driver/Src/stm32h7xx_hal_tim_ex.c ****   * @retval HAL status
1939:Drivers/STM32H7xx_HAL_Driver/Src/stm32h7xx_hal_tim_ex.c ****   */
1940:Drivers/STM32H7xx_HAL_Driver/Src/stm32h7xx_hal_tim_ex.c **** HAL_StatusTypeDef HAL_TIMEx_ConfigCommutEvent_DMA(TIM_HandleTypeDef *htim, uint32_t  InputTrigger,
1941:Drivers/STM32H7xx_HAL_Driver/Src/stm32h7xx_hal_tim_ex.c ****                                                   uint32_t  CommutationSource)
1942:Drivers/STM32H7xx_HAL_Driver/Src/stm32h7xx_hal_tim_ex.c **** {
 5767              		.loc 1 1942 1
 5768              		.cfi_startproc
 5769              		@ args = 0, pretend = 0, frame = 16
 5770              		@ frame_needed = 1, uses_anonymous_args = 0
 5771              		@ link register save eliminated.
 5772 0000 80B4     		push	{r7}
 5773              	.LCFI144:
 5774              		.cfi_def_cfa_offset 4
 5775              		.cfi_offset 7, -4
 5776 0002 85B0     		sub	sp, sp, #20
 5777              	.LCFI145:
 5778              		.cfi_def_cfa_offset 24
 5779 0004 00AF     		add	r7, sp, #0
 5780              	.LCFI146:
 5781              		.cfi_def_cfa_register 7
 5782 0006 F860     		str	r0, [r7, #12]
 5783 0008 B960     		str	r1, [r7, #8]
 5784 000a 7A60     		str	r2, [r7, #4]
1943:Drivers/STM32H7xx_HAL_Driver/Src/stm32h7xx_hal_tim_ex.c ****   /* Check the parameters */
1944:Drivers/STM32H7xx_HAL_Driver/Src/stm32h7xx_hal_tim_ex.c ****   assert_param(IS_TIM_COMMUTATION_EVENT_INSTANCE(htim->Instance));
1945:Drivers/STM32H7xx_HAL_Driver/Src/stm32h7xx_hal_tim_ex.c ****   assert_param(IS_TIM_INTERNAL_TRIGGEREVENT_SELECTION(InputTrigger));
1946:Drivers/STM32H7xx_HAL_Driver/Src/stm32h7xx_hal_tim_ex.c **** 
1947:Drivers/STM32H7xx_HAL_Driver/Src/stm32h7xx_hal_tim_ex.c ****   __HAL_LOCK(htim);
 5785              		.loc 1 1947 3
ARM GAS  C:\Users\Su\AppData\Local\Temp\ccm0VnUy.s 			page 136


 5786 000c FB68     		ldr	r3, [r7, #12]
 5787 000e 93F83C30 		ldrb	r3, [r3, #60]	@ zero_extendqisi2
 5788 0012 012B     		cmp	r3, #1
 5789 0014 01D1     		bne	.L355
 5790              		.loc 1 1947 3 is_stmt 0 discriminator 1
 5791 0016 0223     		movs	r3, #2
 5792 0018 60E0     		b	.L356
 5793              	.L355:
 5794              		.loc 1 1947 3 discriminator 2
 5795 001a FB68     		ldr	r3, [r7, #12]
 5796 001c 0122     		movs	r2, #1
 5797 001e 83F83C20 		strb	r2, [r3, #60]
1948:Drivers/STM32H7xx_HAL_Driver/Src/stm32h7xx_hal_tim_ex.c **** 
1949:Drivers/STM32H7xx_HAL_Driver/Src/stm32h7xx_hal_tim_ex.c ****   if ((InputTrigger == TIM_TS_ITR0)  || (InputTrigger == TIM_TS_ITR1) ||
 5798              		.loc 1 1949 6 is_stmt 1 discriminator 2
 5799 0022 BB68     		ldr	r3, [r7, #8]
 5800 0024 002B     		cmp	r3, #0
 5801 0026 10D0     		beq	.L357
 5802              		.loc 1 1949 38 discriminator 1
 5803 0028 BB68     		ldr	r3, [r7, #8]
 5804 002a 102B     		cmp	r3, #16
 5805 002c 0DD0     		beq	.L357
 5806              		.loc 1 1949 71 discriminator 2
 5807 002e BB68     		ldr	r3, [r7, #8]
 5808 0030 202B     		cmp	r3, #32
 5809 0032 0AD0     		beq	.L357
1950:Drivers/STM32H7xx_HAL_Driver/Src/stm32h7xx_hal_tim_ex.c ****       (InputTrigger == TIM_TS_ITR2)  || (InputTrigger == TIM_TS_ITR3) ||
 5810              		.loc 1 1950 38
 5811 0034 BB68     		ldr	r3, [r7, #8]
 5812 0036 302B     		cmp	r3, #48
 5813 0038 07D0     		beq	.L357
 5814              		.loc 1 1950 71 discriminator 1
 5815 003a BB68     		ldr	r3, [r7, #8]
 5816 003c B3F5001F 		cmp	r3, #2097152
 5817 0040 03D0     		beq	.L357
1951:Drivers/STM32H7xx_HAL_Driver/Src/stm32h7xx_hal_tim_ex.c ****       (InputTrigger == TIM_TS_ITR12)  || (InputTrigger == TIM_TS_ITR13))
 5818              		.loc 1 1951 39
 5819 0042 BB68     		ldr	r3, [r7, #8]
 5820 0044 284A     		ldr	r2, .L359
 5821 0046 9342     		cmp	r3, r2
 5822 0048 0FD1     		bne	.L358
 5823              	.L357:
1952:Drivers/STM32H7xx_HAL_Driver/Src/stm32h7xx_hal_tim_ex.c ****   {
1953:Drivers/STM32H7xx_HAL_Driver/Src/stm32h7xx_hal_tim_ex.c ****     /* Select the Input trigger */
1954:Drivers/STM32H7xx_HAL_Driver/Src/stm32h7xx_hal_tim_ex.c ****     htim->Instance->SMCR &= ~TIM_SMCR_TS;
 5824              		.loc 1 1954 9
 5825 004a FB68     		ldr	r3, [r7, #12]
 5826 004c 1B68     		ldr	r3, [r3]
 5827              		.loc 1 1954 26
 5828 004e 9968     		ldr	r1, [r3, #8]
 5829              		.loc 1 1954 9
 5830 0050 FB68     		ldr	r3, [r7, #12]
 5831 0052 1A68     		ldr	r2, [r3]
 5832              		.loc 1 1954 26
 5833 0054 254B     		ldr	r3, .L359+4
 5834 0056 0B40     		ands	r3, r3, r1
 5835 0058 9360     		str	r3, [r2, #8]
ARM GAS  C:\Users\Su\AppData\Local\Temp\ccm0VnUy.s 			page 137


1955:Drivers/STM32H7xx_HAL_Driver/Src/stm32h7xx_hal_tim_ex.c ****     htim->Instance->SMCR |= InputTrigger;
 5836              		.loc 1 1955 9
 5837 005a FB68     		ldr	r3, [r7, #12]
 5838 005c 1B68     		ldr	r3, [r3]
 5839              		.loc 1 1955 26
 5840 005e 9968     		ldr	r1, [r3, #8]
 5841              		.loc 1 1955 9
 5842 0060 FB68     		ldr	r3, [r7, #12]
 5843 0062 1B68     		ldr	r3, [r3]
 5844              		.loc 1 1955 26
 5845 0064 BA68     		ldr	r2, [r7, #8]
 5846 0066 0A43     		orrs	r2, r2, r1
 5847 0068 9A60     		str	r2, [r3, #8]
 5848              	.L358:
1956:Drivers/STM32H7xx_HAL_Driver/Src/stm32h7xx_hal_tim_ex.c ****   }
1957:Drivers/STM32H7xx_HAL_Driver/Src/stm32h7xx_hal_tim_ex.c **** 
1958:Drivers/STM32H7xx_HAL_Driver/Src/stm32h7xx_hal_tim_ex.c ****   /* Select the Capture Compare preload feature */
1959:Drivers/STM32H7xx_HAL_Driver/Src/stm32h7xx_hal_tim_ex.c ****   htim->Instance->CR2 |= TIM_CR2_CCPC;
 5849              		.loc 1 1959 7
 5850 006a FB68     		ldr	r3, [r7, #12]
 5851 006c 1B68     		ldr	r3, [r3]
 5852              		.loc 1 1959 23
 5853 006e 5A68     		ldr	r2, [r3, #4]
 5854              		.loc 1 1959 7
 5855 0070 FB68     		ldr	r3, [r7, #12]
 5856 0072 1B68     		ldr	r3, [r3]
 5857              		.loc 1 1959 23
 5858 0074 42F00102 		orr	r2, r2, #1
 5859 0078 5A60     		str	r2, [r3, #4]
1960:Drivers/STM32H7xx_HAL_Driver/Src/stm32h7xx_hal_tim_ex.c ****   /* Select the Commutation event source */
1961:Drivers/STM32H7xx_HAL_Driver/Src/stm32h7xx_hal_tim_ex.c ****   htim->Instance->CR2 &= ~TIM_CR2_CCUS;
 5860              		.loc 1 1961 7
 5861 007a FB68     		ldr	r3, [r7, #12]
 5862 007c 1B68     		ldr	r3, [r3]
 5863              		.loc 1 1961 23
 5864 007e 5A68     		ldr	r2, [r3, #4]
 5865              		.loc 1 1961 7
 5866 0080 FB68     		ldr	r3, [r7, #12]
 5867 0082 1B68     		ldr	r3, [r3]
 5868              		.loc 1 1961 23
 5869 0084 22F00402 		bic	r2, r2, #4
 5870 0088 5A60     		str	r2, [r3, #4]
1962:Drivers/STM32H7xx_HAL_Driver/Src/stm32h7xx_hal_tim_ex.c ****   htim->Instance->CR2 |= CommutationSource;
 5871              		.loc 1 1962 7
 5872 008a FB68     		ldr	r3, [r7, #12]
 5873 008c 1B68     		ldr	r3, [r3]
 5874              		.loc 1 1962 23
 5875 008e 5968     		ldr	r1, [r3, #4]
 5876              		.loc 1 1962 7
 5877 0090 FB68     		ldr	r3, [r7, #12]
 5878 0092 1B68     		ldr	r3, [r3]
 5879              		.loc 1 1962 23
 5880 0094 7A68     		ldr	r2, [r7, #4]
 5881 0096 0A43     		orrs	r2, r2, r1
 5882 0098 5A60     		str	r2, [r3, #4]
1963:Drivers/STM32H7xx_HAL_Driver/Src/stm32h7xx_hal_tim_ex.c **** 
1964:Drivers/STM32H7xx_HAL_Driver/Src/stm32h7xx_hal_tim_ex.c ****   /* Enable the Commutation DMA Request */
ARM GAS  C:\Users\Su\AppData\Local\Temp\ccm0VnUy.s 			page 138


1965:Drivers/STM32H7xx_HAL_Driver/Src/stm32h7xx_hal_tim_ex.c ****   /* Set the DMA Commutation Callback */
1966:Drivers/STM32H7xx_HAL_Driver/Src/stm32h7xx_hal_tim_ex.c ****   htim->hdma[TIM_DMA_ID_COMMUTATION]->XferCpltCallback = TIMEx_DMACommutationCplt;
 5883              		.loc 1 1966 13
 5884 009a FB68     		ldr	r3, [r7, #12]
 5885 009c 5B6B     		ldr	r3, [r3, #52]
 5886              		.loc 1 1966 56
 5887 009e 144A     		ldr	r2, .L359+8
 5888 00a0 DA63     		str	r2, [r3, #60]
1967:Drivers/STM32H7xx_HAL_Driver/Src/stm32h7xx_hal_tim_ex.c ****   htim->hdma[TIM_DMA_ID_COMMUTATION]->XferHalfCpltCallback = TIMEx_DMACommutationHalfCplt;
 5889              		.loc 1 1967 13
 5890 00a2 FB68     		ldr	r3, [r7, #12]
 5891 00a4 5B6B     		ldr	r3, [r3, #52]
 5892              		.loc 1 1967 60
 5893 00a6 134A     		ldr	r2, .L359+12
 5894 00a8 1A64     		str	r2, [r3, #64]
1968:Drivers/STM32H7xx_HAL_Driver/Src/stm32h7xx_hal_tim_ex.c ****   /* Set the DMA error callback */
1969:Drivers/STM32H7xx_HAL_Driver/Src/stm32h7xx_hal_tim_ex.c ****   htim->hdma[TIM_DMA_ID_COMMUTATION]->XferErrorCallback = TIM_DMAError;
 5895              		.loc 1 1969 13
 5896 00aa FB68     		ldr	r3, [r7, #12]
 5897 00ac 5B6B     		ldr	r3, [r3, #52]
 5898              		.loc 1 1969 57
 5899 00ae 124A     		ldr	r2, .L359+16
 5900 00b0 DA64     		str	r2, [r3, #76]
1970:Drivers/STM32H7xx_HAL_Driver/Src/stm32h7xx_hal_tim_ex.c **** 
1971:Drivers/STM32H7xx_HAL_Driver/Src/stm32h7xx_hal_tim_ex.c ****   /* Disable Commutation Interrupt */
1972:Drivers/STM32H7xx_HAL_Driver/Src/stm32h7xx_hal_tim_ex.c ****   __HAL_TIM_DISABLE_IT(htim, TIM_IT_COM);
 5901              		.loc 1 1972 3
 5902 00b2 FB68     		ldr	r3, [r7, #12]
 5903 00b4 1B68     		ldr	r3, [r3]
 5904 00b6 DA68     		ldr	r2, [r3, #12]
 5905 00b8 FB68     		ldr	r3, [r7, #12]
 5906 00ba 1B68     		ldr	r3, [r3]
 5907 00bc 22F02002 		bic	r2, r2, #32
 5908 00c0 DA60     		str	r2, [r3, #12]
1973:Drivers/STM32H7xx_HAL_Driver/Src/stm32h7xx_hal_tim_ex.c **** 
1974:Drivers/STM32H7xx_HAL_Driver/Src/stm32h7xx_hal_tim_ex.c ****   /* Enable the Commutation DMA Request */
1975:Drivers/STM32H7xx_HAL_Driver/Src/stm32h7xx_hal_tim_ex.c ****   __HAL_TIM_ENABLE_DMA(htim, TIM_DMA_COM);
 5909              		.loc 1 1975 3
 5910 00c2 FB68     		ldr	r3, [r7, #12]
 5911 00c4 1B68     		ldr	r3, [r3]
 5912 00c6 DA68     		ldr	r2, [r3, #12]
 5913 00c8 FB68     		ldr	r3, [r7, #12]
 5914 00ca 1B68     		ldr	r3, [r3]
 5915 00cc 42F40052 		orr	r2, r2, #8192
 5916 00d0 DA60     		str	r2, [r3, #12]
1976:Drivers/STM32H7xx_HAL_Driver/Src/stm32h7xx_hal_tim_ex.c **** 
1977:Drivers/STM32H7xx_HAL_Driver/Src/stm32h7xx_hal_tim_ex.c ****   __HAL_UNLOCK(htim);
 5917              		.loc 1 1977 3
 5918 00d2 FB68     		ldr	r3, [r7, #12]
 5919 00d4 0022     		movs	r2, #0
 5920 00d6 83F83C20 		strb	r2, [r3, #60]
1978:Drivers/STM32H7xx_HAL_Driver/Src/stm32h7xx_hal_tim_ex.c **** 
1979:Drivers/STM32H7xx_HAL_Driver/Src/stm32h7xx_hal_tim_ex.c ****   return HAL_OK;
 5921              		.loc 1 1979 10
 5922 00da 0023     		movs	r3, #0
 5923              	.L356:
1980:Drivers/STM32H7xx_HAL_Driver/Src/stm32h7xx_hal_tim_ex.c **** }
ARM GAS  C:\Users\Su\AppData\Local\Temp\ccm0VnUy.s 			page 139


 5924              		.loc 1 1980 1
 5925 00dc 1846     		mov	r0, r3
 5926 00de 1437     		adds	r7, r7, #20
 5927              	.LCFI147:
 5928              		.cfi_def_cfa_offset 4
 5929 00e0 BD46     		mov	sp, r7
 5930              	.LCFI148:
 5931              		.cfi_def_cfa_register 13
 5932              		@ sp needed
 5933 00e2 5DF8047B 		ldr	r7, [sp], #4
 5934              	.LCFI149:
 5935              		.cfi_restore 7
 5936              		.cfi_def_cfa_offset 0
 5937 00e6 7047     		bx	lr
 5938              	.L360:
 5939              		.align	2
 5940              	.L359:
 5941 00e8 10002000 		.word	2097168
 5942 00ec 8FFFCFFF 		.word	-3145841
 5943 00f0 00000000 		.word	TIMEx_DMACommutationCplt
 5944 00f4 00000000 		.word	TIMEx_DMACommutationHalfCplt
 5945 00f8 00000000 		.word	TIM_DMAError
 5946              		.cfi_endproc
 5947              	.LFE172:
 5949              		.section	.text.HAL_TIMEx_MasterConfigSynchronization,"ax",%progbits
 5950              		.align	1
 5951              		.global	HAL_TIMEx_MasterConfigSynchronization
 5952              		.syntax unified
 5953              		.thumb
 5954              		.thumb_func
 5956              	HAL_TIMEx_MasterConfigSynchronization:
 5957              	.LFB173:
1981:Drivers/STM32H7xx_HAL_Driver/Src/stm32h7xx_hal_tim_ex.c **** 
1982:Drivers/STM32H7xx_HAL_Driver/Src/stm32h7xx_hal_tim_ex.c **** /**
1983:Drivers/STM32H7xx_HAL_Driver/Src/stm32h7xx_hal_tim_ex.c ****   * @brief  Configures the TIM in master mode.
1984:Drivers/STM32H7xx_HAL_Driver/Src/stm32h7xx_hal_tim_ex.c ****   * @param  htim TIM handle.
1985:Drivers/STM32H7xx_HAL_Driver/Src/stm32h7xx_hal_tim_ex.c ****   * @param  sMasterConfig pointer to a TIM_MasterConfigTypeDef structure that
1986:Drivers/STM32H7xx_HAL_Driver/Src/stm32h7xx_hal_tim_ex.c ****   *         contains the selected trigger output (TRGO) and the Master/Slave
1987:Drivers/STM32H7xx_HAL_Driver/Src/stm32h7xx_hal_tim_ex.c ****   *         mode.
1988:Drivers/STM32H7xx_HAL_Driver/Src/stm32h7xx_hal_tim_ex.c ****   * @retval HAL status
1989:Drivers/STM32H7xx_HAL_Driver/Src/stm32h7xx_hal_tim_ex.c ****   */
1990:Drivers/STM32H7xx_HAL_Driver/Src/stm32h7xx_hal_tim_ex.c **** HAL_StatusTypeDef HAL_TIMEx_MasterConfigSynchronization(TIM_HandleTypeDef *htim,
1991:Drivers/STM32H7xx_HAL_Driver/Src/stm32h7xx_hal_tim_ex.c ****                                                         TIM_MasterConfigTypeDef *sMasterConfig)
1992:Drivers/STM32H7xx_HAL_Driver/Src/stm32h7xx_hal_tim_ex.c **** {
 5958              		.loc 1 1992 1
 5959              		.cfi_startproc
 5960              		@ args = 0, pretend = 0, frame = 16
 5961              		@ frame_needed = 1, uses_anonymous_args = 0
 5962              		@ link register save eliminated.
 5963 0000 80B4     		push	{r7}
 5964              	.LCFI150:
 5965              		.cfi_def_cfa_offset 4
 5966              		.cfi_offset 7, -4
 5967 0002 85B0     		sub	sp, sp, #20
 5968              	.LCFI151:
 5969              		.cfi_def_cfa_offset 24
 5970 0004 00AF     		add	r7, sp, #0
ARM GAS  C:\Users\Su\AppData\Local\Temp\ccm0VnUy.s 			page 140


 5971              	.LCFI152:
 5972              		.cfi_def_cfa_register 7
 5973 0006 7860     		str	r0, [r7, #4]
 5974 0008 3960     		str	r1, [r7]
1993:Drivers/STM32H7xx_HAL_Driver/Src/stm32h7xx_hal_tim_ex.c ****   uint32_t tmpcr2;
1994:Drivers/STM32H7xx_HAL_Driver/Src/stm32h7xx_hal_tim_ex.c ****   uint32_t tmpsmcr;
1995:Drivers/STM32H7xx_HAL_Driver/Src/stm32h7xx_hal_tim_ex.c **** 
1996:Drivers/STM32H7xx_HAL_Driver/Src/stm32h7xx_hal_tim_ex.c ****   /* Check the parameters */
1997:Drivers/STM32H7xx_HAL_Driver/Src/stm32h7xx_hal_tim_ex.c ****   assert_param(IS_TIM_MASTER_INSTANCE(htim->Instance));
1998:Drivers/STM32H7xx_HAL_Driver/Src/stm32h7xx_hal_tim_ex.c ****   assert_param(IS_TIM_TRGO_SOURCE(sMasterConfig->MasterOutputTrigger));
1999:Drivers/STM32H7xx_HAL_Driver/Src/stm32h7xx_hal_tim_ex.c ****   assert_param(IS_TIM_MSM_STATE(sMasterConfig->MasterSlaveMode));
2000:Drivers/STM32H7xx_HAL_Driver/Src/stm32h7xx_hal_tim_ex.c **** 
2001:Drivers/STM32H7xx_HAL_Driver/Src/stm32h7xx_hal_tim_ex.c ****   /* Check input state */
2002:Drivers/STM32H7xx_HAL_Driver/Src/stm32h7xx_hal_tim_ex.c ****   __HAL_LOCK(htim);
 5975              		.loc 1 2002 3
 5976 000a 7B68     		ldr	r3, [r7, #4]
 5977 000c 93F83C30 		ldrb	r3, [r3, #60]	@ zero_extendqisi2
 5978 0010 012B     		cmp	r3, #1
 5979 0012 01D1     		bne	.L362
 5980              		.loc 1 2002 3 is_stmt 0 discriminator 1
 5981 0014 0223     		movs	r3, #2
 5982 0016 77E0     		b	.L363
 5983              	.L362:
 5984              		.loc 1 2002 3 discriminator 2
 5985 0018 7B68     		ldr	r3, [r7, #4]
 5986 001a 0122     		movs	r2, #1
 5987 001c 83F83C20 		strb	r2, [r3, #60]
2003:Drivers/STM32H7xx_HAL_Driver/Src/stm32h7xx_hal_tim_ex.c **** 
2004:Drivers/STM32H7xx_HAL_Driver/Src/stm32h7xx_hal_tim_ex.c ****   /* Change the handler state */
2005:Drivers/STM32H7xx_HAL_Driver/Src/stm32h7xx_hal_tim_ex.c ****   htim->State = HAL_TIM_STATE_BUSY;
 5988              		.loc 1 2005 15 is_stmt 1 discriminator 2
 5989 0020 7B68     		ldr	r3, [r7, #4]
 5990 0022 0222     		movs	r2, #2
 5991 0024 83F83D20 		strb	r2, [r3, #61]
2006:Drivers/STM32H7xx_HAL_Driver/Src/stm32h7xx_hal_tim_ex.c **** 
2007:Drivers/STM32H7xx_HAL_Driver/Src/stm32h7xx_hal_tim_ex.c ****   /* Get the TIMx CR2 register value */
2008:Drivers/STM32H7xx_HAL_Driver/Src/stm32h7xx_hal_tim_ex.c ****   tmpcr2 = htim->Instance->CR2;
 5992              		.loc 1 2008 16 discriminator 2
 5993 0028 7B68     		ldr	r3, [r7, #4]
 5994 002a 1B68     		ldr	r3, [r3]
 5995              		.loc 1 2008 10 discriminator 2
 5996 002c 5B68     		ldr	r3, [r3, #4]
 5997 002e FB60     		str	r3, [r7, #12]
2009:Drivers/STM32H7xx_HAL_Driver/Src/stm32h7xx_hal_tim_ex.c **** 
2010:Drivers/STM32H7xx_HAL_Driver/Src/stm32h7xx_hal_tim_ex.c ****   /* Get the TIMx SMCR register value */
2011:Drivers/STM32H7xx_HAL_Driver/Src/stm32h7xx_hal_tim_ex.c ****   tmpsmcr = htim->Instance->SMCR;
 5998              		.loc 1 2011 17 discriminator 2
 5999 0030 7B68     		ldr	r3, [r7, #4]
 6000 0032 1B68     		ldr	r3, [r3]
 6001              		.loc 1 2011 11 discriminator 2
 6002 0034 9B68     		ldr	r3, [r3, #8]
 6003 0036 BB60     		str	r3, [r7, #8]
2012:Drivers/STM32H7xx_HAL_Driver/Src/stm32h7xx_hal_tim_ex.c **** 
2013:Drivers/STM32H7xx_HAL_Driver/Src/stm32h7xx_hal_tim_ex.c ****   /* If the timer supports ADC synchronization through TRGO2, set the master mode selection 2 */
2014:Drivers/STM32H7xx_HAL_Driver/Src/stm32h7xx_hal_tim_ex.c ****   if (IS_TIM_TRGO2_INSTANCE(htim->Instance))
 6004              		.loc 1 2014 7 discriminator 2
 6005 0038 7B68     		ldr	r3, [r7, #4]
ARM GAS  C:\Users\Su\AppData\Local\Temp\ccm0VnUy.s 			page 141


 6006 003a 1B68     		ldr	r3, [r3]
 6007              		.loc 1 2014 6 discriminator 2
 6008 003c 354A     		ldr	r2, .L368
 6009 003e 9342     		cmp	r3, r2
 6010 0040 04D0     		beq	.L364
 6011              		.loc 1 2014 7 discriminator 1
 6012 0042 7B68     		ldr	r3, [r7, #4]
 6013 0044 1B68     		ldr	r3, [r3]
 6014 0046 344A     		ldr	r2, .L368+4
 6015 0048 9342     		cmp	r3, r2
 6016 004a 08D1     		bne	.L365
 6017              	.L364:
2015:Drivers/STM32H7xx_HAL_Driver/Src/stm32h7xx_hal_tim_ex.c ****   {
2016:Drivers/STM32H7xx_HAL_Driver/Src/stm32h7xx_hal_tim_ex.c ****     /* Check the parameters */
2017:Drivers/STM32H7xx_HAL_Driver/Src/stm32h7xx_hal_tim_ex.c ****     assert_param(IS_TIM_TRGO2_SOURCE(sMasterConfig->MasterOutputTrigger2));
2018:Drivers/STM32H7xx_HAL_Driver/Src/stm32h7xx_hal_tim_ex.c **** 
2019:Drivers/STM32H7xx_HAL_Driver/Src/stm32h7xx_hal_tim_ex.c ****     /* Clear the MMS2 bits */
2020:Drivers/STM32H7xx_HAL_Driver/Src/stm32h7xx_hal_tim_ex.c ****     tmpcr2 &= ~TIM_CR2_MMS2;
 6018              		.loc 1 2020 12
 6019 004c FB68     		ldr	r3, [r7, #12]
 6020 004e 23F47003 		bic	r3, r3, #15728640
 6021 0052 FB60     		str	r3, [r7, #12]
2021:Drivers/STM32H7xx_HAL_Driver/Src/stm32h7xx_hal_tim_ex.c ****     /* Select the TRGO2 source*/
2022:Drivers/STM32H7xx_HAL_Driver/Src/stm32h7xx_hal_tim_ex.c ****     tmpcr2 |= sMasterConfig->MasterOutputTrigger2;
 6022              		.loc 1 2022 28
 6023 0054 3B68     		ldr	r3, [r7]
 6024 0056 5B68     		ldr	r3, [r3, #4]
 6025              		.loc 1 2022 12
 6026 0058 FA68     		ldr	r2, [r7, #12]
 6027 005a 1343     		orrs	r3, r3, r2
 6028 005c FB60     		str	r3, [r7, #12]
 6029              	.L365:
2023:Drivers/STM32H7xx_HAL_Driver/Src/stm32h7xx_hal_tim_ex.c ****   }
2024:Drivers/STM32H7xx_HAL_Driver/Src/stm32h7xx_hal_tim_ex.c **** 
2025:Drivers/STM32H7xx_HAL_Driver/Src/stm32h7xx_hal_tim_ex.c ****   /* Reset the MMS Bits */
2026:Drivers/STM32H7xx_HAL_Driver/Src/stm32h7xx_hal_tim_ex.c ****   tmpcr2 &= ~TIM_CR2_MMS;
 6030              		.loc 1 2026 10
 6031 005e FB68     		ldr	r3, [r7, #12]
 6032 0060 23F07003 		bic	r3, r3, #112
 6033 0064 FB60     		str	r3, [r7, #12]
2027:Drivers/STM32H7xx_HAL_Driver/Src/stm32h7xx_hal_tim_ex.c ****   /* Select the TRGO source */
2028:Drivers/STM32H7xx_HAL_Driver/Src/stm32h7xx_hal_tim_ex.c ****   tmpcr2 |=  sMasterConfig->MasterOutputTrigger;
 6034              		.loc 1 2028 27
 6035 0066 3B68     		ldr	r3, [r7]
 6036 0068 1B68     		ldr	r3, [r3]
 6037              		.loc 1 2028 10
 6038 006a FA68     		ldr	r2, [r7, #12]
 6039 006c 1343     		orrs	r3, r3, r2
 6040 006e FB60     		str	r3, [r7, #12]
2029:Drivers/STM32H7xx_HAL_Driver/Src/stm32h7xx_hal_tim_ex.c **** 
2030:Drivers/STM32H7xx_HAL_Driver/Src/stm32h7xx_hal_tim_ex.c ****   /* Update TIMx CR2 */
2031:Drivers/STM32H7xx_HAL_Driver/Src/stm32h7xx_hal_tim_ex.c ****   htim->Instance->CR2 = tmpcr2;
 6041              		.loc 1 2031 7
 6042 0070 7B68     		ldr	r3, [r7, #4]
 6043 0072 1B68     		ldr	r3, [r3]
 6044              		.loc 1 2031 23
 6045 0074 FA68     		ldr	r2, [r7, #12]
ARM GAS  C:\Users\Su\AppData\Local\Temp\ccm0VnUy.s 			page 142


 6046 0076 5A60     		str	r2, [r3, #4]
2032:Drivers/STM32H7xx_HAL_Driver/Src/stm32h7xx_hal_tim_ex.c **** 
2033:Drivers/STM32H7xx_HAL_Driver/Src/stm32h7xx_hal_tim_ex.c ****   if (IS_TIM_SLAVE_INSTANCE(htim->Instance))
 6047              		.loc 1 2033 7
 6048 0078 7B68     		ldr	r3, [r7, #4]
 6049 007a 1B68     		ldr	r3, [r3]
 6050              		.loc 1 2033 6
 6051 007c 254A     		ldr	r2, .L368
 6052 007e 9342     		cmp	r3, r2
 6053 0080 2CD0     		beq	.L366
 6054              		.loc 1 2033 7 discriminator 1
 6055 0082 7B68     		ldr	r3, [r7, #4]
 6056 0084 1B68     		ldr	r3, [r3]
 6057 0086 B3F1804F 		cmp	r3, #1073741824
 6058 008a 27D0     		beq	.L366
 6059              		.loc 1 2033 7 is_stmt 0 discriminator 2
 6060 008c 7B68     		ldr	r3, [r7, #4]
 6061 008e 1B68     		ldr	r3, [r3]
 6062 0090 224A     		ldr	r2, .L368+8
 6063 0092 9342     		cmp	r3, r2
 6064 0094 22D0     		beq	.L366
 6065              		.loc 1 2033 7 discriminator 3
 6066 0096 7B68     		ldr	r3, [r7, #4]
 6067 0098 1B68     		ldr	r3, [r3]
 6068 009a 214A     		ldr	r2, .L368+12
 6069 009c 9342     		cmp	r3, r2
 6070 009e 1DD0     		beq	.L366
 6071              		.loc 1 2033 7 discriminator 4
 6072 00a0 7B68     		ldr	r3, [r7, #4]
 6073 00a2 1B68     		ldr	r3, [r3]
 6074 00a4 1F4A     		ldr	r2, .L368+16
 6075 00a6 9342     		cmp	r3, r2
 6076 00a8 18D0     		beq	.L366
 6077              		.loc 1 2033 7 discriminator 5
 6078 00aa 7B68     		ldr	r3, [r7, #4]
 6079 00ac 1B68     		ldr	r3, [r3]
 6080 00ae 1A4A     		ldr	r2, .L368+4
 6081 00b0 9342     		cmp	r3, r2
 6082 00b2 13D0     		beq	.L366
 6083              		.loc 1 2033 7 discriminator 6
 6084 00b4 7B68     		ldr	r3, [r7, #4]
 6085 00b6 1B68     		ldr	r3, [r3]
 6086 00b8 1B4A     		ldr	r2, .L368+20
 6087 00ba 9342     		cmp	r3, r2
 6088 00bc 0ED0     		beq	.L366
 6089              		.loc 1 2033 7 discriminator 7
 6090 00be 7B68     		ldr	r3, [r7, #4]
 6091 00c0 1B68     		ldr	r3, [r3]
 6092 00c2 1A4A     		ldr	r2, .L368+24
 6093 00c4 9342     		cmp	r3, r2
 6094 00c6 09D0     		beq	.L366
 6095              		.loc 1 2033 7 discriminator 8
 6096 00c8 7B68     		ldr	r3, [r7, #4]
 6097 00ca 1B68     		ldr	r3, [r3]
 6098 00cc 184A     		ldr	r2, .L368+28
 6099 00ce 9342     		cmp	r3, r2
 6100 00d0 04D0     		beq	.L366
ARM GAS  C:\Users\Su\AppData\Local\Temp\ccm0VnUy.s 			page 143


 6101              		.loc 1 2033 7 discriminator 9
 6102 00d2 7B68     		ldr	r3, [r7, #4]
 6103 00d4 1B68     		ldr	r3, [r3]
 6104 00d6 174A     		ldr	r2, .L368+32
 6105 00d8 9342     		cmp	r3, r2
 6106 00da 0CD1     		bne	.L367
 6107              	.L366:
2034:Drivers/STM32H7xx_HAL_Driver/Src/stm32h7xx_hal_tim_ex.c ****   {
2035:Drivers/STM32H7xx_HAL_Driver/Src/stm32h7xx_hal_tim_ex.c ****     /* Reset the MSM Bit */
2036:Drivers/STM32H7xx_HAL_Driver/Src/stm32h7xx_hal_tim_ex.c ****     tmpsmcr &= ~TIM_SMCR_MSM;
 6108              		.loc 1 2036 13 is_stmt 1
 6109 00dc BB68     		ldr	r3, [r7, #8]
 6110 00de 23F08003 		bic	r3, r3, #128
 6111 00e2 BB60     		str	r3, [r7, #8]
2037:Drivers/STM32H7xx_HAL_Driver/Src/stm32h7xx_hal_tim_ex.c ****     /* Set master mode */
2038:Drivers/STM32H7xx_HAL_Driver/Src/stm32h7xx_hal_tim_ex.c ****     tmpsmcr |= sMasterConfig->MasterSlaveMode;
 6112              		.loc 1 2038 29
 6113 00e4 3B68     		ldr	r3, [r7]
 6114 00e6 9B68     		ldr	r3, [r3, #8]
 6115              		.loc 1 2038 13
 6116 00e8 BA68     		ldr	r2, [r7, #8]
 6117 00ea 1343     		orrs	r3, r3, r2
 6118 00ec BB60     		str	r3, [r7, #8]
2039:Drivers/STM32H7xx_HAL_Driver/Src/stm32h7xx_hal_tim_ex.c **** 
2040:Drivers/STM32H7xx_HAL_Driver/Src/stm32h7xx_hal_tim_ex.c ****     /* Update TIMx SMCR */
2041:Drivers/STM32H7xx_HAL_Driver/Src/stm32h7xx_hal_tim_ex.c ****     htim->Instance->SMCR = tmpsmcr;
 6119              		.loc 1 2041 9
 6120 00ee 7B68     		ldr	r3, [r7, #4]
 6121 00f0 1B68     		ldr	r3, [r3]
 6122              		.loc 1 2041 26
 6123 00f2 BA68     		ldr	r2, [r7, #8]
 6124 00f4 9A60     		str	r2, [r3, #8]
 6125              	.L367:
2042:Drivers/STM32H7xx_HAL_Driver/Src/stm32h7xx_hal_tim_ex.c ****   }
2043:Drivers/STM32H7xx_HAL_Driver/Src/stm32h7xx_hal_tim_ex.c **** 
2044:Drivers/STM32H7xx_HAL_Driver/Src/stm32h7xx_hal_tim_ex.c ****   /* Change the htim state */
2045:Drivers/STM32H7xx_HAL_Driver/Src/stm32h7xx_hal_tim_ex.c ****   htim->State = HAL_TIM_STATE_READY;
 6126              		.loc 1 2045 15
 6127 00f6 7B68     		ldr	r3, [r7, #4]
 6128 00f8 0122     		movs	r2, #1
 6129 00fa 83F83D20 		strb	r2, [r3, #61]
2046:Drivers/STM32H7xx_HAL_Driver/Src/stm32h7xx_hal_tim_ex.c **** 
2047:Drivers/STM32H7xx_HAL_Driver/Src/stm32h7xx_hal_tim_ex.c ****   __HAL_UNLOCK(htim);
 6130              		.loc 1 2047 3
 6131 00fe 7B68     		ldr	r3, [r7, #4]
 6132 0100 0022     		movs	r2, #0
 6133 0102 83F83C20 		strb	r2, [r3, #60]
2048:Drivers/STM32H7xx_HAL_Driver/Src/stm32h7xx_hal_tim_ex.c **** 
2049:Drivers/STM32H7xx_HAL_Driver/Src/stm32h7xx_hal_tim_ex.c ****   return HAL_OK;
 6134              		.loc 1 2049 10
 6135 0106 0023     		movs	r3, #0
 6136              	.L363:
2050:Drivers/STM32H7xx_HAL_Driver/Src/stm32h7xx_hal_tim_ex.c **** }
 6137              		.loc 1 2050 1
 6138 0108 1846     		mov	r0, r3
 6139 010a 1437     		adds	r7, r7, #20
 6140              	.LCFI153:
ARM GAS  C:\Users\Su\AppData\Local\Temp\ccm0VnUy.s 			page 144


 6141              		.cfi_def_cfa_offset 4
 6142 010c BD46     		mov	sp, r7
 6143              	.LCFI154:
 6144              		.cfi_def_cfa_register 13
 6145              		@ sp needed
 6146 010e 5DF8047B 		ldr	r7, [sp], #4
 6147              	.LCFI155:
 6148              		.cfi_restore 7
 6149              		.cfi_def_cfa_offset 0
 6150 0112 7047     		bx	lr
 6151              	.L369:
 6152              		.align	2
 6153              	.L368:
 6154 0114 00000140 		.word	1073807360
 6155 0118 00040140 		.word	1073808384
 6156 011c 00040040 		.word	1073742848
 6157 0120 00080040 		.word	1073743872
 6158 0124 000C0040 		.word	1073744896
 6159 0128 00180040 		.word	1073747968
 6160 012c 00400140 		.word	1073823744
 6161 0130 00E00040 		.word	1073799168
 6162 0134 00E40040 		.word	1073800192
 6163              		.cfi_endproc
 6164              	.LFE173:
 6166              		.section	.text.HAL_TIMEx_ConfigBreakDeadTime,"ax",%progbits
 6167              		.align	1
 6168              		.global	HAL_TIMEx_ConfigBreakDeadTime
 6169              		.syntax unified
 6170              		.thumb
 6171              		.thumb_func
 6173              	HAL_TIMEx_ConfigBreakDeadTime:
 6174              	.LFB174:
2051:Drivers/STM32H7xx_HAL_Driver/Src/stm32h7xx_hal_tim_ex.c **** 
2052:Drivers/STM32H7xx_HAL_Driver/Src/stm32h7xx_hal_tim_ex.c **** /**
2053:Drivers/STM32H7xx_HAL_Driver/Src/stm32h7xx_hal_tim_ex.c ****   * @brief  Configures the Break feature, dead time, Lock level, OSSI/OSSR State
2054:Drivers/STM32H7xx_HAL_Driver/Src/stm32h7xx_hal_tim_ex.c ****   *         and the AOE(automatic output enable).
2055:Drivers/STM32H7xx_HAL_Driver/Src/stm32h7xx_hal_tim_ex.c ****   * @param  htim TIM handle
2056:Drivers/STM32H7xx_HAL_Driver/Src/stm32h7xx_hal_tim_ex.c ****   * @param  sBreakDeadTimeConfig pointer to a TIM_ConfigBreakDeadConfigTypeDef structure that
2057:Drivers/STM32H7xx_HAL_Driver/Src/stm32h7xx_hal_tim_ex.c ****   *         contains the BDTR Register configuration  information for the TIM peripheral.
2058:Drivers/STM32H7xx_HAL_Driver/Src/stm32h7xx_hal_tim_ex.c ****   * @note   Interrupts can be generated when an active level is detected on the
2059:Drivers/STM32H7xx_HAL_Driver/Src/stm32h7xx_hal_tim_ex.c ****   *         break input, the break 2 input or the system break input. Break
2060:Drivers/STM32H7xx_HAL_Driver/Src/stm32h7xx_hal_tim_ex.c ****   *         interrupt can be enabled by calling the @ref __HAL_TIM_ENABLE_IT macro.
2061:Drivers/STM32H7xx_HAL_Driver/Src/stm32h7xx_hal_tim_ex.c ****   * @retval HAL status
2062:Drivers/STM32H7xx_HAL_Driver/Src/stm32h7xx_hal_tim_ex.c ****   */
2063:Drivers/STM32H7xx_HAL_Driver/Src/stm32h7xx_hal_tim_ex.c **** HAL_StatusTypeDef HAL_TIMEx_ConfigBreakDeadTime(TIM_HandleTypeDef *htim,
2064:Drivers/STM32H7xx_HAL_Driver/Src/stm32h7xx_hal_tim_ex.c ****                                                 TIM_BreakDeadTimeConfigTypeDef *sBreakDeadTimeConfi
2065:Drivers/STM32H7xx_HAL_Driver/Src/stm32h7xx_hal_tim_ex.c **** {
 6175              		.loc 1 2065 1
 6176              		.cfi_startproc
 6177              		@ args = 0, pretend = 0, frame = 16
 6178              		@ frame_needed = 1, uses_anonymous_args = 0
 6179              		@ link register save eliminated.
 6180 0000 80B4     		push	{r7}
 6181              	.LCFI156:
 6182              		.cfi_def_cfa_offset 4
 6183              		.cfi_offset 7, -4
 6184 0002 85B0     		sub	sp, sp, #20
ARM GAS  C:\Users\Su\AppData\Local\Temp\ccm0VnUy.s 			page 145


 6185              	.LCFI157:
 6186              		.cfi_def_cfa_offset 24
 6187 0004 00AF     		add	r7, sp, #0
 6188              	.LCFI158:
 6189              		.cfi_def_cfa_register 7
 6190 0006 7860     		str	r0, [r7, #4]
 6191 0008 3960     		str	r1, [r7]
2066:Drivers/STM32H7xx_HAL_Driver/Src/stm32h7xx_hal_tim_ex.c ****   /* Keep this variable initialized to 0 as it is used to configure BDTR register */
2067:Drivers/STM32H7xx_HAL_Driver/Src/stm32h7xx_hal_tim_ex.c ****   uint32_t tmpbdtr = 0U;
 6192              		.loc 1 2067 12
 6193 000a 0023     		movs	r3, #0
 6194 000c FB60     		str	r3, [r7, #12]
2068:Drivers/STM32H7xx_HAL_Driver/Src/stm32h7xx_hal_tim_ex.c **** 
2069:Drivers/STM32H7xx_HAL_Driver/Src/stm32h7xx_hal_tim_ex.c ****   /* Check the parameters */
2070:Drivers/STM32H7xx_HAL_Driver/Src/stm32h7xx_hal_tim_ex.c ****   assert_param(IS_TIM_BREAK_INSTANCE(htim->Instance));
2071:Drivers/STM32H7xx_HAL_Driver/Src/stm32h7xx_hal_tim_ex.c ****   assert_param(IS_TIM_OSSR_STATE(sBreakDeadTimeConfig->OffStateRunMode));
2072:Drivers/STM32H7xx_HAL_Driver/Src/stm32h7xx_hal_tim_ex.c ****   assert_param(IS_TIM_OSSI_STATE(sBreakDeadTimeConfig->OffStateIDLEMode));
2073:Drivers/STM32H7xx_HAL_Driver/Src/stm32h7xx_hal_tim_ex.c ****   assert_param(IS_TIM_LOCK_LEVEL(sBreakDeadTimeConfig->LockLevel));
2074:Drivers/STM32H7xx_HAL_Driver/Src/stm32h7xx_hal_tim_ex.c ****   assert_param(IS_TIM_DEADTIME(sBreakDeadTimeConfig->DeadTime));
2075:Drivers/STM32H7xx_HAL_Driver/Src/stm32h7xx_hal_tim_ex.c ****   assert_param(IS_TIM_BREAK_STATE(sBreakDeadTimeConfig->BreakState));
2076:Drivers/STM32H7xx_HAL_Driver/Src/stm32h7xx_hal_tim_ex.c ****   assert_param(IS_TIM_BREAK_POLARITY(sBreakDeadTimeConfig->BreakPolarity));
2077:Drivers/STM32H7xx_HAL_Driver/Src/stm32h7xx_hal_tim_ex.c ****   assert_param(IS_TIM_BREAK_FILTER(sBreakDeadTimeConfig->BreakFilter));
2078:Drivers/STM32H7xx_HAL_Driver/Src/stm32h7xx_hal_tim_ex.c ****   assert_param(IS_TIM_AUTOMATIC_OUTPUT_STATE(sBreakDeadTimeConfig->AutomaticOutput));
2079:Drivers/STM32H7xx_HAL_Driver/Src/stm32h7xx_hal_tim_ex.c **** 
2080:Drivers/STM32H7xx_HAL_Driver/Src/stm32h7xx_hal_tim_ex.c ****   /* Check input state */
2081:Drivers/STM32H7xx_HAL_Driver/Src/stm32h7xx_hal_tim_ex.c ****   __HAL_LOCK(htim);
 6195              		.loc 1 2081 3
 6196 000e 7B68     		ldr	r3, [r7, #4]
 6197 0010 93F83C30 		ldrb	r3, [r3, #60]	@ zero_extendqisi2
 6198 0014 012B     		cmp	r3, #1
 6199 0016 01D1     		bne	.L371
 6200              		.loc 1 2081 3 is_stmt 0 discriminator 1
 6201 0018 0223     		movs	r3, #2
 6202 001a 87E0     		b	.L372
 6203              	.L371:
 6204              		.loc 1 2081 3 discriminator 2
 6205 001c 7B68     		ldr	r3, [r7, #4]
 6206 001e 0122     		movs	r2, #1
 6207 0020 83F83C20 		strb	r2, [r3, #60]
2082:Drivers/STM32H7xx_HAL_Driver/Src/stm32h7xx_hal_tim_ex.c **** 
2083:Drivers/STM32H7xx_HAL_Driver/Src/stm32h7xx_hal_tim_ex.c ****   /* Set the Lock level, the Break enable Bit and the Polarity, the OSSR State,
2084:Drivers/STM32H7xx_HAL_Driver/Src/stm32h7xx_hal_tim_ex.c ****      the OSSI State, the dead time value and the Automatic Output Enable Bit */
2085:Drivers/STM32H7xx_HAL_Driver/Src/stm32h7xx_hal_tim_ex.c **** 
2086:Drivers/STM32H7xx_HAL_Driver/Src/stm32h7xx_hal_tim_ex.c ****   /* Set the BDTR bits */
2087:Drivers/STM32H7xx_HAL_Driver/Src/stm32h7xx_hal_tim_ex.c ****   MODIFY_REG(tmpbdtr, TIM_BDTR_DTG, sBreakDeadTimeConfig->DeadTime);
 6208              		.loc 1 2087 3 is_stmt 1 discriminator 2
 6209 0024 FB68     		ldr	r3, [r7, #12]
 6210 0026 23F0FF02 		bic	r2, r3, #255
 6211 002a 3B68     		ldr	r3, [r7]
 6212 002c DB68     		ldr	r3, [r3, #12]
 6213 002e 1343     		orrs	r3, r3, r2
 6214 0030 FB60     		str	r3, [r7, #12]
2088:Drivers/STM32H7xx_HAL_Driver/Src/stm32h7xx_hal_tim_ex.c ****   MODIFY_REG(tmpbdtr, TIM_BDTR_LOCK, sBreakDeadTimeConfig->LockLevel);
 6215              		.loc 1 2088 3 discriminator 2
 6216 0032 FB68     		ldr	r3, [r7, #12]
 6217 0034 23F44072 		bic	r2, r3, #768
 6218 0038 3B68     		ldr	r3, [r7]
ARM GAS  C:\Users\Su\AppData\Local\Temp\ccm0VnUy.s 			page 146


 6219 003a 9B68     		ldr	r3, [r3, #8]
 6220 003c 1343     		orrs	r3, r3, r2
 6221 003e FB60     		str	r3, [r7, #12]
2089:Drivers/STM32H7xx_HAL_Driver/Src/stm32h7xx_hal_tim_ex.c ****   MODIFY_REG(tmpbdtr, TIM_BDTR_OSSI, sBreakDeadTimeConfig->OffStateIDLEMode);
 6222              		.loc 1 2089 3 discriminator 2
 6223 0040 FB68     		ldr	r3, [r7, #12]
 6224 0042 23F48062 		bic	r2, r3, #1024
 6225 0046 3B68     		ldr	r3, [r7]
 6226 0048 5B68     		ldr	r3, [r3, #4]
 6227 004a 1343     		orrs	r3, r3, r2
 6228 004c FB60     		str	r3, [r7, #12]
2090:Drivers/STM32H7xx_HAL_Driver/Src/stm32h7xx_hal_tim_ex.c ****   MODIFY_REG(tmpbdtr, TIM_BDTR_OSSR, sBreakDeadTimeConfig->OffStateRunMode);
 6229              		.loc 1 2090 3 discriminator 2
 6230 004e FB68     		ldr	r3, [r7, #12]
 6231 0050 23F40062 		bic	r2, r3, #2048
 6232 0054 3B68     		ldr	r3, [r7]
 6233 0056 1B68     		ldr	r3, [r3]
 6234 0058 1343     		orrs	r3, r3, r2
 6235 005a FB60     		str	r3, [r7, #12]
2091:Drivers/STM32H7xx_HAL_Driver/Src/stm32h7xx_hal_tim_ex.c ****   MODIFY_REG(tmpbdtr, TIM_BDTR_BKE, sBreakDeadTimeConfig->BreakState);
 6236              		.loc 1 2091 3 discriminator 2
 6237 005c FB68     		ldr	r3, [r7, #12]
 6238 005e 23F48052 		bic	r2, r3, #4096
 6239 0062 3B68     		ldr	r3, [r7]
 6240 0064 1B69     		ldr	r3, [r3, #16]
 6241 0066 1343     		orrs	r3, r3, r2
 6242 0068 FB60     		str	r3, [r7, #12]
2092:Drivers/STM32H7xx_HAL_Driver/Src/stm32h7xx_hal_tim_ex.c ****   MODIFY_REG(tmpbdtr, TIM_BDTR_BKP, sBreakDeadTimeConfig->BreakPolarity);
 6243              		.loc 1 2092 3 discriminator 2
 6244 006a FB68     		ldr	r3, [r7, #12]
 6245 006c 23F40052 		bic	r2, r3, #8192
 6246 0070 3B68     		ldr	r3, [r7]
 6247 0072 5B69     		ldr	r3, [r3, #20]
 6248 0074 1343     		orrs	r3, r3, r2
 6249 0076 FB60     		str	r3, [r7, #12]
2093:Drivers/STM32H7xx_HAL_Driver/Src/stm32h7xx_hal_tim_ex.c ****   MODIFY_REG(tmpbdtr, TIM_BDTR_AOE, sBreakDeadTimeConfig->AutomaticOutput);
 6250              		.loc 1 2093 3 discriminator 2
 6251 0078 FB68     		ldr	r3, [r7, #12]
 6252 007a 23F48042 		bic	r2, r3, #16384
 6253 007e 3B68     		ldr	r3, [r7]
 6254 0080 1B6B     		ldr	r3, [r3, #48]
 6255 0082 1343     		orrs	r3, r3, r2
 6256 0084 FB60     		str	r3, [r7, #12]
2094:Drivers/STM32H7xx_HAL_Driver/Src/stm32h7xx_hal_tim_ex.c ****   MODIFY_REG(tmpbdtr, TIM_BDTR_BKF, (sBreakDeadTimeConfig->BreakFilter << TIM_BDTR_BKF_Pos));
 6257              		.loc 1 2094 3 discriminator 2
 6258 0086 FB68     		ldr	r3, [r7, #12]
 6259 0088 23F47022 		bic	r2, r3, #983040
 6260 008c 3B68     		ldr	r3, [r7]
 6261 008e 9B69     		ldr	r3, [r3, #24]
 6262 0090 1B04     		lsls	r3, r3, #16
 6263 0092 1343     		orrs	r3, r3, r2
 6264 0094 FB60     		str	r3, [r7, #12]
2095:Drivers/STM32H7xx_HAL_Driver/Src/stm32h7xx_hal_tim_ex.c **** 
2096:Drivers/STM32H7xx_HAL_Driver/Src/stm32h7xx_hal_tim_ex.c **** #if defined(TIM_BDTR_BKBID)
2097:Drivers/STM32H7xx_HAL_Driver/Src/stm32h7xx_hal_tim_ex.c ****   if (IS_TIM_ADVANCED_INSTANCE(htim->Instance))
 6265              		.loc 1 2097 7 discriminator 2
 6266 0096 7B68     		ldr	r3, [r7, #4]
ARM GAS  C:\Users\Su\AppData\Local\Temp\ccm0VnUy.s 			page 147


 6267 0098 1B68     		ldr	r3, [r3]
 6268              		.loc 1 2097 6 discriminator 2
 6269 009a 274A     		ldr	r2, .L378
 6270 009c 9342     		cmp	r3, r2
 6271 009e 04D0     		beq	.L373
 6272              		.loc 1 2097 7 discriminator 1
 6273 00a0 7B68     		ldr	r3, [r7, #4]
 6274 00a2 1B68     		ldr	r3, [r3]
 6275 00a4 254A     		ldr	r2, .L378+4
 6276 00a6 9342     		cmp	r3, r2
 6277 00a8 06D1     		bne	.L374
 6278              	.L373:
2098:Drivers/STM32H7xx_HAL_Driver/Src/stm32h7xx_hal_tim_ex.c ****   {
2099:Drivers/STM32H7xx_HAL_Driver/Src/stm32h7xx_hal_tim_ex.c ****     /* Check the parameters */
2100:Drivers/STM32H7xx_HAL_Driver/Src/stm32h7xx_hal_tim_ex.c ****     assert_param(IS_TIM_BREAK_AFMODE(sBreakDeadTimeConfig->BreakAFMode));
2101:Drivers/STM32H7xx_HAL_Driver/Src/stm32h7xx_hal_tim_ex.c **** 
2102:Drivers/STM32H7xx_HAL_Driver/Src/stm32h7xx_hal_tim_ex.c ****     /* Set BREAK AF mode */
2103:Drivers/STM32H7xx_HAL_Driver/Src/stm32h7xx_hal_tim_ex.c ****     MODIFY_REG(tmpbdtr, TIM_BDTR_BKBID, sBreakDeadTimeConfig->BreakAFMode);
 6279              		.loc 1 2103 5
 6280 00aa FB68     		ldr	r3, [r7, #12]
 6281 00ac 23F08052 		bic	r2, r3, #268435456
 6282 00b0 3B68     		ldr	r3, [r7]
 6283 00b2 DB69     		ldr	r3, [r3, #28]
 6284 00b4 1343     		orrs	r3, r3, r2
 6285 00b6 FB60     		str	r3, [r7, #12]
 6286              	.L374:
2104:Drivers/STM32H7xx_HAL_Driver/Src/stm32h7xx_hal_tim_ex.c ****   }
2105:Drivers/STM32H7xx_HAL_Driver/Src/stm32h7xx_hal_tim_ex.c **** 
2106:Drivers/STM32H7xx_HAL_Driver/Src/stm32h7xx_hal_tim_ex.c **** #endif /* TIM_BDTR_BKBID */
2107:Drivers/STM32H7xx_HAL_Driver/Src/stm32h7xx_hal_tim_ex.c ****   if (IS_TIM_BKIN2_INSTANCE(htim->Instance))
 6287              		.loc 1 2107 7
 6288 00b8 7B68     		ldr	r3, [r7, #4]
 6289 00ba 1B68     		ldr	r3, [r3]
 6290              		.loc 1 2107 6
 6291 00bc 1E4A     		ldr	r2, .L378
 6292 00be 9342     		cmp	r3, r2
 6293 00c0 04D0     		beq	.L375
 6294              		.loc 1 2107 7 discriminator 1
 6295 00c2 7B68     		ldr	r3, [r7, #4]
 6296 00c4 1B68     		ldr	r3, [r3]
 6297 00c6 1D4A     		ldr	r2, .L378+4
 6298 00c8 9342     		cmp	r3, r2
 6299 00ca 26D1     		bne	.L376
 6300              	.L375:
2108:Drivers/STM32H7xx_HAL_Driver/Src/stm32h7xx_hal_tim_ex.c ****   {
2109:Drivers/STM32H7xx_HAL_Driver/Src/stm32h7xx_hal_tim_ex.c ****     /* Check the parameters */
2110:Drivers/STM32H7xx_HAL_Driver/Src/stm32h7xx_hal_tim_ex.c ****     assert_param(IS_TIM_BREAK2_STATE(sBreakDeadTimeConfig->Break2State));
2111:Drivers/STM32H7xx_HAL_Driver/Src/stm32h7xx_hal_tim_ex.c ****     assert_param(IS_TIM_BREAK2_POLARITY(sBreakDeadTimeConfig->Break2Polarity));
2112:Drivers/STM32H7xx_HAL_Driver/Src/stm32h7xx_hal_tim_ex.c ****     assert_param(IS_TIM_BREAK_FILTER(sBreakDeadTimeConfig->Break2Filter));
2113:Drivers/STM32H7xx_HAL_Driver/Src/stm32h7xx_hal_tim_ex.c **** 
2114:Drivers/STM32H7xx_HAL_Driver/Src/stm32h7xx_hal_tim_ex.c ****     /* Set the BREAK2 input related BDTR bits */
2115:Drivers/STM32H7xx_HAL_Driver/Src/stm32h7xx_hal_tim_ex.c ****     MODIFY_REG(tmpbdtr, TIM_BDTR_BK2F, (sBreakDeadTimeConfig->Break2Filter << TIM_BDTR_BK2F_Pos));
 6301              		.loc 1 2115 5
 6302 00cc FB68     		ldr	r3, [r7, #12]
 6303 00ce 23F47002 		bic	r2, r3, #15728640
 6304 00d2 3B68     		ldr	r3, [r7]
 6305 00d4 9B6A     		ldr	r3, [r3, #40]
ARM GAS  C:\Users\Su\AppData\Local\Temp\ccm0VnUy.s 			page 148


 6306 00d6 1B05     		lsls	r3, r3, #20
 6307 00d8 1343     		orrs	r3, r3, r2
 6308 00da FB60     		str	r3, [r7, #12]
2116:Drivers/STM32H7xx_HAL_Driver/Src/stm32h7xx_hal_tim_ex.c ****     MODIFY_REG(tmpbdtr, TIM_BDTR_BK2E, sBreakDeadTimeConfig->Break2State);
 6309              		.loc 1 2116 5
 6310 00dc FB68     		ldr	r3, [r7, #12]
 6311 00de 23F08072 		bic	r2, r3, #16777216
 6312 00e2 3B68     		ldr	r3, [r7]
 6313 00e4 1B6A     		ldr	r3, [r3, #32]
 6314 00e6 1343     		orrs	r3, r3, r2
 6315 00e8 FB60     		str	r3, [r7, #12]
2117:Drivers/STM32H7xx_HAL_Driver/Src/stm32h7xx_hal_tim_ex.c ****     MODIFY_REG(tmpbdtr, TIM_BDTR_BK2P, sBreakDeadTimeConfig->Break2Polarity);
 6316              		.loc 1 2117 5
 6317 00ea FB68     		ldr	r3, [r7, #12]
 6318 00ec 23F00072 		bic	r2, r3, #33554432
 6319 00f0 3B68     		ldr	r3, [r7]
 6320 00f2 5B6A     		ldr	r3, [r3, #36]
 6321 00f4 1343     		orrs	r3, r3, r2
 6322 00f6 FB60     		str	r3, [r7, #12]
2118:Drivers/STM32H7xx_HAL_Driver/Src/stm32h7xx_hal_tim_ex.c **** #if defined(TIM_BDTR_BKBID)
2119:Drivers/STM32H7xx_HAL_Driver/Src/stm32h7xx_hal_tim_ex.c **** 
2120:Drivers/STM32H7xx_HAL_Driver/Src/stm32h7xx_hal_tim_ex.c ****     if (IS_TIM_ADVANCED_INSTANCE(htim->Instance))
 6323              		.loc 1 2120 9
 6324 00f8 7B68     		ldr	r3, [r7, #4]
 6325 00fa 1B68     		ldr	r3, [r3]
 6326              		.loc 1 2120 8
 6327 00fc 0E4A     		ldr	r2, .L378
 6328 00fe 9342     		cmp	r3, r2
 6329 0100 04D0     		beq	.L377
 6330              		.loc 1 2120 9 discriminator 1
 6331 0102 7B68     		ldr	r3, [r7, #4]
 6332 0104 1B68     		ldr	r3, [r3]
 6333 0106 0D4A     		ldr	r2, .L378+4
 6334 0108 9342     		cmp	r3, r2
 6335 010a 06D1     		bne	.L376
 6336              	.L377:
2121:Drivers/STM32H7xx_HAL_Driver/Src/stm32h7xx_hal_tim_ex.c ****     {
2122:Drivers/STM32H7xx_HAL_Driver/Src/stm32h7xx_hal_tim_ex.c ****       /* Check the parameters */
2123:Drivers/STM32H7xx_HAL_Driver/Src/stm32h7xx_hal_tim_ex.c ****       assert_param(IS_TIM_BREAK2_AFMODE(sBreakDeadTimeConfig->Break2AFMode));
2124:Drivers/STM32H7xx_HAL_Driver/Src/stm32h7xx_hal_tim_ex.c **** 
2125:Drivers/STM32H7xx_HAL_Driver/Src/stm32h7xx_hal_tim_ex.c ****       /* Set BREAK2 AF mode */
2126:Drivers/STM32H7xx_HAL_Driver/Src/stm32h7xx_hal_tim_ex.c ****       MODIFY_REG(tmpbdtr, TIM_BDTR_BK2BID, sBreakDeadTimeConfig->Break2AFMode);
 6337              		.loc 1 2126 7
 6338 010c FB68     		ldr	r3, [r7, #12]
 6339 010e 23F00052 		bic	r2, r3, #536870912
 6340 0112 3B68     		ldr	r3, [r7]
 6341 0114 DB6A     		ldr	r3, [r3, #44]
 6342 0116 1343     		orrs	r3, r3, r2
 6343 0118 FB60     		str	r3, [r7, #12]
 6344              	.L376:
2127:Drivers/STM32H7xx_HAL_Driver/Src/stm32h7xx_hal_tim_ex.c ****     }
2128:Drivers/STM32H7xx_HAL_Driver/Src/stm32h7xx_hal_tim_ex.c **** #endif /* TIM_BDTR_BKBID */
2129:Drivers/STM32H7xx_HAL_Driver/Src/stm32h7xx_hal_tim_ex.c ****   }
2130:Drivers/STM32H7xx_HAL_Driver/Src/stm32h7xx_hal_tim_ex.c **** 
2131:Drivers/STM32H7xx_HAL_Driver/Src/stm32h7xx_hal_tim_ex.c ****   /* Set TIMx_BDTR */
2132:Drivers/STM32H7xx_HAL_Driver/Src/stm32h7xx_hal_tim_ex.c ****   htim->Instance->BDTR = tmpbdtr;
 6345              		.loc 1 2132 7
ARM GAS  C:\Users\Su\AppData\Local\Temp\ccm0VnUy.s 			page 149


 6346 011a 7B68     		ldr	r3, [r7, #4]
 6347 011c 1B68     		ldr	r3, [r3]
 6348              		.loc 1 2132 24
 6349 011e FA68     		ldr	r2, [r7, #12]
 6350 0120 5A64     		str	r2, [r3, #68]
2133:Drivers/STM32H7xx_HAL_Driver/Src/stm32h7xx_hal_tim_ex.c **** 
2134:Drivers/STM32H7xx_HAL_Driver/Src/stm32h7xx_hal_tim_ex.c ****   __HAL_UNLOCK(htim);
 6351              		.loc 1 2134 3
 6352 0122 7B68     		ldr	r3, [r7, #4]
 6353 0124 0022     		movs	r2, #0
 6354 0126 83F83C20 		strb	r2, [r3, #60]
2135:Drivers/STM32H7xx_HAL_Driver/Src/stm32h7xx_hal_tim_ex.c **** 
2136:Drivers/STM32H7xx_HAL_Driver/Src/stm32h7xx_hal_tim_ex.c ****   return HAL_OK;
 6355              		.loc 1 2136 10
 6356 012a 0023     		movs	r3, #0
 6357              	.L372:
2137:Drivers/STM32H7xx_HAL_Driver/Src/stm32h7xx_hal_tim_ex.c **** }
 6358              		.loc 1 2137 1
 6359 012c 1846     		mov	r0, r3
 6360 012e 1437     		adds	r7, r7, #20
 6361              	.LCFI159:
 6362              		.cfi_def_cfa_offset 4
 6363 0130 BD46     		mov	sp, r7
 6364              	.LCFI160:
 6365              		.cfi_def_cfa_register 13
 6366              		@ sp needed
 6367 0132 5DF8047B 		ldr	r7, [sp], #4
 6368              	.LCFI161:
 6369              		.cfi_restore 7
 6370              		.cfi_def_cfa_offset 0
 6371 0136 7047     		bx	lr
 6372              	.L379:
 6373              		.align	2
 6374              	.L378:
 6375 0138 00000140 		.word	1073807360
 6376 013c 00040140 		.word	1073808384
 6377              		.cfi_endproc
 6378              	.LFE174:
 6380              		.section	.text.HAL_TIMEx_ConfigBreakInput,"ax",%progbits
 6381              		.align	1
 6382              		.global	HAL_TIMEx_ConfigBreakInput
 6383              		.syntax unified
 6384              		.thumb
 6385              		.thumb_func
 6387              	HAL_TIMEx_ConfigBreakInput:
 6388              	.LFB175:
2138:Drivers/STM32H7xx_HAL_Driver/Src/stm32h7xx_hal_tim_ex.c **** #if defined(TIM_BREAK_INPUT_SUPPORT)
2139:Drivers/STM32H7xx_HAL_Driver/Src/stm32h7xx_hal_tim_ex.c **** 
2140:Drivers/STM32H7xx_HAL_Driver/Src/stm32h7xx_hal_tim_ex.c **** /**
2141:Drivers/STM32H7xx_HAL_Driver/Src/stm32h7xx_hal_tim_ex.c ****   * @brief  Configures the break input source.
2142:Drivers/STM32H7xx_HAL_Driver/Src/stm32h7xx_hal_tim_ex.c ****   * @param  htim TIM handle.
2143:Drivers/STM32H7xx_HAL_Driver/Src/stm32h7xx_hal_tim_ex.c ****   * @param  BreakInput Break input to configure
2144:Drivers/STM32H7xx_HAL_Driver/Src/stm32h7xx_hal_tim_ex.c ****   *          This parameter can be one of the following values:
2145:Drivers/STM32H7xx_HAL_Driver/Src/stm32h7xx_hal_tim_ex.c ****   *            @arg TIM_BREAKINPUT_BRK: Timer break input
2146:Drivers/STM32H7xx_HAL_Driver/Src/stm32h7xx_hal_tim_ex.c ****   *            @arg TIM_BREAKINPUT_BRK2: Timer break 2 input
2147:Drivers/STM32H7xx_HAL_Driver/Src/stm32h7xx_hal_tim_ex.c ****   * @param  sBreakInputConfig Break input source configuration
2148:Drivers/STM32H7xx_HAL_Driver/Src/stm32h7xx_hal_tim_ex.c ****   * @retval HAL status
ARM GAS  C:\Users\Su\AppData\Local\Temp\ccm0VnUy.s 			page 150


2149:Drivers/STM32H7xx_HAL_Driver/Src/stm32h7xx_hal_tim_ex.c ****   */
2150:Drivers/STM32H7xx_HAL_Driver/Src/stm32h7xx_hal_tim_ex.c **** HAL_StatusTypeDef HAL_TIMEx_ConfigBreakInput(TIM_HandleTypeDef *htim,
2151:Drivers/STM32H7xx_HAL_Driver/Src/stm32h7xx_hal_tim_ex.c ****                                              uint32_t BreakInput,
2152:Drivers/STM32H7xx_HAL_Driver/Src/stm32h7xx_hal_tim_ex.c ****                                              TIMEx_BreakInputConfigTypeDef *sBreakInputConfig)
2153:Drivers/STM32H7xx_HAL_Driver/Src/stm32h7xx_hal_tim_ex.c **** 
2154:Drivers/STM32H7xx_HAL_Driver/Src/stm32h7xx_hal_tim_ex.c **** {
 6389              		.loc 1 2154 1
 6390              		.cfi_startproc
 6391              		@ args = 0, pretend = 0, frame = 40
 6392              		@ frame_needed = 1, uses_anonymous_args = 0
 6393              		@ link register save eliminated.
 6394 0000 80B4     		push	{r7}
 6395              	.LCFI162:
 6396              		.cfi_def_cfa_offset 4
 6397              		.cfi_offset 7, -4
 6398 0002 8BB0     		sub	sp, sp, #44
 6399              	.LCFI163:
 6400              		.cfi_def_cfa_offset 48
 6401 0004 00AF     		add	r7, sp, #0
 6402              	.LCFI164:
 6403              		.cfi_def_cfa_register 7
 6404 0006 F860     		str	r0, [r7, #12]
 6405 0008 B960     		str	r1, [r7, #8]
 6406 000a 7A60     		str	r2, [r7, #4]
2155:Drivers/STM32H7xx_HAL_Driver/Src/stm32h7xx_hal_tim_ex.c ****   HAL_StatusTypeDef status = HAL_OK;
 6407              		.loc 1 2155 21
 6408 000c 0023     		movs	r3, #0
 6409 000e 87F82730 		strb	r3, [r7, #39]
2156:Drivers/STM32H7xx_HAL_Driver/Src/stm32h7xx_hal_tim_ex.c ****   uint32_t tmporx;
2157:Drivers/STM32H7xx_HAL_Driver/Src/stm32h7xx_hal_tim_ex.c ****   uint32_t bkin_enable_mask;
2158:Drivers/STM32H7xx_HAL_Driver/Src/stm32h7xx_hal_tim_ex.c ****   uint32_t bkin_polarity_mask;
2159:Drivers/STM32H7xx_HAL_Driver/Src/stm32h7xx_hal_tim_ex.c ****   uint32_t bkin_enable_bitpos;
2160:Drivers/STM32H7xx_HAL_Driver/Src/stm32h7xx_hal_tim_ex.c ****   uint32_t bkin_polarity_bitpos;
2161:Drivers/STM32H7xx_HAL_Driver/Src/stm32h7xx_hal_tim_ex.c **** 
2162:Drivers/STM32H7xx_HAL_Driver/Src/stm32h7xx_hal_tim_ex.c ****   /* Check the parameters */
2163:Drivers/STM32H7xx_HAL_Driver/Src/stm32h7xx_hal_tim_ex.c ****   assert_param(IS_TIM_BREAK_INSTANCE(htim->Instance));
2164:Drivers/STM32H7xx_HAL_Driver/Src/stm32h7xx_hal_tim_ex.c ****   assert_param(IS_TIM_BREAKINPUT(BreakInput));
2165:Drivers/STM32H7xx_HAL_Driver/Src/stm32h7xx_hal_tim_ex.c ****   assert_param(IS_TIM_BREAKINPUTSOURCE(sBreakInputConfig->Source));
2166:Drivers/STM32H7xx_HAL_Driver/Src/stm32h7xx_hal_tim_ex.c ****   assert_param(IS_TIM_BREAKINPUTSOURCE_STATE(sBreakInputConfig->Enable));
2167:Drivers/STM32H7xx_HAL_Driver/Src/stm32h7xx_hal_tim_ex.c ****   if (sBreakInputConfig->Source != TIM_BREAKINPUTSOURCE_DFSDM1)
2168:Drivers/STM32H7xx_HAL_Driver/Src/stm32h7xx_hal_tim_ex.c ****   {
2169:Drivers/STM32H7xx_HAL_Driver/Src/stm32h7xx_hal_tim_ex.c ****     assert_param(IS_TIM_BREAKINPUTSOURCE_POLARITY(sBreakInputConfig->Polarity));
2170:Drivers/STM32H7xx_HAL_Driver/Src/stm32h7xx_hal_tim_ex.c ****   }
2171:Drivers/STM32H7xx_HAL_Driver/Src/stm32h7xx_hal_tim_ex.c **** 
2172:Drivers/STM32H7xx_HAL_Driver/Src/stm32h7xx_hal_tim_ex.c ****   /* Check input state */
2173:Drivers/STM32H7xx_HAL_Driver/Src/stm32h7xx_hal_tim_ex.c ****   __HAL_LOCK(htim);
 6410              		.loc 1 2173 3
 6411 0012 FB68     		ldr	r3, [r7, #12]
 6412 0014 93F83C30 		ldrb	r3, [r3, #60]	@ zero_extendqisi2
 6413 0018 012B     		cmp	r3, #1
 6414 001a 01D1     		bne	.L381
 6415              		.loc 1 2173 3 is_stmt 0 discriminator 1
 6416 001c 0223     		movs	r3, #2
 6417 001e AFE0     		b	.L382
 6418              	.L381:
 6419              		.loc 1 2173 3 discriminator 2
 6420 0020 FB68     		ldr	r3, [r7, #12]
ARM GAS  C:\Users\Su\AppData\Local\Temp\ccm0VnUy.s 			page 151


 6421 0022 0122     		movs	r2, #1
 6422 0024 83F83C20 		strb	r2, [r3, #60]
2174:Drivers/STM32H7xx_HAL_Driver/Src/stm32h7xx_hal_tim_ex.c **** 
2175:Drivers/STM32H7xx_HAL_Driver/Src/stm32h7xx_hal_tim_ex.c ****   switch (sBreakInputConfig->Source)
 6423              		.loc 1 2175 28 is_stmt 1 discriminator 2
 6424 0028 7B68     		ldr	r3, [r7, #4]
 6425 002a 1B68     		ldr	r3, [r3]
 6426              		.loc 1 2175 3 discriminator 2
 6427 002c 013B     		subs	r3, r3, #1
 6428 002e 072B     		cmp	r3, #7
 6429 0030 3AD8     		bhi	.L383
 6430 0032 01A2     		adr	r2, .L385
 6431 0034 52F823F0 		ldr	pc, [r2, r3, lsl #2]
 6432              		.p2align 2
 6433              	.L385:
 6434 0038 59000000 		.word	.L388+1
 6435 003c 6D000000 		.word	.L387+1
 6436 0040 A9000000 		.word	.L383+1
 6437 0044 81000000 		.word	.L386+1
 6438 0048 A9000000 		.word	.L383+1
 6439 004c A9000000 		.word	.L383+1
 6440 0050 A9000000 		.word	.L383+1
 6441 0054 95000000 		.word	.L384+1
 6442              		.p2align 1
 6443              	.L388:
2176:Drivers/STM32H7xx_HAL_Driver/Src/stm32h7xx_hal_tim_ex.c ****   {
2177:Drivers/STM32H7xx_HAL_Driver/Src/stm32h7xx_hal_tim_ex.c ****     case TIM_BREAKINPUTSOURCE_BKIN:
2178:Drivers/STM32H7xx_HAL_Driver/Src/stm32h7xx_hal_tim_ex.c ****     {
2179:Drivers/STM32H7xx_HAL_Driver/Src/stm32h7xx_hal_tim_ex.c ****       bkin_enable_mask = TIM1_AF1_BKINE;
 6444              		.loc 1 2179 24
 6445 0058 0123     		movs	r3, #1
 6446 005a FB61     		str	r3, [r7, #28]
2180:Drivers/STM32H7xx_HAL_Driver/Src/stm32h7xx_hal_tim_ex.c ****       bkin_enable_bitpos = TIM1_AF1_BKINE_Pos;
 6447              		.loc 1 2180 26
 6448 005c 0023     		movs	r3, #0
 6449 005e 7B61     		str	r3, [r7, #20]
2181:Drivers/STM32H7xx_HAL_Driver/Src/stm32h7xx_hal_tim_ex.c ****       bkin_polarity_mask = TIM1_AF1_BKINP;
 6450              		.loc 1 2181 26
 6451 0060 4FF40073 		mov	r3, #512
 6452 0064 BB61     		str	r3, [r7, #24]
2182:Drivers/STM32H7xx_HAL_Driver/Src/stm32h7xx_hal_tim_ex.c ****       bkin_polarity_bitpos = TIM1_AF1_BKINP_Pos;
 6453              		.loc 1 2182 28
 6454 0066 0923     		movs	r3, #9
 6455 0068 3B61     		str	r3, [r7, #16]
2183:Drivers/STM32H7xx_HAL_Driver/Src/stm32h7xx_hal_tim_ex.c ****       break;
 6456              		.loc 1 2183 7
 6457 006a 26E0     		b	.L389
 6458              	.L387:
2184:Drivers/STM32H7xx_HAL_Driver/Src/stm32h7xx_hal_tim_ex.c ****     }
2185:Drivers/STM32H7xx_HAL_Driver/Src/stm32h7xx_hal_tim_ex.c ****     case TIM_BREAKINPUTSOURCE_COMP1:
2186:Drivers/STM32H7xx_HAL_Driver/Src/stm32h7xx_hal_tim_ex.c ****     {
2187:Drivers/STM32H7xx_HAL_Driver/Src/stm32h7xx_hal_tim_ex.c ****       bkin_enable_mask = TIM1_AF1_BKCMP1E;
 6459              		.loc 1 2187 24
 6460 006c 0223     		movs	r3, #2
 6461 006e FB61     		str	r3, [r7, #28]
2188:Drivers/STM32H7xx_HAL_Driver/Src/stm32h7xx_hal_tim_ex.c ****       bkin_enable_bitpos = TIM1_AF1_BKCMP1E_Pos;
 6462              		.loc 1 2188 26
ARM GAS  C:\Users\Su\AppData\Local\Temp\ccm0VnUy.s 			page 152


 6463 0070 0123     		movs	r3, #1
 6464 0072 7B61     		str	r3, [r7, #20]
2189:Drivers/STM32H7xx_HAL_Driver/Src/stm32h7xx_hal_tim_ex.c ****       bkin_polarity_mask = TIM1_AF1_BKCMP1P;
 6465              		.loc 1 2189 26
 6466 0074 4FF48063 		mov	r3, #1024
 6467 0078 BB61     		str	r3, [r7, #24]
2190:Drivers/STM32H7xx_HAL_Driver/Src/stm32h7xx_hal_tim_ex.c ****       bkin_polarity_bitpos = TIM1_AF1_BKCMP1P_Pos;
 6468              		.loc 1 2190 28
 6469 007a 0A23     		movs	r3, #10
 6470 007c 3B61     		str	r3, [r7, #16]
2191:Drivers/STM32H7xx_HAL_Driver/Src/stm32h7xx_hal_tim_ex.c ****       break;
 6471              		.loc 1 2191 7
 6472 007e 1CE0     		b	.L389
 6473              	.L386:
2192:Drivers/STM32H7xx_HAL_Driver/Src/stm32h7xx_hal_tim_ex.c ****     }
2193:Drivers/STM32H7xx_HAL_Driver/Src/stm32h7xx_hal_tim_ex.c ****     case TIM_BREAKINPUTSOURCE_COMP2:
2194:Drivers/STM32H7xx_HAL_Driver/Src/stm32h7xx_hal_tim_ex.c ****     {
2195:Drivers/STM32H7xx_HAL_Driver/Src/stm32h7xx_hal_tim_ex.c ****       bkin_enable_mask = TIM1_AF1_BKCMP2E;
 6474              		.loc 1 2195 24
 6475 0080 0423     		movs	r3, #4
 6476 0082 FB61     		str	r3, [r7, #28]
2196:Drivers/STM32H7xx_HAL_Driver/Src/stm32h7xx_hal_tim_ex.c ****       bkin_enable_bitpos = TIM1_AF1_BKCMP2E_Pos;
 6477              		.loc 1 2196 26
 6478 0084 0223     		movs	r3, #2
 6479 0086 7B61     		str	r3, [r7, #20]
2197:Drivers/STM32H7xx_HAL_Driver/Src/stm32h7xx_hal_tim_ex.c ****       bkin_polarity_mask = TIM1_AF1_BKCMP2P;
 6480              		.loc 1 2197 26
 6481 0088 4FF40063 		mov	r3, #2048
 6482 008c BB61     		str	r3, [r7, #24]
2198:Drivers/STM32H7xx_HAL_Driver/Src/stm32h7xx_hal_tim_ex.c ****       bkin_polarity_bitpos = TIM1_AF1_BKCMP2P_Pos;
 6483              		.loc 1 2198 28
 6484 008e 0B23     		movs	r3, #11
 6485 0090 3B61     		str	r3, [r7, #16]
2199:Drivers/STM32H7xx_HAL_Driver/Src/stm32h7xx_hal_tim_ex.c ****       break;
 6486              		.loc 1 2199 7
 6487 0092 12E0     		b	.L389
 6488              	.L384:
2200:Drivers/STM32H7xx_HAL_Driver/Src/stm32h7xx_hal_tim_ex.c ****     }
2201:Drivers/STM32H7xx_HAL_Driver/Src/stm32h7xx_hal_tim_ex.c ****     case TIM_BREAKINPUTSOURCE_DFSDM1:
2202:Drivers/STM32H7xx_HAL_Driver/Src/stm32h7xx_hal_tim_ex.c ****     {
2203:Drivers/STM32H7xx_HAL_Driver/Src/stm32h7xx_hal_tim_ex.c ****       bkin_enable_mask = TIM1_AF1_BKDF1BK0E;
 6489              		.loc 1 2203 24
 6490 0094 4FF48073 		mov	r3, #256
 6491 0098 FB61     		str	r3, [r7, #28]
2204:Drivers/STM32H7xx_HAL_Driver/Src/stm32h7xx_hal_tim_ex.c ****       bkin_enable_bitpos = TIM1_AF1_BKDF1BK0E_Pos;
 6492              		.loc 1 2204 26
 6493 009a 0823     		movs	r3, #8
 6494 009c 7B61     		str	r3, [r7, #20]
2205:Drivers/STM32H7xx_HAL_Driver/Src/stm32h7xx_hal_tim_ex.c ****       bkin_polarity_mask = 0U;
 6495              		.loc 1 2205 26
 6496 009e 0023     		movs	r3, #0
 6497 00a0 BB61     		str	r3, [r7, #24]
2206:Drivers/STM32H7xx_HAL_Driver/Src/stm32h7xx_hal_tim_ex.c ****       bkin_polarity_bitpos = 0U;
 6498              		.loc 1 2206 28
 6499 00a2 0023     		movs	r3, #0
 6500 00a4 3B61     		str	r3, [r7, #16]
2207:Drivers/STM32H7xx_HAL_Driver/Src/stm32h7xx_hal_tim_ex.c ****       break;
ARM GAS  C:\Users\Su\AppData\Local\Temp\ccm0VnUy.s 			page 153


 6501              		.loc 1 2207 7
 6502 00a6 08E0     		b	.L389
 6503              	.L383:
2208:Drivers/STM32H7xx_HAL_Driver/Src/stm32h7xx_hal_tim_ex.c ****     }
2209:Drivers/STM32H7xx_HAL_Driver/Src/stm32h7xx_hal_tim_ex.c **** 
2210:Drivers/STM32H7xx_HAL_Driver/Src/stm32h7xx_hal_tim_ex.c ****     default:
2211:Drivers/STM32H7xx_HAL_Driver/Src/stm32h7xx_hal_tim_ex.c ****     {
2212:Drivers/STM32H7xx_HAL_Driver/Src/stm32h7xx_hal_tim_ex.c ****       bkin_enable_mask = 0U;
 6504              		.loc 1 2212 24
 6505 00a8 0023     		movs	r3, #0
 6506 00aa FB61     		str	r3, [r7, #28]
2213:Drivers/STM32H7xx_HAL_Driver/Src/stm32h7xx_hal_tim_ex.c ****       bkin_polarity_mask = 0U;
 6507              		.loc 1 2213 26
 6508 00ac 0023     		movs	r3, #0
 6509 00ae BB61     		str	r3, [r7, #24]
2214:Drivers/STM32H7xx_HAL_Driver/Src/stm32h7xx_hal_tim_ex.c ****       bkin_enable_bitpos = 0U;
 6510              		.loc 1 2214 26
 6511 00b0 0023     		movs	r3, #0
 6512 00b2 7B61     		str	r3, [r7, #20]
2215:Drivers/STM32H7xx_HAL_Driver/Src/stm32h7xx_hal_tim_ex.c ****       bkin_polarity_bitpos = 0U;
 6513              		.loc 1 2215 28
 6514 00b4 0023     		movs	r3, #0
 6515 00b6 3B61     		str	r3, [r7, #16]
2216:Drivers/STM32H7xx_HAL_Driver/Src/stm32h7xx_hal_tim_ex.c ****       break;
 6516              		.loc 1 2216 7
 6517 00b8 00BF     		nop
 6518              	.L389:
2217:Drivers/STM32H7xx_HAL_Driver/Src/stm32h7xx_hal_tim_ex.c ****     }
2218:Drivers/STM32H7xx_HAL_Driver/Src/stm32h7xx_hal_tim_ex.c ****   }
2219:Drivers/STM32H7xx_HAL_Driver/Src/stm32h7xx_hal_tim_ex.c **** 
2220:Drivers/STM32H7xx_HAL_Driver/Src/stm32h7xx_hal_tim_ex.c ****   switch (BreakInput)
 6519              		.loc 1 2220 3
 6520 00ba BB68     		ldr	r3, [r7, #8]
 6521 00bc 012B     		cmp	r3, #1
 6522 00be 03D0     		beq	.L390
 6523 00c0 BB68     		ldr	r3, [r7, #8]
 6524 00c2 022B     		cmp	r3, #2
 6525 00c4 29D0     		beq	.L391
 6526 00c6 51E0     		b	.L396
 6527              	.L390:
2221:Drivers/STM32H7xx_HAL_Driver/Src/stm32h7xx_hal_tim_ex.c ****   {
2222:Drivers/STM32H7xx_HAL_Driver/Src/stm32h7xx_hal_tim_ex.c ****     case TIM_BREAKINPUT_BRK:
2223:Drivers/STM32H7xx_HAL_Driver/Src/stm32h7xx_hal_tim_ex.c ****     {
2224:Drivers/STM32H7xx_HAL_Driver/Src/stm32h7xx_hal_tim_ex.c ****       /* Get the TIMx_AF1 register value */
2225:Drivers/STM32H7xx_HAL_Driver/Src/stm32h7xx_hal_tim_ex.c ****       tmporx = htim->Instance->AF1;
 6528              		.loc 1 2225 20
 6529 00c8 FB68     		ldr	r3, [r7, #12]
 6530 00ca 1B68     		ldr	r3, [r3]
 6531              		.loc 1 2225 14
 6532 00cc 1B6E     		ldr	r3, [r3, #96]
 6533 00ce 3B62     		str	r3, [r7, #32]
2226:Drivers/STM32H7xx_HAL_Driver/Src/stm32h7xx_hal_tim_ex.c **** 
2227:Drivers/STM32H7xx_HAL_Driver/Src/stm32h7xx_hal_tim_ex.c ****       /* Enable the break input */
2228:Drivers/STM32H7xx_HAL_Driver/Src/stm32h7xx_hal_tim_ex.c ****       tmporx &= ~bkin_enable_mask;
 6534              		.loc 1 2228 17
 6535 00d0 FB69     		ldr	r3, [r7, #28]
 6536 00d2 DB43     		mvns	r3, r3
ARM GAS  C:\Users\Su\AppData\Local\Temp\ccm0VnUy.s 			page 154


 6537              		.loc 1 2228 14
 6538 00d4 3A6A     		ldr	r2, [r7, #32]
 6539 00d6 1340     		ands	r3, r3, r2
 6540 00d8 3B62     		str	r3, [r7, #32]
2229:Drivers/STM32H7xx_HAL_Driver/Src/stm32h7xx_hal_tim_ex.c ****       tmporx |= (sBreakInputConfig->Enable << bkin_enable_bitpos) & bkin_enable_mask;
 6541              		.loc 1 2229 35
 6542 00da 7B68     		ldr	r3, [r7, #4]
 6543 00dc 5A68     		ldr	r2, [r3, #4]
 6544              		.loc 1 2229 44
 6545 00de 7B69     		ldr	r3, [r7, #20]
 6546 00e0 9A40     		lsls	r2, r2, r3
 6547              		.loc 1 2229 67
 6548 00e2 FB69     		ldr	r3, [r7, #28]
 6549 00e4 1340     		ands	r3, r3, r2
 6550              		.loc 1 2229 14
 6551 00e6 3A6A     		ldr	r2, [r7, #32]
 6552 00e8 1343     		orrs	r3, r3, r2
 6553 00ea 3B62     		str	r3, [r7, #32]
2230:Drivers/STM32H7xx_HAL_Driver/Src/stm32h7xx_hal_tim_ex.c **** 
2231:Drivers/STM32H7xx_HAL_Driver/Src/stm32h7xx_hal_tim_ex.c ****       /* Set the break input polarity */
2232:Drivers/STM32H7xx_HAL_Driver/Src/stm32h7xx_hal_tim_ex.c ****       if (sBreakInputConfig->Source != TIM_BREAKINPUTSOURCE_DFSDM1)
 6554              		.loc 1 2232 28
 6555 00ec 7B68     		ldr	r3, [r7, #4]
 6556 00ee 1B68     		ldr	r3, [r3]
 6557              		.loc 1 2232 10
 6558 00f0 082B     		cmp	r3, #8
 6559 00f2 0DD0     		beq	.L393
2233:Drivers/STM32H7xx_HAL_Driver/Src/stm32h7xx_hal_tim_ex.c ****       {
2234:Drivers/STM32H7xx_HAL_Driver/Src/stm32h7xx_hal_tim_ex.c ****         tmporx &= ~bkin_polarity_mask;
 6560              		.loc 1 2234 19
 6561 00f4 BB69     		ldr	r3, [r7, #24]
 6562 00f6 DB43     		mvns	r3, r3
 6563              		.loc 1 2234 16
 6564 00f8 3A6A     		ldr	r2, [r7, #32]
 6565 00fa 1340     		ands	r3, r3, r2
 6566 00fc 3B62     		str	r3, [r7, #32]
2235:Drivers/STM32H7xx_HAL_Driver/Src/stm32h7xx_hal_tim_ex.c ****         tmporx |= (sBreakInputConfig->Polarity << bkin_polarity_bitpos) & bkin_polarity_mask;
 6567              		.loc 1 2235 37
 6568 00fe 7B68     		ldr	r3, [r7, #4]
 6569 0100 9A68     		ldr	r2, [r3, #8]
 6570              		.loc 1 2235 48
 6571 0102 3B69     		ldr	r3, [r7, #16]
 6572 0104 9A40     		lsls	r2, r2, r3
 6573              		.loc 1 2235 73
 6574 0106 BB69     		ldr	r3, [r7, #24]
 6575 0108 1340     		ands	r3, r3, r2
 6576              		.loc 1 2235 16
 6577 010a 3A6A     		ldr	r2, [r7, #32]
 6578 010c 1343     		orrs	r3, r3, r2
 6579 010e 3B62     		str	r3, [r7, #32]
 6580              	.L393:
2236:Drivers/STM32H7xx_HAL_Driver/Src/stm32h7xx_hal_tim_ex.c ****       }
2237:Drivers/STM32H7xx_HAL_Driver/Src/stm32h7xx_hal_tim_ex.c **** 
2238:Drivers/STM32H7xx_HAL_Driver/Src/stm32h7xx_hal_tim_ex.c ****       /* Set TIMx_AF1 */
2239:Drivers/STM32H7xx_HAL_Driver/Src/stm32h7xx_hal_tim_ex.c ****       htim->Instance->AF1 = tmporx;
 6581              		.loc 1 2239 11
 6582 0110 FB68     		ldr	r3, [r7, #12]
ARM GAS  C:\Users\Su\AppData\Local\Temp\ccm0VnUy.s 			page 155


 6583 0112 1B68     		ldr	r3, [r3]
 6584              		.loc 1 2239 27
 6585 0114 3A6A     		ldr	r2, [r7, #32]
 6586 0116 1A66     		str	r2, [r3, #96]
2240:Drivers/STM32H7xx_HAL_Driver/Src/stm32h7xx_hal_tim_ex.c ****       break;
 6587              		.loc 1 2240 7
 6588 0118 2CE0     		b	.L394
 6589              	.L391:
2241:Drivers/STM32H7xx_HAL_Driver/Src/stm32h7xx_hal_tim_ex.c ****     }
2242:Drivers/STM32H7xx_HAL_Driver/Src/stm32h7xx_hal_tim_ex.c ****     case TIM_BREAKINPUT_BRK2:
2243:Drivers/STM32H7xx_HAL_Driver/Src/stm32h7xx_hal_tim_ex.c ****     {
2244:Drivers/STM32H7xx_HAL_Driver/Src/stm32h7xx_hal_tim_ex.c ****       /* Get the TIMx_AF2 register value */
2245:Drivers/STM32H7xx_HAL_Driver/Src/stm32h7xx_hal_tim_ex.c ****       tmporx = htim->Instance->AF2;
 6590              		.loc 1 2245 20
 6591 011a FB68     		ldr	r3, [r7, #12]
 6592 011c 1B68     		ldr	r3, [r3]
 6593              		.loc 1 2245 14
 6594 011e 5B6E     		ldr	r3, [r3, #100]
 6595 0120 3B62     		str	r3, [r7, #32]
2246:Drivers/STM32H7xx_HAL_Driver/Src/stm32h7xx_hal_tim_ex.c **** 
2247:Drivers/STM32H7xx_HAL_Driver/Src/stm32h7xx_hal_tim_ex.c ****       /* Enable the break input */
2248:Drivers/STM32H7xx_HAL_Driver/Src/stm32h7xx_hal_tim_ex.c ****       tmporx &= ~bkin_enable_mask;
 6596              		.loc 1 2248 17
 6597 0122 FB69     		ldr	r3, [r7, #28]
 6598 0124 DB43     		mvns	r3, r3
 6599              		.loc 1 2248 14
 6600 0126 3A6A     		ldr	r2, [r7, #32]
 6601 0128 1340     		ands	r3, r3, r2
 6602 012a 3B62     		str	r3, [r7, #32]
2249:Drivers/STM32H7xx_HAL_Driver/Src/stm32h7xx_hal_tim_ex.c ****       tmporx |= (sBreakInputConfig->Enable << bkin_enable_bitpos) & bkin_enable_mask;
 6603              		.loc 1 2249 35
 6604 012c 7B68     		ldr	r3, [r7, #4]
 6605 012e 5A68     		ldr	r2, [r3, #4]
 6606              		.loc 1 2249 44
 6607 0130 7B69     		ldr	r3, [r7, #20]
 6608 0132 9A40     		lsls	r2, r2, r3
 6609              		.loc 1 2249 67
 6610 0134 FB69     		ldr	r3, [r7, #28]
 6611 0136 1340     		ands	r3, r3, r2
 6612              		.loc 1 2249 14
 6613 0138 3A6A     		ldr	r2, [r7, #32]
 6614 013a 1343     		orrs	r3, r3, r2
 6615 013c 3B62     		str	r3, [r7, #32]
2250:Drivers/STM32H7xx_HAL_Driver/Src/stm32h7xx_hal_tim_ex.c **** 
2251:Drivers/STM32H7xx_HAL_Driver/Src/stm32h7xx_hal_tim_ex.c ****       /* Set the break input polarity */
2252:Drivers/STM32H7xx_HAL_Driver/Src/stm32h7xx_hal_tim_ex.c ****       if (sBreakInputConfig->Source != TIM_BREAKINPUTSOURCE_DFSDM1)
 6616              		.loc 1 2252 28
 6617 013e 7B68     		ldr	r3, [r7, #4]
 6618 0140 1B68     		ldr	r3, [r3]
 6619              		.loc 1 2252 10
 6620 0142 082B     		cmp	r3, #8
 6621 0144 0DD0     		beq	.L395
2253:Drivers/STM32H7xx_HAL_Driver/Src/stm32h7xx_hal_tim_ex.c ****       {
2254:Drivers/STM32H7xx_HAL_Driver/Src/stm32h7xx_hal_tim_ex.c ****         tmporx &= ~bkin_polarity_mask;
 6622              		.loc 1 2254 19
 6623 0146 BB69     		ldr	r3, [r7, #24]
 6624 0148 DB43     		mvns	r3, r3
ARM GAS  C:\Users\Su\AppData\Local\Temp\ccm0VnUy.s 			page 156


 6625              		.loc 1 2254 16
 6626 014a 3A6A     		ldr	r2, [r7, #32]
 6627 014c 1340     		ands	r3, r3, r2
 6628 014e 3B62     		str	r3, [r7, #32]
2255:Drivers/STM32H7xx_HAL_Driver/Src/stm32h7xx_hal_tim_ex.c ****         tmporx |= (sBreakInputConfig->Polarity << bkin_polarity_bitpos) & bkin_polarity_mask;
 6629              		.loc 1 2255 37
 6630 0150 7B68     		ldr	r3, [r7, #4]
 6631 0152 9A68     		ldr	r2, [r3, #8]
 6632              		.loc 1 2255 48
 6633 0154 3B69     		ldr	r3, [r7, #16]
 6634 0156 9A40     		lsls	r2, r2, r3
 6635              		.loc 1 2255 73
 6636 0158 BB69     		ldr	r3, [r7, #24]
 6637 015a 1340     		ands	r3, r3, r2
 6638              		.loc 1 2255 16
 6639 015c 3A6A     		ldr	r2, [r7, #32]
 6640 015e 1343     		orrs	r3, r3, r2
 6641 0160 3B62     		str	r3, [r7, #32]
 6642              	.L395:
2256:Drivers/STM32H7xx_HAL_Driver/Src/stm32h7xx_hal_tim_ex.c ****       }
2257:Drivers/STM32H7xx_HAL_Driver/Src/stm32h7xx_hal_tim_ex.c **** 
2258:Drivers/STM32H7xx_HAL_Driver/Src/stm32h7xx_hal_tim_ex.c ****       /* Set TIMx_AF2 */
2259:Drivers/STM32H7xx_HAL_Driver/Src/stm32h7xx_hal_tim_ex.c ****       htim->Instance->AF2 = tmporx;
 6643              		.loc 1 2259 11
 6644 0162 FB68     		ldr	r3, [r7, #12]
 6645 0164 1B68     		ldr	r3, [r3]
 6646              		.loc 1 2259 27
 6647 0166 3A6A     		ldr	r2, [r7, #32]
 6648 0168 5A66     		str	r2, [r3, #100]
2260:Drivers/STM32H7xx_HAL_Driver/Src/stm32h7xx_hal_tim_ex.c ****       break;
 6649              		.loc 1 2260 7
 6650 016a 03E0     		b	.L394
 6651              	.L396:
2261:Drivers/STM32H7xx_HAL_Driver/Src/stm32h7xx_hal_tim_ex.c ****     }
2262:Drivers/STM32H7xx_HAL_Driver/Src/stm32h7xx_hal_tim_ex.c ****     default:
2263:Drivers/STM32H7xx_HAL_Driver/Src/stm32h7xx_hal_tim_ex.c ****       status = HAL_ERROR;
 6652              		.loc 1 2263 14
 6653 016c 0123     		movs	r3, #1
 6654 016e 87F82730 		strb	r3, [r7, #39]
2264:Drivers/STM32H7xx_HAL_Driver/Src/stm32h7xx_hal_tim_ex.c ****       break;
 6655              		.loc 1 2264 7
 6656 0172 00BF     		nop
 6657              	.L394:
2265:Drivers/STM32H7xx_HAL_Driver/Src/stm32h7xx_hal_tim_ex.c ****   }
2266:Drivers/STM32H7xx_HAL_Driver/Src/stm32h7xx_hal_tim_ex.c **** 
2267:Drivers/STM32H7xx_HAL_Driver/Src/stm32h7xx_hal_tim_ex.c ****   __HAL_UNLOCK(htim);
 6658              		.loc 1 2267 3
 6659 0174 FB68     		ldr	r3, [r7, #12]
 6660 0176 0022     		movs	r2, #0
 6661 0178 83F83C20 		strb	r2, [r3, #60]
2268:Drivers/STM32H7xx_HAL_Driver/Src/stm32h7xx_hal_tim_ex.c **** 
2269:Drivers/STM32H7xx_HAL_Driver/Src/stm32h7xx_hal_tim_ex.c ****   return status;
 6662              		.loc 1 2269 10
 6663 017c 97F82730 		ldrb	r3, [r7, #39]	@ zero_extendqisi2
 6664              	.L382:
2270:Drivers/STM32H7xx_HAL_Driver/Src/stm32h7xx_hal_tim_ex.c **** }
 6665              		.loc 1 2270 1
ARM GAS  C:\Users\Su\AppData\Local\Temp\ccm0VnUy.s 			page 157


 6666 0180 1846     		mov	r0, r3
 6667 0182 2C37     		adds	r7, r7, #44
 6668              	.LCFI165:
 6669              		.cfi_def_cfa_offset 4
 6670 0184 BD46     		mov	sp, r7
 6671              	.LCFI166:
 6672              		.cfi_def_cfa_register 13
 6673              		@ sp needed
 6674 0186 5DF8047B 		ldr	r7, [sp], #4
 6675              	.LCFI167:
 6676              		.cfi_restore 7
 6677              		.cfi_def_cfa_offset 0
 6678 018a 7047     		bx	lr
 6679              		.cfi_endproc
 6680              	.LFE175:
 6682              		.section	.text.HAL_TIMEx_RemapConfig,"ax",%progbits
 6683              		.align	1
 6684              		.global	HAL_TIMEx_RemapConfig
 6685              		.syntax unified
 6686              		.thumb
 6687              		.thumb_func
 6689              	HAL_TIMEx_RemapConfig:
 6690              	.LFB176:
2271:Drivers/STM32H7xx_HAL_Driver/Src/stm32h7xx_hal_tim_ex.c **** #endif /*TIM_BREAK_INPUT_SUPPORT */
2272:Drivers/STM32H7xx_HAL_Driver/Src/stm32h7xx_hal_tim_ex.c **** 
2273:Drivers/STM32H7xx_HAL_Driver/Src/stm32h7xx_hal_tim_ex.c **** /**
2274:Drivers/STM32H7xx_HAL_Driver/Src/stm32h7xx_hal_tim_ex.c ****   * @brief  Configures the TIMx Remapping input capabilities.
2275:Drivers/STM32H7xx_HAL_Driver/Src/stm32h7xx_hal_tim_ex.c ****   * @param  htim TIM handle.
2276:Drivers/STM32H7xx_HAL_Driver/Src/stm32h7xx_hal_tim_ex.c ****   * @param  Remap specifies the TIM remapping source.
2277:Drivers/STM32H7xx_HAL_Driver/Src/stm32h7xx_hal_tim_ex.c ****   *         For TIM1, the parameter is one of the following values:
2278:Drivers/STM32H7xx_HAL_Driver/Src/stm32h7xx_hal_tim_ex.c ****   *            @arg TIM_TIM1_ETR_GPIO:               TIM1_ETR is connected to GPIO
2279:Drivers/STM32H7xx_HAL_Driver/Src/stm32h7xx_hal_tim_ex.c ****   *            @arg TIM_TIM1_ETR_COMP1:              TIM1_ETR is connected to COMP1 output
2280:Drivers/STM32H7xx_HAL_Driver/Src/stm32h7xx_hal_tim_ex.c ****   *            @arg TIM_TIM1_ETR_COMP2:              TIM1_ETR is connected to COMP2 output
2281:Drivers/STM32H7xx_HAL_Driver/Src/stm32h7xx_hal_tim_ex.c ****   *            @arg TIM_TIM1_ETR_ADC1_AWD1:          TIM1_ETR is connected to ADC1 AWD1
2282:Drivers/STM32H7xx_HAL_Driver/Src/stm32h7xx_hal_tim_ex.c ****   *            @arg TIM_TIM1_ETR_ADC1_AWD2:          TIM1_ETR is connected to ADC1 AWD2
2283:Drivers/STM32H7xx_HAL_Driver/Src/stm32h7xx_hal_tim_ex.c ****   *            @arg TIM_TIM1_ETR_ADC1_AWD3:          TIM1_ETR is connected to ADC1 AWD3
2284:Drivers/STM32H7xx_HAL_Driver/Src/stm32h7xx_hal_tim_ex.c ****   *            @arg TIM_TIM1_ETR_ADC3_AWD1:          TIM1_ETR is connected to ADC3 AWD1
2285:Drivers/STM32H7xx_HAL_Driver/Src/stm32h7xx_hal_tim_ex.c ****   *            @arg TIM_TIM1_ETR_ADC3_AWD2:          TIM1_ETR is connected to ADC3 AWD2
2286:Drivers/STM32H7xx_HAL_Driver/Src/stm32h7xx_hal_tim_ex.c ****   *            @arg TIM_TIM1_ETR_ADC3_AWD3:          TIM1_ETR is connected to ADC3 AWD3
2287:Drivers/STM32H7xx_HAL_Driver/Src/stm32h7xx_hal_tim_ex.c ****   *
2288:Drivers/STM32H7xx_HAL_Driver/Src/stm32h7xx_hal_tim_ex.c ****   *         For TIM2, the parameter is one of the following values:
2289:Drivers/STM32H7xx_HAL_Driver/Src/stm32h7xx_hal_tim_ex.c ****   *            @arg TIM_TIM2_ETR_GPIO:               TIM2_ETR is connected to GPIO
2290:Drivers/STM32H7xx_HAL_Driver/Src/stm32h7xx_hal_tim_ex.c ****   *            @arg TIM_TIM2_ETR_COMP1:              TIM2_ETR is connected to COMP1 output
2291:Drivers/STM32H7xx_HAL_Driver/Src/stm32h7xx_hal_tim_ex.c ****   *            @arg TIM_TIM2_ETR_COMP2:              TIM2_ETR is connected to COMP2 output
2292:Drivers/STM32H7xx_HAL_Driver/Src/stm32h7xx_hal_tim_ex.c ****   *            @arg TIM_TIM2_ETR_LSE:                TIM2_ETR is connected to LSE
2293:Drivers/STM32H7xx_HAL_Driver/Src/stm32h7xx_hal_tim_ex.c ****   *            @arg TIM_TIM2_ETR_SAI1_FSA:           TIM2_ETR is connected to SAI1 FS_A
2294:Drivers/STM32H7xx_HAL_Driver/Src/stm32h7xx_hal_tim_ex.c ****   *            @arg TIM_TIM2_ETR_SAI1_FSB:           TIM2_ETR is connected to SAI1 FS_B
2295:Drivers/STM32H7xx_HAL_Driver/Src/stm32h7xx_hal_tim_ex.c ****   *
2296:Drivers/STM32H7xx_HAL_Driver/Src/stm32h7xx_hal_tim_ex.c ****   *         For TIM3, the parameter is one of the following values:
2297:Drivers/STM32H7xx_HAL_Driver/Src/stm32h7xx_hal_tim_ex.c ****   *            @arg TIM_TIM3_ETR_GPIO:               TIM3_ETR is connected to GPIO
2298:Drivers/STM32H7xx_HAL_Driver/Src/stm32h7xx_hal_tim_ex.c ****   *            @arg TIM_TIM3_ETR_COMP1:              TIM3_ETR is connected to COMP1 output
2299:Drivers/STM32H7xx_HAL_Driver/Src/stm32h7xx_hal_tim_ex.c ****   *
2300:Drivers/STM32H7xx_HAL_Driver/Src/stm32h7xx_hal_tim_ex.c ****   *         For TIM5, the parameter is one of the following values:
2301:Drivers/STM32H7xx_HAL_Driver/Src/stm32h7xx_hal_tim_ex.c ****   *            @arg TIM_TIM5_ETR_GPIO:               TIM5_ETR is connected to GPIO
2302:Drivers/STM32H7xx_HAL_Driver/Src/stm32h7xx_hal_tim_ex.c ****   *            @arg TIM_TIM5_ETR_SAI2_FSA:           TIM5_ETR is connected to SAI2 FS_A (*)
2303:Drivers/STM32H7xx_HAL_Driver/Src/stm32h7xx_hal_tim_ex.c ****   *            @arg TIM_TIM5_ETR_SAI2_FSB:           TIM5_ETR is connected to SAI2 FS_B (*)
2304:Drivers/STM32H7xx_HAL_Driver/Src/stm32h7xx_hal_tim_ex.c ****   *            @arg TIM_TIM5_ETR_SAI4_FSA:           TIM5_ETR is connected to SAI2 FS_A (*)
ARM GAS  C:\Users\Su\AppData\Local\Temp\ccm0VnUy.s 			page 158


2305:Drivers/STM32H7xx_HAL_Driver/Src/stm32h7xx_hal_tim_ex.c ****   *            @arg TIM_TIM5_ETR_SAI4_FSB:           TIM5_ETR is connected to SAI2 FS_B (*)
2306:Drivers/STM32H7xx_HAL_Driver/Src/stm32h7xx_hal_tim_ex.c ****   *
2307:Drivers/STM32H7xx_HAL_Driver/Src/stm32h7xx_hal_tim_ex.c ****   *         For TIM8, the parameter is one of the following values:
2308:Drivers/STM32H7xx_HAL_Driver/Src/stm32h7xx_hal_tim_ex.c ****   *            @arg TIM_TIM8_ETR_GPIO:               TIM8_ETR is connected to GPIO
2309:Drivers/STM32H7xx_HAL_Driver/Src/stm32h7xx_hal_tim_ex.c ****   *            @arg TIM_TIM8_ETR_COMP1:              TIM8_ETR is connected to COMP1 output
2310:Drivers/STM32H7xx_HAL_Driver/Src/stm32h7xx_hal_tim_ex.c ****   *            @arg TIM_TIM8_ETR_COMP2:              TIM8_ETR is connected to COMP2 output
2311:Drivers/STM32H7xx_HAL_Driver/Src/stm32h7xx_hal_tim_ex.c ****   *            @arg TIM_TIM8_ETR_ADC2_AWD1:          TIM8_ETR is connected to ADC2 AWD1
2312:Drivers/STM32H7xx_HAL_Driver/Src/stm32h7xx_hal_tim_ex.c ****   *            @arg TIM_TIM8_ETR_ADC2_AWD2:          TIM8_ETR is connected to ADC2 AWD2
2313:Drivers/STM32H7xx_HAL_Driver/Src/stm32h7xx_hal_tim_ex.c ****   *            @arg TIM_TIM8_ETR_ADC2_AWD3:          TIM8_ETR is connected to ADC2 AWD3
2314:Drivers/STM32H7xx_HAL_Driver/Src/stm32h7xx_hal_tim_ex.c ****   *            @arg TIM_TIM8_ETR_ADC3_AWD1:          TIM8_ETR is connected to ADC3 AWD1
2315:Drivers/STM32H7xx_HAL_Driver/Src/stm32h7xx_hal_tim_ex.c ****   *            @arg TIM_TIM8_ETR_ADC3_AWD2:          TIM8_ETR is connected to ADC3 AWD2
2316:Drivers/STM32H7xx_HAL_Driver/Src/stm32h7xx_hal_tim_ex.c ****   *            @arg TIM_TIM8_ETR_ADC3_AWD3:          TIM8_ETR is connected to ADC3 AWD3
2317:Drivers/STM32H7xx_HAL_Driver/Src/stm32h7xx_hal_tim_ex.c ****   *
2318:Drivers/STM32H7xx_HAL_Driver/Src/stm32h7xx_hal_tim_ex.c ****   *         For TIM23, the parameter is one of the following values: (*)
2319:Drivers/STM32H7xx_HAL_Driver/Src/stm32h7xx_hal_tim_ex.c ****   *            @arg TIM_TIM23_ETR_GPIO               TIM23_ETR is connected to GPIO
2320:Drivers/STM32H7xx_HAL_Driver/Src/stm32h7xx_hal_tim_ex.c ****   *            @arg TIM_TIM23_ETR_COMP1              TIM23_ETR is connected to COMP1 output
2321:Drivers/STM32H7xx_HAL_Driver/Src/stm32h7xx_hal_tim_ex.c ****   *            @arg TIM_TIM23_ETR_COMP2              TIM23_ETR is connected to COMP2 output
2322:Drivers/STM32H7xx_HAL_Driver/Src/stm32h7xx_hal_tim_ex.c ****   *
2323:Drivers/STM32H7xx_HAL_Driver/Src/stm32h7xx_hal_tim_ex.c ****   *         For TIM24, the parameter is one of the following values: (*)
2324:Drivers/STM32H7xx_HAL_Driver/Src/stm32h7xx_hal_tim_ex.c ****   *           @arg TIM_TIM24_ETR_GPIO                TIM24_ETR is connected to GPIO
2325:Drivers/STM32H7xx_HAL_Driver/Src/stm32h7xx_hal_tim_ex.c ****   *           @arg TIM_TIM24_ETR_SAI4_FSA            TIM24_ETR is connected to SAI4 FS_A
2326:Drivers/STM32H7xx_HAL_Driver/Src/stm32h7xx_hal_tim_ex.c ****   *           @arg TIM_TIM24_ETR_SAI4_FSB            TIM24_ETR is connected to SAI4 FS_B
2327:Drivers/STM32H7xx_HAL_Driver/Src/stm32h7xx_hal_tim_ex.c ****   *           @arg TIM_TIM24_ETR_SAI1_FSA            TIM24_ETR is connected to SAI1 FS_A
2328:Drivers/STM32H7xx_HAL_Driver/Src/stm32h7xx_hal_tim_ex.c ****   *           @arg TIM_TIM24_ETR_SAI1_FSB            TIM24_ETR is connected to SAI1 FS_B
2329:Drivers/STM32H7xx_HAL_Driver/Src/stm32h7xx_hal_tim_ex.c ****   *
2330:Drivers/STM32H7xx_HAL_Driver/Src/stm32h7xx_hal_tim_ex.c ****   *         (*)  Value not defined in all devices.
2331:Drivers/STM32H7xx_HAL_Driver/Src/stm32h7xx_hal_tim_ex.c ****   *
2332:Drivers/STM32H7xx_HAL_Driver/Src/stm32h7xx_hal_tim_ex.c ****   * @retval HAL status
2333:Drivers/STM32H7xx_HAL_Driver/Src/stm32h7xx_hal_tim_ex.c ****   */
2334:Drivers/STM32H7xx_HAL_Driver/Src/stm32h7xx_hal_tim_ex.c **** HAL_StatusTypeDef HAL_TIMEx_RemapConfig(TIM_HandleTypeDef *htim, uint32_t Remap)
2335:Drivers/STM32H7xx_HAL_Driver/Src/stm32h7xx_hal_tim_ex.c **** {
 6691              		.loc 1 2335 1
 6692              		.cfi_startproc
 6693              		@ args = 0, pretend = 0, frame = 8
 6694              		@ frame_needed = 1, uses_anonymous_args = 0
 6695              		@ link register save eliminated.
 6696 0000 80B4     		push	{r7}
 6697              	.LCFI168:
 6698              		.cfi_def_cfa_offset 4
 6699              		.cfi_offset 7, -4
 6700 0002 83B0     		sub	sp, sp, #12
 6701              	.LCFI169:
 6702              		.cfi_def_cfa_offset 16
 6703 0004 00AF     		add	r7, sp, #0
 6704              	.LCFI170:
 6705              		.cfi_def_cfa_register 7
 6706 0006 7860     		str	r0, [r7, #4]
 6707 0008 3960     		str	r1, [r7]
2336:Drivers/STM32H7xx_HAL_Driver/Src/stm32h7xx_hal_tim_ex.c ****   /* Check parameters */
2337:Drivers/STM32H7xx_HAL_Driver/Src/stm32h7xx_hal_tim_ex.c ****   assert_param(IS_TIM_REMAP_INSTANCE(htim->Instance));
2338:Drivers/STM32H7xx_HAL_Driver/Src/stm32h7xx_hal_tim_ex.c ****   assert_param(IS_TIM_REMAP(Remap));
2339:Drivers/STM32H7xx_HAL_Driver/Src/stm32h7xx_hal_tim_ex.c **** 
2340:Drivers/STM32H7xx_HAL_Driver/Src/stm32h7xx_hal_tim_ex.c ****   __HAL_LOCK(htim);
 6708              		.loc 1 2340 3
 6709 000a 7B68     		ldr	r3, [r7, #4]
 6710 000c 93F83C30 		ldrb	r3, [r3, #60]	@ zero_extendqisi2
 6711 0010 012B     		cmp	r3, #1
ARM GAS  C:\Users\Su\AppData\Local\Temp\ccm0VnUy.s 			page 159


 6712 0012 01D1     		bne	.L398
 6713              		.loc 1 2340 3 is_stmt 0 discriminator 1
 6714 0014 0223     		movs	r3, #2
 6715 0016 12E0     		b	.L399
 6716              	.L398:
 6717              		.loc 1 2340 3 discriminator 2
 6718 0018 7B68     		ldr	r3, [r7, #4]
 6719 001a 0122     		movs	r2, #1
 6720 001c 83F83C20 		strb	r2, [r3, #60]
2341:Drivers/STM32H7xx_HAL_Driver/Src/stm32h7xx_hal_tim_ex.c **** 
2342:Drivers/STM32H7xx_HAL_Driver/Src/stm32h7xx_hal_tim_ex.c ****   MODIFY_REG(htim->Instance->AF1, TIM1_AF1_ETRSEL_Msk, Remap);
 6721              		.loc 1 2342 3 is_stmt 1 discriminator 2
 6722 0020 7B68     		ldr	r3, [r7, #4]
 6723 0022 1B68     		ldr	r3, [r3]
 6724 0024 1B6E     		ldr	r3, [r3, #96]
 6725 0026 23F47031 		bic	r1, r3, #245760
 6726 002a 7B68     		ldr	r3, [r7, #4]
 6727 002c 1B68     		ldr	r3, [r3]
 6728 002e 3A68     		ldr	r2, [r7]
 6729 0030 0A43     		orrs	r2, r2, r1
 6730 0032 1A66     		str	r2, [r3, #96]
2343:Drivers/STM32H7xx_HAL_Driver/Src/stm32h7xx_hal_tim_ex.c **** 
2344:Drivers/STM32H7xx_HAL_Driver/Src/stm32h7xx_hal_tim_ex.c ****   __HAL_UNLOCK(htim);
 6731              		.loc 1 2344 3 discriminator 2
 6732 0034 7B68     		ldr	r3, [r7, #4]
 6733 0036 0022     		movs	r2, #0
 6734 0038 83F83C20 		strb	r2, [r3, #60]
2345:Drivers/STM32H7xx_HAL_Driver/Src/stm32h7xx_hal_tim_ex.c **** 
2346:Drivers/STM32H7xx_HAL_Driver/Src/stm32h7xx_hal_tim_ex.c ****   return HAL_OK;
 6735              		.loc 1 2346 10 discriminator 2
 6736 003c 0023     		movs	r3, #0
 6737              	.L399:
2347:Drivers/STM32H7xx_HAL_Driver/Src/stm32h7xx_hal_tim_ex.c **** }
 6738              		.loc 1 2347 1
 6739 003e 1846     		mov	r0, r3
 6740 0040 0C37     		adds	r7, r7, #12
 6741              	.LCFI171:
 6742              		.cfi_def_cfa_offset 4
 6743 0042 BD46     		mov	sp, r7
 6744              	.LCFI172:
 6745              		.cfi_def_cfa_register 13
 6746              		@ sp needed
 6747 0044 5DF8047B 		ldr	r7, [sp], #4
 6748              	.LCFI173:
 6749              		.cfi_restore 7
 6750              		.cfi_def_cfa_offset 0
 6751 0048 7047     		bx	lr
 6752              		.cfi_endproc
 6753              	.LFE176:
 6755              		.section	.text.HAL_TIMEx_TISelection,"ax",%progbits
 6756              		.align	1
 6757              		.global	HAL_TIMEx_TISelection
 6758              		.syntax unified
 6759              		.thumb
 6760              		.thumb_func
 6762              	HAL_TIMEx_TISelection:
 6763              	.LFB177:
ARM GAS  C:\Users\Su\AppData\Local\Temp\ccm0VnUy.s 			page 160


2348:Drivers/STM32H7xx_HAL_Driver/Src/stm32h7xx_hal_tim_ex.c **** 
2349:Drivers/STM32H7xx_HAL_Driver/Src/stm32h7xx_hal_tim_ex.c **** /**
2350:Drivers/STM32H7xx_HAL_Driver/Src/stm32h7xx_hal_tim_ex.c ****   * @brief  Select the timer input source
2351:Drivers/STM32H7xx_HAL_Driver/Src/stm32h7xx_hal_tim_ex.c ****   * @param  htim TIM handle.
2352:Drivers/STM32H7xx_HAL_Driver/Src/stm32h7xx_hal_tim_ex.c ****   * @param  Channel specifies the TIM Channel
2353:Drivers/STM32H7xx_HAL_Driver/Src/stm32h7xx_hal_tim_ex.c ****   *          This parameter can be one of the following values:
2354:Drivers/STM32H7xx_HAL_Driver/Src/stm32h7xx_hal_tim_ex.c ****   *            @arg TIM_CHANNEL_1: TI1 input channel
2355:Drivers/STM32H7xx_HAL_Driver/Src/stm32h7xx_hal_tim_ex.c ****   *            @arg TIM_CHANNEL_2: TI2 input channel
2356:Drivers/STM32H7xx_HAL_Driver/Src/stm32h7xx_hal_tim_ex.c ****   *            @arg TIM_CHANNEL_3: TIM Channel 3
2357:Drivers/STM32H7xx_HAL_Driver/Src/stm32h7xx_hal_tim_ex.c ****   *            @arg TIM_CHANNEL_4: TIM Channel 4
2358:Drivers/STM32H7xx_HAL_Driver/Src/stm32h7xx_hal_tim_ex.c ****   * @param  TISelection parameter of the TIM_TISelectionStruct structure is detailed as follows:
2359:Drivers/STM32H7xx_HAL_Driver/Src/stm32h7xx_hal_tim_ex.c ****   *         For TIM1, the parameter is one of the following values:
2360:Drivers/STM32H7xx_HAL_Driver/Src/stm32h7xx_hal_tim_ex.c ****   *            @arg TIM_TIM1_TI1_GPIO:                TIM1 TI1 is connected to GPIO
2361:Drivers/STM32H7xx_HAL_Driver/Src/stm32h7xx_hal_tim_ex.c ****   *            @arg TIM_TIM1_TI1_COMP1:               TIM1 TI1 is connected to COMP1 output
2362:Drivers/STM32H7xx_HAL_Driver/Src/stm32h7xx_hal_tim_ex.c ****   *
2363:Drivers/STM32H7xx_HAL_Driver/Src/stm32h7xx_hal_tim_ex.c ****   *         For TIM2, the parameter is one of the following values:
2364:Drivers/STM32H7xx_HAL_Driver/Src/stm32h7xx_hal_tim_ex.c ****   *            @arg TIM_TIM2_TI4_GPIO:                TIM2 TI4 is connected to GPIO
2365:Drivers/STM32H7xx_HAL_Driver/Src/stm32h7xx_hal_tim_ex.c ****   *            @arg TIM_TIM2_TI4_COMP1:               TIM2 TI4 is connected to COMP1 output
2366:Drivers/STM32H7xx_HAL_Driver/Src/stm32h7xx_hal_tim_ex.c ****   *            @arg TIM_TIM2_TI4_COMP2:               TIM2 TI4 is connected to COMP2 output
2367:Drivers/STM32H7xx_HAL_Driver/Src/stm32h7xx_hal_tim_ex.c ****   *            @arg TIM_TIM2_TI4_COMP1_COMP2:         TIM2 TI4 is connected to logical OR between C
2368:Drivers/STM32H7xx_HAL_Driver/Src/stm32h7xx_hal_tim_ex.c ****   *
2369:Drivers/STM32H7xx_HAL_Driver/Src/stm32h7xx_hal_tim_ex.c ****   *         For TIM3, the parameter is one of the following values:
2370:Drivers/STM32H7xx_HAL_Driver/Src/stm32h7xx_hal_tim_ex.c ****   *            @arg TIM_TIM3_TI1_GPIO:                TIM3 TI1 is connected to GPIO
2371:Drivers/STM32H7xx_HAL_Driver/Src/stm32h7xx_hal_tim_ex.c ****   *            @arg TIM_TIM3_TI1_COMP1:               TIM3 TI1 is connected to COMP1 output
2372:Drivers/STM32H7xx_HAL_Driver/Src/stm32h7xx_hal_tim_ex.c ****   *            @arg TIM_TIM3_TI1_COMP2:               TIM3 TI1 is connected to COMP2 output
2373:Drivers/STM32H7xx_HAL_Driver/Src/stm32h7xx_hal_tim_ex.c ****   *            @arg TIM_TIM3_TI1_COMP1_COMP2:         TIM3 TI1 is connected to logical OR between C
2374:Drivers/STM32H7xx_HAL_Driver/Src/stm32h7xx_hal_tim_ex.c ****   *
2375:Drivers/STM32H7xx_HAL_Driver/Src/stm32h7xx_hal_tim_ex.c ****   *         For TIM5, the parameter is one of the following values:
2376:Drivers/STM32H7xx_HAL_Driver/Src/stm32h7xx_hal_tim_ex.c ****   *            @arg TIM_TIM5_TI1_GPIO:                TIM5 TI1 is connected to GPIO
2377:Drivers/STM32H7xx_HAL_Driver/Src/stm32h7xx_hal_tim_ex.c ****   *            @arg TIM_TIM5_TI1_CAN_TMP:             TIM5 TI1 is connected to CAN TMP
2378:Drivers/STM32H7xx_HAL_Driver/Src/stm32h7xx_hal_tim_ex.c ****   *            @arg TIM_TIM5_TI1_CAN_RTP:             TIM5 TI1 is connected to CAN RTP
2379:Drivers/STM32H7xx_HAL_Driver/Src/stm32h7xx_hal_tim_ex.c ****   *
2380:Drivers/STM32H7xx_HAL_Driver/Src/stm32h7xx_hal_tim_ex.c ****   *         For TIM8, the parameter is one of the following values:
2381:Drivers/STM32H7xx_HAL_Driver/Src/stm32h7xx_hal_tim_ex.c ****   *            @arg TIM_TIM8_TI1_GPIO:               TIM8 TI1 is connected to GPIO
2382:Drivers/STM32H7xx_HAL_Driver/Src/stm32h7xx_hal_tim_ex.c ****   *            @arg TIM_TIM8_TI1_COMP2:              TIM8 TI1 is connected to COMP2 output
2383:Drivers/STM32H7xx_HAL_Driver/Src/stm32h7xx_hal_tim_ex.c ****   *
2384:Drivers/STM32H7xx_HAL_Driver/Src/stm32h7xx_hal_tim_ex.c ****   *         For TIM12, the parameter can have the following values: (*)
2385:Drivers/STM32H7xx_HAL_Driver/Src/stm32h7xx_hal_tim_ex.c ****   *            @arg TIM_TIM12_TI1_GPIO:              TIM12 TI1 is connected to GPIO
2386:Drivers/STM32H7xx_HAL_Driver/Src/stm32h7xx_hal_tim_ex.c ****   *            @arg TIM_TIM12_TI1_SPDIF_FS:          TIM12 TI1 is connected to SPDIF FS
2387:Drivers/STM32H7xx_HAL_Driver/Src/stm32h7xx_hal_tim_ex.c ****   *
2388:Drivers/STM32H7xx_HAL_Driver/Src/stm32h7xx_hal_tim_ex.c ****   *         For TIM15, the parameter is one of the following values:
2389:Drivers/STM32H7xx_HAL_Driver/Src/stm32h7xx_hal_tim_ex.c ****   *            @arg TIM_TIM15_TI1_GPIO:              TIM15 TI1 is connected to GPIO
2390:Drivers/STM32H7xx_HAL_Driver/Src/stm32h7xx_hal_tim_ex.c ****   *            @arg TIM_TIM15_TI1_TIM2:              TIM15 TI1 is connected to TIM2 CH1
2391:Drivers/STM32H7xx_HAL_Driver/Src/stm32h7xx_hal_tim_ex.c ****   *            @arg TIM_TIM15_TI1_TIM3:              TIM15 TI1 is connected to TIM3 CH1
2392:Drivers/STM32H7xx_HAL_Driver/Src/stm32h7xx_hal_tim_ex.c ****   *            @arg TIM_TIM15_TI1_TIM4:              TIM15 TI1 is connected to TIM4 CH1
2393:Drivers/STM32H7xx_HAL_Driver/Src/stm32h7xx_hal_tim_ex.c ****   *            @arg TIM_TIM15_TI1_LSE:               TIM15 TI1 is connected to LSE
2394:Drivers/STM32H7xx_HAL_Driver/Src/stm32h7xx_hal_tim_ex.c ****   *            @arg TIM_TIM15_TI1_CSI:               TIM15 TI1 is connected to CSI
2395:Drivers/STM32H7xx_HAL_Driver/Src/stm32h7xx_hal_tim_ex.c ****   *            @arg TIM_TIM15_TI1_MCO2:              TIM15 TI1 is connected to MCO2
2396:Drivers/STM32H7xx_HAL_Driver/Src/stm32h7xx_hal_tim_ex.c ****   *            @arg TIM_TIM15_TI2_GPIO:              TIM15 TI2 is connected to GPIO
2397:Drivers/STM32H7xx_HAL_Driver/Src/stm32h7xx_hal_tim_ex.c ****   *            @arg TIM_TIM15_TI2_TIM2:              TIM15 TI2 is connected to TIM2 CH2
2398:Drivers/STM32H7xx_HAL_Driver/Src/stm32h7xx_hal_tim_ex.c ****   *            @arg TIM_TIM15_TI2_TIM3:              TIM15 TI2 is connected to TIM3 CH2
2399:Drivers/STM32H7xx_HAL_Driver/Src/stm32h7xx_hal_tim_ex.c ****   *            @arg TIM_TIM15_TI2_TIM4:              TIM15 TI2 is connected to TIM4 CH2
2400:Drivers/STM32H7xx_HAL_Driver/Src/stm32h7xx_hal_tim_ex.c ****   *
2401:Drivers/STM32H7xx_HAL_Driver/Src/stm32h7xx_hal_tim_ex.c ****   *         For TIM16, the parameter can have the following values:
2402:Drivers/STM32H7xx_HAL_Driver/Src/stm32h7xx_hal_tim_ex.c ****   *            @arg TIM_TIM16_TI1_GPIO:              TIM16 TI1 is connected to GPIO
2403:Drivers/STM32H7xx_HAL_Driver/Src/stm32h7xx_hal_tim_ex.c ****   *            @arg TIM_TIM16_TI1_LSI:               TIM16 TI1 is connected to LSI
2404:Drivers/STM32H7xx_HAL_Driver/Src/stm32h7xx_hal_tim_ex.c ****   *            @arg TIM_TIM16_TI1_LSE:               TIM16 TI1 is connected to LSE
ARM GAS  C:\Users\Su\AppData\Local\Temp\ccm0VnUy.s 			page 161


2405:Drivers/STM32H7xx_HAL_Driver/Src/stm32h7xx_hal_tim_ex.c ****   *            @arg TIM_TIM16_TI1_RTC:               TIM16 TI1 is connected to RTC wakeup interrupt
2406:Drivers/STM32H7xx_HAL_Driver/Src/stm32h7xx_hal_tim_ex.c ****   *
2407:Drivers/STM32H7xx_HAL_Driver/Src/stm32h7xx_hal_tim_ex.c ****   *         For TIM17, the parameter can have the following values:
2408:Drivers/STM32H7xx_HAL_Driver/Src/stm32h7xx_hal_tim_ex.c ****   *            @arg TIM_TIM17_TI1_GPIO:              TIM17 TI1 is connected to GPIO
2409:Drivers/STM32H7xx_HAL_Driver/Src/stm32h7xx_hal_tim_ex.c ****   *            @arg TIM_TIM17_TI1_SPDIF_FS:          TIM17 TI1 is connected to SPDIF FS (*)
2410:Drivers/STM32H7xx_HAL_Driver/Src/stm32h7xx_hal_tim_ex.c ****   *            @arg TIM_TIM17_TI1_HSE_1MHZ:          TIM17 TI1 is connected to HSE 1MHz
2411:Drivers/STM32H7xx_HAL_Driver/Src/stm32h7xx_hal_tim_ex.c ****   *            @arg TIM_TIM17_TI1_MCO1:              TIM17 TI1 is connected to MCO1
2412:Drivers/STM32H7xx_HAL_Driver/Src/stm32h7xx_hal_tim_ex.c ****   *
2413:Drivers/STM32H7xx_HAL_Driver/Src/stm32h7xx_hal_tim_ex.c ****   *         For TIM23, the parameter can have the following values: (*)
2414:Drivers/STM32H7xx_HAL_Driver/Src/stm32h7xx_hal_tim_ex.c ****   *            @arg TIM_TIM23_TI4_GPIO               TIM23_TI4 is connected to GPIO
2415:Drivers/STM32H7xx_HAL_Driver/Src/stm32h7xx_hal_tim_ex.c ****   *            @arg TIM_TIM23_TI4_COMP1              TIM23_TI4 is connected to COMP1 output
2416:Drivers/STM32H7xx_HAL_Driver/Src/stm32h7xx_hal_tim_ex.c ****   *            @arg TIM_TIM23_TI4_COMP2              TIM23_TI4 is connected to COMP2 output
2417:Drivers/STM32H7xx_HAL_Driver/Src/stm32h7xx_hal_tim_ex.c ****   *            @arg TIM_TIM23_TI4_COMP1_COMP2        TIM23_TI4 is connected to COMP2 output
2418:Drivers/STM32H7xx_HAL_Driver/Src/stm32h7xx_hal_tim_ex.c ****   *
2419:Drivers/STM32H7xx_HAL_Driver/Src/stm32h7xx_hal_tim_ex.c ****   *         For TIM24, the parameter can have the following values: (*)
2420:Drivers/STM32H7xx_HAL_Driver/Src/stm32h7xx_hal_tim_ex.c ****   *            @arg TIM_TIM24_TI1_GPIO               TIM24_TI1 is connected to GPIO
2421:Drivers/STM32H7xx_HAL_Driver/Src/stm32h7xx_hal_tim_ex.c ****   *            @arg TIM_TIM24_TI1_CAN_TMP            TIM24_TI1 is connected to CAN_TMP
2422:Drivers/STM32H7xx_HAL_Driver/Src/stm32h7xx_hal_tim_ex.c ****   *            @arg TIM_TIM24_TI1_CAN_RTP            TIM24_TI1 is connected to CAN_RTP
2423:Drivers/STM32H7xx_HAL_Driver/Src/stm32h7xx_hal_tim_ex.c ****   *            @arg TIM_TIM24_TI1_CAN_SOC            TIM24_TI1 is connected to CAN_SOC
2424:Drivers/STM32H7xx_HAL_Driver/Src/stm32h7xx_hal_tim_ex.c ****   *
2425:Drivers/STM32H7xx_HAL_Driver/Src/stm32h7xx_hal_tim_ex.c ****   *         (*)  Value not defined in all devices. \n
2426:Drivers/STM32H7xx_HAL_Driver/Src/stm32h7xx_hal_tim_ex.c ****   * @retval HAL status
2427:Drivers/STM32H7xx_HAL_Driver/Src/stm32h7xx_hal_tim_ex.c ****   */
2428:Drivers/STM32H7xx_HAL_Driver/Src/stm32h7xx_hal_tim_ex.c **** HAL_StatusTypeDef  HAL_TIMEx_TISelection(TIM_HandleTypeDef *htim, uint32_t TISelection, uint32_t Ch
2429:Drivers/STM32H7xx_HAL_Driver/Src/stm32h7xx_hal_tim_ex.c **** {
 6764              		.loc 1 2429 1
 6765              		.cfi_startproc
 6766              		@ args = 0, pretend = 0, frame = 24
 6767              		@ frame_needed = 1, uses_anonymous_args = 0
 6768              		@ link register save eliminated.
 6769 0000 80B4     		push	{r7}
 6770              	.LCFI174:
 6771              		.cfi_def_cfa_offset 4
 6772              		.cfi_offset 7, -4
 6773 0002 87B0     		sub	sp, sp, #28
 6774              	.LCFI175:
 6775              		.cfi_def_cfa_offset 32
 6776 0004 00AF     		add	r7, sp, #0
 6777              	.LCFI176:
 6778              		.cfi_def_cfa_register 7
 6779 0006 F860     		str	r0, [r7, #12]
 6780 0008 B960     		str	r1, [r7, #8]
 6781 000a 7A60     		str	r2, [r7, #4]
2430:Drivers/STM32H7xx_HAL_Driver/Src/stm32h7xx_hal_tim_ex.c ****   HAL_StatusTypeDef status = HAL_OK;
 6782              		.loc 1 2430 21
 6783 000c 0023     		movs	r3, #0
 6784 000e FB75     		strb	r3, [r7, #23]
2431:Drivers/STM32H7xx_HAL_Driver/Src/stm32h7xx_hal_tim_ex.c **** 
2432:Drivers/STM32H7xx_HAL_Driver/Src/stm32h7xx_hal_tim_ex.c ****   /* Check parameters */
2433:Drivers/STM32H7xx_HAL_Driver/Src/stm32h7xx_hal_tim_ex.c ****   assert_param(IS_TIM_TISEL_INSTANCE(htim->Instance));
2434:Drivers/STM32H7xx_HAL_Driver/Src/stm32h7xx_hal_tim_ex.c ****   assert_param(IS_TIM_TISEL(TISelection));
2435:Drivers/STM32H7xx_HAL_Driver/Src/stm32h7xx_hal_tim_ex.c **** 
2436:Drivers/STM32H7xx_HAL_Driver/Src/stm32h7xx_hal_tim_ex.c ****   __HAL_LOCK(htim);
 6785              		.loc 1 2436 3
 6786 0010 FB68     		ldr	r3, [r7, #12]
 6787 0012 93F83C30 		ldrb	r3, [r3, #60]	@ zero_extendqisi2
 6788 0016 012B     		cmp	r3, #1
ARM GAS  C:\Users\Su\AppData\Local\Temp\ccm0VnUy.s 			page 162


 6789 0018 01D1     		bne	.L401
 6790              		.loc 1 2436 3 is_stmt 0 discriminator 1
 6791 001a 0223     		movs	r3, #2
 6792 001c 58E0     		b	.L402
 6793              	.L401:
 6794              		.loc 1 2436 3 discriminator 2
 6795 001e FB68     		ldr	r3, [r7, #12]
 6796 0020 0122     		movs	r2, #1
 6797 0022 83F83C20 		strb	r2, [r3, #60]
2437:Drivers/STM32H7xx_HAL_Driver/Src/stm32h7xx_hal_tim_ex.c **** 
2438:Drivers/STM32H7xx_HAL_Driver/Src/stm32h7xx_hal_tim_ex.c ****   switch (Channel)
 6798              		.loc 1 2438 3 is_stmt 1 discriminator 2
 6799 0026 7B68     		ldr	r3, [r7, #4]
 6800 0028 0C2B     		cmp	r3, #12
 6801 002a 49D8     		bhi	.L403
 6802 002c 01A2     		adr	r2, .L405
 6803 002e 52F823F0 		ldr	pc, [r2, r3, lsl #2]
 6804 0032 00BF     		.p2align 2
 6805              	.L405:
 6806 0034 69000000 		.word	.L408+1
 6807 0038 C1000000 		.word	.L403+1
 6808 003c C1000000 		.word	.L403+1
 6809 0040 C1000000 		.word	.L403+1
 6810 0044 7F000000 		.word	.L407+1
 6811 0048 C1000000 		.word	.L403+1
 6812 004c C1000000 		.word	.L403+1
 6813 0050 C1000000 		.word	.L403+1
 6814 0054 95000000 		.word	.L406+1
 6815 0058 C1000000 		.word	.L403+1
 6816 005c C1000000 		.word	.L403+1
 6817 0060 C1000000 		.word	.L403+1
 6818 0064 AB000000 		.word	.L404+1
 6819              		.p2align 1
 6820              	.L408:
2439:Drivers/STM32H7xx_HAL_Driver/Src/stm32h7xx_hal_tim_ex.c ****   {
2440:Drivers/STM32H7xx_HAL_Driver/Src/stm32h7xx_hal_tim_ex.c ****     case TIM_CHANNEL_1:
2441:Drivers/STM32H7xx_HAL_Driver/Src/stm32h7xx_hal_tim_ex.c ****       MODIFY_REG(htim->Instance->TISEL, TIM_TISEL_TI1SEL, TISelection);
 6821              		.loc 1 2441 7
 6822 0068 FB68     		ldr	r3, [r7, #12]
 6823 006a 1B68     		ldr	r3, [r3]
 6824 006c 9B6E     		ldr	r3, [r3, #104]
 6825 006e 23F00F01 		bic	r1, r3, #15
 6826 0072 FB68     		ldr	r3, [r7, #12]
 6827 0074 1B68     		ldr	r3, [r3]
 6828 0076 BA68     		ldr	r2, [r7, #8]
 6829 0078 0A43     		orrs	r2, r2, r1
 6830 007a 9A66     		str	r2, [r3, #104]
2442:Drivers/STM32H7xx_HAL_Driver/Src/stm32h7xx_hal_tim_ex.c ****       break;
 6831              		.loc 1 2442 7
 6832 007c 23E0     		b	.L409
 6833              	.L407:
2443:Drivers/STM32H7xx_HAL_Driver/Src/stm32h7xx_hal_tim_ex.c ****     case TIM_CHANNEL_2:
2444:Drivers/STM32H7xx_HAL_Driver/Src/stm32h7xx_hal_tim_ex.c ****       MODIFY_REG(htim->Instance->TISEL, TIM_TISEL_TI2SEL, TISelection);
 6834              		.loc 1 2444 7
 6835 007e FB68     		ldr	r3, [r7, #12]
 6836 0080 1B68     		ldr	r3, [r3]
 6837 0082 9B6E     		ldr	r3, [r3, #104]
ARM GAS  C:\Users\Su\AppData\Local\Temp\ccm0VnUy.s 			page 163


 6838 0084 23F47061 		bic	r1, r3, #3840
 6839 0088 FB68     		ldr	r3, [r7, #12]
 6840 008a 1B68     		ldr	r3, [r3]
 6841 008c BA68     		ldr	r2, [r7, #8]
 6842 008e 0A43     		orrs	r2, r2, r1
 6843 0090 9A66     		str	r2, [r3, #104]
2445:Drivers/STM32H7xx_HAL_Driver/Src/stm32h7xx_hal_tim_ex.c ****       break;
 6844              		.loc 1 2445 7
 6845 0092 18E0     		b	.L409
 6846              	.L406:
2446:Drivers/STM32H7xx_HAL_Driver/Src/stm32h7xx_hal_tim_ex.c ****     case TIM_CHANNEL_3:
2447:Drivers/STM32H7xx_HAL_Driver/Src/stm32h7xx_hal_tim_ex.c ****       MODIFY_REG(htim->Instance->TISEL, TIM_TISEL_TI3SEL, TISelection);
 6847              		.loc 1 2447 7
 6848 0094 FB68     		ldr	r3, [r7, #12]
 6849 0096 1B68     		ldr	r3, [r3]
 6850 0098 9B6E     		ldr	r3, [r3, #104]
 6851 009a 23F47021 		bic	r1, r3, #983040
 6852 009e FB68     		ldr	r3, [r7, #12]
 6853 00a0 1B68     		ldr	r3, [r3]
 6854 00a2 BA68     		ldr	r2, [r7, #8]
 6855 00a4 0A43     		orrs	r2, r2, r1
 6856 00a6 9A66     		str	r2, [r3, #104]
2448:Drivers/STM32H7xx_HAL_Driver/Src/stm32h7xx_hal_tim_ex.c ****       break;
 6857              		.loc 1 2448 7
 6858 00a8 0DE0     		b	.L409
 6859              	.L404:
2449:Drivers/STM32H7xx_HAL_Driver/Src/stm32h7xx_hal_tim_ex.c ****     case TIM_CHANNEL_4:
2450:Drivers/STM32H7xx_HAL_Driver/Src/stm32h7xx_hal_tim_ex.c ****       MODIFY_REG(htim->Instance->TISEL, TIM_TISEL_TI4SEL, TISelection);
 6860              		.loc 1 2450 7
 6861 00aa FB68     		ldr	r3, [r7, #12]
 6862 00ac 1B68     		ldr	r3, [r3]
 6863 00ae 9B6E     		ldr	r3, [r3, #104]
 6864 00b0 23F07061 		bic	r1, r3, #251658240
 6865 00b4 FB68     		ldr	r3, [r7, #12]
 6866 00b6 1B68     		ldr	r3, [r3]
 6867 00b8 BA68     		ldr	r2, [r7, #8]
 6868 00ba 0A43     		orrs	r2, r2, r1
 6869 00bc 9A66     		str	r2, [r3, #104]
2451:Drivers/STM32H7xx_HAL_Driver/Src/stm32h7xx_hal_tim_ex.c ****       break;
 6870              		.loc 1 2451 7
 6871 00be 02E0     		b	.L409
 6872              	.L403:
2452:Drivers/STM32H7xx_HAL_Driver/Src/stm32h7xx_hal_tim_ex.c ****     default:
2453:Drivers/STM32H7xx_HAL_Driver/Src/stm32h7xx_hal_tim_ex.c ****       status = HAL_ERROR;
 6873              		.loc 1 2453 14
 6874 00c0 0123     		movs	r3, #1
 6875 00c2 FB75     		strb	r3, [r7, #23]
2454:Drivers/STM32H7xx_HAL_Driver/Src/stm32h7xx_hal_tim_ex.c ****       break;
 6876              		.loc 1 2454 7
 6877 00c4 00BF     		nop
 6878              	.L409:
2455:Drivers/STM32H7xx_HAL_Driver/Src/stm32h7xx_hal_tim_ex.c ****   }
2456:Drivers/STM32H7xx_HAL_Driver/Src/stm32h7xx_hal_tim_ex.c **** 
2457:Drivers/STM32H7xx_HAL_Driver/Src/stm32h7xx_hal_tim_ex.c ****   __HAL_UNLOCK(htim);
 6879              		.loc 1 2457 3
 6880 00c6 FB68     		ldr	r3, [r7, #12]
 6881 00c8 0022     		movs	r2, #0
ARM GAS  C:\Users\Su\AppData\Local\Temp\ccm0VnUy.s 			page 164


 6882 00ca 83F83C20 		strb	r2, [r3, #60]
2458:Drivers/STM32H7xx_HAL_Driver/Src/stm32h7xx_hal_tim_ex.c **** 
2459:Drivers/STM32H7xx_HAL_Driver/Src/stm32h7xx_hal_tim_ex.c ****   return status;
 6883              		.loc 1 2459 10
 6884 00ce FB7D     		ldrb	r3, [r7, #23]	@ zero_extendqisi2
 6885              	.L402:
2460:Drivers/STM32H7xx_HAL_Driver/Src/stm32h7xx_hal_tim_ex.c **** }
 6886              		.loc 1 2460 1
 6887 00d0 1846     		mov	r0, r3
 6888 00d2 1C37     		adds	r7, r7, #28
 6889              	.LCFI177:
 6890              		.cfi_def_cfa_offset 4
 6891 00d4 BD46     		mov	sp, r7
 6892              	.LCFI178:
 6893              		.cfi_def_cfa_register 13
 6894              		@ sp needed
 6895 00d6 5DF8047B 		ldr	r7, [sp], #4
 6896              	.LCFI179:
 6897              		.cfi_restore 7
 6898              		.cfi_def_cfa_offset 0
 6899 00da 7047     		bx	lr
 6900              		.cfi_endproc
 6901              	.LFE177:
 6903              		.section	.text.HAL_TIMEx_GroupChannel5,"ax",%progbits
 6904              		.align	1
 6905              		.global	HAL_TIMEx_GroupChannel5
 6906              		.syntax unified
 6907              		.thumb
 6908              		.thumb_func
 6910              	HAL_TIMEx_GroupChannel5:
 6911              	.LFB178:
2461:Drivers/STM32H7xx_HAL_Driver/Src/stm32h7xx_hal_tim_ex.c **** 
2462:Drivers/STM32H7xx_HAL_Driver/Src/stm32h7xx_hal_tim_ex.c **** /**
2463:Drivers/STM32H7xx_HAL_Driver/Src/stm32h7xx_hal_tim_ex.c ****   * @brief  Group channel 5 and channel 1, 2 or 3
2464:Drivers/STM32H7xx_HAL_Driver/Src/stm32h7xx_hal_tim_ex.c ****   * @param  htim TIM handle.
2465:Drivers/STM32H7xx_HAL_Driver/Src/stm32h7xx_hal_tim_ex.c ****   * @param  Channels specifies the reference signal(s) the OC5REF is combined with.
2466:Drivers/STM32H7xx_HAL_Driver/Src/stm32h7xx_hal_tim_ex.c ****   *         This parameter can be any combination of the following values:
2467:Drivers/STM32H7xx_HAL_Driver/Src/stm32h7xx_hal_tim_ex.c ****   *         TIM_GROUPCH5_NONE: No effect of OC5REF on OC1REFC, OC2REFC and OC3REFC
2468:Drivers/STM32H7xx_HAL_Driver/Src/stm32h7xx_hal_tim_ex.c ****   *         TIM_GROUPCH5_OC1REFC: OC1REFC is the logical AND of OC1REFC and OC5REF
2469:Drivers/STM32H7xx_HAL_Driver/Src/stm32h7xx_hal_tim_ex.c ****   *         TIM_GROUPCH5_OC2REFC: OC2REFC is the logical AND of OC2REFC and OC5REF
2470:Drivers/STM32H7xx_HAL_Driver/Src/stm32h7xx_hal_tim_ex.c ****   *         TIM_GROUPCH5_OC3REFC: OC3REFC is the logical AND of OC3REFC and OC5REF
2471:Drivers/STM32H7xx_HAL_Driver/Src/stm32h7xx_hal_tim_ex.c ****   * @retval HAL status
2472:Drivers/STM32H7xx_HAL_Driver/Src/stm32h7xx_hal_tim_ex.c ****   */
2473:Drivers/STM32H7xx_HAL_Driver/Src/stm32h7xx_hal_tim_ex.c **** HAL_StatusTypeDef HAL_TIMEx_GroupChannel5(TIM_HandleTypeDef *htim, uint32_t Channels)
2474:Drivers/STM32H7xx_HAL_Driver/Src/stm32h7xx_hal_tim_ex.c **** {
 6912              		.loc 1 2474 1
 6913              		.cfi_startproc
 6914              		@ args = 0, pretend = 0, frame = 8
 6915              		@ frame_needed = 1, uses_anonymous_args = 0
 6916              		@ link register save eliminated.
 6917 0000 80B4     		push	{r7}
 6918              	.LCFI180:
 6919              		.cfi_def_cfa_offset 4
 6920              		.cfi_offset 7, -4
 6921 0002 83B0     		sub	sp, sp, #12
 6922              	.LCFI181:
 6923              		.cfi_def_cfa_offset 16
ARM GAS  C:\Users\Su\AppData\Local\Temp\ccm0VnUy.s 			page 165


 6924 0004 00AF     		add	r7, sp, #0
 6925              	.LCFI182:
 6926              		.cfi_def_cfa_register 7
 6927 0006 7860     		str	r0, [r7, #4]
 6928 0008 3960     		str	r1, [r7]
2475:Drivers/STM32H7xx_HAL_Driver/Src/stm32h7xx_hal_tim_ex.c ****   /* Check parameters */
2476:Drivers/STM32H7xx_HAL_Driver/Src/stm32h7xx_hal_tim_ex.c ****   assert_param(IS_TIM_COMBINED3PHASEPWM_INSTANCE(htim->Instance));
2477:Drivers/STM32H7xx_HAL_Driver/Src/stm32h7xx_hal_tim_ex.c ****   assert_param(IS_TIM_GROUPCH5(Channels));
2478:Drivers/STM32H7xx_HAL_Driver/Src/stm32h7xx_hal_tim_ex.c **** 
2479:Drivers/STM32H7xx_HAL_Driver/Src/stm32h7xx_hal_tim_ex.c ****   /* Process Locked */
2480:Drivers/STM32H7xx_HAL_Driver/Src/stm32h7xx_hal_tim_ex.c ****   __HAL_LOCK(htim);
 6929              		.loc 1 2480 3
 6930 000a 7B68     		ldr	r3, [r7, #4]
 6931 000c 93F83C30 		ldrb	r3, [r3, #60]	@ zero_extendqisi2
 6932 0010 012B     		cmp	r3, #1
 6933 0012 01D1     		bne	.L411
 6934              		.loc 1 2480 3 is_stmt 0 discriminator 1
 6935 0014 0223     		movs	r3, #2
 6936 0016 20E0     		b	.L412
 6937              	.L411:
 6938              		.loc 1 2480 3 discriminator 2
 6939 0018 7B68     		ldr	r3, [r7, #4]
 6940 001a 0122     		movs	r2, #1
 6941 001c 83F83C20 		strb	r2, [r3, #60]
2481:Drivers/STM32H7xx_HAL_Driver/Src/stm32h7xx_hal_tim_ex.c **** 
2482:Drivers/STM32H7xx_HAL_Driver/Src/stm32h7xx_hal_tim_ex.c ****   htim->State = HAL_TIM_STATE_BUSY;
 6942              		.loc 1 2482 15 is_stmt 1 discriminator 2
 6943 0020 7B68     		ldr	r3, [r7, #4]
 6944 0022 0222     		movs	r2, #2
 6945 0024 83F83D20 		strb	r2, [r3, #61]
2483:Drivers/STM32H7xx_HAL_Driver/Src/stm32h7xx_hal_tim_ex.c **** 
2484:Drivers/STM32H7xx_HAL_Driver/Src/stm32h7xx_hal_tim_ex.c ****   /* Clear GC5Cx bit fields */
2485:Drivers/STM32H7xx_HAL_Driver/Src/stm32h7xx_hal_tim_ex.c ****   htim->Instance->CCR5 &= ~(TIM_CCR5_GC5C3 | TIM_CCR5_GC5C2 | TIM_CCR5_GC5C1);
 6946              		.loc 1 2485 7 discriminator 2
 6947 0028 7B68     		ldr	r3, [r7, #4]
 6948 002a 1B68     		ldr	r3, [r3]
 6949              		.loc 1 2485 24 discriminator 2
 6950 002c 9A6D     		ldr	r2, [r3, #88]
 6951              		.loc 1 2485 7 discriminator 2
 6952 002e 7B68     		ldr	r3, [r7, #4]
 6953 0030 1B68     		ldr	r3, [r3]
 6954              		.loc 1 2485 24 discriminator 2
 6955 0032 22F06042 		bic	r2, r2, #-536870912
 6956 0036 9A65     		str	r2, [r3, #88]
2486:Drivers/STM32H7xx_HAL_Driver/Src/stm32h7xx_hal_tim_ex.c **** 
2487:Drivers/STM32H7xx_HAL_Driver/Src/stm32h7xx_hal_tim_ex.c ****   /* Set GC5Cx bit fields */
2488:Drivers/STM32H7xx_HAL_Driver/Src/stm32h7xx_hal_tim_ex.c ****   htim->Instance->CCR5 |= Channels;
 6957              		.loc 1 2488 7 discriminator 2
 6958 0038 7B68     		ldr	r3, [r7, #4]
 6959 003a 1B68     		ldr	r3, [r3]
 6960              		.loc 1 2488 24 discriminator 2
 6961 003c 996D     		ldr	r1, [r3, #88]
 6962              		.loc 1 2488 7 discriminator 2
 6963 003e 7B68     		ldr	r3, [r7, #4]
 6964 0040 1B68     		ldr	r3, [r3]
 6965              		.loc 1 2488 24 discriminator 2
 6966 0042 3A68     		ldr	r2, [r7]
ARM GAS  C:\Users\Su\AppData\Local\Temp\ccm0VnUy.s 			page 166


 6967 0044 0A43     		orrs	r2, r2, r1
 6968 0046 9A65     		str	r2, [r3, #88]
2489:Drivers/STM32H7xx_HAL_Driver/Src/stm32h7xx_hal_tim_ex.c **** 
2490:Drivers/STM32H7xx_HAL_Driver/Src/stm32h7xx_hal_tim_ex.c ****   /* Change the htim state */
2491:Drivers/STM32H7xx_HAL_Driver/Src/stm32h7xx_hal_tim_ex.c ****   htim->State = HAL_TIM_STATE_READY;
 6969              		.loc 1 2491 15 discriminator 2
 6970 0048 7B68     		ldr	r3, [r7, #4]
 6971 004a 0122     		movs	r2, #1
 6972 004c 83F83D20 		strb	r2, [r3, #61]
2492:Drivers/STM32H7xx_HAL_Driver/Src/stm32h7xx_hal_tim_ex.c **** 
2493:Drivers/STM32H7xx_HAL_Driver/Src/stm32h7xx_hal_tim_ex.c ****   __HAL_UNLOCK(htim);
 6973              		.loc 1 2493 3 discriminator 2
 6974 0050 7B68     		ldr	r3, [r7, #4]
 6975 0052 0022     		movs	r2, #0
 6976 0054 83F83C20 		strb	r2, [r3, #60]
2494:Drivers/STM32H7xx_HAL_Driver/Src/stm32h7xx_hal_tim_ex.c **** 
2495:Drivers/STM32H7xx_HAL_Driver/Src/stm32h7xx_hal_tim_ex.c ****   return HAL_OK;
 6977              		.loc 1 2495 10 discriminator 2
 6978 0058 0023     		movs	r3, #0
 6979              	.L412:
2496:Drivers/STM32H7xx_HAL_Driver/Src/stm32h7xx_hal_tim_ex.c **** }
 6980              		.loc 1 2496 1
 6981 005a 1846     		mov	r0, r3
 6982 005c 0C37     		adds	r7, r7, #12
 6983              	.LCFI183:
 6984              		.cfi_def_cfa_offset 4
 6985 005e BD46     		mov	sp, r7
 6986              	.LCFI184:
 6987              		.cfi_def_cfa_register 13
 6988              		@ sp needed
 6989 0060 5DF8047B 		ldr	r7, [sp], #4
 6990              	.LCFI185:
 6991              		.cfi_restore 7
 6992              		.cfi_def_cfa_offset 0
 6993 0064 7047     		bx	lr
 6994              		.cfi_endproc
 6995              	.LFE178:
 6997              		.section	.text.HAL_TIMEx_DisarmBreakInput,"ax",%progbits
 6998              		.align	1
 6999              		.global	HAL_TIMEx_DisarmBreakInput
 7000              		.syntax unified
 7001              		.thumb
 7002              		.thumb_func
 7004              	HAL_TIMEx_DisarmBreakInput:
 7005              	.LFB179:
2497:Drivers/STM32H7xx_HAL_Driver/Src/stm32h7xx_hal_tim_ex.c **** #if defined(TIM_BDTR_BKBID)
2498:Drivers/STM32H7xx_HAL_Driver/Src/stm32h7xx_hal_tim_ex.c **** 
2499:Drivers/STM32H7xx_HAL_Driver/Src/stm32h7xx_hal_tim_ex.c **** /**
2500:Drivers/STM32H7xx_HAL_Driver/Src/stm32h7xx_hal_tim_ex.c ****   * @brief  Disarm the designated break input (when it operates in bidirectional mode).
2501:Drivers/STM32H7xx_HAL_Driver/Src/stm32h7xx_hal_tim_ex.c ****   * @param  htim TIM handle.
2502:Drivers/STM32H7xx_HAL_Driver/Src/stm32h7xx_hal_tim_ex.c ****   * @param  BreakInput Break input to disarm
2503:Drivers/STM32H7xx_HAL_Driver/Src/stm32h7xx_hal_tim_ex.c ****   *          This parameter can be one of the following values:
2504:Drivers/STM32H7xx_HAL_Driver/Src/stm32h7xx_hal_tim_ex.c ****   *            @arg TIM_BREAKINPUT_BRK: Timer break input
2505:Drivers/STM32H7xx_HAL_Driver/Src/stm32h7xx_hal_tim_ex.c ****   *            @arg TIM_BREAKINPUT_BRK2: Timer break 2 input
2506:Drivers/STM32H7xx_HAL_Driver/Src/stm32h7xx_hal_tim_ex.c ****   * @note  The break input can be disarmed only when it is configured in
2507:Drivers/STM32H7xx_HAL_Driver/Src/stm32h7xx_hal_tim_ex.c ****   *        bidirectional mode and when when MOE is reset.
2508:Drivers/STM32H7xx_HAL_Driver/Src/stm32h7xx_hal_tim_ex.c ****   * @note  Purpose is to be able to have the input voltage back to high-state,
ARM GAS  C:\Users\Su\AppData\Local\Temp\ccm0VnUy.s 			page 167


2509:Drivers/STM32H7xx_HAL_Driver/Src/stm32h7xx_hal_tim_ex.c ****   *        whatever the time constant on the output .
2510:Drivers/STM32H7xx_HAL_Driver/Src/stm32h7xx_hal_tim_ex.c ****   * @retval HAL status
2511:Drivers/STM32H7xx_HAL_Driver/Src/stm32h7xx_hal_tim_ex.c ****   */
2512:Drivers/STM32H7xx_HAL_Driver/Src/stm32h7xx_hal_tim_ex.c **** HAL_StatusTypeDef HAL_TIMEx_DisarmBreakInput(TIM_HandleTypeDef *htim, uint32_t BreakInput)
2513:Drivers/STM32H7xx_HAL_Driver/Src/stm32h7xx_hal_tim_ex.c **** {
 7006              		.loc 1 2513 1
 7007              		.cfi_startproc
 7008              		@ args = 0, pretend = 0, frame = 16
 7009              		@ frame_needed = 1, uses_anonymous_args = 0
 7010              		@ link register save eliminated.
 7011 0000 80B4     		push	{r7}
 7012              	.LCFI186:
 7013              		.cfi_def_cfa_offset 4
 7014              		.cfi_offset 7, -4
 7015 0002 85B0     		sub	sp, sp, #20
 7016              	.LCFI187:
 7017              		.cfi_def_cfa_offset 24
 7018 0004 00AF     		add	r7, sp, #0
 7019              	.LCFI188:
 7020              		.cfi_def_cfa_register 7
 7021 0006 7860     		str	r0, [r7, #4]
 7022 0008 3960     		str	r1, [r7]
2514:Drivers/STM32H7xx_HAL_Driver/Src/stm32h7xx_hal_tim_ex.c ****   HAL_StatusTypeDef status = HAL_OK;
 7023              		.loc 1 2514 21
 7024 000a 0023     		movs	r3, #0
 7025 000c FB73     		strb	r3, [r7, #15]
2515:Drivers/STM32H7xx_HAL_Driver/Src/stm32h7xx_hal_tim_ex.c ****   uint32_t tmpbdtr;
2516:Drivers/STM32H7xx_HAL_Driver/Src/stm32h7xx_hal_tim_ex.c **** 
2517:Drivers/STM32H7xx_HAL_Driver/Src/stm32h7xx_hal_tim_ex.c ****   /* Check the parameters */
2518:Drivers/STM32H7xx_HAL_Driver/Src/stm32h7xx_hal_tim_ex.c ****   assert_param(IS_TIM_ADVANCED_INSTANCE(htim->Instance));
2519:Drivers/STM32H7xx_HAL_Driver/Src/stm32h7xx_hal_tim_ex.c ****   assert_param(IS_TIM_BREAKINPUT(BreakInput));
2520:Drivers/STM32H7xx_HAL_Driver/Src/stm32h7xx_hal_tim_ex.c **** 
2521:Drivers/STM32H7xx_HAL_Driver/Src/stm32h7xx_hal_tim_ex.c ****   switch (BreakInput)
 7026              		.loc 1 2521 3
 7027 000e 3B68     		ldr	r3, [r7]
 7028 0010 012B     		cmp	r3, #1
 7029 0012 03D0     		beq	.L414
 7030 0014 3B68     		ldr	r3, [r7]
 7031 0016 022B     		cmp	r3, #2
 7032 0018 17D0     		beq	.L415
 7033 001a 2DE0     		b	.L421
 7034              	.L414:
2522:Drivers/STM32H7xx_HAL_Driver/Src/stm32h7xx_hal_tim_ex.c ****   {
2523:Drivers/STM32H7xx_HAL_Driver/Src/stm32h7xx_hal_tim_ex.c ****     case TIM_BREAKINPUT_BRK:
2524:Drivers/STM32H7xx_HAL_Driver/Src/stm32h7xx_hal_tim_ex.c ****     {
2525:Drivers/STM32H7xx_HAL_Driver/Src/stm32h7xx_hal_tim_ex.c ****       /* Check initial conditions */
2526:Drivers/STM32H7xx_HAL_Driver/Src/stm32h7xx_hal_tim_ex.c ****       tmpbdtr = READ_REG(htim->Instance->BDTR);
 7035              		.loc 1 2526 17
 7036 001c 7B68     		ldr	r3, [r7, #4]
 7037 001e 1B68     		ldr	r3, [r3]
 7038              		.loc 1 2526 15
 7039 0020 5B6C     		ldr	r3, [r3, #68]
 7040 0022 BB60     		str	r3, [r7, #8]
2527:Drivers/STM32H7xx_HAL_Driver/Src/stm32h7xx_hal_tim_ex.c ****       if ((READ_BIT(tmpbdtr, TIM_BDTR_BKBID) == TIM_BDTR_BKBID) &&
 7041              		.loc 1 2527 12
 7042 0024 BB68     		ldr	r3, [r7, #8]
 7043 0026 03F08053 		and	r3, r3, #268435456
ARM GAS  C:\Users\Su\AppData\Local\Temp\ccm0VnUy.s 			page 168


 7044              		.loc 1 2527 10
 7045 002a 002B     		cmp	r3, #0
 7046 002c 27D0     		beq	.L422
2528:Drivers/STM32H7xx_HAL_Driver/Src/stm32h7xx_hal_tim_ex.c ****           (READ_BIT(tmpbdtr, TIM_BDTR_MOE) == 0U))
 7047              		.loc 1 2528 12 discriminator 1
 7048 002e BB68     		ldr	r3, [r7, #8]
 7049 0030 03F40043 		and	r3, r3, #32768
2527:Drivers/STM32H7xx_HAL_Driver/Src/stm32h7xx_hal_tim_ex.c ****       if ((READ_BIT(tmpbdtr, TIM_BDTR_BKBID) == TIM_BDTR_BKBID) &&
 7050              		.loc 1 2527 65 discriminator 1
 7051 0034 002B     		cmp	r3, #0
 7052 0036 22D1     		bne	.L422
2529:Drivers/STM32H7xx_HAL_Driver/Src/stm32h7xx_hal_tim_ex.c ****       {
2530:Drivers/STM32H7xx_HAL_Driver/Src/stm32h7xx_hal_tim_ex.c ****         /* Break input BRK is disarmed */
2531:Drivers/STM32H7xx_HAL_Driver/Src/stm32h7xx_hal_tim_ex.c ****         SET_BIT(htim->Instance->BDTR, TIM_BDTR_BKDSRM);
 7053              		.loc 1 2531 9
 7054 0038 7B68     		ldr	r3, [r7, #4]
 7055 003a 1B68     		ldr	r3, [r3]
 7056 003c 5A6C     		ldr	r2, [r3, #68]
 7057 003e 7B68     		ldr	r3, [r7, #4]
 7058 0040 1B68     		ldr	r3, [r3]
 7059 0042 42F08062 		orr	r2, r2, #67108864
 7060 0046 5A64     		str	r2, [r3, #68]
2532:Drivers/STM32H7xx_HAL_Driver/Src/stm32h7xx_hal_tim_ex.c ****       }
2533:Drivers/STM32H7xx_HAL_Driver/Src/stm32h7xx_hal_tim_ex.c ****       break;
 7061              		.loc 1 2533 7
 7062 0048 19E0     		b	.L422
 7063              	.L415:
2534:Drivers/STM32H7xx_HAL_Driver/Src/stm32h7xx_hal_tim_ex.c ****     }
2535:Drivers/STM32H7xx_HAL_Driver/Src/stm32h7xx_hal_tim_ex.c **** 
2536:Drivers/STM32H7xx_HAL_Driver/Src/stm32h7xx_hal_tim_ex.c ****     case TIM_BREAKINPUT_BRK2:
2537:Drivers/STM32H7xx_HAL_Driver/Src/stm32h7xx_hal_tim_ex.c ****     {
2538:Drivers/STM32H7xx_HAL_Driver/Src/stm32h7xx_hal_tim_ex.c ****       /* Check initial conditions */
2539:Drivers/STM32H7xx_HAL_Driver/Src/stm32h7xx_hal_tim_ex.c ****       tmpbdtr = READ_REG(htim->Instance->BDTR);
 7064              		.loc 1 2539 17
 7065 004a 7B68     		ldr	r3, [r7, #4]
 7066 004c 1B68     		ldr	r3, [r3]
 7067              		.loc 1 2539 15
 7068 004e 5B6C     		ldr	r3, [r3, #68]
 7069 0050 BB60     		str	r3, [r7, #8]
2540:Drivers/STM32H7xx_HAL_Driver/Src/stm32h7xx_hal_tim_ex.c ****       if ((READ_BIT(tmpbdtr, TIM_BDTR_BK2BID) == TIM_BDTR_BK2BID) &&
 7070              		.loc 1 2540 12
 7071 0052 BB68     		ldr	r3, [r7, #8]
 7072 0054 03F00053 		and	r3, r3, #536870912
 7073              		.loc 1 2540 10
 7074 0058 002B     		cmp	r3, #0
 7075 005a 12D0     		beq	.L423
2541:Drivers/STM32H7xx_HAL_Driver/Src/stm32h7xx_hal_tim_ex.c ****           (READ_BIT(tmpbdtr, TIM_BDTR_MOE) == 0U))
 7076              		.loc 1 2541 12 discriminator 1
 7077 005c BB68     		ldr	r3, [r7, #8]
 7078 005e 03F40043 		and	r3, r3, #32768
2540:Drivers/STM32H7xx_HAL_Driver/Src/stm32h7xx_hal_tim_ex.c ****       if ((READ_BIT(tmpbdtr, TIM_BDTR_BK2BID) == TIM_BDTR_BK2BID) &&
 7079              		.loc 1 2540 67 discriminator 1
 7080 0062 002B     		cmp	r3, #0
 7081 0064 0DD1     		bne	.L423
2542:Drivers/STM32H7xx_HAL_Driver/Src/stm32h7xx_hal_tim_ex.c ****       {
2543:Drivers/STM32H7xx_HAL_Driver/Src/stm32h7xx_hal_tim_ex.c ****         /* Break input BRK is disarmed */
2544:Drivers/STM32H7xx_HAL_Driver/Src/stm32h7xx_hal_tim_ex.c ****         SET_BIT(htim->Instance->BDTR, TIM_BDTR_BK2DSRM);
ARM GAS  C:\Users\Su\AppData\Local\Temp\ccm0VnUy.s 			page 169


 7082              		.loc 1 2544 9
 7083 0066 7B68     		ldr	r3, [r7, #4]
 7084 0068 1B68     		ldr	r3, [r3]
 7085 006a 5A6C     		ldr	r2, [r3, #68]
 7086 006c 7B68     		ldr	r3, [r7, #4]
 7087 006e 1B68     		ldr	r3, [r3]
 7088 0070 42F00062 		orr	r2, r2, #134217728
 7089 0074 5A64     		str	r2, [r3, #68]
2545:Drivers/STM32H7xx_HAL_Driver/Src/stm32h7xx_hal_tim_ex.c ****       }
2546:Drivers/STM32H7xx_HAL_Driver/Src/stm32h7xx_hal_tim_ex.c ****       break;
 7090              		.loc 1 2546 7
 7091 0076 04E0     		b	.L423
 7092              	.L421:
2547:Drivers/STM32H7xx_HAL_Driver/Src/stm32h7xx_hal_tim_ex.c ****     }
2548:Drivers/STM32H7xx_HAL_Driver/Src/stm32h7xx_hal_tim_ex.c ****     default:
2549:Drivers/STM32H7xx_HAL_Driver/Src/stm32h7xx_hal_tim_ex.c ****       status = HAL_ERROR;
 7093              		.loc 1 2549 14
 7094 0078 0123     		movs	r3, #1
 7095 007a FB73     		strb	r3, [r7, #15]
2550:Drivers/STM32H7xx_HAL_Driver/Src/stm32h7xx_hal_tim_ex.c ****       break;
 7096              		.loc 1 2550 7
 7097 007c 02E0     		b	.L418
 7098              	.L422:
2533:Drivers/STM32H7xx_HAL_Driver/Src/stm32h7xx_hal_tim_ex.c ****     }
 7099              		.loc 1 2533 7
 7100 007e 00BF     		nop
 7101 0080 00E0     		b	.L418
 7102              	.L423:
2546:Drivers/STM32H7xx_HAL_Driver/Src/stm32h7xx_hal_tim_ex.c ****     }
 7103              		.loc 1 2546 7
 7104 0082 00BF     		nop
 7105              	.L418:
2551:Drivers/STM32H7xx_HAL_Driver/Src/stm32h7xx_hal_tim_ex.c ****   }
2552:Drivers/STM32H7xx_HAL_Driver/Src/stm32h7xx_hal_tim_ex.c **** 
2553:Drivers/STM32H7xx_HAL_Driver/Src/stm32h7xx_hal_tim_ex.c ****   return status;
 7106              		.loc 1 2553 10
 7107 0084 FB7B     		ldrb	r3, [r7, #15]	@ zero_extendqisi2
2554:Drivers/STM32H7xx_HAL_Driver/Src/stm32h7xx_hal_tim_ex.c **** }
 7108              		.loc 1 2554 1
 7109 0086 1846     		mov	r0, r3
 7110 0088 1437     		adds	r7, r7, #20
 7111              	.LCFI189:
 7112              		.cfi_def_cfa_offset 4
 7113 008a BD46     		mov	sp, r7
 7114              	.LCFI190:
 7115              		.cfi_def_cfa_register 13
 7116              		@ sp needed
 7117 008c 5DF8047B 		ldr	r7, [sp], #4
 7118              	.LCFI191:
 7119              		.cfi_restore 7
 7120              		.cfi_def_cfa_offset 0
 7121 0090 7047     		bx	lr
 7122              		.cfi_endproc
 7123              	.LFE179:
 7125              		.section	.text.HAL_TIMEx_ReArmBreakInput,"ax",%progbits
 7126              		.align	1
 7127              		.global	HAL_TIMEx_ReArmBreakInput
ARM GAS  C:\Users\Su\AppData\Local\Temp\ccm0VnUy.s 			page 170


 7128              		.syntax unified
 7129              		.thumb
 7130              		.thumb_func
 7132              	HAL_TIMEx_ReArmBreakInput:
 7133              	.LFB180:
2555:Drivers/STM32H7xx_HAL_Driver/Src/stm32h7xx_hal_tim_ex.c **** 
2556:Drivers/STM32H7xx_HAL_Driver/Src/stm32h7xx_hal_tim_ex.c **** /**
2557:Drivers/STM32H7xx_HAL_Driver/Src/stm32h7xx_hal_tim_ex.c ****   * @brief  Arm the designated break input (when it operates in bidirectional mode).
2558:Drivers/STM32H7xx_HAL_Driver/Src/stm32h7xx_hal_tim_ex.c ****   * @param  htim TIM handle.
2559:Drivers/STM32H7xx_HAL_Driver/Src/stm32h7xx_hal_tim_ex.c ****   * @param  BreakInput Break input to arm
2560:Drivers/STM32H7xx_HAL_Driver/Src/stm32h7xx_hal_tim_ex.c ****   *          This parameter can be one of the following values:
2561:Drivers/STM32H7xx_HAL_Driver/Src/stm32h7xx_hal_tim_ex.c ****   *            @arg TIM_BREAKINPUT_BRK: Timer break input
2562:Drivers/STM32H7xx_HAL_Driver/Src/stm32h7xx_hal_tim_ex.c ****   *            @arg TIM_BREAKINPUT_BRK2: Timer break 2 input
2563:Drivers/STM32H7xx_HAL_Driver/Src/stm32h7xx_hal_tim_ex.c ****   * @note  Arming is possible at anytime, even if fault is present.
2564:Drivers/STM32H7xx_HAL_Driver/Src/stm32h7xx_hal_tim_ex.c ****   * @note  Break input is automatically armed as soon as MOE bit is set.
2565:Drivers/STM32H7xx_HAL_Driver/Src/stm32h7xx_hal_tim_ex.c ****   * @retval HAL status
2566:Drivers/STM32H7xx_HAL_Driver/Src/stm32h7xx_hal_tim_ex.c ****   */
2567:Drivers/STM32H7xx_HAL_Driver/Src/stm32h7xx_hal_tim_ex.c **** HAL_StatusTypeDef HAL_TIMEx_ReArmBreakInput(TIM_HandleTypeDef *htim, uint32_t BreakInput)
2568:Drivers/STM32H7xx_HAL_Driver/Src/stm32h7xx_hal_tim_ex.c **** {
 7134              		.loc 1 2568 1
 7135              		.cfi_startproc
 7136              		@ args = 0, pretend = 0, frame = 16
 7137              		@ frame_needed = 1, uses_anonymous_args = 0
 7138 0000 80B5     		push	{r7, lr}
 7139              	.LCFI192:
 7140              		.cfi_def_cfa_offset 8
 7141              		.cfi_offset 7, -8
 7142              		.cfi_offset 14, -4
 7143 0002 84B0     		sub	sp, sp, #16
 7144              	.LCFI193:
 7145              		.cfi_def_cfa_offset 24
 7146 0004 00AF     		add	r7, sp, #0
 7147              	.LCFI194:
 7148              		.cfi_def_cfa_register 7
 7149 0006 7860     		str	r0, [r7, #4]
 7150 0008 3960     		str	r1, [r7]
2569:Drivers/STM32H7xx_HAL_Driver/Src/stm32h7xx_hal_tim_ex.c ****   HAL_StatusTypeDef status = HAL_OK;
 7151              		.loc 1 2569 21
 7152 000a 0023     		movs	r3, #0
 7153 000c FB73     		strb	r3, [r7, #15]
2570:Drivers/STM32H7xx_HAL_Driver/Src/stm32h7xx_hal_tim_ex.c ****   uint32_t tickstart;
2571:Drivers/STM32H7xx_HAL_Driver/Src/stm32h7xx_hal_tim_ex.c **** 
2572:Drivers/STM32H7xx_HAL_Driver/Src/stm32h7xx_hal_tim_ex.c ****   /* Check the parameters */
2573:Drivers/STM32H7xx_HAL_Driver/Src/stm32h7xx_hal_tim_ex.c ****   assert_param(IS_TIM_ADVANCED_INSTANCE(htim->Instance));
2574:Drivers/STM32H7xx_HAL_Driver/Src/stm32h7xx_hal_tim_ex.c ****   assert_param(IS_TIM_BREAKINPUT(BreakInput));
2575:Drivers/STM32H7xx_HAL_Driver/Src/stm32h7xx_hal_tim_ex.c **** 
2576:Drivers/STM32H7xx_HAL_Driver/Src/stm32h7xx_hal_tim_ex.c ****   switch (BreakInput)
 7154              		.loc 1 2576 3
 7155 000e 3B68     		ldr	r3, [r7]
 7156 0010 012B     		cmp	r3, #1
 7157 0012 03D0     		beq	.L425
 7158 0014 3B68     		ldr	r3, [r7]
 7159 0016 022B     		cmp	r3, #2
 7160 0018 24D0     		beq	.L426
 7161 001a 47E0     		b	.L436
 7162              	.L425:
2577:Drivers/STM32H7xx_HAL_Driver/Src/stm32h7xx_hal_tim_ex.c ****   {
ARM GAS  C:\Users\Su\AppData\Local\Temp\ccm0VnUy.s 			page 171


2578:Drivers/STM32H7xx_HAL_Driver/Src/stm32h7xx_hal_tim_ex.c ****     case TIM_BREAKINPUT_BRK:
2579:Drivers/STM32H7xx_HAL_Driver/Src/stm32h7xx_hal_tim_ex.c ****     {
2580:Drivers/STM32H7xx_HAL_Driver/Src/stm32h7xx_hal_tim_ex.c ****       /* Check initial conditions */
2581:Drivers/STM32H7xx_HAL_Driver/Src/stm32h7xx_hal_tim_ex.c ****       if (READ_BIT(htim->Instance->BDTR, TIM_BDTR_BKBID) == TIM_BDTR_BKBID)
 7163              		.loc 1 2581 11
 7164 001c 7B68     		ldr	r3, [r7, #4]
 7165 001e 1B68     		ldr	r3, [r3]
 7166 0020 5B6C     		ldr	r3, [r3, #68]
 7167 0022 03F08053 		and	r3, r3, #268435456
 7168              		.loc 1 2581 10
 7169 0026 B3F1805F 		cmp	r3, #268435456
 7170 002a 42D1     		bne	.L437
2582:Drivers/STM32H7xx_HAL_Driver/Src/stm32h7xx_hal_tim_ex.c ****       {
2583:Drivers/STM32H7xx_HAL_Driver/Src/stm32h7xx_hal_tim_ex.c ****         /* Break input BRK is re-armed automatically by hardware. Poll to check whether fault condi
2584:Drivers/STM32H7xx_HAL_Driver/Src/stm32h7xx_hal_tim_ex.c ****         /* Init tickstart for timeout management */
2585:Drivers/STM32H7xx_HAL_Driver/Src/stm32h7xx_hal_tim_ex.c ****         tickstart = HAL_GetTick();
 7171              		.loc 1 2585 21
 7172 002c FFF7FEFF 		bl	HAL_GetTick
 7173 0030 B860     		str	r0, [r7, #8]
2586:Drivers/STM32H7xx_HAL_Driver/Src/stm32h7xx_hal_tim_ex.c ****         while (READ_BIT(htim->Instance->BDTR, TIM_BDTR_BKDSRM) != 0UL)
 7174              		.loc 1 2586 15
 7175 0032 0FE0     		b	.L429
 7176              	.L431:
2587:Drivers/STM32H7xx_HAL_Driver/Src/stm32h7xx_hal_tim_ex.c ****         {
2588:Drivers/STM32H7xx_HAL_Driver/Src/stm32h7xx_hal_tim_ex.c ****           if ((HAL_GetTick() - tickstart) > TIM_BREAKINPUT_REARM_TIMEOUT)
 7177              		.loc 1 2588 16
 7178 0034 FFF7FEFF 		bl	HAL_GetTick
 7179 0038 0246     		mov	r2, r0
 7180              		.loc 1 2588 30
 7181 003a BB68     		ldr	r3, [r7, #8]
 7182 003c D31A     		subs	r3, r2, r3
 7183              		.loc 1 2588 14
 7184 003e 052B     		cmp	r3, #5
 7185 0040 08D9     		bls	.L429
2589:Drivers/STM32H7xx_HAL_Driver/Src/stm32h7xx_hal_tim_ex.c ****           {
2590:Drivers/STM32H7xx_HAL_Driver/Src/stm32h7xx_hal_tim_ex.c ****             /* New check to avoid false timeout detection in case of preemption */
2591:Drivers/STM32H7xx_HAL_Driver/Src/stm32h7xx_hal_tim_ex.c ****             if (READ_BIT(htim->Instance->BDTR, TIM_BDTR_BKDSRM) != 0UL)
 7186              		.loc 1 2591 17
 7187 0042 7B68     		ldr	r3, [r7, #4]
 7188 0044 1B68     		ldr	r3, [r3]
 7189 0046 5B6C     		ldr	r3, [r3, #68]
 7190 0048 03F08063 		and	r3, r3, #67108864
 7191              		.loc 1 2591 16
 7192 004c 002B     		cmp	r3, #0
 7193 004e 01D0     		beq	.L429
2592:Drivers/STM32H7xx_HAL_Driver/Src/stm32h7xx_hal_tim_ex.c ****             {
2593:Drivers/STM32H7xx_HAL_Driver/Src/stm32h7xx_hal_tim_ex.c ****               return HAL_TIMEOUT;
 7194              		.loc 1 2593 22
 7195 0050 0323     		movs	r3, #3
 7196 0052 32E0     		b	.L430
 7197              	.L429:
2586:Drivers/STM32H7xx_HAL_Driver/Src/stm32h7xx_hal_tim_ex.c ****         {
 7198              		.loc 1 2586 16
 7199 0054 7B68     		ldr	r3, [r7, #4]
 7200 0056 1B68     		ldr	r3, [r3]
 7201 0058 5B6C     		ldr	r3, [r3, #68]
 7202 005a 03F08063 		and	r3, r3, #67108864
ARM GAS  C:\Users\Su\AppData\Local\Temp\ccm0VnUy.s 			page 172


2586:Drivers/STM32H7xx_HAL_Driver/Src/stm32h7xx_hal_tim_ex.c ****         {
 7203              		.loc 1 2586 15
 7204 005e 002B     		cmp	r3, #0
 7205 0060 E8D1     		bne	.L431
2594:Drivers/STM32H7xx_HAL_Driver/Src/stm32h7xx_hal_tim_ex.c ****             }
2595:Drivers/STM32H7xx_HAL_Driver/Src/stm32h7xx_hal_tim_ex.c ****           }
2596:Drivers/STM32H7xx_HAL_Driver/Src/stm32h7xx_hal_tim_ex.c ****         }
2597:Drivers/STM32H7xx_HAL_Driver/Src/stm32h7xx_hal_tim_ex.c ****       }
2598:Drivers/STM32H7xx_HAL_Driver/Src/stm32h7xx_hal_tim_ex.c ****       break;
 7206              		.loc 1 2598 7
 7207 0062 26E0     		b	.L437
 7208              	.L426:
2599:Drivers/STM32H7xx_HAL_Driver/Src/stm32h7xx_hal_tim_ex.c ****     }
2600:Drivers/STM32H7xx_HAL_Driver/Src/stm32h7xx_hal_tim_ex.c **** 
2601:Drivers/STM32H7xx_HAL_Driver/Src/stm32h7xx_hal_tim_ex.c ****     case TIM_BREAKINPUT_BRK2:
2602:Drivers/STM32H7xx_HAL_Driver/Src/stm32h7xx_hal_tim_ex.c ****     {
2603:Drivers/STM32H7xx_HAL_Driver/Src/stm32h7xx_hal_tim_ex.c ****       /* Check initial conditions */
2604:Drivers/STM32H7xx_HAL_Driver/Src/stm32h7xx_hal_tim_ex.c ****       if (READ_BIT(htim->Instance->BDTR, TIM_BDTR_BK2BID) == TIM_BDTR_BK2BID)
 7209              		.loc 1 2604 11
 7210 0064 7B68     		ldr	r3, [r7, #4]
 7211 0066 1B68     		ldr	r3, [r3]
 7212 0068 5B6C     		ldr	r3, [r3, #68]
 7213 006a 03F00053 		and	r3, r3, #536870912
 7214              		.loc 1 2604 10
 7215 006e B3F1005F 		cmp	r3, #536870912
 7216 0072 20D1     		bne	.L438
2605:Drivers/STM32H7xx_HAL_Driver/Src/stm32h7xx_hal_tim_ex.c ****       {
2606:Drivers/STM32H7xx_HAL_Driver/Src/stm32h7xx_hal_tim_ex.c ****         /* Break input BRK2 is re-armed automatically by hardware. Poll to check whether fault cond
2607:Drivers/STM32H7xx_HAL_Driver/Src/stm32h7xx_hal_tim_ex.c ****         /* Init tickstart for timeout management */
2608:Drivers/STM32H7xx_HAL_Driver/Src/stm32h7xx_hal_tim_ex.c ****         tickstart = HAL_GetTick();
 7217              		.loc 1 2608 21
 7218 0074 FFF7FEFF 		bl	HAL_GetTick
 7219 0078 B860     		str	r0, [r7, #8]
2609:Drivers/STM32H7xx_HAL_Driver/Src/stm32h7xx_hal_tim_ex.c ****         while (READ_BIT(htim->Instance->BDTR, TIM_BDTR_BK2DSRM) != 0UL)
 7220              		.loc 1 2609 15
 7221 007a 0FE0     		b	.L434
 7222              	.L435:
2610:Drivers/STM32H7xx_HAL_Driver/Src/stm32h7xx_hal_tim_ex.c ****         {
2611:Drivers/STM32H7xx_HAL_Driver/Src/stm32h7xx_hal_tim_ex.c ****           if ((HAL_GetTick() - tickstart) > TIM_BREAKINPUT_REARM_TIMEOUT)
 7223              		.loc 1 2611 16
 7224 007c FFF7FEFF 		bl	HAL_GetTick
 7225 0080 0246     		mov	r2, r0
 7226              		.loc 1 2611 30
 7227 0082 BB68     		ldr	r3, [r7, #8]
 7228 0084 D31A     		subs	r3, r2, r3
 7229              		.loc 1 2611 14
 7230 0086 052B     		cmp	r3, #5
 7231 0088 08D9     		bls	.L434
2612:Drivers/STM32H7xx_HAL_Driver/Src/stm32h7xx_hal_tim_ex.c ****           {
2613:Drivers/STM32H7xx_HAL_Driver/Src/stm32h7xx_hal_tim_ex.c ****             /* New check to avoid false timeout detection in case of preemption */
2614:Drivers/STM32H7xx_HAL_Driver/Src/stm32h7xx_hal_tim_ex.c ****             if (READ_BIT(htim->Instance->BDTR, TIM_BDTR_BK2DSRM) != 0UL)
 7232              		.loc 1 2614 17
 7233 008a 7B68     		ldr	r3, [r7, #4]
 7234 008c 1B68     		ldr	r3, [r3]
 7235 008e 5B6C     		ldr	r3, [r3, #68]
 7236 0090 03F00063 		and	r3, r3, #134217728
 7237              		.loc 1 2614 16
ARM GAS  C:\Users\Su\AppData\Local\Temp\ccm0VnUy.s 			page 173


 7238 0094 002B     		cmp	r3, #0
 7239 0096 01D0     		beq	.L434
2615:Drivers/STM32H7xx_HAL_Driver/Src/stm32h7xx_hal_tim_ex.c ****             {
2616:Drivers/STM32H7xx_HAL_Driver/Src/stm32h7xx_hal_tim_ex.c ****               return HAL_TIMEOUT;
 7240              		.loc 1 2616 22
 7241 0098 0323     		movs	r3, #3
 7242 009a 0EE0     		b	.L430
 7243              	.L434:
2609:Drivers/STM32H7xx_HAL_Driver/Src/stm32h7xx_hal_tim_ex.c ****         {
 7244              		.loc 1 2609 16
 7245 009c 7B68     		ldr	r3, [r7, #4]
 7246 009e 1B68     		ldr	r3, [r3]
 7247 00a0 5B6C     		ldr	r3, [r3, #68]
 7248 00a2 03F00063 		and	r3, r3, #134217728
2609:Drivers/STM32H7xx_HAL_Driver/Src/stm32h7xx_hal_tim_ex.c ****         {
 7249              		.loc 1 2609 15
 7250 00a6 002B     		cmp	r3, #0
 7251 00a8 E8D1     		bne	.L435
2617:Drivers/STM32H7xx_HAL_Driver/Src/stm32h7xx_hal_tim_ex.c ****             }
2618:Drivers/STM32H7xx_HAL_Driver/Src/stm32h7xx_hal_tim_ex.c ****           }
2619:Drivers/STM32H7xx_HAL_Driver/Src/stm32h7xx_hal_tim_ex.c ****         }
2620:Drivers/STM32H7xx_HAL_Driver/Src/stm32h7xx_hal_tim_ex.c ****       }
2621:Drivers/STM32H7xx_HAL_Driver/Src/stm32h7xx_hal_tim_ex.c ****       break;
 7252              		.loc 1 2621 7
 7253 00aa 04E0     		b	.L438
 7254              	.L436:
2622:Drivers/STM32H7xx_HAL_Driver/Src/stm32h7xx_hal_tim_ex.c ****     }
2623:Drivers/STM32H7xx_HAL_Driver/Src/stm32h7xx_hal_tim_ex.c ****     default:
2624:Drivers/STM32H7xx_HAL_Driver/Src/stm32h7xx_hal_tim_ex.c ****       status = HAL_ERROR;
 7255              		.loc 1 2624 14
 7256 00ac 0123     		movs	r3, #1
 7257 00ae FB73     		strb	r3, [r7, #15]
2625:Drivers/STM32H7xx_HAL_Driver/Src/stm32h7xx_hal_tim_ex.c ****       break;
 7258              		.loc 1 2625 7
 7259 00b0 02E0     		b	.L432
 7260              	.L437:
2598:Drivers/STM32H7xx_HAL_Driver/Src/stm32h7xx_hal_tim_ex.c ****     }
 7261              		.loc 1 2598 7
 7262 00b2 00BF     		nop
 7263 00b4 00E0     		b	.L432
 7264              	.L438:
2621:Drivers/STM32H7xx_HAL_Driver/Src/stm32h7xx_hal_tim_ex.c ****     }
 7265              		.loc 1 2621 7
 7266 00b6 00BF     		nop
 7267              	.L432:
2626:Drivers/STM32H7xx_HAL_Driver/Src/stm32h7xx_hal_tim_ex.c ****   }
2627:Drivers/STM32H7xx_HAL_Driver/Src/stm32h7xx_hal_tim_ex.c **** 
2628:Drivers/STM32H7xx_HAL_Driver/Src/stm32h7xx_hal_tim_ex.c ****   return status;
 7268              		.loc 1 2628 10
 7269 00b8 FB7B     		ldrb	r3, [r7, #15]	@ zero_extendqisi2
 7270              	.L430:
2629:Drivers/STM32H7xx_HAL_Driver/Src/stm32h7xx_hal_tim_ex.c **** }
 7271              		.loc 1 2629 1
 7272 00ba 1846     		mov	r0, r3
 7273 00bc 1037     		adds	r7, r7, #16
 7274              	.LCFI195:
 7275              		.cfi_def_cfa_offset 8
ARM GAS  C:\Users\Su\AppData\Local\Temp\ccm0VnUy.s 			page 174


 7276 00be BD46     		mov	sp, r7
 7277              	.LCFI196:
 7278              		.cfi_def_cfa_register 13
 7279              		@ sp needed
 7280 00c0 80BD     		pop	{r7, pc}
 7281              		.cfi_endproc
 7282              	.LFE180:
 7284              		.section	.text.HAL_TIMEx_CommutCallback,"ax",%progbits
 7285              		.align	1
 7286              		.weak	HAL_TIMEx_CommutCallback
 7287              		.syntax unified
 7288              		.thumb
 7289              		.thumb_func
 7291              	HAL_TIMEx_CommutCallback:
 7292              	.LFB181:
2630:Drivers/STM32H7xx_HAL_Driver/Src/stm32h7xx_hal_tim_ex.c **** #endif /* TIM_BDTR_BKBID */
2631:Drivers/STM32H7xx_HAL_Driver/Src/stm32h7xx_hal_tim_ex.c **** 
2632:Drivers/STM32H7xx_HAL_Driver/Src/stm32h7xx_hal_tim_ex.c **** /**
2633:Drivers/STM32H7xx_HAL_Driver/Src/stm32h7xx_hal_tim_ex.c ****   * @}
2634:Drivers/STM32H7xx_HAL_Driver/Src/stm32h7xx_hal_tim_ex.c ****   */
2635:Drivers/STM32H7xx_HAL_Driver/Src/stm32h7xx_hal_tim_ex.c **** 
2636:Drivers/STM32H7xx_HAL_Driver/Src/stm32h7xx_hal_tim_ex.c **** /** @defgroup TIMEx_Exported_Functions_Group6 Extended Callbacks functions
2637:Drivers/STM32H7xx_HAL_Driver/Src/stm32h7xx_hal_tim_ex.c ****   * @brief    Extended Callbacks functions
2638:Drivers/STM32H7xx_HAL_Driver/Src/stm32h7xx_hal_tim_ex.c ****   *
2639:Drivers/STM32H7xx_HAL_Driver/Src/stm32h7xx_hal_tim_ex.c **** @verbatim
2640:Drivers/STM32H7xx_HAL_Driver/Src/stm32h7xx_hal_tim_ex.c ****   ==============================================================================
2641:Drivers/STM32H7xx_HAL_Driver/Src/stm32h7xx_hal_tim_ex.c ****                     ##### Extended Callbacks functions #####
2642:Drivers/STM32H7xx_HAL_Driver/Src/stm32h7xx_hal_tim_ex.c ****   ==============================================================================
2643:Drivers/STM32H7xx_HAL_Driver/Src/stm32h7xx_hal_tim_ex.c ****   [..]
2644:Drivers/STM32H7xx_HAL_Driver/Src/stm32h7xx_hal_tim_ex.c ****     This section provides Extended TIM callback functions:
2645:Drivers/STM32H7xx_HAL_Driver/Src/stm32h7xx_hal_tim_ex.c ****     (+) Timer Commutation callback
2646:Drivers/STM32H7xx_HAL_Driver/Src/stm32h7xx_hal_tim_ex.c ****     (+) Timer Break callback
2647:Drivers/STM32H7xx_HAL_Driver/Src/stm32h7xx_hal_tim_ex.c **** 
2648:Drivers/STM32H7xx_HAL_Driver/Src/stm32h7xx_hal_tim_ex.c **** @endverbatim
2649:Drivers/STM32H7xx_HAL_Driver/Src/stm32h7xx_hal_tim_ex.c ****   * @{
2650:Drivers/STM32H7xx_HAL_Driver/Src/stm32h7xx_hal_tim_ex.c ****   */
2651:Drivers/STM32H7xx_HAL_Driver/Src/stm32h7xx_hal_tim_ex.c **** 
2652:Drivers/STM32H7xx_HAL_Driver/Src/stm32h7xx_hal_tim_ex.c **** /**
2653:Drivers/STM32H7xx_HAL_Driver/Src/stm32h7xx_hal_tim_ex.c ****   * @brief  Hall commutation changed callback in non-blocking mode
2654:Drivers/STM32H7xx_HAL_Driver/Src/stm32h7xx_hal_tim_ex.c ****   * @param  htim TIM handle
2655:Drivers/STM32H7xx_HAL_Driver/Src/stm32h7xx_hal_tim_ex.c ****   * @retval None
2656:Drivers/STM32H7xx_HAL_Driver/Src/stm32h7xx_hal_tim_ex.c ****   */
2657:Drivers/STM32H7xx_HAL_Driver/Src/stm32h7xx_hal_tim_ex.c **** __weak void HAL_TIMEx_CommutCallback(TIM_HandleTypeDef *htim)
2658:Drivers/STM32H7xx_HAL_Driver/Src/stm32h7xx_hal_tim_ex.c **** {
 7293              		.loc 1 2658 1
 7294              		.cfi_startproc
 7295              		@ args = 0, pretend = 0, frame = 8
 7296              		@ frame_needed = 1, uses_anonymous_args = 0
 7297              		@ link register save eliminated.
 7298 0000 80B4     		push	{r7}
 7299              	.LCFI197:
 7300              		.cfi_def_cfa_offset 4
 7301              		.cfi_offset 7, -4
 7302 0002 83B0     		sub	sp, sp, #12
 7303              	.LCFI198:
 7304              		.cfi_def_cfa_offset 16
 7305 0004 00AF     		add	r7, sp, #0
ARM GAS  C:\Users\Su\AppData\Local\Temp\ccm0VnUy.s 			page 175


 7306              	.LCFI199:
 7307              		.cfi_def_cfa_register 7
 7308 0006 7860     		str	r0, [r7, #4]
2659:Drivers/STM32H7xx_HAL_Driver/Src/stm32h7xx_hal_tim_ex.c ****   /* Prevent unused argument(s) compilation warning */
2660:Drivers/STM32H7xx_HAL_Driver/Src/stm32h7xx_hal_tim_ex.c ****   UNUSED(htim);
2661:Drivers/STM32H7xx_HAL_Driver/Src/stm32h7xx_hal_tim_ex.c **** 
2662:Drivers/STM32H7xx_HAL_Driver/Src/stm32h7xx_hal_tim_ex.c ****   /* NOTE : This function should not be modified, when the callback is needed,
2663:Drivers/STM32H7xx_HAL_Driver/Src/stm32h7xx_hal_tim_ex.c ****             the HAL_TIMEx_CommutCallback could be implemented in the user file
2664:Drivers/STM32H7xx_HAL_Driver/Src/stm32h7xx_hal_tim_ex.c ****    */
2665:Drivers/STM32H7xx_HAL_Driver/Src/stm32h7xx_hal_tim_ex.c **** }
 7309              		.loc 1 2665 1
 7310 0008 00BF     		nop
 7311 000a 0C37     		adds	r7, r7, #12
 7312              	.LCFI200:
 7313              		.cfi_def_cfa_offset 4
 7314 000c BD46     		mov	sp, r7
 7315              	.LCFI201:
 7316              		.cfi_def_cfa_register 13
 7317              		@ sp needed
 7318 000e 5DF8047B 		ldr	r7, [sp], #4
 7319              	.LCFI202:
 7320              		.cfi_restore 7
 7321              		.cfi_def_cfa_offset 0
 7322 0012 7047     		bx	lr
 7323              		.cfi_endproc
 7324              	.LFE181:
 7326              		.section	.text.HAL_TIMEx_CommutHalfCpltCallback,"ax",%progbits
 7327              		.align	1
 7328              		.weak	HAL_TIMEx_CommutHalfCpltCallback
 7329              		.syntax unified
 7330              		.thumb
 7331              		.thumb_func
 7333              	HAL_TIMEx_CommutHalfCpltCallback:
 7334              	.LFB182:
2666:Drivers/STM32H7xx_HAL_Driver/Src/stm32h7xx_hal_tim_ex.c **** /**
2667:Drivers/STM32H7xx_HAL_Driver/Src/stm32h7xx_hal_tim_ex.c ****   * @brief  Hall commutation changed half complete callback in non-blocking mode
2668:Drivers/STM32H7xx_HAL_Driver/Src/stm32h7xx_hal_tim_ex.c ****   * @param  htim TIM handle
2669:Drivers/STM32H7xx_HAL_Driver/Src/stm32h7xx_hal_tim_ex.c ****   * @retval None
2670:Drivers/STM32H7xx_HAL_Driver/Src/stm32h7xx_hal_tim_ex.c ****   */
2671:Drivers/STM32H7xx_HAL_Driver/Src/stm32h7xx_hal_tim_ex.c **** __weak void HAL_TIMEx_CommutHalfCpltCallback(TIM_HandleTypeDef *htim)
2672:Drivers/STM32H7xx_HAL_Driver/Src/stm32h7xx_hal_tim_ex.c **** {
 7335              		.loc 1 2672 1
 7336              		.cfi_startproc
 7337              		@ args = 0, pretend = 0, frame = 8
 7338              		@ frame_needed = 1, uses_anonymous_args = 0
 7339              		@ link register save eliminated.
 7340 0000 80B4     		push	{r7}
 7341              	.LCFI203:
 7342              		.cfi_def_cfa_offset 4
 7343              		.cfi_offset 7, -4
 7344 0002 83B0     		sub	sp, sp, #12
 7345              	.LCFI204:
 7346              		.cfi_def_cfa_offset 16
 7347 0004 00AF     		add	r7, sp, #0
 7348              	.LCFI205:
 7349              		.cfi_def_cfa_register 7
 7350 0006 7860     		str	r0, [r7, #4]
ARM GAS  C:\Users\Su\AppData\Local\Temp\ccm0VnUy.s 			page 176


2673:Drivers/STM32H7xx_HAL_Driver/Src/stm32h7xx_hal_tim_ex.c ****   /* Prevent unused argument(s) compilation warning */
2674:Drivers/STM32H7xx_HAL_Driver/Src/stm32h7xx_hal_tim_ex.c ****   UNUSED(htim);
2675:Drivers/STM32H7xx_HAL_Driver/Src/stm32h7xx_hal_tim_ex.c **** 
2676:Drivers/STM32H7xx_HAL_Driver/Src/stm32h7xx_hal_tim_ex.c ****   /* NOTE : This function should not be modified, when the callback is needed,
2677:Drivers/STM32H7xx_HAL_Driver/Src/stm32h7xx_hal_tim_ex.c ****             the HAL_TIMEx_CommutHalfCpltCallback could be implemented in the user file
2678:Drivers/STM32H7xx_HAL_Driver/Src/stm32h7xx_hal_tim_ex.c ****    */
2679:Drivers/STM32H7xx_HAL_Driver/Src/stm32h7xx_hal_tim_ex.c **** }
 7351              		.loc 1 2679 1
 7352 0008 00BF     		nop
 7353 000a 0C37     		adds	r7, r7, #12
 7354              	.LCFI206:
 7355              		.cfi_def_cfa_offset 4
 7356 000c BD46     		mov	sp, r7
 7357              	.LCFI207:
 7358              		.cfi_def_cfa_register 13
 7359              		@ sp needed
 7360 000e 5DF8047B 		ldr	r7, [sp], #4
 7361              	.LCFI208:
 7362              		.cfi_restore 7
 7363              		.cfi_def_cfa_offset 0
 7364 0012 7047     		bx	lr
 7365              		.cfi_endproc
 7366              	.LFE182:
 7368              		.section	.text.HAL_TIMEx_BreakCallback,"ax",%progbits
 7369              		.align	1
 7370              		.weak	HAL_TIMEx_BreakCallback
 7371              		.syntax unified
 7372              		.thumb
 7373              		.thumb_func
 7375              	HAL_TIMEx_BreakCallback:
 7376              	.LFB183:
2680:Drivers/STM32H7xx_HAL_Driver/Src/stm32h7xx_hal_tim_ex.c **** 
2681:Drivers/STM32H7xx_HAL_Driver/Src/stm32h7xx_hal_tim_ex.c **** /**
2682:Drivers/STM32H7xx_HAL_Driver/Src/stm32h7xx_hal_tim_ex.c ****   * @brief  Hall Break detection callback in non-blocking mode
2683:Drivers/STM32H7xx_HAL_Driver/Src/stm32h7xx_hal_tim_ex.c ****   * @param  htim TIM handle
2684:Drivers/STM32H7xx_HAL_Driver/Src/stm32h7xx_hal_tim_ex.c ****   * @retval None
2685:Drivers/STM32H7xx_HAL_Driver/Src/stm32h7xx_hal_tim_ex.c ****   */
2686:Drivers/STM32H7xx_HAL_Driver/Src/stm32h7xx_hal_tim_ex.c **** __weak void HAL_TIMEx_BreakCallback(TIM_HandleTypeDef *htim)
2687:Drivers/STM32H7xx_HAL_Driver/Src/stm32h7xx_hal_tim_ex.c **** {
 7377              		.loc 1 2687 1
 7378              		.cfi_startproc
 7379              		@ args = 0, pretend = 0, frame = 8
 7380              		@ frame_needed = 1, uses_anonymous_args = 0
 7381              		@ link register save eliminated.
 7382 0000 80B4     		push	{r7}
 7383              	.LCFI209:
 7384              		.cfi_def_cfa_offset 4
 7385              		.cfi_offset 7, -4
 7386 0002 83B0     		sub	sp, sp, #12
 7387              	.LCFI210:
 7388              		.cfi_def_cfa_offset 16
 7389 0004 00AF     		add	r7, sp, #0
 7390              	.LCFI211:
 7391              		.cfi_def_cfa_register 7
 7392 0006 7860     		str	r0, [r7, #4]
2688:Drivers/STM32H7xx_HAL_Driver/Src/stm32h7xx_hal_tim_ex.c ****   /* Prevent unused argument(s) compilation warning */
2689:Drivers/STM32H7xx_HAL_Driver/Src/stm32h7xx_hal_tim_ex.c ****   UNUSED(htim);
ARM GAS  C:\Users\Su\AppData\Local\Temp\ccm0VnUy.s 			page 177


2690:Drivers/STM32H7xx_HAL_Driver/Src/stm32h7xx_hal_tim_ex.c **** 
2691:Drivers/STM32H7xx_HAL_Driver/Src/stm32h7xx_hal_tim_ex.c ****   /* NOTE : This function should not be modified, when the callback is needed,
2692:Drivers/STM32H7xx_HAL_Driver/Src/stm32h7xx_hal_tim_ex.c ****             the HAL_TIMEx_BreakCallback could be implemented in the user file
2693:Drivers/STM32H7xx_HAL_Driver/Src/stm32h7xx_hal_tim_ex.c ****    */
2694:Drivers/STM32H7xx_HAL_Driver/Src/stm32h7xx_hal_tim_ex.c **** }
 7393              		.loc 1 2694 1
 7394 0008 00BF     		nop
 7395 000a 0C37     		adds	r7, r7, #12
 7396              	.LCFI212:
 7397              		.cfi_def_cfa_offset 4
 7398 000c BD46     		mov	sp, r7
 7399              	.LCFI213:
 7400              		.cfi_def_cfa_register 13
 7401              		@ sp needed
 7402 000e 5DF8047B 		ldr	r7, [sp], #4
 7403              	.LCFI214:
 7404              		.cfi_restore 7
 7405              		.cfi_def_cfa_offset 0
 7406 0012 7047     		bx	lr
 7407              		.cfi_endproc
 7408              	.LFE183:
 7410              		.section	.text.HAL_TIMEx_Break2Callback,"ax",%progbits
 7411              		.align	1
 7412              		.weak	HAL_TIMEx_Break2Callback
 7413              		.syntax unified
 7414              		.thumb
 7415              		.thumb_func
 7417              	HAL_TIMEx_Break2Callback:
 7418              	.LFB184:
2695:Drivers/STM32H7xx_HAL_Driver/Src/stm32h7xx_hal_tim_ex.c **** 
2696:Drivers/STM32H7xx_HAL_Driver/Src/stm32h7xx_hal_tim_ex.c **** /**
2697:Drivers/STM32H7xx_HAL_Driver/Src/stm32h7xx_hal_tim_ex.c ****   * @brief  Hall Break2 detection callback in non blocking mode
2698:Drivers/STM32H7xx_HAL_Driver/Src/stm32h7xx_hal_tim_ex.c ****   * @param  htim: TIM handle
2699:Drivers/STM32H7xx_HAL_Driver/Src/stm32h7xx_hal_tim_ex.c ****   * @retval None
2700:Drivers/STM32H7xx_HAL_Driver/Src/stm32h7xx_hal_tim_ex.c ****   */
2701:Drivers/STM32H7xx_HAL_Driver/Src/stm32h7xx_hal_tim_ex.c **** __weak void HAL_TIMEx_Break2Callback(TIM_HandleTypeDef *htim)
2702:Drivers/STM32H7xx_HAL_Driver/Src/stm32h7xx_hal_tim_ex.c **** {
 7419              		.loc 1 2702 1
 7420              		.cfi_startproc
 7421              		@ args = 0, pretend = 0, frame = 8
 7422              		@ frame_needed = 1, uses_anonymous_args = 0
 7423              		@ link register save eliminated.
 7424 0000 80B4     		push	{r7}
 7425              	.LCFI215:
 7426              		.cfi_def_cfa_offset 4
 7427              		.cfi_offset 7, -4
 7428 0002 83B0     		sub	sp, sp, #12
 7429              	.LCFI216:
 7430              		.cfi_def_cfa_offset 16
 7431 0004 00AF     		add	r7, sp, #0
 7432              	.LCFI217:
 7433              		.cfi_def_cfa_register 7
 7434 0006 7860     		str	r0, [r7, #4]
2703:Drivers/STM32H7xx_HAL_Driver/Src/stm32h7xx_hal_tim_ex.c ****   /* Prevent unused argument(s) compilation warning */
2704:Drivers/STM32H7xx_HAL_Driver/Src/stm32h7xx_hal_tim_ex.c ****   UNUSED(htim);
2705:Drivers/STM32H7xx_HAL_Driver/Src/stm32h7xx_hal_tim_ex.c **** 
2706:Drivers/STM32H7xx_HAL_Driver/Src/stm32h7xx_hal_tim_ex.c ****   /* NOTE : This function Should not be modified, when the callback is needed,
ARM GAS  C:\Users\Su\AppData\Local\Temp\ccm0VnUy.s 			page 178


2707:Drivers/STM32H7xx_HAL_Driver/Src/stm32h7xx_hal_tim_ex.c ****             the HAL_TIMEx_Break2Callback could be implemented in the user file
2708:Drivers/STM32H7xx_HAL_Driver/Src/stm32h7xx_hal_tim_ex.c ****    */
2709:Drivers/STM32H7xx_HAL_Driver/Src/stm32h7xx_hal_tim_ex.c **** }
 7435              		.loc 1 2709 1
 7436 0008 00BF     		nop
 7437 000a 0C37     		adds	r7, r7, #12
 7438              	.LCFI218:
 7439              		.cfi_def_cfa_offset 4
 7440 000c BD46     		mov	sp, r7
 7441              	.LCFI219:
 7442              		.cfi_def_cfa_register 13
 7443              		@ sp needed
 7444 000e 5DF8047B 		ldr	r7, [sp], #4
 7445              	.LCFI220:
 7446              		.cfi_restore 7
 7447              		.cfi_def_cfa_offset 0
 7448 0012 7047     		bx	lr
 7449              		.cfi_endproc
 7450              	.LFE184:
 7452              		.section	.text.HAL_TIMEx_HallSensor_GetState,"ax",%progbits
 7453              		.align	1
 7454              		.global	HAL_TIMEx_HallSensor_GetState
 7455              		.syntax unified
 7456              		.thumb
 7457              		.thumb_func
 7459              	HAL_TIMEx_HallSensor_GetState:
 7460              	.LFB185:
2710:Drivers/STM32H7xx_HAL_Driver/Src/stm32h7xx_hal_tim_ex.c **** /**
2711:Drivers/STM32H7xx_HAL_Driver/Src/stm32h7xx_hal_tim_ex.c ****   * @}
2712:Drivers/STM32H7xx_HAL_Driver/Src/stm32h7xx_hal_tim_ex.c ****   */
2713:Drivers/STM32H7xx_HAL_Driver/Src/stm32h7xx_hal_tim_ex.c **** 
2714:Drivers/STM32H7xx_HAL_Driver/Src/stm32h7xx_hal_tim_ex.c **** /** @defgroup TIMEx_Exported_Functions_Group7 Extended Peripheral State functions
2715:Drivers/STM32H7xx_HAL_Driver/Src/stm32h7xx_hal_tim_ex.c ****   * @brief    Extended Peripheral State functions
2716:Drivers/STM32H7xx_HAL_Driver/Src/stm32h7xx_hal_tim_ex.c ****   *
2717:Drivers/STM32H7xx_HAL_Driver/Src/stm32h7xx_hal_tim_ex.c **** @verbatim
2718:Drivers/STM32H7xx_HAL_Driver/Src/stm32h7xx_hal_tim_ex.c ****   ==============================================================================
2719:Drivers/STM32H7xx_HAL_Driver/Src/stm32h7xx_hal_tim_ex.c ****                 ##### Extended Peripheral State functions #####
2720:Drivers/STM32H7xx_HAL_Driver/Src/stm32h7xx_hal_tim_ex.c ****   ==============================================================================
2721:Drivers/STM32H7xx_HAL_Driver/Src/stm32h7xx_hal_tim_ex.c ****   [..]
2722:Drivers/STM32H7xx_HAL_Driver/Src/stm32h7xx_hal_tim_ex.c ****     This subsection permits to get in run-time the status of the peripheral
2723:Drivers/STM32H7xx_HAL_Driver/Src/stm32h7xx_hal_tim_ex.c ****     and the data flow.
2724:Drivers/STM32H7xx_HAL_Driver/Src/stm32h7xx_hal_tim_ex.c **** 
2725:Drivers/STM32H7xx_HAL_Driver/Src/stm32h7xx_hal_tim_ex.c **** @endverbatim
2726:Drivers/STM32H7xx_HAL_Driver/Src/stm32h7xx_hal_tim_ex.c ****   * @{
2727:Drivers/STM32H7xx_HAL_Driver/Src/stm32h7xx_hal_tim_ex.c ****   */
2728:Drivers/STM32H7xx_HAL_Driver/Src/stm32h7xx_hal_tim_ex.c **** 
2729:Drivers/STM32H7xx_HAL_Driver/Src/stm32h7xx_hal_tim_ex.c **** /**
2730:Drivers/STM32H7xx_HAL_Driver/Src/stm32h7xx_hal_tim_ex.c ****   * @brief  Return the TIM Hall Sensor interface handle state.
2731:Drivers/STM32H7xx_HAL_Driver/Src/stm32h7xx_hal_tim_ex.c ****   * @param  htim TIM Hall Sensor handle
2732:Drivers/STM32H7xx_HAL_Driver/Src/stm32h7xx_hal_tim_ex.c ****   * @retval HAL state
2733:Drivers/STM32H7xx_HAL_Driver/Src/stm32h7xx_hal_tim_ex.c ****   */
2734:Drivers/STM32H7xx_HAL_Driver/Src/stm32h7xx_hal_tim_ex.c **** HAL_TIM_StateTypeDef HAL_TIMEx_HallSensor_GetState(TIM_HandleTypeDef *htim)
2735:Drivers/STM32H7xx_HAL_Driver/Src/stm32h7xx_hal_tim_ex.c **** {
 7461              		.loc 1 2735 1
 7462              		.cfi_startproc
 7463              		@ args = 0, pretend = 0, frame = 8
 7464              		@ frame_needed = 1, uses_anonymous_args = 0
ARM GAS  C:\Users\Su\AppData\Local\Temp\ccm0VnUy.s 			page 179


 7465              		@ link register save eliminated.
 7466 0000 80B4     		push	{r7}
 7467              	.LCFI221:
 7468              		.cfi_def_cfa_offset 4
 7469              		.cfi_offset 7, -4
 7470 0002 83B0     		sub	sp, sp, #12
 7471              	.LCFI222:
 7472              		.cfi_def_cfa_offset 16
 7473 0004 00AF     		add	r7, sp, #0
 7474              	.LCFI223:
 7475              		.cfi_def_cfa_register 7
 7476 0006 7860     		str	r0, [r7, #4]
2736:Drivers/STM32H7xx_HAL_Driver/Src/stm32h7xx_hal_tim_ex.c ****   return htim->State;
 7477              		.loc 1 2736 14
 7478 0008 7B68     		ldr	r3, [r7, #4]
 7479 000a 93F83D30 		ldrb	r3, [r3, #61]
 7480 000e DBB2     		uxtb	r3, r3
2737:Drivers/STM32H7xx_HAL_Driver/Src/stm32h7xx_hal_tim_ex.c **** }
 7481              		.loc 1 2737 1
 7482 0010 1846     		mov	r0, r3
 7483 0012 0C37     		adds	r7, r7, #12
 7484              	.LCFI224:
 7485              		.cfi_def_cfa_offset 4
 7486 0014 BD46     		mov	sp, r7
 7487              	.LCFI225:
 7488              		.cfi_def_cfa_register 13
 7489              		@ sp needed
 7490 0016 5DF8047B 		ldr	r7, [sp], #4
 7491              	.LCFI226:
 7492              		.cfi_restore 7
 7493              		.cfi_def_cfa_offset 0
 7494 001a 7047     		bx	lr
 7495              		.cfi_endproc
 7496              	.LFE185:
 7498              		.section	.text.HAL_TIMEx_GetChannelNState,"ax",%progbits
 7499              		.align	1
 7500              		.global	HAL_TIMEx_GetChannelNState
 7501              		.syntax unified
 7502              		.thumb
 7503              		.thumb_func
 7505              	HAL_TIMEx_GetChannelNState:
 7506              	.LFB186:
2738:Drivers/STM32H7xx_HAL_Driver/Src/stm32h7xx_hal_tim_ex.c **** 
2739:Drivers/STM32H7xx_HAL_Driver/Src/stm32h7xx_hal_tim_ex.c **** /**
2740:Drivers/STM32H7xx_HAL_Driver/Src/stm32h7xx_hal_tim_ex.c ****   * @brief  Return actual state of the TIM complementary channel.
2741:Drivers/STM32H7xx_HAL_Driver/Src/stm32h7xx_hal_tim_ex.c ****   * @param  htim TIM handle
2742:Drivers/STM32H7xx_HAL_Driver/Src/stm32h7xx_hal_tim_ex.c ****   * @param  ChannelN TIM Complementary channel
2743:Drivers/STM32H7xx_HAL_Driver/Src/stm32h7xx_hal_tim_ex.c ****   *          This parameter can be one of the following values:
2744:Drivers/STM32H7xx_HAL_Driver/Src/stm32h7xx_hal_tim_ex.c ****   *            @arg TIM_CHANNEL_1: TIM Channel 1
2745:Drivers/STM32H7xx_HAL_Driver/Src/stm32h7xx_hal_tim_ex.c ****   *            @arg TIM_CHANNEL_2: TIM Channel 2
2746:Drivers/STM32H7xx_HAL_Driver/Src/stm32h7xx_hal_tim_ex.c ****   *            @arg TIM_CHANNEL_3: TIM Channel 3
2747:Drivers/STM32H7xx_HAL_Driver/Src/stm32h7xx_hal_tim_ex.c ****   * @retval TIM Complementary channel state
2748:Drivers/STM32H7xx_HAL_Driver/Src/stm32h7xx_hal_tim_ex.c ****   */
2749:Drivers/STM32H7xx_HAL_Driver/Src/stm32h7xx_hal_tim_ex.c **** HAL_TIM_ChannelStateTypeDef HAL_TIMEx_GetChannelNState(TIM_HandleTypeDef *htim,  uint32_t ChannelN)
2750:Drivers/STM32H7xx_HAL_Driver/Src/stm32h7xx_hal_tim_ex.c **** {
 7507              		.loc 1 2750 1
 7508              		.cfi_startproc
ARM GAS  C:\Users\Su\AppData\Local\Temp\ccm0VnUy.s 			page 180


 7509              		@ args = 0, pretend = 0, frame = 16
 7510              		@ frame_needed = 1, uses_anonymous_args = 0
 7511              		@ link register save eliminated.
 7512 0000 80B4     		push	{r7}
 7513              	.LCFI227:
 7514              		.cfi_def_cfa_offset 4
 7515              		.cfi_offset 7, -4
 7516 0002 85B0     		sub	sp, sp, #20
 7517              	.LCFI228:
 7518              		.cfi_def_cfa_offset 24
 7519 0004 00AF     		add	r7, sp, #0
 7520              	.LCFI229:
 7521              		.cfi_def_cfa_register 7
 7522 0006 7860     		str	r0, [r7, #4]
 7523 0008 3960     		str	r1, [r7]
2751:Drivers/STM32H7xx_HAL_Driver/Src/stm32h7xx_hal_tim_ex.c ****   HAL_TIM_ChannelStateTypeDef channel_state;
2752:Drivers/STM32H7xx_HAL_Driver/Src/stm32h7xx_hal_tim_ex.c **** 
2753:Drivers/STM32H7xx_HAL_Driver/Src/stm32h7xx_hal_tim_ex.c ****   /* Check the parameters */
2754:Drivers/STM32H7xx_HAL_Driver/Src/stm32h7xx_hal_tim_ex.c ****   assert_param(IS_TIM_CCXN_INSTANCE(htim->Instance, ChannelN));
2755:Drivers/STM32H7xx_HAL_Driver/Src/stm32h7xx_hal_tim_ex.c **** 
2756:Drivers/STM32H7xx_HAL_Driver/Src/stm32h7xx_hal_tim_ex.c ****   channel_state = TIM_CHANNEL_N_STATE_GET(htim, ChannelN);
 7524              		.loc 1 2756 19
 7525 000a 3B68     		ldr	r3, [r7]
 7526 000c 002B     		cmp	r3, #0
 7527 000e 04D1     		bne	.L446
 7528              		.loc 1 2756 19 is_stmt 0 discriminator 1
 7529 0010 7B68     		ldr	r3, [r7, #4]
 7530 0012 93F84430 		ldrb	r3, [r3, #68]
 7531 0016 DBB2     		uxtb	r3, r3
 7532 0018 13E0     		b	.L447
 7533              	.L446:
 7534              		.loc 1 2756 19 discriminator 2
 7535 001a 3B68     		ldr	r3, [r7]
 7536 001c 042B     		cmp	r3, #4
 7537 001e 04D1     		bne	.L448
 7538              		.loc 1 2756 19 discriminator 4
 7539 0020 7B68     		ldr	r3, [r7, #4]
 7540 0022 93F84530 		ldrb	r3, [r3, #69]
 7541 0026 DBB2     		uxtb	r3, r3
 7542 0028 0BE0     		b	.L447
 7543              	.L448:
 7544              		.loc 1 2756 19 discriminator 5
 7545 002a 3B68     		ldr	r3, [r7]
 7546 002c 082B     		cmp	r3, #8
 7547 002e 04D1     		bne	.L450
 7548              		.loc 1 2756 19 discriminator 7
 7549 0030 7B68     		ldr	r3, [r7, #4]
 7550 0032 93F84630 		ldrb	r3, [r3, #70]
 7551 0036 DBB2     		uxtb	r3, r3
 7552 0038 03E0     		b	.L447
 7553              	.L450:
 7554              		.loc 1 2756 19 discriminator 8
 7555 003a 7B68     		ldr	r3, [r7, #4]
 7556 003c 93F84730 		ldrb	r3, [r3, #71]
 7557 0040 DBB2     		uxtb	r3, r3
 7558              	.L447:
 7559              		.loc 1 2756 17 is_stmt 1 discriminator 12
ARM GAS  C:\Users\Su\AppData\Local\Temp\ccm0VnUy.s 			page 181


 7560 0042 FB73     		strb	r3, [r7, #15]
2757:Drivers/STM32H7xx_HAL_Driver/Src/stm32h7xx_hal_tim_ex.c **** 
2758:Drivers/STM32H7xx_HAL_Driver/Src/stm32h7xx_hal_tim_ex.c ****   return channel_state;
 7561              		.loc 1 2758 10 discriminator 12
 7562 0044 FB7B     		ldrb	r3, [r7, #15]	@ zero_extendqisi2
2759:Drivers/STM32H7xx_HAL_Driver/Src/stm32h7xx_hal_tim_ex.c **** }
 7563              		.loc 1 2759 1 discriminator 12
 7564 0046 1846     		mov	r0, r3
 7565 0048 1437     		adds	r7, r7, #20
 7566              	.LCFI230:
 7567              		.cfi_def_cfa_offset 4
 7568 004a BD46     		mov	sp, r7
 7569              	.LCFI231:
 7570              		.cfi_def_cfa_register 13
 7571              		@ sp needed
 7572 004c 5DF8047B 		ldr	r7, [sp], #4
 7573              	.LCFI232:
 7574              		.cfi_restore 7
 7575              		.cfi_def_cfa_offset 0
 7576 0050 7047     		bx	lr
 7577              		.cfi_endproc
 7578              	.LFE186:
 7580              		.section	.text.TIMEx_DMACommutationCplt,"ax",%progbits
 7581              		.align	1
 7582              		.global	TIMEx_DMACommutationCplt
 7583              		.syntax unified
 7584              		.thumb
 7585              		.thumb_func
 7587              	TIMEx_DMACommutationCplt:
 7588              	.LFB187:
2760:Drivers/STM32H7xx_HAL_Driver/Src/stm32h7xx_hal_tim_ex.c **** /**
2761:Drivers/STM32H7xx_HAL_Driver/Src/stm32h7xx_hal_tim_ex.c ****   * @}
2762:Drivers/STM32H7xx_HAL_Driver/Src/stm32h7xx_hal_tim_ex.c ****   */
2763:Drivers/STM32H7xx_HAL_Driver/Src/stm32h7xx_hal_tim_ex.c **** 
2764:Drivers/STM32H7xx_HAL_Driver/Src/stm32h7xx_hal_tim_ex.c **** /**
2765:Drivers/STM32H7xx_HAL_Driver/Src/stm32h7xx_hal_tim_ex.c ****   * @}
2766:Drivers/STM32H7xx_HAL_Driver/Src/stm32h7xx_hal_tim_ex.c ****   */
2767:Drivers/STM32H7xx_HAL_Driver/Src/stm32h7xx_hal_tim_ex.c **** 
2768:Drivers/STM32H7xx_HAL_Driver/Src/stm32h7xx_hal_tim_ex.c **** /* Private functions ---------------------------------------------------------*/
2769:Drivers/STM32H7xx_HAL_Driver/Src/stm32h7xx_hal_tim_ex.c **** /** @defgroup TIMEx_Private_Functions TIM Extended Private Functions
2770:Drivers/STM32H7xx_HAL_Driver/Src/stm32h7xx_hal_tim_ex.c ****   * @{
2771:Drivers/STM32H7xx_HAL_Driver/Src/stm32h7xx_hal_tim_ex.c ****   */
2772:Drivers/STM32H7xx_HAL_Driver/Src/stm32h7xx_hal_tim_ex.c **** 
2773:Drivers/STM32H7xx_HAL_Driver/Src/stm32h7xx_hal_tim_ex.c **** /**
2774:Drivers/STM32H7xx_HAL_Driver/Src/stm32h7xx_hal_tim_ex.c ****   * @brief  TIM DMA Commutation callback.
2775:Drivers/STM32H7xx_HAL_Driver/Src/stm32h7xx_hal_tim_ex.c ****   * @param  hdma pointer to DMA handle.
2776:Drivers/STM32H7xx_HAL_Driver/Src/stm32h7xx_hal_tim_ex.c ****   * @retval None
2777:Drivers/STM32H7xx_HAL_Driver/Src/stm32h7xx_hal_tim_ex.c ****   */
2778:Drivers/STM32H7xx_HAL_Driver/Src/stm32h7xx_hal_tim_ex.c **** void TIMEx_DMACommutationCplt(DMA_HandleTypeDef *hdma)
2779:Drivers/STM32H7xx_HAL_Driver/Src/stm32h7xx_hal_tim_ex.c **** {
 7589              		.loc 1 2779 1
 7590              		.cfi_startproc
 7591              		@ args = 0, pretend = 0, frame = 16
 7592              		@ frame_needed = 1, uses_anonymous_args = 0
 7593 0000 80B5     		push	{r7, lr}
 7594              	.LCFI233:
 7595              		.cfi_def_cfa_offset 8
ARM GAS  C:\Users\Su\AppData\Local\Temp\ccm0VnUy.s 			page 182


 7596              		.cfi_offset 7, -8
 7597              		.cfi_offset 14, -4
 7598 0002 84B0     		sub	sp, sp, #16
 7599              	.LCFI234:
 7600              		.cfi_def_cfa_offset 24
 7601 0004 00AF     		add	r7, sp, #0
 7602              	.LCFI235:
 7603              		.cfi_def_cfa_register 7
 7604 0006 7860     		str	r0, [r7, #4]
2780:Drivers/STM32H7xx_HAL_Driver/Src/stm32h7xx_hal_tim_ex.c ****   TIM_HandleTypeDef *htim = (TIM_HandleTypeDef *)((DMA_HandleTypeDef *)hdma)->Parent;
 7605              		.loc 1 2780 22
 7606 0008 7B68     		ldr	r3, [r7, #4]
 7607 000a 9B6B     		ldr	r3, [r3, #56]
 7608 000c FB60     		str	r3, [r7, #12]
2781:Drivers/STM32H7xx_HAL_Driver/Src/stm32h7xx_hal_tim_ex.c **** 
2782:Drivers/STM32H7xx_HAL_Driver/Src/stm32h7xx_hal_tim_ex.c ****   /* Change the htim state */
2783:Drivers/STM32H7xx_HAL_Driver/Src/stm32h7xx_hal_tim_ex.c ****   htim->State = HAL_TIM_STATE_READY;
 7609              		.loc 1 2783 15
 7610 000e FB68     		ldr	r3, [r7, #12]
 7611 0010 0122     		movs	r2, #1
 7612 0012 83F83D20 		strb	r2, [r3, #61]
2784:Drivers/STM32H7xx_HAL_Driver/Src/stm32h7xx_hal_tim_ex.c **** 
2785:Drivers/STM32H7xx_HAL_Driver/Src/stm32h7xx_hal_tim_ex.c **** #if (USE_HAL_TIM_REGISTER_CALLBACKS == 1)
2786:Drivers/STM32H7xx_HAL_Driver/Src/stm32h7xx_hal_tim_ex.c ****   htim->CommutationCallback(htim);
2787:Drivers/STM32H7xx_HAL_Driver/Src/stm32h7xx_hal_tim_ex.c **** #else
2788:Drivers/STM32H7xx_HAL_Driver/Src/stm32h7xx_hal_tim_ex.c ****   HAL_TIMEx_CommutCallback(htim);
 7613              		.loc 1 2788 3
 7614 0016 F868     		ldr	r0, [r7, #12]
 7615 0018 FFF7FEFF 		bl	HAL_TIMEx_CommutCallback
2789:Drivers/STM32H7xx_HAL_Driver/Src/stm32h7xx_hal_tim_ex.c **** #endif /* USE_HAL_TIM_REGISTER_CALLBACKS */
2790:Drivers/STM32H7xx_HAL_Driver/Src/stm32h7xx_hal_tim_ex.c **** }
 7616              		.loc 1 2790 1
 7617 001c 00BF     		nop
 7618 001e 1037     		adds	r7, r7, #16
 7619              	.LCFI236:
 7620              		.cfi_def_cfa_offset 8
 7621 0020 BD46     		mov	sp, r7
 7622              	.LCFI237:
 7623              		.cfi_def_cfa_register 13
 7624              		@ sp needed
 7625 0022 80BD     		pop	{r7, pc}
 7626              		.cfi_endproc
 7627              	.LFE187:
 7629              		.section	.text.TIMEx_DMACommutationHalfCplt,"ax",%progbits
 7630              		.align	1
 7631              		.global	TIMEx_DMACommutationHalfCplt
 7632              		.syntax unified
 7633              		.thumb
 7634              		.thumb_func
 7636              	TIMEx_DMACommutationHalfCplt:
 7637              	.LFB188:
2791:Drivers/STM32H7xx_HAL_Driver/Src/stm32h7xx_hal_tim_ex.c **** 
2792:Drivers/STM32H7xx_HAL_Driver/Src/stm32h7xx_hal_tim_ex.c **** /**
2793:Drivers/STM32H7xx_HAL_Driver/Src/stm32h7xx_hal_tim_ex.c ****   * @brief  TIM DMA Commutation half complete callback.
2794:Drivers/STM32H7xx_HAL_Driver/Src/stm32h7xx_hal_tim_ex.c ****   * @param  hdma pointer to DMA handle.
2795:Drivers/STM32H7xx_HAL_Driver/Src/stm32h7xx_hal_tim_ex.c ****   * @retval None
2796:Drivers/STM32H7xx_HAL_Driver/Src/stm32h7xx_hal_tim_ex.c ****   */
ARM GAS  C:\Users\Su\AppData\Local\Temp\ccm0VnUy.s 			page 183


2797:Drivers/STM32H7xx_HAL_Driver/Src/stm32h7xx_hal_tim_ex.c **** void TIMEx_DMACommutationHalfCplt(DMA_HandleTypeDef *hdma)
2798:Drivers/STM32H7xx_HAL_Driver/Src/stm32h7xx_hal_tim_ex.c **** {
 7638              		.loc 1 2798 1
 7639              		.cfi_startproc
 7640              		@ args = 0, pretend = 0, frame = 16
 7641              		@ frame_needed = 1, uses_anonymous_args = 0
 7642 0000 80B5     		push	{r7, lr}
 7643              	.LCFI238:
 7644              		.cfi_def_cfa_offset 8
 7645              		.cfi_offset 7, -8
 7646              		.cfi_offset 14, -4
 7647 0002 84B0     		sub	sp, sp, #16
 7648              	.LCFI239:
 7649              		.cfi_def_cfa_offset 24
 7650 0004 00AF     		add	r7, sp, #0
 7651              	.LCFI240:
 7652              		.cfi_def_cfa_register 7
 7653 0006 7860     		str	r0, [r7, #4]
2799:Drivers/STM32H7xx_HAL_Driver/Src/stm32h7xx_hal_tim_ex.c ****   TIM_HandleTypeDef *htim = (TIM_HandleTypeDef *)((DMA_HandleTypeDef *)hdma)->Parent;
 7654              		.loc 1 2799 22
 7655 0008 7B68     		ldr	r3, [r7, #4]
 7656 000a 9B6B     		ldr	r3, [r3, #56]
 7657 000c FB60     		str	r3, [r7, #12]
2800:Drivers/STM32H7xx_HAL_Driver/Src/stm32h7xx_hal_tim_ex.c **** 
2801:Drivers/STM32H7xx_HAL_Driver/Src/stm32h7xx_hal_tim_ex.c ****   /* Change the htim state */
2802:Drivers/STM32H7xx_HAL_Driver/Src/stm32h7xx_hal_tim_ex.c ****   htim->State = HAL_TIM_STATE_READY;
 7658              		.loc 1 2802 15
 7659 000e FB68     		ldr	r3, [r7, #12]
 7660 0010 0122     		movs	r2, #1
 7661 0012 83F83D20 		strb	r2, [r3, #61]
2803:Drivers/STM32H7xx_HAL_Driver/Src/stm32h7xx_hal_tim_ex.c **** 
2804:Drivers/STM32H7xx_HAL_Driver/Src/stm32h7xx_hal_tim_ex.c **** #if (USE_HAL_TIM_REGISTER_CALLBACKS == 1)
2805:Drivers/STM32H7xx_HAL_Driver/Src/stm32h7xx_hal_tim_ex.c ****   htim->CommutationHalfCpltCallback(htim);
2806:Drivers/STM32H7xx_HAL_Driver/Src/stm32h7xx_hal_tim_ex.c **** #else
2807:Drivers/STM32H7xx_HAL_Driver/Src/stm32h7xx_hal_tim_ex.c ****   HAL_TIMEx_CommutHalfCpltCallback(htim);
 7662              		.loc 1 2807 3
 7663 0016 F868     		ldr	r0, [r7, #12]
 7664 0018 FFF7FEFF 		bl	HAL_TIMEx_CommutHalfCpltCallback
2808:Drivers/STM32H7xx_HAL_Driver/Src/stm32h7xx_hal_tim_ex.c **** #endif /* USE_HAL_TIM_REGISTER_CALLBACKS */
2809:Drivers/STM32H7xx_HAL_Driver/Src/stm32h7xx_hal_tim_ex.c **** }
 7665              		.loc 1 2809 1
 7666 001c 00BF     		nop
 7667 001e 1037     		adds	r7, r7, #16
 7668              	.LCFI241:
 7669              		.cfi_def_cfa_offset 8
 7670 0020 BD46     		mov	sp, r7
 7671              	.LCFI242:
 7672              		.cfi_def_cfa_register 13
 7673              		@ sp needed
 7674 0022 80BD     		pop	{r7, pc}
 7675              		.cfi_endproc
 7676              	.LFE188:
 7678              		.section	.text.TIM_DMADelayPulseNCplt,"ax",%progbits
 7679              		.align	1
 7680              		.syntax unified
 7681              		.thumb
 7682              		.thumb_func
ARM GAS  C:\Users\Su\AppData\Local\Temp\ccm0VnUy.s 			page 184


 7684              	TIM_DMADelayPulseNCplt:
 7685              	.LFB189:
2810:Drivers/STM32H7xx_HAL_Driver/Src/stm32h7xx_hal_tim_ex.c **** 
2811:Drivers/STM32H7xx_HAL_Driver/Src/stm32h7xx_hal_tim_ex.c **** 
2812:Drivers/STM32H7xx_HAL_Driver/Src/stm32h7xx_hal_tim_ex.c **** /**
2813:Drivers/STM32H7xx_HAL_Driver/Src/stm32h7xx_hal_tim_ex.c ****   * @brief  TIM DMA Delay Pulse complete callback (complementary channel).
2814:Drivers/STM32H7xx_HAL_Driver/Src/stm32h7xx_hal_tim_ex.c ****   * @param  hdma pointer to DMA handle.
2815:Drivers/STM32H7xx_HAL_Driver/Src/stm32h7xx_hal_tim_ex.c ****   * @retval None
2816:Drivers/STM32H7xx_HAL_Driver/Src/stm32h7xx_hal_tim_ex.c ****   */
2817:Drivers/STM32H7xx_HAL_Driver/Src/stm32h7xx_hal_tim_ex.c **** static void TIM_DMADelayPulseNCplt(DMA_HandleTypeDef *hdma)
2818:Drivers/STM32H7xx_HAL_Driver/Src/stm32h7xx_hal_tim_ex.c **** {
 7686              		.loc 1 2818 1
 7687              		.cfi_startproc
 7688              		@ args = 0, pretend = 0, frame = 16
 7689              		@ frame_needed = 1, uses_anonymous_args = 0
 7690 0000 80B5     		push	{r7, lr}
 7691              	.LCFI243:
 7692              		.cfi_def_cfa_offset 8
 7693              		.cfi_offset 7, -8
 7694              		.cfi_offset 14, -4
 7695 0002 84B0     		sub	sp, sp, #16
 7696              	.LCFI244:
 7697              		.cfi_def_cfa_offset 24
 7698 0004 00AF     		add	r7, sp, #0
 7699              	.LCFI245:
 7700              		.cfi_def_cfa_register 7
 7701 0006 7860     		str	r0, [r7, #4]
2819:Drivers/STM32H7xx_HAL_Driver/Src/stm32h7xx_hal_tim_ex.c ****   TIM_HandleTypeDef *htim = (TIM_HandleTypeDef *)((DMA_HandleTypeDef *)hdma)->Parent;
 7702              		.loc 1 2819 22
 7703 0008 7B68     		ldr	r3, [r7, #4]
 7704 000a 9B6B     		ldr	r3, [r3, #56]
 7705 000c FB60     		str	r3, [r7, #12]
2820:Drivers/STM32H7xx_HAL_Driver/Src/stm32h7xx_hal_tim_ex.c **** 
2821:Drivers/STM32H7xx_HAL_Driver/Src/stm32h7xx_hal_tim_ex.c ****   if (hdma == htim->hdma[TIM_DMA_ID_CC1])
 7706              		.loc 1 2821 25
 7707 000e FB68     		ldr	r3, [r7, #12]
 7708 0010 5B6A     		ldr	r3, [r3, #36]
 7709              		.loc 1 2821 6
 7710 0012 7A68     		ldr	r2, [r7, #4]
 7711 0014 9A42     		cmp	r2, r3
 7712 0016 0BD1     		bne	.L456
2822:Drivers/STM32H7xx_HAL_Driver/Src/stm32h7xx_hal_tim_ex.c ****   {
2823:Drivers/STM32H7xx_HAL_Driver/Src/stm32h7xx_hal_tim_ex.c ****     htim->Channel = HAL_TIM_ACTIVE_CHANNEL_1;
 7713              		.loc 1 2823 19
 7714 0018 FB68     		ldr	r3, [r7, #12]
 7715 001a 0122     		movs	r2, #1
 7716 001c 1A77     		strb	r2, [r3, #28]
2824:Drivers/STM32H7xx_HAL_Driver/Src/stm32h7xx_hal_tim_ex.c **** 
2825:Drivers/STM32H7xx_HAL_Driver/Src/stm32h7xx_hal_tim_ex.c ****     if (hdma->Init.Mode == DMA_NORMAL)
 7717              		.loc 1 2825 19
 7718 001e 7B68     		ldr	r3, [r7, #4]
 7719 0020 DB69     		ldr	r3, [r3, #28]
 7720              		.loc 1 2825 8
 7721 0022 002B     		cmp	r3, #0
 7722 0024 36D1     		bne	.L457
2826:Drivers/STM32H7xx_HAL_Driver/Src/stm32h7xx_hal_tim_ex.c ****     {
2827:Drivers/STM32H7xx_HAL_Driver/Src/stm32h7xx_hal_tim_ex.c ****       TIM_CHANNEL_N_STATE_SET(htim, TIM_CHANNEL_1, HAL_TIM_CHANNEL_STATE_READY);
ARM GAS  C:\Users\Su\AppData\Local\Temp\ccm0VnUy.s 			page 185


 7723              		.loc 1 2827 7
 7724 0026 FB68     		ldr	r3, [r7, #12]
 7725 0028 0122     		movs	r2, #1
 7726 002a 83F84420 		strb	r2, [r3, #68]
 7727 002e 31E0     		b	.L457
 7728              	.L456:
2828:Drivers/STM32H7xx_HAL_Driver/Src/stm32h7xx_hal_tim_ex.c ****     }
2829:Drivers/STM32H7xx_HAL_Driver/Src/stm32h7xx_hal_tim_ex.c ****   }
2830:Drivers/STM32H7xx_HAL_Driver/Src/stm32h7xx_hal_tim_ex.c ****   else if (hdma == htim->hdma[TIM_DMA_ID_CC2])
 7729              		.loc 1 2830 30
 7730 0030 FB68     		ldr	r3, [r7, #12]
 7731 0032 9B6A     		ldr	r3, [r3, #40]
 7732              		.loc 1 2830 11
 7733 0034 7A68     		ldr	r2, [r7, #4]
 7734 0036 9A42     		cmp	r2, r3
 7735 0038 0BD1     		bne	.L458
2831:Drivers/STM32H7xx_HAL_Driver/Src/stm32h7xx_hal_tim_ex.c ****   {
2832:Drivers/STM32H7xx_HAL_Driver/Src/stm32h7xx_hal_tim_ex.c ****     htim->Channel = HAL_TIM_ACTIVE_CHANNEL_2;
 7736              		.loc 1 2832 19
 7737 003a FB68     		ldr	r3, [r7, #12]
 7738 003c 0222     		movs	r2, #2
 7739 003e 1A77     		strb	r2, [r3, #28]
2833:Drivers/STM32H7xx_HAL_Driver/Src/stm32h7xx_hal_tim_ex.c **** 
2834:Drivers/STM32H7xx_HAL_Driver/Src/stm32h7xx_hal_tim_ex.c ****     if (hdma->Init.Mode == DMA_NORMAL)
 7740              		.loc 1 2834 19
 7741 0040 7B68     		ldr	r3, [r7, #4]
 7742 0042 DB69     		ldr	r3, [r3, #28]
 7743              		.loc 1 2834 8
 7744 0044 002B     		cmp	r3, #0
 7745 0046 25D1     		bne	.L457
2835:Drivers/STM32H7xx_HAL_Driver/Src/stm32h7xx_hal_tim_ex.c ****     {
2836:Drivers/STM32H7xx_HAL_Driver/Src/stm32h7xx_hal_tim_ex.c ****       TIM_CHANNEL_N_STATE_SET(htim, TIM_CHANNEL_2, HAL_TIM_CHANNEL_STATE_READY);
 7746              		.loc 1 2836 7
 7747 0048 FB68     		ldr	r3, [r7, #12]
 7748 004a 0122     		movs	r2, #1
 7749 004c 83F84520 		strb	r2, [r3, #69]
 7750 0050 20E0     		b	.L457
 7751              	.L458:
2837:Drivers/STM32H7xx_HAL_Driver/Src/stm32h7xx_hal_tim_ex.c ****     }
2838:Drivers/STM32H7xx_HAL_Driver/Src/stm32h7xx_hal_tim_ex.c ****   }
2839:Drivers/STM32H7xx_HAL_Driver/Src/stm32h7xx_hal_tim_ex.c ****   else if (hdma == htim->hdma[TIM_DMA_ID_CC3])
 7752              		.loc 1 2839 30
 7753 0052 FB68     		ldr	r3, [r7, #12]
 7754 0054 DB6A     		ldr	r3, [r3, #44]
 7755              		.loc 1 2839 11
 7756 0056 7A68     		ldr	r2, [r7, #4]
 7757 0058 9A42     		cmp	r2, r3
 7758 005a 0BD1     		bne	.L459
2840:Drivers/STM32H7xx_HAL_Driver/Src/stm32h7xx_hal_tim_ex.c ****   {
2841:Drivers/STM32H7xx_HAL_Driver/Src/stm32h7xx_hal_tim_ex.c ****     htim->Channel = HAL_TIM_ACTIVE_CHANNEL_3;
 7759              		.loc 1 2841 19
 7760 005c FB68     		ldr	r3, [r7, #12]
 7761 005e 0422     		movs	r2, #4
 7762 0060 1A77     		strb	r2, [r3, #28]
2842:Drivers/STM32H7xx_HAL_Driver/Src/stm32h7xx_hal_tim_ex.c **** 
2843:Drivers/STM32H7xx_HAL_Driver/Src/stm32h7xx_hal_tim_ex.c ****     if (hdma->Init.Mode == DMA_NORMAL)
 7763              		.loc 1 2843 19
ARM GAS  C:\Users\Su\AppData\Local\Temp\ccm0VnUy.s 			page 186


 7764 0062 7B68     		ldr	r3, [r7, #4]
 7765 0064 DB69     		ldr	r3, [r3, #28]
 7766              		.loc 1 2843 8
 7767 0066 002B     		cmp	r3, #0
 7768 0068 14D1     		bne	.L457
2844:Drivers/STM32H7xx_HAL_Driver/Src/stm32h7xx_hal_tim_ex.c ****     {
2845:Drivers/STM32H7xx_HAL_Driver/Src/stm32h7xx_hal_tim_ex.c ****       TIM_CHANNEL_N_STATE_SET(htim, TIM_CHANNEL_3, HAL_TIM_CHANNEL_STATE_READY);
 7769              		.loc 1 2845 7
 7770 006a FB68     		ldr	r3, [r7, #12]
 7771 006c 0122     		movs	r2, #1
 7772 006e 83F84620 		strb	r2, [r3, #70]
 7773 0072 0FE0     		b	.L457
 7774              	.L459:
2846:Drivers/STM32H7xx_HAL_Driver/Src/stm32h7xx_hal_tim_ex.c ****     }
2847:Drivers/STM32H7xx_HAL_Driver/Src/stm32h7xx_hal_tim_ex.c ****   }
2848:Drivers/STM32H7xx_HAL_Driver/Src/stm32h7xx_hal_tim_ex.c ****   else if (hdma == htim->hdma[TIM_DMA_ID_CC4])
 7775              		.loc 1 2848 30
 7776 0074 FB68     		ldr	r3, [r7, #12]
 7777 0076 1B6B     		ldr	r3, [r3, #48]
 7778              		.loc 1 2848 11
 7779 0078 7A68     		ldr	r2, [r7, #4]
 7780 007a 9A42     		cmp	r2, r3
 7781 007c 0AD1     		bne	.L457
2849:Drivers/STM32H7xx_HAL_Driver/Src/stm32h7xx_hal_tim_ex.c ****   {
2850:Drivers/STM32H7xx_HAL_Driver/Src/stm32h7xx_hal_tim_ex.c ****     htim->Channel = HAL_TIM_ACTIVE_CHANNEL_4;
 7782              		.loc 1 2850 19
 7783 007e FB68     		ldr	r3, [r7, #12]
 7784 0080 0822     		movs	r2, #8
 7785 0082 1A77     		strb	r2, [r3, #28]
2851:Drivers/STM32H7xx_HAL_Driver/Src/stm32h7xx_hal_tim_ex.c **** 
2852:Drivers/STM32H7xx_HAL_Driver/Src/stm32h7xx_hal_tim_ex.c ****     if (hdma->Init.Mode == DMA_NORMAL)
 7786              		.loc 1 2852 19
 7787 0084 7B68     		ldr	r3, [r7, #4]
 7788 0086 DB69     		ldr	r3, [r3, #28]
 7789              		.loc 1 2852 8
 7790 0088 002B     		cmp	r3, #0
 7791 008a 03D1     		bne	.L457
2853:Drivers/STM32H7xx_HAL_Driver/Src/stm32h7xx_hal_tim_ex.c ****     {
2854:Drivers/STM32H7xx_HAL_Driver/Src/stm32h7xx_hal_tim_ex.c ****       TIM_CHANNEL_N_STATE_SET(htim, TIM_CHANNEL_4, HAL_TIM_CHANNEL_STATE_READY);
 7792              		.loc 1 2854 7
 7793 008c FB68     		ldr	r3, [r7, #12]
 7794 008e 0122     		movs	r2, #1
 7795 0090 83F84720 		strb	r2, [r3, #71]
 7796              	.L457:
2855:Drivers/STM32H7xx_HAL_Driver/Src/stm32h7xx_hal_tim_ex.c ****     }
2856:Drivers/STM32H7xx_HAL_Driver/Src/stm32h7xx_hal_tim_ex.c ****   }
2857:Drivers/STM32H7xx_HAL_Driver/Src/stm32h7xx_hal_tim_ex.c ****   else
2858:Drivers/STM32H7xx_HAL_Driver/Src/stm32h7xx_hal_tim_ex.c ****   {
2859:Drivers/STM32H7xx_HAL_Driver/Src/stm32h7xx_hal_tim_ex.c ****     /* nothing to do */
2860:Drivers/STM32H7xx_HAL_Driver/Src/stm32h7xx_hal_tim_ex.c ****   }
2861:Drivers/STM32H7xx_HAL_Driver/Src/stm32h7xx_hal_tim_ex.c **** 
2862:Drivers/STM32H7xx_HAL_Driver/Src/stm32h7xx_hal_tim_ex.c **** #if (USE_HAL_TIM_REGISTER_CALLBACKS == 1)
2863:Drivers/STM32H7xx_HAL_Driver/Src/stm32h7xx_hal_tim_ex.c ****   htim->PWM_PulseFinishedCallback(htim);
2864:Drivers/STM32H7xx_HAL_Driver/Src/stm32h7xx_hal_tim_ex.c **** #else
2865:Drivers/STM32H7xx_HAL_Driver/Src/stm32h7xx_hal_tim_ex.c ****   HAL_TIM_PWM_PulseFinishedCallback(htim);
 7797              		.loc 1 2865 3
 7798 0094 F868     		ldr	r0, [r7, #12]
ARM GAS  C:\Users\Su\AppData\Local\Temp\ccm0VnUy.s 			page 187


 7799 0096 FFF7FEFF 		bl	HAL_TIM_PWM_PulseFinishedCallback
2866:Drivers/STM32H7xx_HAL_Driver/Src/stm32h7xx_hal_tim_ex.c **** #endif /* USE_HAL_TIM_REGISTER_CALLBACKS */
2867:Drivers/STM32H7xx_HAL_Driver/Src/stm32h7xx_hal_tim_ex.c **** 
2868:Drivers/STM32H7xx_HAL_Driver/Src/stm32h7xx_hal_tim_ex.c ****   htim->Channel = HAL_TIM_ACTIVE_CHANNEL_CLEARED;
 7800              		.loc 1 2868 17
 7801 009a FB68     		ldr	r3, [r7, #12]
 7802 009c 0022     		movs	r2, #0
 7803 009e 1A77     		strb	r2, [r3, #28]
2869:Drivers/STM32H7xx_HAL_Driver/Src/stm32h7xx_hal_tim_ex.c **** }
 7804              		.loc 1 2869 1
 7805 00a0 00BF     		nop
 7806 00a2 1037     		adds	r7, r7, #16
 7807              	.LCFI246:
 7808              		.cfi_def_cfa_offset 8
 7809 00a4 BD46     		mov	sp, r7
 7810              	.LCFI247:
 7811              		.cfi_def_cfa_register 13
 7812              		@ sp needed
 7813 00a6 80BD     		pop	{r7, pc}
 7814              		.cfi_endproc
 7815              	.LFE189:
 7817              		.section	.text.TIM_DMAErrorCCxN,"ax",%progbits
 7818              		.align	1
 7819              		.syntax unified
 7820              		.thumb
 7821              		.thumb_func
 7823              	TIM_DMAErrorCCxN:
 7824              	.LFB190:
2870:Drivers/STM32H7xx_HAL_Driver/Src/stm32h7xx_hal_tim_ex.c **** 
2871:Drivers/STM32H7xx_HAL_Driver/Src/stm32h7xx_hal_tim_ex.c **** /**
2872:Drivers/STM32H7xx_HAL_Driver/Src/stm32h7xx_hal_tim_ex.c ****   * @brief  TIM DMA error callback (complementary channel)
2873:Drivers/STM32H7xx_HAL_Driver/Src/stm32h7xx_hal_tim_ex.c ****   * @param  hdma pointer to DMA handle.
2874:Drivers/STM32H7xx_HAL_Driver/Src/stm32h7xx_hal_tim_ex.c ****   * @retval None
2875:Drivers/STM32H7xx_HAL_Driver/Src/stm32h7xx_hal_tim_ex.c ****   */
2876:Drivers/STM32H7xx_HAL_Driver/Src/stm32h7xx_hal_tim_ex.c **** static void TIM_DMAErrorCCxN(DMA_HandleTypeDef *hdma)
2877:Drivers/STM32H7xx_HAL_Driver/Src/stm32h7xx_hal_tim_ex.c **** {
 7825              		.loc 1 2877 1
 7826              		.cfi_startproc
 7827              		@ args = 0, pretend = 0, frame = 16
 7828              		@ frame_needed = 1, uses_anonymous_args = 0
 7829 0000 80B5     		push	{r7, lr}
 7830              	.LCFI248:
 7831              		.cfi_def_cfa_offset 8
 7832              		.cfi_offset 7, -8
 7833              		.cfi_offset 14, -4
 7834 0002 84B0     		sub	sp, sp, #16
 7835              	.LCFI249:
 7836              		.cfi_def_cfa_offset 24
 7837 0004 00AF     		add	r7, sp, #0
 7838              	.LCFI250:
 7839              		.cfi_def_cfa_register 7
 7840 0006 7860     		str	r0, [r7, #4]
2878:Drivers/STM32H7xx_HAL_Driver/Src/stm32h7xx_hal_tim_ex.c ****   TIM_HandleTypeDef *htim = (TIM_HandleTypeDef *)((DMA_HandleTypeDef *)hdma)->Parent;
 7841              		.loc 1 2878 22
 7842 0008 7B68     		ldr	r3, [r7, #4]
 7843 000a 9B6B     		ldr	r3, [r3, #56]
 7844 000c FB60     		str	r3, [r7, #12]
ARM GAS  C:\Users\Su\AppData\Local\Temp\ccm0VnUy.s 			page 188


2879:Drivers/STM32H7xx_HAL_Driver/Src/stm32h7xx_hal_tim_ex.c **** 
2880:Drivers/STM32H7xx_HAL_Driver/Src/stm32h7xx_hal_tim_ex.c ****   if (hdma == htim->hdma[TIM_DMA_ID_CC1])
 7845              		.loc 1 2880 25
 7846 000e FB68     		ldr	r3, [r7, #12]
 7847 0010 5B6A     		ldr	r3, [r3, #36]
 7848              		.loc 1 2880 6
 7849 0012 7A68     		ldr	r2, [r7, #4]
 7850 0014 9A42     		cmp	r2, r3
 7851 0016 07D1     		bne	.L461
2881:Drivers/STM32H7xx_HAL_Driver/Src/stm32h7xx_hal_tim_ex.c ****   {
2882:Drivers/STM32H7xx_HAL_Driver/Src/stm32h7xx_hal_tim_ex.c ****     htim->Channel = HAL_TIM_ACTIVE_CHANNEL_1;
 7852              		.loc 1 2882 19
 7853 0018 FB68     		ldr	r3, [r7, #12]
 7854 001a 0122     		movs	r2, #1
 7855 001c 1A77     		strb	r2, [r3, #28]
2883:Drivers/STM32H7xx_HAL_Driver/Src/stm32h7xx_hal_tim_ex.c ****     TIM_CHANNEL_N_STATE_SET(htim, TIM_CHANNEL_1, HAL_TIM_CHANNEL_STATE_READY);
 7856              		.loc 1 2883 5
 7857 001e FB68     		ldr	r3, [r7, #12]
 7858 0020 0122     		movs	r2, #1
 7859 0022 83F84420 		strb	r2, [r3, #68]
 7860 0026 18E0     		b	.L462
 7861              	.L461:
2884:Drivers/STM32H7xx_HAL_Driver/Src/stm32h7xx_hal_tim_ex.c ****   }
2885:Drivers/STM32H7xx_HAL_Driver/Src/stm32h7xx_hal_tim_ex.c ****   else if (hdma == htim->hdma[TIM_DMA_ID_CC2])
 7862              		.loc 1 2885 30
 7863 0028 FB68     		ldr	r3, [r7, #12]
 7864 002a 9B6A     		ldr	r3, [r3, #40]
 7865              		.loc 1 2885 11
 7866 002c 7A68     		ldr	r2, [r7, #4]
 7867 002e 9A42     		cmp	r2, r3
 7868 0030 07D1     		bne	.L463
2886:Drivers/STM32H7xx_HAL_Driver/Src/stm32h7xx_hal_tim_ex.c ****   {
2887:Drivers/STM32H7xx_HAL_Driver/Src/stm32h7xx_hal_tim_ex.c ****     htim->Channel = HAL_TIM_ACTIVE_CHANNEL_2;
 7869              		.loc 1 2887 19
 7870 0032 FB68     		ldr	r3, [r7, #12]
 7871 0034 0222     		movs	r2, #2
 7872 0036 1A77     		strb	r2, [r3, #28]
2888:Drivers/STM32H7xx_HAL_Driver/Src/stm32h7xx_hal_tim_ex.c ****     TIM_CHANNEL_N_STATE_SET(htim, TIM_CHANNEL_2, HAL_TIM_CHANNEL_STATE_READY);
 7873              		.loc 1 2888 5
 7874 0038 FB68     		ldr	r3, [r7, #12]
 7875 003a 0122     		movs	r2, #1
 7876 003c 83F84520 		strb	r2, [r3, #69]
 7877 0040 0BE0     		b	.L462
 7878              	.L463:
2889:Drivers/STM32H7xx_HAL_Driver/Src/stm32h7xx_hal_tim_ex.c ****   }
2890:Drivers/STM32H7xx_HAL_Driver/Src/stm32h7xx_hal_tim_ex.c ****   else if (hdma == htim->hdma[TIM_DMA_ID_CC3])
 7879              		.loc 1 2890 30
 7880 0042 FB68     		ldr	r3, [r7, #12]
 7881 0044 DB6A     		ldr	r3, [r3, #44]
 7882              		.loc 1 2890 11
 7883 0046 7A68     		ldr	r2, [r7, #4]
 7884 0048 9A42     		cmp	r2, r3
 7885 004a 06D1     		bne	.L462
2891:Drivers/STM32H7xx_HAL_Driver/Src/stm32h7xx_hal_tim_ex.c ****   {
2892:Drivers/STM32H7xx_HAL_Driver/Src/stm32h7xx_hal_tim_ex.c ****     htim->Channel = HAL_TIM_ACTIVE_CHANNEL_3;
 7886              		.loc 1 2892 19
 7887 004c FB68     		ldr	r3, [r7, #12]
ARM GAS  C:\Users\Su\AppData\Local\Temp\ccm0VnUy.s 			page 189


 7888 004e 0422     		movs	r2, #4
 7889 0050 1A77     		strb	r2, [r3, #28]
2893:Drivers/STM32H7xx_HAL_Driver/Src/stm32h7xx_hal_tim_ex.c ****     TIM_CHANNEL_N_STATE_SET(htim, TIM_CHANNEL_3, HAL_TIM_CHANNEL_STATE_READY);
 7890              		.loc 1 2893 5
 7891 0052 FB68     		ldr	r3, [r7, #12]
 7892 0054 0122     		movs	r2, #1
 7893 0056 83F84620 		strb	r2, [r3, #70]
 7894              	.L462:
2894:Drivers/STM32H7xx_HAL_Driver/Src/stm32h7xx_hal_tim_ex.c ****   }
2895:Drivers/STM32H7xx_HAL_Driver/Src/stm32h7xx_hal_tim_ex.c ****   else
2896:Drivers/STM32H7xx_HAL_Driver/Src/stm32h7xx_hal_tim_ex.c ****   {
2897:Drivers/STM32H7xx_HAL_Driver/Src/stm32h7xx_hal_tim_ex.c ****     /* nothing to do */
2898:Drivers/STM32H7xx_HAL_Driver/Src/stm32h7xx_hal_tim_ex.c ****   }
2899:Drivers/STM32H7xx_HAL_Driver/Src/stm32h7xx_hal_tim_ex.c **** 
2900:Drivers/STM32H7xx_HAL_Driver/Src/stm32h7xx_hal_tim_ex.c **** #if (USE_HAL_TIM_REGISTER_CALLBACKS == 1)
2901:Drivers/STM32H7xx_HAL_Driver/Src/stm32h7xx_hal_tim_ex.c ****   htim->ErrorCallback(htim);
2902:Drivers/STM32H7xx_HAL_Driver/Src/stm32h7xx_hal_tim_ex.c **** #else
2903:Drivers/STM32H7xx_HAL_Driver/Src/stm32h7xx_hal_tim_ex.c ****   HAL_TIM_ErrorCallback(htim);
 7895              		.loc 1 2903 3
 7896 005a F868     		ldr	r0, [r7, #12]
 7897 005c FFF7FEFF 		bl	HAL_TIM_ErrorCallback
2904:Drivers/STM32H7xx_HAL_Driver/Src/stm32h7xx_hal_tim_ex.c **** #endif /* USE_HAL_TIM_REGISTER_CALLBACKS */
2905:Drivers/STM32H7xx_HAL_Driver/Src/stm32h7xx_hal_tim_ex.c **** 
2906:Drivers/STM32H7xx_HAL_Driver/Src/stm32h7xx_hal_tim_ex.c ****   htim->Channel = HAL_TIM_ACTIVE_CHANNEL_CLEARED;
 7898              		.loc 1 2906 17
 7899 0060 FB68     		ldr	r3, [r7, #12]
 7900 0062 0022     		movs	r2, #0
 7901 0064 1A77     		strb	r2, [r3, #28]
2907:Drivers/STM32H7xx_HAL_Driver/Src/stm32h7xx_hal_tim_ex.c **** }
 7902              		.loc 1 2907 1
 7903 0066 00BF     		nop
 7904 0068 1037     		adds	r7, r7, #16
 7905              	.LCFI251:
 7906              		.cfi_def_cfa_offset 8
 7907 006a BD46     		mov	sp, r7
 7908              	.LCFI252:
 7909              		.cfi_def_cfa_register 13
 7910              		@ sp needed
 7911 006c 80BD     		pop	{r7, pc}
 7912              		.cfi_endproc
 7913              	.LFE190:
 7915              		.section	.text.TIM_CCxNChannelCmd,"ax",%progbits
 7916              		.align	1
 7917              		.syntax unified
 7918              		.thumb
 7919              		.thumb_func
 7921              	TIM_CCxNChannelCmd:
 7922              	.LFB191:
2908:Drivers/STM32H7xx_HAL_Driver/Src/stm32h7xx_hal_tim_ex.c **** 
2909:Drivers/STM32H7xx_HAL_Driver/Src/stm32h7xx_hal_tim_ex.c **** /**
2910:Drivers/STM32H7xx_HAL_Driver/Src/stm32h7xx_hal_tim_ex.c ****   * @brief  Enables or disables the TIM Capture Compare Channel xN.
2911:Drivers/STM32H7xx_HAL_Driver/Src/stm32h7xx_hal_tim_ex.c ****   * @param  TIMx to select the TIM peripheral
2912:Drivers/STM32H7xx_HAL_Driver/Src/stm32h7xx_hal_tim_ex.c ****   * @param  Channel specifies the TIM Channel
2913:Drivers/STM32H7xx_HAL_Driver/Src/stm32h7xx_hal_tim_ex.c ****   *          This parameter can be one of the following values:
2914:Drivers/STM32H7xx_HAL_Driver/Src/stm32h7xx_hal_tim_ex.c ****   *            @arg TIM_CHANNEL_1: TIM Channel 1
2915:Drivers/STM32H7xx_HAL_Driver/Src/stm32h7xx_hal_tim_ex.c ****   *            @arg TIM_CHANNEL_2: TIM Channel 2
2916:Drivers/STM32H7xx_HAL_Driver/Src/stm32h7xx_hal_tim_ex.c ****   *            @arg TIM_CHANNEL_3: TIM Channel 3
ARM GAS  C:\Users\Su\AppData\Local\Temp\ccm0VnUy.s 			page 190


2917:Drivers/STM32H7xx_HAL_Driver/Src/stm32h7xx_hal_tim_ex.c ****   * @param  ChannelNState specifies the TIM Channel CCxNE bit new state.
2918:Drivers/STM32H7xx_HAL_Driver/Src/stm32h7xx_hal_tim_ex.c ****   *          This parameter can be: TIM_CCxN_ENABLE or TIM_CCxN_Disable.
2919:Drivers/STM32H7xx_HAL_Driver/Src/stm32h7xx_hal_tim_ex.c ****   * @retval None
2920:Drivers/STM32H7xx_HAL_Driver/Src/stm32h7xx_hal_tim_ex.c ****   */
2921:Drivers/STM32H7xx_HAL_Driver/Src/stm32h7xx_hal_tim_ex.c **** static void TIM_CCxNChannelCmd(TIM_TypeDef *TIMx, uint32_t Channel, uint32_t ChannelNState)
2922:Drivers/STM32H7xx_HAL_Driver/Src/stm32h7xx_hal_tim_ex.c **** {
 7923              		.loc 1 2922 1
 7924              		.cfi_startproc
 7925              		@ args = 0, pretend = 0, frame = 24
 7926              		@ frame_needed = 1, uses_anonymous_args = 0
 7927              		@ link register save eliminated.
 7928 0000 80B4     		push	{r7}
 7929              	.LCFI253:
 7930              		.cfi_def_cfa_offset 4
 7931              		.cfi_offset 7, -4
 7932 0002 87B0     		sub	sp, sp, #28
 7933              	.LCFI254:
 7934              		.cfi_def_cfa_offset 32
 7935 0004 00AF     		add	r7, sp, #0
 7936              	.LCFI255:
 7937              		.cfi_def_cfa_register 7
 7938 0006 F860     		str	r0, [r7, #12]
 7939 0008 B960     		str	r1, [r7, #8]
 7940 000a 7A60     		str	r2, [r7, #4]
2923:Drivers/STM32H7xx_HAL_Driver/Src/stm32h7xx_hal_tim_ex.c ****   uint32_t tmp;
2924:Drivers/STM32H7xx_HAL_Driver/Src/stm32h7xx_hal_tim_ex.c **** 
2925:Drivers/STM32H7xx_HAL_Driver/Src/stm32h7xx_hal_tim_ex.c ****   tmp = TIM_CCER_CC1NE << (Channel & 0x1FU); /* 0x1FU = 31 bits max shift */
 7941              		.loc 1 2925 36
 7942 000c BB68     		ldr	r3, [r7, #8]
 7943 000e 03F01F03 		and	r3, r3, #31
 7944              		.loc 1 2925 7
 7945 0012 0422     		movs	r2, #4
 7946 0014 02FA03F3 		lsl	r3, r2, r3
 7947 0018 7B61     		str	r3, [r7, #20]
2926:Drivers/STM32H7xx_HAL_Driver/Src/stm32h7xx_hal_tim_ex.c **** 
2927:Drivers/STM32H7xx_HAL_Driver/Src/stm32h7xx_hal_tim_ex.c ****   /* Reset the CCxNE Bit */
2928:Drivers/STM32H7xx_HAL_Driver/Src/stm32h7xx_hal_tim_ex.c ****   TIMx->CCER &=  ~tmp;
 7948              		.loc 1 2928 14
 7949 001a FB68     		ldr	r3, [r7, #12]
 7950 001c 1A6A     		ldr	r2, [r3, #32]
 7951              		.loc 1 2928 18
 7952 001e 7B69     		ldr	r3, [r7, #20]
 7953 0020 DB43     		mvns	r3, r3
 7954              		.loc 1 2928 14
 7955 0022 1A40     		ands	r2, r2, r3
 7956 0024 FB68     		ldr	r3, [r7, #12]
 7957 0026 1A62     		str	r2, [r3, #32]
2929:Drivers/STM32H7xx_HAL_Driver/Src/stm32h7xx_hal_tim_ex.c **** 
2930:Drivers/STM32H7xx_HAL_Driver/Src/stm32h7xx_hal_tim_ex.c ****   /* Set or reset the CCxNE Bit */
2931:Drivers/STM32H7xx_HAL_Driver/Src/stm32h7xx_hal_tim_ex.c ****   TIMx->CCER |= (uint32_t)(ChannelNState << (Channel & 0x1FU)); /* 0x1FU = 31 bits max shift */
 7958              		.loc 1 2931 14
 7959 0028 FB68     		ldr	r3, [r7, #12]
 7960 002a 1A6A     		ldr	r2, [r3, #32]
 7961              		.loc 1 2931 54
 7962 002c BB68     		ldr	r3, [r7, #8]
 7963 002e 03F01F03 		and	r3, r3, #31
 7964              		.loc 1 2931 42
ARM GAS  C:\Users\Su\AppData\Local\Temp\ccm0VnUy.s 			page 191


 7965 0032 7968     		ldr	r1, [r7, #4]
 7966 0034 01FA03F3 		lsl	r3, r1, r3
 7967              		.loc 1 2931 14
 7968 0038 1A43     		orrs	r2, r2, r3
 7969 003a FB68     		ldr	r3, [r7, #12]
 7970 003c 1A62     		str	r2, [r3, #32]
2932:Drivers/STM32H7xx_HAL_Driver/Src/stm32h7xx_hal_tim_ex.c **** }
 7971              		.loc 1 2932 1
 7972 003e 00BF     		nop
 7973 0040 1C37     		adds	r7, r7, #28
 7974              	.LCFI256:
 7975              		.cfi_def_cfa_offset 4
 7976 0042 BD46     		mov	sp, r7
 7977              	.LCFI257:
 7978              		.cfi_def_cfa_register 13
 7979              		@ sp needed
 7980 0044 5DF8047B 		ldr	r7, [sp], #4
 7981              	.LCFI258:
 7982              		.cfi_restore 7
 7983              		.cfi_def_cfa_offset 0
 7984 0048 7047     		bx	lr
 7985              		.cfi_endproc
 7986              	.LFE191:
 7988              		.text
 7989              	.Letext0:
 7990              		.file 2 "e:\\user\\bigai\\gcc_arm_none_eabi\\arm-none-eabi\\include\\machine\\_default_types.h"
 7991              		.file 3 "e:\\user\\bigai\\gcc_arm_none_eabi\\arm-none-eabi\\include\\sys\\_stdint.h"
 7992              		.file 4 "Drivers/CMSIS/Device/ST/STM32H7xx/Include/stm32h723xx.h"
 7993              		.file 5 "Drivers/CMSIS/Device/ST/STM32H7xx/Include/stm32h7xx.h"
 7994              		.file 6 "Drivers/STM32H7xx_HAL_Driver/Inc/stm32h7xx_hal_def.h"
 7995              		.file 7 "Drivers/STM32H7xx_HAL_Driver/Inc/stm32h7xx_hal_dma.h"
 7996              		.file 8 "Drivers/STM32H7xx_HAL_Driver/Inc/stm32h7xx_hal_tim.h"
 7997              		.file 9 "Drivers/STM32H7xx_HAL_Driver/Inc/stm32h7xx_hal_tim_ex.h"
ARM GAS  C:\Users\Su\AppData\Local\Temp\ccm0VnUy.s 			page 192


DEFINED SYMBOLS
                            *ABS*:00000000 stm32h7xx_hal_tim_ex.c
C:\Users\Su\AppData\Local\Temp\ccm0VnUy.s:19     .text.HAL_TIMEx_HallSensor_Init:00000000 $t
C:\Users\Su\AppData\Local\Temp\ccm0VnUy.s:25     .text.HAL_TIMEx_HallSensor_Init:00000000 HAL_TIMEx_HallSensor_Init
C:\Users\Su\AppData\Local\Temp\ccm0VnUy.s:375    .text.HAL_TIMEx_HallSensor_MspInit:00000000 HAL_TIMEx_HallSensor_MspInit
C:\Users\Su\AppData\Local\Temp\ccm0VnUy.s:263    .text.HAL_TIMEx_HallSensor_Init:00000154 $d
C:\Users\Su\AppData\Local\Temp\ccm0VnUy.s:269    .text.HAL_TIMEx_HallSensor_DeInit:00000000 $t
C:\Users\Su\AppData\Local\Temp\ccm0VnUy.s:275    .text.HAL_TIMEx_HallSensor_DeInit:00000000 HAL_TIMEx_HallSensor_DeInit
C:\Users\Su\AppData\Local\Temp\ccm0VnUy.s:417    .text.HAL_TIMEx_HallSensor_MspDeInit:00000000 HAL_TIMEx_HallSensor_MspDeInit
C:\Users\Su\AppData\Local\Temp\ccm0VnUy.s:369    .text.HAL_TIMEx_HallSensor_MspInit:00000000 $t
C:\Users\Su\AppData\Local\Temp\ccm0VnUy.s:411    .text.HAL_TIMEx_HallSensor_MspDeInit:00000000 $t
C:\Users\Su\AppData\Local\Temp\ccm0VnUy.s:453    .text.HAL_TIMEx_HallSensor_Start:00000000 $t
C:\Users\Su\AppData\Local\Temp\ccm0VnUy.s:459    .text.HAL_TIMEx_HallSensor_Start:00000000 HAL_TIMEx_HallSensor_Start
C:\Users\Su\AppData\Local\Temp\ccm0VnUy.s:655    .text.HAL_TIMEx_HallSensor_Start:00000120 $d
C:\Users\Su\AppData\Local\Temp\ccm0VnUy.s:669    .text.HAL_TIMEx_HallSensor_Stop:00000000 $t
C:\Users\Su\AppData\Local\Temp\ccm0VnUy.s:675    .text.HAL_TIMEx_HallSensor_Stop:00000000 HAL_TIMEx_HallSensor_Stop
C:\Users\Su\AppData\Local\Temp\ccm0VnUy.s:757    .text.HAL_TIMEx_HallSensor_Start_IT:00000000 $t
C:\Users\Su\AppData\Local\Temp\ccm0VnUy.s:763    .text.HAL_TIMEx_HallSensor_Start_IT:00000000 HAL_TIMEx_HallSensor_Start_IT
C:\Users\Su\AppData\Local\Temp\ccm0VnUy.s:967    .text.HAL_TIMEx_HallSensor_Start_IT:00000130 $d
C:\Users\Su\AppData\Local\Temp\ccm0VnUy.s:981    .text.HAL_TIMEx_HallSensor_Stop_IT:00000000 $t
C:\Users\Su\AppData\Local\Temp\ccm0VnUy.s:987    .text.HAL_TIMEx_HallSensor_Stop_IT:00000000 HAL_TIMEx_HallSensor_Stop_IT
C:\Users\Su\AppData\Local\Temp\ccm0VnUy.s:1077   .text.HAL_TIMEx_HallSensor_Start_DMA:00000000 $t
C:\Users\Su\AppData\Local\Temp\ccm0VnUy.s:1083   .text.HAL_TIMEx_HallSensor_Start_DMA:00000000 HAL_TIMEx_HallSensor_Start_DMA
C:\Users\Su\AppData\Local\Temp\ccm0VnUy.s:1333   .text.HAL_TIMEx_HallSensor_Start_DMA:00000164 $d
C:\Users\Su\AppData\Local\Temp\ccm0VnUy.s:1350   .text.HAL_TIMEx_HallSensor_Stop_DMA:00000000 $t
C:\Users\Su\AppData\Local\Temp\ccm0VnUy.s:1356   .text.HAL_TIMEx_HallSensor_Stop_DMA:00000000 HAL_TIMEx_HallSensor_Stop_DMA
C:\Users\Su\AppData\Local\Temp\ccm0VnUy.s:1443   .text.HAL_TIMEx_OCN_Start:00000000 $t
C:\Users\Su\AppData\Local\Temp\ccm0VnUy.s:1449   .text.HAL_TIMEx_OCN_Start:00000000 HAL_TIMEx_OCN_Start
C:\Users\Su\AppData\Local\Temp\ccm0VnUy.s:7921   .text.TIM_CCxNChannelCmd:00000000 TIM_CCxNChannelCmd
C:\Users\Su\AppData\Local\Temp\ccm0VnUy.s:1702   .text.HAL_TIMEx_OCN_Start:00000178 $d
C:\Users\Su\AppData\Local\Temp\ccm0VnUy.s:1716   .text.HAL_TIMEx_OCN_Stop:00000000 $t
C:\Users\Su\AppData\Local\Temp\ccm0VnUy.s:1722   .text.HAL_TIMEx_OCN_Stop:00000000 HAL_TIMEx_OCN_Stop
C:\Users\Su\AppData\Local\Temp\ccm0VnUy.s:1849   .text.HAL_TIMEx_OCN_Start_IT:00000000 $t
C:\Users\Su\AppData\Local\Temp\ccm0VnUy.s:1855   .text.HAL_TIMEx_OCN_Start_IT:00000000 HAL_TIMEx_OCN_Start_IT
C:\Users\Su\AppData\Local\Temp\ccm0VnUy.s:2177   .text.HAL_TIMEx_OCN_Start_IT:000001e8 $d
C:\Users\Su\AppData\Local\Temp\ccm0VnUy.s:2191   .text.HAL_TIMEx_OCN_Stop_IT:00000000 $t
C:\Users\Su\AppData\Local\Temp\ccm0VnUy.s:2197   .text.HAL_TIMEx_OCN_Stop_IT:00000000 HAL_TIMEx_OCN_Stop_IT
C:\Users\Su\AppData\Local\Temp\ccm0VnUy.s:2407   .text.HAL_TIMEx_OCN_Start_DMA:00000000 $t
C:\Users\Su\AppData\Local\Temp\ccm0VnUy.s:2413   .text.HAL_TIMEx_OCN_Start_DMA:00000000 HAL_TIMEx_OCN_Start_DMA
C:\Users\Su\AppData\Local\Temp\ccm0VnUy.s:2925   .text.HAL_TIMEx_OCN_Start_DMA:000002f8 $d
C:\Users\Su\AppData\Local\Temp\ccm0VnUy.s:7684   .text.TIM_DMADelayPulseNCplt:00000000 TIM_DMADelayPulseNCplt
C:\Users\Su\AppData\Local\Temp\ccm0VnUy.s:7823   .text.TIM_DMAErrorCCxN:00000000 TIM_DMAErrorCCxN
C:\Users\Su\AppData\Local\Temp\ccm0VnUy.s:2942   .text.HAL_TIMEx_OCN_Stop_DMA:00000000 $t
C:\Users\Su\AppData\Local\Temp\ccm0VnUy.s:2948   .text.HAL_TIMEx_OCN_Stop_DMA:00000000 HAL_TIMEx_OCN_Stop_DMA
C:\Users\Su\AppData\Local\Temp\ccm0VnUy.s:3151   .text.HAL_TIMEx_PWMN_Start:00000000 $t
C:\Users\Su\AppData\Local\Temp\ccm0VnUy.s:3157   .text.HAL_TIMEx_PWMN_Start:00000000 HAL_TIMEx_PWMN_Start
C:\Users\Su\AppData\Local\Temp\ccm0VnUy.s:3410   .text.HAL_TIMEx_PWMN_Start:00000178 $d
C:\Users\Su\AppData\Local\Temp\ccm0VnUy.s:3424   .text.HAL_TIMEx_PWMN_Stop:00000000 $t
C:\Users\Su\AppData\Local\Temp\ccm0VnUy.s:3430   .text.HAL_TIMEx_PWMN_Stop:00000000 HAL_TIMEx_PWMN_Stop
C:\Users\Su\AppData\Local\Temp\ccm0VnUy.s:3557   .text.HAL_TIMEx_PWMN_Start_IT:00000000 $t
C:\Users\Su\AppData\Local\Temp\ccm0VnUy.s:3563   .text.HAL_TIMEx_PWMN_Start_IT:00000000 HAL_TIMEx_PWMN_Start_IT
C:\Users\Su\AppData\Local\Temp\ccm0VnUy.s:3885   .text.HAL_TIMEx_PWMN_Start_IT:000001e8 $d
C:\Users\Su\AppData\Local\Temp\ccm0VnUy.s:3899   .text.HAL_TIMEx_PWMN_Stop_IT:00000000 $t
C:\Users\Su\AppData\Local\Temp\ccm0VnUy.s:3905   .text.HAL_TIMEx_PWMN_Stop_IT:00000000 HAL_TIMEx_PWMN_Stop_IT
C:\Users\Su\AppData\Local\Temp\ccm0VnUy.s:4115   .text.HAL_TIMEx_PWMN_Start_DMA:00000000 $t
C:\Users\Su\AppData\Local\Temp\ccm0VnUy.s:4121   .text.HAL_TIMEx_PWMN_Start_DMA:00000000 HAL_TIMEx_PWMN_Start_DMA
C:\Users\Su\AppData\Local\Temp\ccm0VnUy.s:4633   .text.HAL_TIMEx_PWMN_Start_DMA:000002f8 $d
ARM GAS  C:\Users\Su\AppData\Local\Temp\ccm0VnUy.s 			page 193


C:\Users\Su\AppData\Local\Temp\ccm0VnUy.s:4650   .text.HAL_TIMEx_PWMN_Stop_DMA:00000000 $t
C:\Users\Su\AppData\Local\Temp\ccm0VnUy.s:4656   .text.HAL_TIMEx_PWMN_Stop_DMA:00000000 HAL_TIMEx_PWMN_Stop_DMA
C:\Users\Su\AppData\Local\Temp\ccm0VnUy.s:4859   .text.HAL_TIMEx_OnePulseN_Start:00000000 $t
C:\Users\Su\AppData\Local\Temp\ccm0VnUy.s:4865   .text.HAL_TIMEx_OnePulseN_Start:00000000 HAL_TIMEx_OnePulseN_Start
C:\Users\Su\AppData\Local\Temp\ccm0VnUy.s:4989   .text.HAL_TIMEx_OnePulseN_Stop:00000000 $t
C:\Users\Su\AppData\Local\Temp\ccm0VnUy.s:4995   .text.HAL_TIMEx_OnePulseN_Stop:00000000 HAL_TIMEx_OnePulseN_Stop
C:\Users\Su\AppData\Local\Temp\ccm0VnUy.s:5123   .text.HAL_TIMEx_OnePulseN_Start_IT:00000000 $t
C:\Users\Su\AppData\Local\Temp\ccm0VnUy.s:5129   .text.HAL_TIMEx_OnePulseN_Start_IT:00000000 HAL_TIMEx_OnePulseN_Start_IT
C:\Users\Su\AppData\Local\Temp\ccm0VnUy.s:5269   .text.HAL_TIMEx_OnePulseN_Stop_IT:00000000 $t
C:\Users\Su\AppData\Local\Temp\ccm0VnUy.s:5275   .text.HAL_TIMEx_OnePulseN_Stop_IT:00000000 HAL_TIMEx_OnePulseN_Stop_IT
C:\Users\Su\AppData\Local\Temp\ccm0VnUy.s:5419   .text.HAL_TIMEx_ConfigCommutEvent:00000000 $t
C:\Users\Su\AppData\Local\Temp\ccm0VnUy.s:5425   .text.HAL_TIMEx_ConfigCommutEvent:00000000 HAL_TIMEx_ConfigCommutEvent
C:\Users\Su\AppData\Local\Temp\ccm0VnUy.s:5583   .text.HAL_TIMEx_ConfigCommutEvent:000000d0 $d
C:\Users\Su\AppData\Local\Temp\ccm0VnUy.s:5589   .text.HAL_TIMEx_ConfigCommutEvent_IT:00000000 $t
C:\Users\Su\AppData\Local\Temp\ccm0VnUy.s:5595   .text.HAL_TIMEx_ConfigCommutEvent_IT:00000000 HAL_TIMEx_ConfigCommutEvent_IT
C:\Users\Su\AppData\Local\Temp\ccm0VnUy.s:5753   .text.HAL_TIMEx_ConfigCommutEvent_IT:000000d0 $d
C:\Users\Su\AppData\Local\Temp\ccm0VnUy.s:5759   .text.HAL_TIMEx_ConfigCommutEvent_DMA:00000000 $t
C:\Users\Su\AppData\Local\Temp\ccm0VnUy.s:5765   .text.HAL_TIMEx_ConfigCommutEvent_DMA:00000000 HAL_TIMEx_ConfigCommutEvent_DMA
C:\Users\Su\AppData\Local\Temp\ccm0VnUy.s:5941   .text.HAL_TIMEx_ConfigCommutEvent_DMA:000000e8 $d
C:\Users\Su\AppData\Local\Temp\ccm0VnUy.s:7587   .text.TIMEx_DMACommutationCplt:00000000 TIMEx_DMACommutationCplt
C:\Users\Su\AppData\Local\Temp\ccm0VnUy.s:7636   .text.TIMEx_DMACommutationHalfCplt:00000000 TIMEx_DMACommutationHalfCplt
C:\Users\Su\AppData\Local\Temp\ccm0VnUy.s:5950   .text.HAL_TIMEx_MasterConfigSynchronization:00000000 $t
C:\Users\Su\AppData\Local\Temp\ccm0VnUy.s:5956   .text.HAL_TIMEx_MasterConfigSynchronization:00000000 HAL_TIMEx_MasterConfigSynchronization
C:\Users\Su\AppData\Local\Temp\ccm0VnUy.s:6154   .text.HAL_TIMEx_MasterConfigSynchronization:00000114 $d
C:\Users\Su\AppData\Local\Temp\ccm0VnUy.s:6167   .text.HAL_TIMEx_ConfigBreakDeadTime:00000000 $t
C:\Users\Su\AppData\Local\Temp\ccm0VnUy.s:6173   .text.HAL_TIMEx_ConfigBreakDeadTime:00000000 HAL_TIMEx_ConfigBreakDeadTime
C:\Users\Su\AppData\Local\Temp\ccm0VnUy.s:6375   .text.HAL_TIMEx_ConfigBreakDeadTime:00000138 $d
C:\Users\Su\AppData\Local\Temp\ccm0VnUy.s:6381   .text.HAL_TIMEx_ConfigBreakInput:00000000 $t
C:\Users\Su\AppData\Local\Temp\ccm0VnUy.s:6387   .text.HAL_TIMEx_ConfigBreakInput:00000000 HAL_TIMEx_ConfigBreakInput
C:\Users\Su\AppData\Local\Temp\ccm0VnUy.s:6434   .text.HAL_TIMEx_ConfigBreakInput:00000038 $d
C:\Users\Su\AppData\Local\Temp\ccm0VnUy.s:6442   .text.HAL_TIMEx_ConfigBreakInput:00000058 $t
C:\Users\Su\AppData\Local\Temp\ccm0VnUy.s:6683   .text.HAL_TIMEx_RemapConfig:00000000 $t
C:\Users\Su\AppData\Local\Temp\ccm0VnUy.s:6689   .text.HAL_TIMEx_RemapConfig:00000000 HAL_TIMEx_RemapConfig
C:\Users\Su\AppData\Local\Temp\ccm0VnUy.s:6756   .text.HAL_TIMEx_TISelection:00000000 $t
C:\Users\Su\AppData\Local\Temp\ccm0VnUy.s:6762   .text.HAL_TIMEx_TISelection:00000000 HAL_TIMEx_TISelection
C:\Users\Su\AppData\Local\Temp\ccm0VnUy.s:6806   .text.HAL_TIMEx_TISelection:00000034 $d
C:\Users\Su\AppData\Local\Temp\ccm0VnUy.s:6819   .text.HAL_TIMEx_TISelection:00000068 $t
C:\Users\Su\AppData\Local\Temp\ccm0VnUy.s:6904   .text.HAL_TIMEx_GroupChannel5:00000000 $t
C:\Users\Su\AppData\Local\Temp\ccm0VnUy.s:6910   .text.HAL_TIMEx_GroupChannel5:00000000 HAL_TIMEx_GroupChannel5
C:\Users\Su\AppData\Local\Temp\ccm0VnUy.s:6998   .text.HAL_TIMEx_DisarmBreakInput:00000000 $t
C:\Users\Su\AppData\Local\Temp\ccm0VnUy.s:7004   .text.HAL_TIMEx_DisarmBreakInput:00000000 HAL_TIMEx_DisarmBreakInput
C:\Users\Su\AppData\Local\Temp\ccm0VnUy.s:7126   .text.HAL_TIMEx_ReArmBreakInput:00000000 $t
C:\Users\Su\AppData\Local\Temp\ccm0VnUy.s:7132   .text.HAL_TIMEx_ReArmBreakInput:00000000 HAL_TIMEx_ReArmBreakInput
C:\Users\Su\AppData\Local\Temp\ccm0VnUy.s:7285   .text.HAL_TIMEx_CommutCallback:00000000 $t
C:\Users\Su\AppData\Local\Temp\ccm0VnUy.s:7291   .text.HAL_TIMEx_CommutCallback:00000000 HAL_TIMEx_CommutCallback
C:\Users\Su\AppData\Local\Temp\ccm0VnUy.s:7327   .text.HAL_TIMEx_CommutHalfCpltCallback:00000000 $t
C:\Users\Su\AppData\Local\Temp\ccm0VnUy.s:7333   .text.HAL_TIMEx_CommutHalfCpltCallback:00000000 HAL_TIMEx_CommutHalfCpltCallback
C:\Users\Su\AppData\Local\Temp\ccm0VnUy.s:7369   .text.HAL_TIMEx_BreakCallback:00000000 $t
C:\Users\Su\AppData\Local\Temp\ccm0VnUy.s:7375   .text.HAL_TIMEx_BreakCallback:00000000 HAL_TIMEx_BreakCallback
C:\Users\Su\AppData\Local\Temp\ccm0VnUy.s:7411   .text.HAL_TIMEx_Break2Callback:00000000 $t
C:\Users\Su\AppData\Local\Temp\ccm0VnUy.s:7417   .text.HAL_TIMEx_Break2Callback:00000000 HAL_TIMEx_Break2Callback
C:\Users\Su\AppData\Local\Temp\ccm0VnUy.s:7453   .text.HAL_TIMEx_HallSensor_GetState:00000000 $t
C:\Users\Su\AppData\Local\Temp\ccm0VnUy.s:7459   .text.HAL_TIMEx_HallSensor_GetState:00000000 HAL_TIMEx_HallSensor_GetState
C:\Users\Su\AppData\Local\Temp\ccm0VnUy.s:7499   .text.HAL_TIMEx_GetChannelNState:00000000 $t
C:\Users\Su\AppData\Local\Temp\ccm0VnUy.s:7505   .text.HAL_TIMEx_GetChannelNState:00000000 HAL_TIMEx_GetChannelNState
C:\Users\Su\AppData\Local\Temp\ccm0VnUy.s:7581   .text.TIMEx_DMACommutationCplt:00000000 $t
C:\Users\Su\AppData\Local\Temp\ccm0VnUy.s:7630   .text.TIMEx_DMACommutationHalfCplt:00000000 $t
ARM GAS  C:\Users\Su\AppData\Local\Temp\ccm0VnUy.s 			page 194


C:\Users\Su\AppData\Local\Temp\ccm0VnUy.s:7679   .text.TIM_DMADelayPulseNCplt:00000000 $t
C:\Users\Su\AppData\Local\Temp\ccm0VnUy.s:7818   .text.TIM_DMAErrorCCxN:00000000 $t
C:\Users\Su\AppData\Local\Temp\ccm0VnUy.s:7916   .text.TIM_CCxNChannelCmd:00000000 $t

UNDEFINED SYMBOLS
TIM_Base_SetConfig
TIM_TI1_SetConfig
TIM_OC2_SetConfig
TIM_CCxChannelCmd
HAL_DMA_Start_IT
TIM_DMACaptureCplt
TIM_DMACaptureHalfCplt
TIM_DMAError
HAL_DMA_Abort_IT
TIM_DMADelayPulseHalfCplt
HAL_GetTick
HAL_TIM_PWM_PulseFinishedCallback
HAL_TIM_ErrorCallback
