ARM GAS  C:\Users\Su\AppData\Local\Temp\ccm0VnUy.s 			page 1


   1              		.cpu cortex-m7
   2              		.arch armv7e-m
   3              		.fpu fpv5-d16
   4              		.eabi_attribute 28, 1
   5              		.eabi_attribute 20, 1
   6              		.eabi_attribute 21, 1
   7              		.eabi_attribute 23, 3
   8              		.eabi_attribute 24, 1
   9              		.eabi_attribute 25, 1
  10              		.eabi_attribute 26, 1
  11              		.eabi_attribute 30, 6
  12              		.eabi_attribute 34, 1
  13              		.eabi_attribute 18, 4
  14              		.file	"stm32h7xx_hal_tim_ex.c"
  15              		.text
  16              	.Ltext0:
  17              		.cfi_sections	.debug_frame
  18              		.section	.text.HAL_TIMEx_HallSensor_Init,"ax",%progbits
  19              		.align	1
  20              		.global	HAL_TIMEx_HallSensor_Init
  21              		.syntax unified
  22              		.thumb
  23              		.thumb_func
  25              	HAL_TIMEx_HallSensor_Init:
  26              	.LFB144:
  27              		.file 1 "Drivers/STM32H7xx_HAL_Driver/Src/stm32h7xx_hal_tim_ex.c"
   1:Drivers/STM32H7xx_HAL_Driver/Src/stm32h7xx_hal_tim_ex.c **** /**
   2:Drivers/STM32H7xx_HAL_Driver/Src/stm32h7xx_hal_tim_ex.c ****   ******************************************************************************
   3:Drivers/STM32H7xx_HAL_Driver/Src/stm32h7xx_hal_tim_ex.c ****   * @file    stm32h7xx_hal_tim_ex.c
   4:Drivers/STM32H7xx_HAL_Driver/Src/stm32h7xx_hal_tim_ex.c ****   * @author  MCD Application Team
   5:Drivers/STM32H7xx_HAL_Driver/Src/stm32h7xx_hal_tim_ex.c ****   * @brief   TIM HAL module driver.
   6:Drivers/STM32H7xx_HAL_Driver/Src/stm32h7xx_hal_tim_ex.c ****   *          This file provides firmware functions to manage the following
   7:Drivers/STM32H7xx_HAL_Driver/Src/stm32h7xx_hal_tim_ex.c ****   *          functionalities of the Timer Extended peripheral:
   8:Drivers/STM32H7xx_HAL_Driver/Src/stm32h7xx_hal_tim_ex.c ****   *           + Time Hall Sensor Interface Initialization
   9:Drivers/STM32H7xx_HAL_Driver/Src/stm32h7xx_hal_tim_ex.c ****   *           + Time Hall Sensor Interface Start
  10:Drivers/STM32H7xx_HAL_Driver/Src/stm32h7xx_hal_tim_ex.c ****   *           + Time Complementary signal break and dead time configuration
  11:Drivers/STM32H7xx_HAL_Driver/Src/stm32h7xx_hal_tim_ex.c ****   *           + Time Master and Slave synchronization configuration
  12:Drivers/STM32H7xx_HAL_Driver/Src/stm32h7xx_hal_tim_ex.c ****   *           + Time Output Compare/PWM Channel Configuration (for channels 5 and 6)
  13:Drivers/STM32H7xx_HAL_Driver/Src/stm32h7xx_hal_tim_ex.c ****   *           + Timer remapping capabilities configuration
  14:Drivers/STM32H7xx_HAL_Driver/Src/stm32h7xx_hal_tim_ex.c ****   ******************************************************************************
  15:Drivers/STM32H7xx_HAL_Driver/Src/stm32h7xx_hal_tim_ex.c ****   * @attention
  16:Drivers/STM32H7xx_HAL_Driver/Src/stm32h7xx_hal_tim_ex.c ****   *
  17:Drivers/STM32H7xx_HAL_Driver/Src/stm32h7xx_hal_tim_ex.c ****   * Copyright (c) 2017 STMicroelectronics.
  18:Drivers/STM32H7xx_HAL_Driver/Src/stm32h7xx_hal_tim_ex.c ****   * All rights reserved.
  19:Drivers/STM32H7xx_HAL_Driver/Src/stm32h7xx_hal_tim_ex.c ****   *
  20:Drivers/STM32H7xx_HAL_Driver/Src/stm32h7xx_hal_tim_ex.c ****   * This software is licensed under terms that can be found in the LICENSE file
  21:Drivers/STM32H7xx_HAL_Driver/Src/stm32h7xx_hal_tim_ex.c ****   * in the root directory of this software component.
  22:Drivers/STM32H7xx_HAL_Driver/Src/stm32h7xx_hal_tim_ex.c ****   * If no LICENSE file comes with this software, it is provided AS-IS.
  23:Drivers/STM32H7xx_HAL_Driver/Src/stm32h7xx_hal_tim_ex.c ****   *
  24:Drivers/STM32H7xx_HAL_Driver/Src/stm32h7xx_hal_tim_ex.c ****   ******************************************************************************
  25:Drivers/STM32H7xx_HAL_Driver/Src/stm32h7xx_hal_tim_ex.c ****   @verbatim
  26:Drivers/STM32H7xx_HAL_Driver/Src/stm32h7xx_hal_tim_ex.c ****   ==============================================================================
  27:Drivers/STM32H7xx_HAL_Driver/Src/stm32h7xx_hal_tim_ex.c ****                       ##### TIMER Extended features #####
  28:Drivers/STM32H7xx_HAL_Driver/Src/stm32h7xx_hal_tim_ex.c ****   ==============================================================================
  29:Drivers/STM32H7xx_HAL_Driver/Src/stm32h7xx_hal_tim_ex.c ****   [..]
  30:Drivers/STM32H7xx_HAL_Driver/Src/stm32h7xx_hal_tim_ex.c ****     The Timer Extended features include:
  31:Drivers/STM32H7xx_HAL_Driver/Src/stm32h7xx_hal_tim_ex.c ****     (#) Complementary outputs with programmable dead-time for :
ARM GAS  C:\Users\Su\AppData\Local\Temp\ccm0VnUy.s 			page 2


  32:Drivers/STM32H7xx_HAL_Driver/Src/stm32h7xx_hal_tim_ex.c ****         (++) Output Compare
  33:Drivers/STM32H7xx_HAL_Driver/Src/stm32h7xx_hal_tim_ex.c ****         (++) PWM generation (Edge and Center-aligned Mode)
  34:Drivers/STM32H7xx_HAL_Driver/Src/stm32h7xx_hal_tim_ex.c ****         (++) One-pulse mode output
  35:Drivers/STM32H7xx_HAL_Driver/Src/stm32h7xx_hal_tim_ex.c ****     (#) Synchronization circuit to control the timer with external signals and to
  36:Drivers/STM32H7xx_HAL_Driver/Src/stm32h7xx_hal_tim_ex.c ****         interconnect several timers together.
  37:Drivers/STM32H7xx_HAL_Driver/Src/stm32h7xx_hal_tim_ex.c ****     (#) Break input to put the timer output signals in reset state or in a known state.
  38:Drivers/STM32H7xx_HAL_Driver/Src/stm32h7xx_hal_tim_ex.c ****     (#) Supports incremental (quadrature) encoder and hall-sensor circuitry for
  39:Drivers/STM32H7xx_HAL_Driver/Src/stm32h7xx_hal_tim_ex.c ****         positioning purposes
  40:Drivers/STM32H7xx_HAL_Driver/Src/stm32h7xx_hal_tim_ex.c **** 
  41:Drivers/STM32H7xx_HAL_Driver/Src/stm32h7xx_hal_tim_ex.c ****             ##### How to use this driver #####
  42:Drivers/STM32H7xx_HAL_Driver/Src/stm32h7xx_hal_tim_ex.c ****   ==============================================================================
  43:Drivers/STM32H7xx_HAL_Driver/Src/stm32h7xx_hal_tim_ex.c ****     [..]
  44:Drivers/STM32H7xx_HAL_Driver/Src/stm32h7xx_hal_tim_ex.c ****      (#) Initialize the TIM low level resources by implementing the following functions
  45:Drivers/STM32H7xx_HAL_Driver/Src/stm32h7xx_hal_tim_ex.c ****          depending on the selected feature:
  46:Drivers/STM32H7xx_HAL_Driver/Src/stm32h7xx_hal_tim_ex.c ****            (++) Hall Sensor output : HAL_TIMEx_HallSensor_MspInit()
  47:Drivers/STM32H7xx_HAL_Driver/Src/stm32h7xx_hal_tim_ex.c **** 
  48:Drivers/STM32H7xx_HAL_Driver/Src/stm32h7xx_hal_tim_ex.c ****      (#) Initialize the TIM low level resources :
  49:Drivers/STM32H7xx_HAL_Driver/Src/stm32h7xx_hal_tim_ex.c ****         (##) Enable the TIM interface clock using __HAL_RCC_TIMx_CLK_ENABLE();
  50:Drivers/STM32H7xx_HAL_Driver/Src/stm32h7xx_hal_tim_ex.c ****         (##) TIM pins configuration
  51:Drivers/STM32H7xx_HAL_Driver/Src/stm32h7xx_hal_tim_ex.c ****             (+++) Enable the clock for the TIM GPIOs using the following function:
  52:Drivers/STM32H7xx_HAL_Driver/Src/stm32h7xx_hal_tim_ex.c ****               __HAL_RCC_GPIOx_CLK_ENABLE();
  53:Drivers/STM32H7xx_HAL_Driver/Src/stm32h7xx_hal_tim_ex.c ****             (+++) Configure these TIM pins in Alternate function mode using HAL_GPIO_Init();
  54:Drivers/STM32H7xx_HAL_Driver/Src/stm32h7xx_hal_tim_ex.c **** 
  55:Drivers/STM32H7xx_HAL_Driver/Src/stm32h7xx_hal_tim_ex.c ****      (#) The external Clock can be configured, if needed (the default clock is the
  56:Drivers/STM32H7xx_HAL_Driver/Src/stm32h7xx_hal_tim_ex.c ****          internal clock from the APBx), using the following function:
  57:Drivers/STM32H7xx_HAL_Driver/Src/stm32h7xx_hal_tim_ex.c ****          HAL_TIM_ConfigClockSource, the clock configuration should be done before
  58:Drivers/STM32H7xx_HAL_Driver/Src/stm32h7xx_hal_tim_ex.c ****          any start function.
  59:Drivers/STM32H7xx_HAL_Driver/Src/stm32h7xx_hal_tim_ex.c **** 
  60:Drivers/STM32H7xx_HAL_Driver/Src/stm32h7xx_hal_tim_ex.c ****      (#) Configure the TIM in the desired functioning mode using one of the
  61:Drivers/STM32H7xx_HAL_Driver/Src/stm32h7xx_hal_tim_ex.c ****          initialization function of this driver:
  62:Drivers/STM32H7xx_HAL_Driver/Src/stm32h7xx_hal_tim_ex.c ****           (++) HAL_TIMEx_HallSensor_Init() and HAL_TIMEx_ConfigCommutEvent(): to use the
  63:Drivers/STM32H7xx_HAL_Driver/Src/stm32h7xx_hal_tim_ex.c ****                Timer Hall Sensor Interface and the commutation event with the corresponding
  64:Drivers/STM32H7xx_HAL_Driver/Src/stm32h7xx_hal_tim_ex.c ****                Interrupt and DMA request if needed (Note that One Timer is used to interface
  65:Drivers/STM32H7xx_HAL_Driver/Src/stm32h7xx_hal_tim_ex.c ****                with the Hall sensor Interface and another Timer should be used to use
  66:Drivers/STM32H7xx_HAL_Driver/Src/stm32h7xx_hal_tim_ex.c ****                the commutation event).
  67:Drivers/STM32H7xx_HAL_Driver/Src/stm32h7xx_hal_tim_ex.c **** 
  68:Drivers/STM32H7xx_HAL_Driver/Src/stm32h7xx_hal_tim_ex.c ****      (#) Activate the TIM peripheral using one of the start functions:
  69:Drivers/STM32H7xx_HAL_Driver/Src/stm32h7xx_hal_tim_ex.c ****            (++) Complementary Output Compare : HAL_TIMEx_OCN_Start(), HAL_TIMEx_OCN_Start_DMA(),
  70:Drivers/STM32H7xx_HAL_Driver/Src/stm32h7xx_hal_tim_ex.c ****                 HAL_TIMEx_OCN_Start_IT()
  71:Drivers/STM32H7xx_HAL_Driver/Src/stm32h7xx_hal_tim_ex.c ****            (++) Complementary PWM generation : HAL_TIMEx_PWMN_Start(), HAL_TIMEx_PWMN_Start_DMA(),
  72:Drivers/STM32H7xx_HAL_Driver/Src/stm32h7xx_hal_tim_ex.c ****                 HAL_TIMEx_PWMN_Start_IT()
  73:Drivers/STM32H7xx_HAL_Driver/Src/stm32h7xx_hal_tim_ex.c ****            (++) Complementary One-pulse mode output : HAL_TIMEx_OnePulseN_Start(), HAL_TIMEx_OnePul
  74:Drivers/STM32H7xx_HAL_Driver/Src/stm32h7xx_hal_tim_ex.c ****            (++) Hall Sensor output : HAL_TIMEx_HallSensor_Start(), HAL_TIMEx_HallSensor_Start_DMA()
  75:Drivers/STM32H7xx_HAL_Driver/Src/stm32h7xx_hal_tim_ex.c ****                 HAL_TIMEx_HallSensor_Start_IT().
  76:Drivers/STM32H7xx_HAL_Driver/Src/stm32h7xx_hal_tim_ex.c **** 
  77:Drivers/STM32H7xx_HAL_Driver/Src/stm32h7xx_hal_tim_ex.c ****   @endverbatim
  78:Drivers/STM32H7xx_HAL_Driver/Src/stm32h7xx_hal_tim_ex.c ****   ******************************************************************************
  79:Drivers/STM32H7xx_HAL_Driver/Src/stm32h7xx_hal_tim_ex.c ****   */
  80:Drivers/STM32H7xx_HAL_Driver/Src/stm32h7xx_hal_tim_ex.c **** 
  81:Drivers/STM32H7xx_HAL_Driver/Src/stm32h7xx_hal_tim_ex.c **** /* Includes ------------------------------------------------------------------*/
  82:Drivers/STM32H7xx_HAL_Driver/Src/stm32h7xx_hal_tim_ex.c **** #include "stm32h7xx_hal.h"
  83:Drivers/STM32H7xx_HAL_Driver/Src/stm32h7xx_hal_tim_ex.c **** 
  84:Drivers/STM32H7xx_HAL_Driver/Src/stm32h7xx_hal_tim_ex.c **** /** @addtogroup STM32H7xx_HAL_Driver
  85:Drivers/STM32H7xx_HAL_Driver/Src/stm32h7xx_hal_tim_ex.c ****   * @{
  86:Drivers/STM32H7xx_HAL_Driver/Src/stm32h7xx_hal_tim_ex.c ****   */
  87:Drivers/STM32H7xx_HAL_Driver/Src/stm32h7xx_hal_tim_ex.c **** 
  88:Drivers/STM32H7xx_HAL_Driver/Src/stm32h7xx_hal_tim_ex.c **** /** @defgroup TIMEx TIMEx
ARM GAS  C:\Users\Su\AppData\Local\Temp\ccm0VnUy.s 			page 3


  89:Drivers/STM32H7xx_HAL_Driver/Src/stm32h7xx_hal_tim_ex.c ****   * @brief TIM Extended HAL module driver
  90:Drivers/STM32H7xx_HAL_Driver/Src/stm32h7xx_hal_tim_ex.c ****   * @{
  91:Drivers/STM32H7xx_HAL_Driver/Src/stm32h7xx_hal_tim_ex.c ****   */
  92:Drivers/STM32H7xx_HAL_Driver/Src/stm32h7xx_hal_tim_ex.c **** 
  93:Drivers/STM32H7xx_HAL_Driver/Src/stm32h7xx_hal_tim_ex.c **** #ifdef HAL_TIM_MODULE_ENABLED
  94:Drivers/STM32H7xx_HAL_Driver/Src/stm32h7xx_hal_tim_ex.c **** 
  95:Drivers/STM32H7xx_HAL_Driver/Src/stm32h7xx_hal_tim_ex.c **** /* Private typedef -----------------------------------------------------------*/
  96:Drivers/STM32H7xx_HAL_Driver/Src/stm32h7xx_hal_tim_ex.c **** /* Private define ------------------------------------------------------------*/
  97:Drivers/STM32H7xx_HAL_Driver/Src/stm32h7xx_hal_tim_ex.c **** #if defined(TIM_BDTR_BKBID)
  98:Drivers/STM32H7xx_HAL_Driver/Src/stm32h7xx_hal_tim_ex.c **** /* Private constants ---------------------------------------------------------*/
  99:Drivers/STM32H7xx_HAL_Driver/Src/stm32h7xx_hal_tim_ex.c **** /** @defgroup TIMEx_Private_Constants TIM Extended Private Constants
 100:Drivers/STM32H7xx_HAL_Driver/Src/stm32h7xx_hal_tim_ex.c ****   * @{
 101:Drivers/STM32H7xx_HAL_Driver/Src/stm32h7xx_hal_tim_ex.c ****   */
 102:Drivers/STM32H7xx_HAL_Driver/Src/stm32h7xx_hal_tim_ex.c **** /* Timeout for break input rearm */
 103:Drivers/STM32H7xx_HAL_Driver/Src/stm32h7xx_hal_tim_ex.c **** #define TIM_BREAKINPUT_REARM_TIMEOUT    5UL /* 5 milliseconds */
 104:Drivers/STM32H7xx_HAL_Driver/Src/stm32h7xx_hal_tim_ex.c **** /**
 105:Drivers/STM32H7xx_HAL_Driver/Src/stm32h7xx_hal_tim_ex.c ****   * @}
 106:Drivers/STM32H7xx_HAL_Driver/Src/stm32h7xx_hal_tim_ex.c ****   */
 107:Drivers/STM32H7xx_HAL_Driver/Src/stm32h7xx_hal_tim_ex.c **** /* End of private constants --------------------------------------------------*/
 108:Drivers/STM32H7xx_HAL_Driver/Src/stm32h7xx_hal_tim_ex.c **** 
 109:Drivers/STM32H7xx_HAL_Driver/Src/stm32h7xx_hal_tim_ex.c **** #endif /* TIM_BDTR_BKBID */
 110:Drivers/STM32H7xx_HAL_Driver/Src/stm32h7xx_hal_tim_ex.c **** /* Private macros ------------------------------------------------------------*/
 111:Drivers/STM32H7xx_HAL_Driver/Src/stm32h7xx_hal_tim_ex.c **** /* Private variables ---------------------------------------------------------*/
 112:Drivers/STM32H7xx_HAL_Driver/Src/stm32h7xx_hal_tim_ex.c **** /* Private function prototypes -----------------------------------------------*/
 113:Drivers/STM32H7xx_HAL_Driver/Src/stm32h7xx_hal_tim_ex.c **** static void TIM_DMADelayPulseNCplt(DMA_HandleTypeDef *hdma);
 114:Drivers/STM32H7xx_HAL_Driver/Src/stm32h7xx_hal_tim_ex.c **** static void TIM_DMAErrorCCxN(DMA_HandleTypeDef *hdma);
 115:Drivers/STM32H7xx_HAL_Driver/Src/stm32h7xx_hal_tim_ex.c **** static void TIM_CCxNChannelCmd(TIM_TypeDef *TIMx, uint32_t Channel, uint32_t ChannelNState);
 116:Drivers/STM32H7xx_HAL_Driver/Src/stm32h7xx_hal_tim_ex.c **** 
 117:Drivers/STM32H7xx_HAL_Driver/Src/stm32h7xx_hal_tim_ex.c **** /* Exported functions --------------------------------------------------------*/
 118:Drivers/STM32H7xx_HAL_Driver/Src/stm32h7xx_hal_tim_ex.c **** /** @defgroup TIMEx_Exported_Functions TIM Extended Exported Functions
 119:Drivers/STM32H7xx_HAL_Driver/Src/stm32h7xx_hal_tim_ex.c ****   * @{
 120:Drivers/STM32H7xx_HAL_Driver/Src/stm32h7xx_hal_tim_ex.c ****   */
 121:Drivers/STM32H7xx_HAL_Driver/Src/stm32h7xx_hal_tim_ex.c **** 
 122:Drivers/STM32H7xx_HAL_Driver/Src/stm32h7xx_hal_tim_ex.c **** /** @defgroup TIMEx_Exported_Functions_Group1 Extended Timer Hall Sensor functions
 123:Drivers/STM32H7xx_HAL_Driver/Src/stm32h7xx_hal_tim_ex.c ****   * @brief    Timer Hall Sensor functions
 124:Drivers/STM32H7xx_HAL_Driver/Src/stm32h7xx_hal_tim_ex.c ****   *
 125:Drivers/STM32H7xx_HAL_Driver/Src/stm32h7xx_hal_tim_ex.c **** @verbatim
 126:Drivers/STM32H7xx_HAL_Driver/Src/stm32h7xx_hal_tim_ex.c ****   ==============================================================================
 127:Drivers/STM32H7xx_HAL_Driver/Src/stm32h7xx_hal_tim_ex.c ****                       ##### Timer Hall Sensor functions #####
 128:Drivers/STM32H7xx_HAL_Driver/Src/stm32h7xx_hal_tim_ex.c ****   ==============================================================================
 129:Drivers/STM32H7xx_HAL_Driver/Src/stm32h7xx_hal_tim_ex.c ****   [..]
 130:Drivers/STM32H7xx_HAL_Driver/Src/stm32h7xx_hal_tim_ex.c ****     This section provides functions allowing to:
 131:Drivers/STM32H7xx_HAL_Driver/Src/stm32h7xx_hal_tim_ex.c ****     (+) Initialize and configure TIM HAL Sensor.
 132:Drivers/STM32H7xx_HAL_Driver/Src/stm32h7xx_hal_tim_ex.c ****     (+) De-initialize TIM HAL Sensor.
 133:Drivers/STM32H7xx_HAL_Driver/Src/stm32h7xx_hal_tim_ex.c ****     (+) Start the Hall Sensor Interface.
 134:Drivers/STM32H7xx_HAL_Driver/Src/stm32h7xx_hal_tim_ex.c ****     (+) Stop the Hall Sensor Interface.
 135:Drivers/STM32H7xx_HAL_Driver/Src/stm32h7xx_hal_tim_ex.c ****     (+) Start the Hall Sensor Interface and enable interrupts.
 136:Drivers/STM32H7xx_HAL_Driver/Src/stm32h7xx_hal_tim_ex.c ****     (+) Stop the Hall Sensor Interface and disable interrupts.
 137:Drivers/STM32H7xx_HAL_Driver/Src/stm32h7xx_hal_tim_ex.c ****     (+) Start the Hall Sensor Interface and enable DMA transfers.
 138:Drivers/STM32H7xx_HAL_Driver/Src/stm32h7xx_hal_tim_ex.c ****     (+) Stop the Hall Sensor Interface and disable DMA transfers.
 139:Drivers/STM32H7xx_HAL_Driver/Src/stm32h7xx_hal_tim_ex.c **** 
 140:Drivers/STM32H7xx_HAL_Driver/Src/stm32h7xx_hal_tim_ex.c **** @endverbatim
 141:Drivers/STM32H7xx_HAL_Driver/Src/stm32h7xx_hal_tim_ex.c ****   * @{
 142:Drivers/STM32H7xx_HAL_Driver/Src/stm32h7xx_hal_tim_ex.c ****   */
 143:Drivers/STM32H7xx_HAL_Driver/Src/stm32h7xx_hal_tim_ex.c **** /**
 144:Drivers/STM32H7xx_HAL_Driver/Src/stm32h7xx_hal_tim_ex.c ****   * @brief  Initializes the TIM Hall Sensor Interface and initialize the associated handle.
 145:Drivers/STM32H7xx_HAL_Driver/Src/stm32h7xx_hal_tim_ex.c ****   * @note   When the timer instance is initialized in Hall Sensor Interface mode,
ARM GAS  C:\Users\Su\AppData\Local\Temp\ccm0VnUy.s 			page 4


 146:Drivers/STM32H7xx_HAL_Driver/Src/stm32h7xx_hal_tim_ex.c ****   *         timer channels 1 and channel 2 are reserved and cannot be used for
 147:Drivers/STM32H7xx_HAL_Driver/Src/stm32h7xx_hal_tim_ex.c ****   *         other purpose.
 148:Drivers/STM32H7xx_HAL_Driver/Src/stm32h7xx_hal_tim_ex.c ****   * @param  htim TIM Hall Sensor Interface handle
 149:Drivers/STM32H7xx_HAL_Driver/Src/stm32h7xx_hal_tim_ex.c ****   * @param  sConfig TIM Hall Sensor configuration structure
 150:Drivers/STM32H7xx_HAL_Driver/Src/stm32h7xx_hal_tim_ex.c ****   * @retval HAL status
 151:Drivers/STM32H7xx_HAL_Driver/Src/stm32h7xx_hal_tim_ex.c ****   */
 152:Drivers/STM32H7xx_HAL_Driver/Src/stm32h7xx_hal_tim_ex.c **** HAL_StatusTypeDef HAL_TIMEx_HallSensor_Init(TIM_HandleTypeDef *htim, TIM_HallSensor_InitTypeDef *sC
 153:Drivers/STM32H7xx_HAL_Driver/Src/stm32h7xx_hal_tim_ex.c **** {
  28              		.loc 1 153 1
  29              		.cfi_startproc
  30              		@ args = 0, pretend = 0, frame = 40
  31              		@ frame_needed = 1, uses_anonymous_args = 0
  32 0000 80B5     		push	{r7, lr}
  33              	.LCFI0:
  34              		.cfi_def_cfa_offset 8
  35              		.cfi_offset 7, -8
  36              		.cfi_offset 14, -4
  37 0002 8AB0     		sub	sp, sp, #40
  38              	.LCFI1:
  39              		.cfi_def_cfa_offset 48
  40 0004 00AF     		add	r7, sp, #0
  41              	.LCFI2:
  42              		.cfi_def_cfa_register 7
  43 0006 7860     		str	r0, [r7, #4]
  44 0008 3960     		str	r1, [r7]
 154:Drivers/STM32H7xx_HAL_Driver/Src/stm32h7xx_hal_tim_ex.c ****   TIM_OC_InitTypeDef OC_Config;
 155:Drivers/STM32H7xx_HAL_Driver/Src/stm32h7xx_hal_tim_ex.c **** 
 156:Drivers/STM32H7xx_HAL_Driver/Src/stm32h7xx_hal_tim_ex.c ****   /* Check the TIM handle allocation */
 157:Drivers/STM32H7xx_HAL_Driver/Src/stm32h7xx_hal_tim_ex.c ****   if (htim == NULL)
  45              		.loc 1 157 6
  46 000a 7B68     		ldr	r3, [r7, #4]
  47 000c 002B     		cmp	r3, #0
  48 000e 01D1     		bne	.L2
 158:Drivers/STM32H7xx_HAL_Driver/Src/stm32h7xx_hal_tim_ex.c ****   {
 159:Drivers/STM32H7xx_HAL_Driver/Src/stm32h7xx_hal_tim_ex.c ****     return HAL_ERROR;
  49              		.loc 1 159 12
  50 0010 0123     		movs	r3, #1
  51 0012 9AE0     		b	.L5
  52              	.L2:
 160:Drivers/STM32H7xx_HAL_Driver/Src/stm32h7xx_hal_tim_ex.c ****   }
 161:Drivers/STM32H7xx_HAL_Driver/Src/stm32h7xx_hal_tim_ex.c **** 
 162:Drivers/STM32H7xx_HAL_Driver/Src/stm32h7xx_hal_tim_ex.c ****   /* Check the parameters */
 163:Drivers/STM32H7xx_HAL_Driver/Src/stm32h7xx_hal_tim_ex.c ****   assert_param(IS_TIM_HALL_SENSOR_INTERFACE_INSTANCE(htim->Instance));
 164:Drivers/STM32H7xx_HAL_Driver/Src/stm32h7xx_hal_tim_ex.c ****   assert_param(IS_TIM_COUNTER_MODE(htim->Init.CounterMode));
 165:Drivers/STM32H7xx_HAL_Driver/Src/stm32h7xx_hal_tim_ex.c ****   assert_param(IS_TIM_CLOCKDIVISION_DIV(htim->Init.ClockDivision));
 166:Drivers/STM32H7xx_HAL_Driver/Src/stm32h7xx_hal_tim_ex.c ****   assert_param(IS_TIM_AUTORELOAD_PRELOAD(htim->Init.AutoReloadPreload));
 167:Drivers/STM32H7xx_HAL_Driver/Src/stm32h7xx_hal_tim_ex.c ****   assert_param(IS_TIM_IC_POLARITY(sConfig->IC1Polarity));
 168:Drivers/STM32H7xx_HAL_Driver/Src/stm32h7xx_hal_tim_ex.c ****   assert_param(IS_TIM_IC_PRESCALER(sConfig->IC1Prescaler));
 169:Drivers/STM32H7xx_HAL_Driver/Src/stm32h7xx_hal_tim_ex.c ****   assert_param(IS_TIM_IC_FILTER(sConfig->IC1Filter));
 170:Drivers/STM32H7xx_HAL_Driver/Src/stm32h7xx_hal_tim_ex.c **** 
 171:Drivers/STM32H7xx_HAL_Driver/Src/stm32h7xx_hal_tim_ex.c ****   if (htim->State == HAL_TIM_STATE_RESET)
  53              		.loc 1 171 11
  54 0014 7B68     		ldr	r3, [r7, #4]
  55 0016 93F83D30 		ldrb	r3, [r3, #61]
  56 001a DBB2     		uxtb	r3, r3
  57              		.loc 1 171 6
  58 001c 002B     		cmp	r3, #0
ARM GAS  C:\Users\Su\AppData\Local\Temp\ccm0VnUy.s 			page 5


  59 001e 06D1     		bne	.L4
 172:Drivers/STM32H7xx_HAL_Driver/Src/stm32h7xx_hal_tim_ex.c ****   {
 173:Drivers/STM32H7xx_HAL_Driver/Src/stm32h7xx_hal_tim_ex.c ****     /* Allocate lock resource and initialize it */
 174:Drivers/STM32H7xx_HAL_Driver/Src/stm32h7xx_hal_tim_ex.c ****     htim->Lock = HAL_UNLOCKED;
  60              		.loc 1 174 16
  61 0020 7B68     		ldr	r3, [r7, #4]
  62 0022 0022     		movs	r2, #0
  63 0024 83F83C20 		strb	r2, [r3, #60]
 175:Drivers/STM32H7xx_HAL_Driver/Src/stm32h7xx_hal_tim_ex.c **** 
 176:Drivers/STM32H7xx_HAL_Driver/Src/stm32h7xx_hal_tim_ex.c **** #if (USE_HAL_TIM_REGISTER_CALLBACKS == 1)
 177:Drivers/STM32H7xx_HAL_Driver/Src/stm32h7xx_hal_tim_ex.c ****     /* Reset interrupt callbacks to legacy week callbacks */
 178:Drivers/STM32H7xx_HAL_Driver/Src/stm32h7xx_hal_tim_ex.c ****     TIM_ResetCallback(htim);
 179:Drivers/STM32H7xx_HAL_Driver/Src/stm32h7xx_hal_tim_ex.c **** 
 180:Drivers/STM32H7xx_HAL_Driver/Src/stm32h7xx_hal_tim_ex.c ****     if (htim->HallSensor_MspInitCallback == NULL)
 181:Drivers/STM32H7xx_HAL_Driver/Src/stm32h7xx_hal_tim_ex.c ****     {
 182:Drivers/STM32H7xx_HAL_Driver/Src/stm32h7xx_hal_tim_ex.c ****       htim->HallSensor_MspInitCallback = HAL_TIMEx_HallSensor_MspInit;
 183:Drivers/STM32H7xx_HAL_Driver/Src/stm32h7xx_hal_tim_ex.c ****     }
 184:Drivers/STM32H7xx_HAL_Driver/Src/stm32h7xx_hal_tim_ex.c ****     /* Init the low level hardware : GPIO, CLOCK, NVIC */
 185:Drivers/STM32H7xx_HAL_Driver/Src/stm32h7xx_hal_tim_ex.c ****     htim->HallSensor_MspInitCallback(htim);
 186:Drivers/STM32H7xx_HAL_Driver/Src/stm32h7xx_hal_tim_ex.c **** #else
 187:Drivers/STM32H7xx_HAL_Driver/Src/stm32h7xx_hal_tim_ex.c ****     /* Init the low level hardware : GPIO, CLOCK, NVIC and DMA */
 188:Drivers/STM32H7xx_HAL_Driver/Src/stm32h7xx_hal_tim_ex.c ****     HAL_TIMEx_HallSensor_MspInit(htim);
  64              		.loc 1 188 5
  65 0028 7868     		ldr	r0, [r7, #4]
  66 002a FFF7FEFF 		bl	HAL_TIMEx_HallSensor_MspInit
  67              	.L4:
 189:Drivers/STM32H7xx_HAL_Driver/Src/stm32h7xx_hal_tim_ex.c **** #endif /* USE_HAL_TIM_REGISTER_CALLBACKS */
 190:Drivers/STM32H7xx_HAL_Driver/Src/stm32h7xx_hal_tim_ex.c ****   }
 191:Drivers/STM32H7xx_HAL_Driver/Src/stm32h7xx_hal_tim_ex.c **** 
 192:Drivers/STM32H7xx_HAL_Driver/Src/stm32h7xx_hal_tim_ex.c ****   /* Set the TIM state */
 193:Drivers/STM32H7xx_HAL_Driver/Src/stm32h7xx_hal_tim_ex.c ****   htim->State = HAL_TIM_STATE_BUSY;
  68              		.loc 1 193 15
  69 002e 7B68     		ldr	r3, [r7, #4]
  70 0030 0222     		movs	r2, #2
  71 0032 83F83D20 		strb	r2, [r3, #61]
 194:Drivers/STM32H7xx_HAL_Driver/Src/stm32h7xx_hal_tim_ex.c **** 
 195:Drivers/STM32H7xx_HAL_Driver/Src/stm32h7xx_hal_tim_ex.c ****   /* Configure the Time base in the Encoder Mode */
 196:Drivers/STM32H7xx_HAL_Driver/Src/stm32h7xx_hal_tim_ex.c ****   TIM_Base_SetConfig(htim->Instance, &htim->Init);
  72              		.loc 1 196 3
  73 0036 7B68     		ldr	r3, [r7, #4]
  74 0038 1A68     		ldr	r2, [r3]
  75 003a 7B68     		ldr	r3, [r7, #4]
  76 003c 0433     		adds	r3, r3, #4
  77 003e 1946     		mov	r1, r3
  78 0040 1046     		mov	r0, r2
  79 0042 FFF7FEFF 		bl	TIM_Base_SetConfig
 197:Drivers/STM32H7xx_HAL_Driver/Src/stm32h7xx_hal_tim_ex.c **** 
 198:Drivers/STM32H7xx_HAL_Driver/Src/stm32h7xx_hal_tim_ex.c ****   /* Configure the Channel 1 as Input Channel to interface with the three Outputs of the  Hall sens
 199:Drivers/STM32H7xx_HAL_Driver/Src/stm32h7xx_hal_tim_ex.c ****   TIM_TI1_SetConfig(htim->Instance, sConfig->IC1Polarity, TIM_ICSELECTION_TRC, sConfig->IC1Filter);
  80              		.loc 1 199 3
  81 0046 7B68     		ldr	r3, [r7, #4]
  82 0048 1868     		ldr	r0, [r3]
  83 004a 3B68     		ldr	r3, [r7]
  84 004c 1968     		ldr	r1, [r3]
  85 004e 3B68     		ldr	r3, [r7]
  86 0050 9B68     		ldr	r3, [r3, #8]
  87 0052 0322     		movs	r2, #3
ARM GAS  C:\Users\Su\AppData\Local\Temp\ccm0VnUy.s 			page 6


  88 0054 FFF7FEFF 		bl	TIM_TI1_SetConfig
 200:Drivers/STM32H7xx_HAL_Driver/Src/stm32h7xx_hal_tim_ex.c **** 
 201:Drivers/STM32H7xx_HAL_Driver/Src/stm32h7xx_hal_tim_ex.c ****   /* Reset the IC1PSC Bits */
 202:Drivers/STM32H7xx_HAL_Driver/Src/stm32h7xx_hal_tim_ex.c ****   htim->Instance->CCMR1 &= ~TIM_CCMR1_IC1PSC;
  89              		.loc 1 202 7
  90 0058 7B68     		ldr	r3, [r7, #4]
  91 005a 1B68     		ldr	r3, [r3]
  92              		.loc 1 202 25
  93 005c 9A69     		ldr	r2, [r3, #24]
  94              		.loc 1 202 7
  95 005e 7B68     		ldr	r3, [r7, #4]
  96 0060 1B68     		ldr	r3, [r3]
  97              		.loc 1 202 25
  98 0062 22F00C02 		bic	r2, r2, #12
  99 0066 9A61     		str	r2, [r3, #24]
 203:Drivers/STM32H7xx_HAL_Driver/Src/stm32h7xx_hal_tim_ex.c ****   /* Set the IC1PSC value */
 204:Drivers/STM32H7xx_HAL_Driver/Src/stm32h7xx_hal_tim_ex.c ****   htim->Instance->CCMR1 |= sConfig->IC1Prescaler;
 100              		.loc 1 204 7
 101 0068 7B68     		ldr	r3, [r7, #4]
 102 006a 1B68     		ldr	r3, [r3]
 103              		.loc 1 204 25
 104 006c 9969     		ldr	r1, [r3, #24]
 105              		.loc 1 204 35
 106 006e 3B68     		ldr	r3, [r7]
 107 0070 5A68     		ldr	r2, [r3, #4]
 108              		.loc 1 204 7
 109 0072 7B68     		ldr	r3, [r7, #4]
 110 0074 1B68     		ldr	r3, [r3]
 111              		.loc 1 204 25
 112 0076 0A43     		orrs	r2, r2, r1
 113 0078 9A61     		str	r2, [r3, #24]
 205:Drivers/STM32H7xx_HAL_Driver/Src/stm32h7xx_hal_tim_ex.c **** 
 206:Drivers/STM32H7xx_HAL_Driver/Src/stm32h7xx_hal_tim_ex.c ****   /* Enable the Hall sensor interface (XOR function of the three inputs) */
 207:Drivers/STM32H7xx_HAL_Driver/Src/stm32h7xx_hal_tim_ex.c ****   htim->Instance->CR2 |= TIM_CR2_TI1S;
 114              		.loc 1 207 7
 115 007a 7B68     		ldr	r3, [r7, #4]
 116 007c 1B68     		ldr	r3, [r3]
 117              		.loc 1 207 23
 118 007e 5A68     		ldr	r2, [r3, #4]
 119              		.loc 1 207 7
 120 0080 7B68     		ldr	r3, [r7, #4]
 121 0082 1B68     		ldr	r3, [r3]
 122              		.loc 1 207 23
 123 0084 42F08002 		orr	r2, r2, #128
 124 0088 5A60     		str	r2, [r3, #4]
 208:Drivers/STM32H7xx_HAL_Driver/Src/stm32h7xx_hal_tim_ex.c **** 
 209:Drivers/STM32H7xx_HAL_Driver/Src/stm32h7xx_hal_tim_ex.c ****   /* Select the TIM_TS_TI1F_ED signal as Input trigger for the TIM */
 210:Drivers/STM32H7xx_HAL_Driver/Src/stm32h7xx_hal_tim_ex.c ****   htim->Instance->SMCR &= ~TIM_SMCR_TS;
 125              		.loc 1 210 7
 126 008a 7B68     		ldr	r3, [r7, #4]
 127 008c 1B68     		ldr	r3, [r3]
 128              		.loc 1 210 24
 129 008e 9968     		ldr	r1, [r3, #8]
 130              		.loc 1 210 7
 131 0090 7B68     		ldr	r3, [r7, #4]
 132 0092 1A68     		ldr	r2, [r3]
 133              		.loc 1 210 24
ARM GAS  C:\Users\Su\AppData\Local\Temp\ccm0VnUy.s 			page 7


 134 0094 2F4B     		ldr	r3, .L6
 135 0096 0B40     		ands	r3, r3, r1
 136 0098 9360     		str	r3, [r2, #8]
 211:Drivers/STM32H7xx_HAL_Driver/Src/stm32h7xx_hal_tim_ex.c ****   htim->Instance->SMCR |= TIM_TS_TI1F_ED;
 137              		.loc 1 211 7
 138 009a 7B68     		ldr	r3, [r7, #4]
 139 009c 1B68     		ldr	r3, [r3]
 140              		.loc 1 211 24
 141 009e 9A68     		ldr	r2, [r3, #8]
 142              		.loc 1 211 7
 143 00a0 7B68     		ldr	r3, [r7, #4]
 144 00a2 1B68     		ldr	r3, [r3]
 145              		.loc 1 211 24
 146 00a4 42F04002 		orr	r2, r2, #64
 147 00a8 9A60     		str	r2, [r3, #8]
 212:Drivers/STM32H7xx_HAL_Driver/Src/stm32h7xx_hal_tim_ex.c **** 
 213:Drivers/STM32H7xx_HAL_Driver/Src/stm32h7xx_hal_tim_ex.c ****   /* Use the TIM_TS_TI1F_ED signal to reset the TIM counter each edge detection */
 214:Drivers/STM32H7xx_HAL_Driver/Src/stm32h7xx_hal_tim_ex.c ****   htim->Instance->SMCR &= ~TIM_SMCR_SMS;
 148              		.loc 1 214 7
 149 00aa 7B68     		ldr	r3, [r7, #4]
 150 00ac 1B68     		ldr	r3, [r3]
 151              		.loc 1 214 24
 152 00ae 9968     		ldr	r1, [r3, #8]
 153              		.loc 1 214 7
 154 00b0 7B68     		ldr	r3, [r7, #4]
 155 00b2 1A68     		ldr	r2, [r3]
 156              		.loc 1 214 24
 157 00b4 284B     		ldr	r3, .L6+4
 158 00b6 0B40     		ands	r3, r3, r1
 159 00b8 9360     		str	r3, [r2, #8]
 215:Drivers/STM32H7xx_HAL_Driver/Src/stm32h7xx_hal_tim_ex.c ****   htim->Instance->SMCR |= TIM_SLAVEMODE_RESET;
 160              		.loc 1 215 7
 161 00ba 7B68     		ldr	r3, [r7, #4]
 162 00bc 1B68     		ldr	r3, [r3]
 163              		.loc 1 215 24
 164 00be 9A68     		ldr	r2, [r3, #8]
 165              		.loc 1 215 7
 166 00c0 7B68     		ldr	r3, [r7, #4]
 167 00c2 1B68     		ldr	r3, [r3]
 168              		.loc 1 215 24
 169 00c4 42F00402 		orr	r2, r2, #4
 170 00c8 9A60     		str	r2, [r3, #8]
 216:Drivers/STM32H7xx_HAL_Driver/Src/stm32h7xx_hal_tim_ex.c **** 
 217:Drivers/STM32H7xx_HAL_Driver/Src/stm32h7xx_hal_tim_ex.c ****   /* Program channel 2 in PWM 2 mode with the desired Commutation_Delay*/
 218:Drivers/STM32H7xx_HAL_Driver/Src/stm32h7xx_hal_tim_ex.c ****   OC_Config.OCFastMode = TIM_OCFAST_DISABLE;
 171              		.loc 1 218 24
 172 00ca 0023     		movs	r3, #0
 173 00cc FB61     		str	r3, [r7, #28]
 219:Drivers/STM32H7xx_HAL_Driver/Src/stm32h7xx_hal_tim_ex.c ****   OC_Config.OCIdleState = TIM_OCIDLESTATE_RESET;
 174              		.loc 1 219 25
 175 00ce 0023     		movs	r3, #0
 176 00d0 3B62     		str	r3, [r7, #32]
 220:Drivers/STM32H7xx_HAL_Driver/Src/stm32h7xx_hal_tim_ex.c ****   OC_Config.OCMode = TIM_OCMODE_PWM2;
 177              		.loc 1 220 20
 178 00d2 7023     		movs	r3, #112
 179 00d4 FB60     		str	r3, [r7, #12]
 221:Drivers/STM32H7xx_HAL_Driver/Src/stm32h7xx_hal_tim_ex.c ****   OC_Config.OCNIdleState = TIM_OCNIDLESTATE_RESET;
ARM GAS  C:\Users\Su\AppData\Local\Temp\ccm0VnUy.s 			page 8


 180              		.loc 1 221 26
 181 00d6 0023     		movs	r3, #0
 182 00d8 7B62     		str	r3, [r7, #36]
 222:Drivers/STM32H7xx_HAL_Driver/Src/stm32h7xx_hal_tim_ex.c ****   OC_Config.OCNPolarity = TIM_OCNPOLARITY_HIGH;
 183              		.loc 1 222 25
 184 00da 0023     		movs	r3, #0
 185 00dc BB61     		str	r3, [r7, #24]
 223:Drivers/STM32H7xx_HAL_Driver/Src/stm32h7xx_hal_tim_ex.c ****   OC_Config.OCPolarity = TIM_OCPOLARITY_HIGH;
 186              		.loc 1 223 24
 187 00de 0023     		movs	r3, #0
 188 00e0 7B61     		str	r3, [r7, #20]
 224:Drivers/STM32H7xx_HAL_Driver/Src/stm32h7xx_hal_tim_ex.c ****   OC_Config.Pulse = sConfig->Commutation_Delay;
 189              		.loc 1 224 28
 190 00e2 3B68     		ldr	r3, [r7]
 191 00e4 DB68     		ldr	r3, [r3, #12]
 192              		.loc 1 224 19
 193 00e6 3B61     		str	r3, [r7, #16]
 225:Drivers/STM32H7xx_HAL_Driver/Src/stm32h7xx_hal_tim_ex.c **** 
 226:Drivers/STM32H7xx_HAL_Driver/Src/stm32h7xx_hal_tim_ex.c ****   TIM_OC2_SetConfig(htim->Instance, &OC_Config);
 194              		.loc 1 226 3
 195 00e8 7B68     		ldr	r3, [r7, #4]
 196 00ea 1B68     		ldr	r3, [r3]
 197 00ec 07F10C02 		add	r2, r7, #12
 198 00f0 1146     		mov	r1, r2
 199 00f2 1846     		mov	r0, r3
 200 00f4 FFF7FEFF 		bl	TIM_OC2_SetConfig
 227:Drivers/STM32H7xx_HAL_Driver/Src/stm32h7xx_hal_tim_ex.c **** 
 228:Drivers/STM32H7xx_HAL_Driver/Src/stm32h7xx_hal_tim_ex.c ****   /* Select OC2REF as trigger output on TRGO: write the MMS bits in the TIMx_CR2
 229:Drivers/STM32H7xx_HAL_Driver/Src/stm32h7xx_hal_tim_ex.c ****     register to 101 */
 230:Drivers/STM32H7xx_HAL_Driver/Src/stm32h7xx_hal_tim_ex.c ****   htim->Instance->CR2 &= ~TIM_CR2_MMS;
 201              		.loc 1 230 7
 202 00f8 7B68     		ldr	r3, [r7, #4]
 203 00fa 1B68     		ldr	r3, [r3]
 204              		.loc 1 230 23
 205 00fc 5A68     		ldr	r2, [r3, #4]
 206              		.loc 1 230 7
 207 00fe 7B68     		ldr	r3, [r7, #4]
 208 0100 1B68     		ldr	r3, [r3]
 209              		.loc 1 230 23
 210 0102 22F07002 		bic	r2, r2, #112
 211 0106 5A60     		str	r2, [r3, #4]
 231:Drivers/STM32H7xx_HAL_Driver/Src/stm32h7xx_hal_tim_ex.c ****   htim->Instance->CR2 |= TIM_TRGO_OC2REF;
 212              		.loc 1 231 7
 213 0108 7B68     		ldr	r3, [r7, #4]
 214 010a 1B68     		ldr	r3, [r3]
 215              		.loc 1 231 23
 216 010c 5A68     		ldr	r2, [r3, #4]
 217              		.loc 1 231 7
 218 010e 7B68     		ldr	r3, [r7, #4]
 219 0110 1B68     		ldr	r3, [r3]
 220              		.loc 1 231 23
 221 0112 42F05002 		orr	r2, r2, #80
 222 0116 5A60     		str	r2, [r3, #4]
 232:Drivers/STM32H7xx_HAL_Driver/Src/stm32h7xx_hal_tim_ex.c **** 
 233:Drivers/STM32H7xx_HAL_Driver/Src/stm32h7xx_hal_tim_ex.c ****   /* Initialize the DMA burst operation state */
 234:Drivers/STM32H7xx_HAL_Driver/Src/stm32h7xx_hal_tim_ex.c ****   htim->DMABurstState = HAL_DMA_BURST_STATE_READY;
 223              		.loc 1 234 23
ARM GAS  C:\Users\Su\AppData\Local\Temp\ccm0VnUy.s 			page 9


 224 0118 7B68     		ldr	r3, [r7, #4]
 225 011a 0122     		movs	r2, #1
 226 011c 83F84820 		strb	r2, [r3, #72]
 235:Drivers/STM32H7xx_HAL_Driver/Src/stm32h7xx_hal_tim_ex.c **** 
 236:Drivers/STM32H7xx_HAL_Driver/Src/stm32h7xx_hal_tim_ex.c ****   /* Initialize the TIM channels state */
 237:Drivers/STM32H7xx_HAL_Driver/Src/stm32h7xx_hal_tim_ex.c ****   TIM_CHANNEL_STATE_SET(htim, TIM_CHANNEL_1, HAL_TIM_CHANNEL_STATE_READY);
 227              		.loc 1 237 3
 228 0120 7B68     		ldr	r3, [r7, #4]
 229 0122 0122     		movs	r2, #1
 230 0124 83F83E20 		strb	r2, [r3, #62]
 238:Drivers/STM32H7xx_HAL_Driver/Src/stm32h7xx_hal_tim_ex.c ****   TIM_CHANNEL_STATE_SET(htim, TIM_CHANNEL_2, HAL_TIM_CHANNEL_STATE_READY);
 231              		.loc 1 238 3
 232 0128 7B68     		ldr	r3, [r7, #4]
 233 012a 0122     		movs	r2, #1
 234 012c 83F83F20 		strb	r2, [r3, #63]
 239:Drivers/STM32H7xx_HAL_Driver/Src/stm32h7xx_hal_tim_ex.c ****   TIM_CHANNEL_N_STATE_SET(htim, TIM_CHANNEL_1, HAL_TIM_CHANNEL_STATE_READY);
 235              		.loc 1 239 3
 236 0130 7B68     		ldr	r3, [r7, #4]
 237 0132 0122     		movs	r2, #1
 238 0134 83F84420 		strb	r2, [r3, #68]
 240:Drivers/STM32H7xx_HAL_Driver/Src/stm32h7xx_hal_tim_ex.c ****   TIM_CHANNEL_N_STATE_SET(htim, TIM_CHANNEL_2, HAL_TIM_CHANNEL_STATE_READY);
 239              		.loc 1 240 3
 240 0138 7B68     		ldr	r3, [r7, #4]
 241 013a 0122     		movs	r2, #1
 242 013c 83F84520 		strb	r2, [r3, #69]
 241:Drivers/STM32H7xx_HAL_Driver/Src/stm32h7xx_hal_tim_ex.c **** 
 242:Drivers/STM32H7xx_HAL_Driver/Src/stm32h7xx_hal_tim_ex.c ****   /* Initialize the TIM state*/
 243:Drivers/STM32H7xx_HAL_Driver/Src/stm32h7xx_hal_tim_ex.c ****   htim->State = HAL_TIM_STATE_READY;
 243              		.loc 1 243 15
 244 0140 7B68     		ldr	r3, [r7, #4]
 245 0142 0122     		movs	r2, #1
 246 0144 83F83D20 		strb	r2, [r3, #61]
 244:Drivers/STM32H7xx_HAL_Driver/Src/stm32h7xx_hal_tim_ex.c **** 
 245:Drivers/STM32H7xx_HAL_Driver/Src/stm32h7xx_hal_tim_ex.c ****   return HAL_OK;
 247              		.loc 1 245 10
 248 0148 0023     		movs	r3, #0
 249              	.L5:
 246:Drivers/STM32H7xx_HAL_Driver/Src/stm32h7xx_hal_tim_ex.c **** }
 250              		.loc 1 246 1 discriminator 1
 251 014a 1846     		mov	r0, r3
 252 014c 2837     		adds	r7, r7, #40
 253              	.LCFI3:
 254              		.cfi_def_cfa_offset 8
 255 014e BD46     		mov	sp, r7
 256              	.LCFI4:
 257              		.cfi_def_cfa_register 13
 258              		@ sp needed
 259 0150 80BD     		pop	{r7, pc}
 260              	.L7:
 261 0152 00BF     		.align	2
 262              	.L6:
 263 0154 8FFFCFFF 		.word	-3145841
 264 0158 F8FFFEFF 		.word	-65544
 265              		.cfi_endproc
 266              	.LFE144:
 268              		.section	.text.HAL_TIMEx_HallSensor_DeInit,"ax",%progbits
 269              		.align	1
ARM GAS  C:\Users\Su\AppData\Local\Temp\ccm0VnUy.s 			page 10


 270              		.global	HAL_TIMEx_HallSensor_DeInit
 271              		.syntax unified
 272              		.thumb
 273              		.thumb_func
 275              	HAL_TIMEx_HallSensor_DeInit:
 276              	.LFB145:
 247:Drivers/STM32H7xx_HAL_Driver/Src/stm32h7xx_hal_tim_ex.c **** 
 248:Drivers/STM32H7xx_HAL_Driver/Src/stm32h7xx_hal_tim_ex.c **** /**
 249:Drivers/STM32H7xx_HAL_Driver/Src/stm32h7xx_hal_tim_ex.c ****   * @brief  DeInitializes the TIM Hall Sensor interface
 250:Drivers/STM32H7xx_HAL_Driver/Src/stm32h7xx_hal_tim_ex.c ****   * @param  htim TIM Hall Sensor Interface handle
 251:Drivers/STM32H7xx_HAL_Driver/Src/stm32h7xx_hal_tim_ex.c ****   * @retval HAL status
 252:Drivers/STM32H7xx_HAL_Driver/Src/stm32h7xx_hal_tim_ex.c ****   */
 253:Drivers/STM32H7xx_HAL_Driver/Src/stm32h7xx_hal_tim_ex.c **** HAL_StatusTypeDef HAL_TIMEx_HallSensor_DeInit(TIM_HandleTypeDef *htim)
 254:Drivers/STM32H7xx_HAL_Driver/Src/stm32h7xx_hal_tim_ex.c **** {
 277              		.loc 1 254 1
 278              		.cfi_startproc
 279              		@ args = 0, pretend = 0, frame = 8
 280              		@ frame_needed = 1, uses_anonymous_args = 0
 281 0000 80B5     		push	{r7, lr}
 282              	.LCFI5:
 283              		.cfi_def_cfa_offset 8
 284              		.cfi_offset 7, -8
 285              		.cfi_offset 14, -4
 286 0002 82B0     		sub	sp, sp, #8
 287              	.LCFI6:
 288              		.cfi_def_cfa_offset 16
 289 0004 00AF     		add	r7, sp, #0
 290              	.LCFI7:
 291              		.cfi_def_cfa_register 7
 292 0006 7860     		str	r0, [r7, #4]
 255:Drivers/STM32H7xx_HAL_Driver/Src/stm32h7xx_hal_tim_ex.c ****   /* Check the parameters */
 256:Drivers/STM32H7xx_HAL_Driver/Src/stm32h7xx_hal_tim_ex.c ****   assert_param(IS_TIM_INSTANCE(htim->Instance));
 257:Drivers/STM32H7xx_HAL_Driver/Src/stm32h7xx_hal_tim_ex.c **** 
 258:Drivers/STM32H7xx_HAL_Driver/Src/stm32h7xx_hal_tim_ex.c ****   htim->State = HAL_TIM_STATE_BUSY;
 293              		.loc 1 258 15
 294 0008 7B68     		ldr	r3, [r7, #4]
 295 000a 0222     		movs	r2, #2
 296 000c 83F83D20 		strb	r2, [r3, #61]
 259:Drivers/STM32H7xx_HAL_Driver/Src/stm32h7xx_hal_tim_ex.c **** 
 260:Drivers/STM32H7xx_HAL_Driver/Src/stm32h7xx_hal_tim_ex.c ****   /* Disable the TIM Peripheral Clock */
 261:Drivers/STM32H7xx_HAL_Driver/Src/stm32h7xx_hal_tim_ex.c ****   __HAL_TIM_DISABLE(htim);
 297              		.loc 1 261 3
 298 0010 7B68     		ldr	r3, [r7, #4]
 299 0012 1B68     		ldr	r3, [r3]
 300 0014 1A6A     		ldr	r2, [r3, #32]
 301 0016 41F21113 		movw	r3, #4369
 302 001a 1340     		ands	r3, r3, r2
 303 001c 002B     		cmp	r3, #0
 304 001e 0FD1     		bne	.L9
 305              		.loc 1 261 3 is_stmt 0 discriminator 1
 306 0020 7B68     		ldr	r3, [r7, #4]
 307 0022 1B68     		ldr	r3, [r3]
 308 0024 1A6A     		ldr	r2, [r3, #32]
 309 0026 40F24443 		movw	r3, #1092
 310 002a 1340     		ands	r3, r3, r2
 311 002c 002B     		cmp	r3, #0
 312 002e 07D1     		bne	.L9
ARM GAS  C:\Users\Su\AppData\Local\Temp\ccm0VnUy.s 			page 11


 313              		.loc 1 261 3 discriminator 2
 314 0030 7B68     		ldr	r3, [r7, #4]
 315 0032 1B68     		ldr	r3, [r3]
 316 0034 1A68     		ldr	r2, [r3]
 317 0036 7B68     		ldr	r3, [r7, #4]
 318 0038 1B68     		ldr	r3, [r3]
 319 003a 22F00102 		bic	r2, r2, #1
 320 003e 1A60     		str	r2, [r3]
 321              	.L9:
 262:Drivers/STM32H7xx_HAL_Driver/Src/stm32h7xx_hal_tim_ex.c **** 
 263:Drivers/STM32H7xx_HAL_Driver/Src/stm32h7xx_hal_tim_ex.c **** #if (USE_HAL_TIM_REGISTER_CALLBACKS == 1)
 264:Drivers/STM32H7xx_HAL_Driver/Src/stm32h7xx_hal_tim_ex.c ****   if (htim->HallSensor_MspDeInitCallback == NULL)
 265:Drivers/STM32H7xx_HAL_Driver/Src/stm32h7xx_hal_tim_ex.c ****   {
 266:Drivers/STM32H7xx_HAL_Driver/Src/stm32h7xx_hal_tim_ex.c ****     htim->HallSensor_MspDeInitCallback = HAL_TIMEx_HallSensor_MspDeInit;
 267:Drivers/STM32H7xx_HAL_Driver/Src/stm32h7xx_hal_tim_ex.c ****   }
 268:Drivers/STM32H7xx_HAL_Driver/Src/stm32h7xx_hal_tim_ex.c ****   /* DeInit the low level hardware */
 269:Drivers/STM32H7xx_HAL_Driver/Src/stm32h7xx_hal_tim_ex.c ****   htim->HallSensor_MspDeInitCallback(htim);
 270:Drivers/STM32H7xx_HAL_Driver/Src/stm32h7xx_hal_tim_ex.c **** #else
 271:Drivers/STM32H7xx_HAL_Driver/Src/stm32h7xx_hal_tim_ex.c ****   /* DeInit the low level hardware: GPIO, CLOCK, NVIC */
 272:Drivers/STM32H7xx_HAL_Driver/Src/stm32h7xx_hal_tim_ex.c ****   HAL_TIMEx_HallSensor_MspDeInit(htim);
 322              		.loc 1 272 3 is_stmt 1
 323 0040 7868     		ldr	r0, [r7, #4]
 324 0042 FFF7FEFF 		bl	HAL_TIMEx_HallSensor_MspDeInit
 273:Drivers/STM32H7xx_HAL_Driver/Src/stm32h7xx_hal_tim_ex.c **** #endif /* USE_HAL_TIM_REGISTER_CALLBACKS */
 274:Drivers/STM32H7xx_HAL_Driver/Src/stm32h7xx_hal_tim_ex.c **** 
 275:Drivers/STM32H7xx_HAL_Driver/Src/stm32h7xx_hal_tim_ex.c ****   /* Change the DMA burst operation state */
 276:Drivers/STM32H7xx_HAL_Driver/Src/stm32h7xx_hal_tim_ex.c ****   htim->DMABurstState = HAL_DMA_BURST_STATE_RESET;
 325              		.loc 1 276 23
 326 0046 7B68     		ldr	r3, [r7, #4]
 327 0048 0022     		movs	r2, #0
 328 004a 83F84820 		strb	r2, [r3, #72]
 277:Drivers/STM32H7xx_HAL_Driver/Src/stm32h7xx_hal_tim_ex.c **** 
 278:Drivers/STM32H7xx_HAL_Driver/Src/stm32h7xx_hal_tim_ex.c ****   /* Change the TIM channels state */
 279:Drivers/STM32H7xx_HAL_Driver/Src/stm32h7xx_hal_tim_ex.c ****   TIM_CHANNEL_STATE_SET(htim, TIM_CHANNEL_1, HAL_TIM_CHANNEL_STATE_RESET);
 329              		.loc 1 279 3
 330 004e 7B68     		ldr	r3, [r7, #4]
 331 0050 0022     		movs	r2, #0
 332 0052 83F83E20 		strb	r2, [r3, #62]
 280:Drivers/STM32H7xx_HAL_Driver/Src/stm32h7xx_hal_tim_ex.c ****   TIM_CHANNEL_STATE_SET(htim, TIM_CHANNEL_2, HAL_TIM_CHANNEL_STATE_RESET);
 333              		.loc 1 280 3
 334 0056 7B68     		ldr	r3, [r7, #4]
 335 0058 0022     		movs	r2, #0
 336 005a 83F83F20 		strb	r2, [r3, #63]
 281:Drivers/STM32H7xx_HAL_Driver/Src/stm32h7xx_hal_tim_ex.c ****   TIM_CHANNEL_N_STATE_SET(htim, TIM_CHANNEL_1, HAL_TIM_CHANNEL_STATE_RESET);
 337              		.loc 1 281 3
 338 005e 7B68     		ldr	r3, [r7, #4]
 339 0060 0022     		movs	r2, #0
 340 0062 83F84420 		strb	r2, [r3, #68]
 282:Drivers/STM32H7xx_HAL_Driver/Src/stm32h7xx_hal_tim_ex.c ****   TIM_CHANNEL_N_STATE_SET(htim, TIM_CHANNEL_2, HAL_TIM_CHANNEL_STATE_RESET);
 341              		.loc 1 282 3
 342 0066 7B68     		ldr	r3, [r7, #4]
 343 0068 0022     		movs	r2, #0
 344 006a 83F84520 		strb	r2, [r3, #69]
 283:Drivers/STM32H7xx_HAL_Driver/Src/stm32h7xx_hal_tim_ex.c **** 
 284:Drivers/STM32H7xx_HAL_Driver/Src/stm32h7xx_hal_tim_ex.c ****   /* Change TIM state */
 285:Drivers/STM32H7xx_HAL_Driver/Src/stm32h7xx_hal_tim_ex.c ****   htim->State = HAL_TIM_STATE_RESET;
 345              		.loc 1 285 15
ARM GAS  C:\Users\Su\AppData\Local\Temp\ccm0VnUy.s 			page 12


 346 006e 7B68     		ldr	r3, [r7, #4]
 347 0070 0022     		movs	r2, #0
 348 0072 83F83D20 		strb	r2, [r3, #61]
 286:Drivers/STM32H7xx_HAL_Driver/Src/stm32h7xx_hal_tim_ex.c **** 
 287:Drivers/STM32H7xx_HAL_Driver/Src/stm32h7xx_hal_tim_ex.c ****   /* Release Lock */
 288:Drivers/STM32H7xx_HAL_Driver/Src/stm32h7xx_hal_tim_ex.c ****   __HAL_UNLOCK(htim);
 349              		.loc 1 288 3
 350 0076 7B68     		ldr	r3, [r7, #4]
 351 0078 0022     		movs	r2, #0
 352 007a 83F83C20 		strb	r2, [r3, #60]
 289:Drivers/STM32H7xx_HAL_Driver/Src/stm32h7xx_hal_tim_ex.c **** 
 290:Drivers/STM32H7xx_HAL_Driver/Src/stm32h7xx_hal_tim_ex.c ****   return HAL_OK;
 353              		.loc 1 290 10
 354 007e 0023     		movs	r3, #0
 291:Drivers/STM32H7xx_HAL_Driver/Src/stm32h7xx_hal_tim_ex.c **** }
 355              		.loc 1 291 1
 356 0080 1846     		mov	r0, r3
 357 0082 0837     		adds	r7, r7, #8
 358              	.LCFI8:
 359              		.cfi_def_cfa_offset 8
 360 0084 BD46     		mov	sp, r7
 361              	.LCFI9:
 362              		.cfi_def_cfa_register 13
 363              		@ sp needed
 364 0086 80BD     		pop	{r7, pc}
 365              		.cfi_endproc
 366              	.LFE145:
 368              		.section	.text.HAL_TIMEx_HallSensor_MspInit,"ax",%progbits
 369              		.align	1
 370              		.weak	HAL_TIMEx_HallSensor_MspInit
 371              		.syntax unified
 372              		.thumb
 373              		.thumb_func
 375              	HAL_TIMEx_HallSensor_MspInit:
 376              	.LFB146:
 292:Drivers/STM32H7xx_HAL_Driver/Src/stm32h7xx_hal_tim_ex.c **** 
 293:Drivers/STM32H7xx_HAL_Driver/Src/stm32h7xx_hal_tim_ex.c **** /**
 294:Drivers/STM32H7xx_HAL_Driver/Src/stm32h7xx_hal_tim_ex.c ****   * @brief  Initializes the TIM Hall Sensor MSP.
 295:Drivers/STM32H7xx_HAL_Driver/Src/stm32h7xx_hal_tim_ex.c ****   * @param  htim TIM Hall Sensor Interface handle
 296:Drivers/STM32H7xx_HAL_Driver/Src/stm32h7xx_hal_tim_ex.c ****   * @retval None
 297:Drivers/STM32H7xx_HAL_Driver/Src/stm32h7xx_hal_tim_ex.c ****   */
 298:Drivers/STM32H7xx_HAL_Driver/Src/stm32h7xx_hal_tim_ex.c **** __weak void HAL_TIMEx_HallSensor_MspInit(TIM_HandleTypeDef *htim)
 299:Drivers/STM32H7xx_HAL_Driver/Src/stm32h7xx_hal_tim_ex.c **** {
 377              		.loc 1 299 1
 378              		.cfi_startproc
 379              		@ args = 0, pretend = 0, frame = 8
 380              		@ frame_needed = 1, uses_anonymous_args = 0
 381              		@ link register save eliminated.
 382 0000 80B4     		push	{r7}
 383              	.LCFI10:
 384              		.cfi_def_cfa_offset 4
 385              		.cfi_offset 7, -4
 386 0002 83B0     		sub	sp, sp, #12
 387              	.LCFI11:
 388              		.cfi_def_cfa_offset 16
 389 0004 00AF     		add	r7, sp, #0
 390              	.LCFI12:
ARM GAS  C:\Users\Su\AppData\Local\Temp\ccm0VnUy.s 			page 13


 391              		.cfi_def_cfa_register 7
 392 0006 7860     		str	r0, [r7, #4]
 300:Drivers/STM32H7xx_HAL_Driver/Src/stm32h7xx_hal_tim_ex.c ****   /* Prevent unused argument(s) compilation warning */
 301:Drivers/STM32H7xx_HAL_Driver/Src/stm32h7xx_hal_tim_ex.c ****   UNUSED(htim);
 302:Drivers/STM32H7xx_HAL_Driver/Src/stm32h7xx_hal_tim_ex.c **** 
 303:Drivers/STM32H7xx_HAL_Driver/Src/stm32h7xx_hal_tim_ex.c ****   /* NOTE : This function should not be modified, when the callback is needed,
 304:Drivers/STM32H7xx_HAL_Driver/Src/stm32h7xx_hal_tim_ex.c ****             the HAL_TIMEx_HallSensor_MspInit could be implemented in the user file
 305:Drivers/STM32H7xx_HAL_Driver/Src/stm32h7xx_hal_tim_ex.c ****    */
 306:Drivers/STM32H7xx_HAL_Driver/Src/stm32h7xx_hal_tim_ex.c **** }
 393              		.loc 1 306 1
 394 0008 00BF     		nop
 395 000a 0C37     		adds	r7, r7, #12
 396              	.LCFI13:
 397              		.cfi_def_cfa_offset 4
 398 000c BD46     		mov	sp, r7
 399              	.LCFI14:
 400              		.cfi_def_cfa_register 13
 401              		@ sp needed
 402 000e 5DF8047B 		ldr	r7, [sp], #4
 403              	.LCFI15:
 404              		.cfi_restore 7
 405              		.cfi_def_cfa_offset 0
 406 0012 7047     		bx	lr
 407              		.cfi_endproc
 408              	.LFE146:
 410              		.section	.text.HAL_TIMEx_HallSensor_MspDeInit,"ax",%progbits
 411              		.align	1
 412              		.weak	HAL_TIMEx_HallSensor_MspDeInit
 413              		.syntax unified
 414              		.thumb
 415              		.thumb_func
 417              	HAL_TIMEx_HallSensor_MspDeInit:
 418              	.LFB147:
 307:Drivers/STM32H7xx_HAL_Driver/Src/stm32h7xx_hal_tim_ex.c **** 
 308:Drivers/STM32H7xx_HAL_Driver/Src/stm32h7xx_hal_tim_ex.c **** /**
 309:Drivers/STM32H7xx_HAL_Driver/Src/stm32h7xx_hal_tim_ex.c ****   * @brief  DeInitializes TIM Hall Sensor MSP.
 310:Drivers/STM32H7xx_HAL_Driver/Src/stm32h7xx_hal_tim_ex.c ****   * @param  htim TIM Hall Sensor Interface handle
 311:Drivers/STM32H7xx_HAL_Driver/Src/stm32h7xx_hal_tim_ex.c ****   * @retval None
 312:Drivers/STM32H7xx_HAL_Driver/Src/stm32h7xx_hal_tim_ex.c ****   */
 313:Drivers/STM32H7xx_HAL_Driver/Src/stm32h7xx_hal_tim_ex.c **** __weak void HAL_TIMEx_HallSensor_MspDeInit(TIM_HandleTypeDef *htim)
 314:Drivers/STM32H7xx_HAL_Driver/Src/stm32h7xx_hal_tim_ex.c **** {
 419              		.loc 1 314 1
 420              		.cfi_startproc
 421              		@ args = 0, pretend = 0, frame = 8
 422              		@ frame_needed = 1, uses_anonymous_args = 0
 423              		@ link register save eliminated.
 424 0000 80B4     		push	{r7}
 425              	.LCFI16:
 426              		.cfi_def_cfa_offset 4
 427              		.cfi_offset 7, -4
 428 0002 83B0     		sub	sp, sp, #12
 429              	.LCFI17:
 430              		.cfi_def_cfa_offset 16
 431 0004 00AF     		add	r7, sp, #0
 432              	.LCFI18:
 433              		.cfi_def_cfa_register 7
 434 0006 7860     		str	r0, [r7, #4]
ARM GAS  C:\Users\Su\AppData\Local\Temp\ccm0VnUy.s 			page 14


 315:Drivers/STM32H7xx_HAL_Driver/Src/stm32h7xx_hal_tim_ex.c ****   /* Prevent unused argument(s) compilation warning */
 316:Drivers/STM32H7xx_HAL_Driver/Src/stm32h7xx_hal_tim_ex.c ****   UNUSED(htim);
 317:Drivers/STM32H7xx_HAL_Driver/Src/stm32h7xx_hal_tim_ex.c **** 
 318:Drivers/STM32H7xx_HAL_Driver/Src/stm32h7xx_hal_tim_ex.c ****   /* NOTE : This function should not be modified, when the callback is needed,
 319:Drivers/STM32H7xx_HAL_Driver/Src/stm32h7xx_hal_tim_ex.c ****             the HAL_TIMEx_HallSensor_MspDeInit could be implemented in the user file
 320:Drivers/STM32H7xx_HAL_Driver/Src/stm32h7xx_hal_tim_ex.c ****    */
 321:Drivers/STM32H7xx_HAL_Driver/Src/stm32h7xx_hal_tim_ex.c **** }
 435              		.loc 1 321 1
 436 0008 00BF     		nop
 437 000a 0C37     		adds	r7, r7, #12
 438              	.LCFI19:
 439              		.cfi_def_cfa_offset 4
 440 000c BD46     		mov	sp, r7
 441              	.LCFI20:
 442              		.cfi_def_cfa_register 13
 443              		@ sp needed
 444 000e 5DF8047B 		ldr	r7, [sp], #4
 445              	.LCFI21:
 446              		.cfi_restore 7
 447              		.cfi_def_cfa_offset 0
 448 0012 7047     		bx	lr
 449              		.cfi_endproc
 450              	.LFE147:
 452              		.section	.text.HAL_TIMEx_HallSensor_Start,"ax",%progbits
 453              		.align	1
 454              		.global	HAL_TIMEx_HallSensor_Start
 455              		.syntax unified
 456              		.thumb
 457              		.thumb_func
 459              	HAL_TIMEx_HallSensor_Start:
 460              	.LFB148:
 322:Drivers/STM32H7xx_HAL_Driver/Src/stm32h7xx_hal_tim_ex.c **** 
 323:Drivers/STM32H7xx_HAL_Driver/Src/stm32h7xx_hal_tim_ex.c **** /**
 324:Drivers/STM32H7xx_HAL_Driver/Src/stm32h7xx_hal_tim_ex.c ****   * @brief  Starts the TIM Hall Sensor Interface.
 325:Drivers/STM32H7xx_HAL_Driver/Src/stm32h7xx_hal_tim_ex.c ****   * @param  htim TIM Hall Sensor Interface handle
 326:Drivers/STM32H7xx_HAL_Driver/Src/stm32h7xx_hal_tim_ex.c ****   * @retval HAL status
 327:Drivers/STM32H7xx_HAL_Driver/Src/stm32h7xx_hal_tim_ex.c ****   */
 328:Drivers/STM32H7xx_HAL_Driver/Src/stm32h7xx_hal_tim_ex.c **** HAL_StatusTypeDef HAL_TIMEx_HallSensor_Start(TIM_HandleTypeDef *htim)
 329:Drivers/STM32H7xx_HAL_Driver/Src/stm32h7xx_hal_tim_ex.c **** {
 461              		.loc 1 329 1
 462              		.cfi_startproc
 463              		@ args = 0, pretend = 0, frame = 16
 464              		@ frame_needed = 1, uses_anonymous_args = 0
 465 0000 80B5     		push	{r7, lr}
 466              	.LCFI22:
 467              		.cfi_def_cfa_offset 8
 468              		.cfi_offset 7, -8
 469              		.cfi_offset 14, -4
 470 0002 84B0     		sub	sp, sp, #16
 471              	.LCFI23:
 472              		.cfi_def_cfa_offset 24
 473 0004 00AF     		add	r7, sp, #0
 474              	.LCFI24:
 475              		.cfi_def_cfa_register 7
 476 0006 7860     		str	r0, [r7, #4]
 330:Drivers/STM32H7xx_HAL_Driver/Src/stm32h7xx_hal_tim_ex.c ****   uint32_t tmpsmcr;
 331:Drivers/STM32H7xx_HAL_Driver/Src/stm32h7xx_hal_tim_ex.c ****   HAL_TIM_ChannelStateTypeDef channel_1_state = TIM_CHANNEL_STATE_GET(htim, TIM_CHANNEL_1);
ARM GAS  C:\Users\Su\AppData\Local\Temp\ccm0VnUy.s 			page 15


 477              		.loc 1 331 31
 478 0008 7B68     		ldr	r3, [r7, #4]
 479 000a 93F83E30 		ldrb	r3, [r3, #62]
 480 000e FB73     		strb	r3, [r7, #15]
 332:Drivers/STM32H7xx_HAL_Driver/Src/stm32h7xx_hal_tim_ex.c ****   HAL_TIM_ChannelStateTypeDef channel_2_state = TIM_CHANNEL_STATE_GET(htim, TIM_CHANNEL_2);
 481              		.loc 1 332 31
 482 0010 7B68     		ldr	r3, [r7, #4]
 483 0012 93F83F30 		ldrb	r3, [r3, #63]
 484 0016 BB73     		strb	r3, [r7, #14]
 333:Drivers/STM32H7xx_HAL_Driver/Src/stm32h7xx_hal_tim_ex.c ****   HAL_TIM_ChannelStateTypeDef complementary_channel_1_state = TIM_CHANNEL_N_STATE_GET(htim, TIM_CHA
 485              		.loc 1 333 31
 486 0018 7B68     		ldr	r3, [r7, #4]
 487 001a 93F84430 		ldrb	r3, [r3, #68]
 488 001e 7B73     		strb	r3, [r7, #13]
 334:Drivers/STM32H7xx_HAL_Driver/Src/stm32h7xx_hal_tim_ex.c ****   HAL_TIM_ChannelStateTypeDef complementary_channel_2_state = TIM_CHANNEL_N_STATE_GET(htim, TIM_CHA
 489              		.loc 1 334 31
 490 0020 7B68     		ldr	r3, [r7, #4]
 491 0022 93F84530 		ldrb	r3, [r3, #69]
 492 0026 3B73     		strb	r3, [r7, #12]
 335:Drivers/STM32H7xx_HAL_Driver/Src/stm32h7xx_hal_tim_ex.c **** 
 336:Drivers/STM32H7xx_HAL_Driver/Src/stm32h7xx_hal_tim_ex.c ****   /* Check the parameters */
 337:Drivers/STM32H7xx_HAL_Driver/Src/stm32h7xx_hal_tim_ex.c ****   assert_param(IS_TIM_HALL_SENSOR_INTERFACE_INSTANCE(htim->Instance));
 338:Drivers/STM32H7xx_HAL_Driver/Src/stm32h7xx_hal_tim_ex.c **** 
 339:Drivers/STM32H7xx_HAL_Driver/Src/stm32h7xx_hal_tim_ex.c ****   /* Check the TIM channels state */
 340:Drivers/STM32H7xx_HAL_Driver/Src/stm32h7xx_hal_tim_ex.c ****   if ((channel_1_state != HAL_TIM_CHANNEL_STATE_READY)
 493              		.loc 1 340 6
 494 0028 FB7B     		ldrb	r3, [r7, #15]	@ zero_extendqisi2
 495 002a 012B     		cmp	r3, #1
 496 002c 08D1     		bne	.L14
 341:Drivers/STM32H7xx_HAL_Driver/Src/stm32h7xx_hal_tim_ex.c ****       || (channel_2_state != HAL_TIM_CHANNEL_STATE_READY)
 497              		.loc 1 341 7
 498 002e BB7B     		ldrb	r3, [r7, #14]	@ zero_extendqisi2
 499 0030 012B     		cmp	r3, #1
 500 0032 05D1     		bne	.L14
 342:Drivers/STM32H7xx_HAL_Driver/Src/stm32h7xx_hal_tim_ex.c ****       || (complementary_channel_1_state != HAL_TIM_CHANNEL_STATE_READY)
 501              		.loc 1 342 7
 502 0034 7B7B     		ldrb	r3, [r7, #13]	@ zero_extendqisi2
 503 0036 012B     		cmp	r3, #1
 504 0038 02D1     		bne	.L14
 343:Drivers/STM32H7xx_HAL_Driver/Src/stm32h7xx_hal_tim_ex.c ****       || (complementary_channel_2_state != HAL_TIM_CHANNEL_STATE_READY))
 505              		.loc 1 343 7
 506 003a 3B7B     		ldrb	r3, [r7, #12]	@ zero_extendqisi2
 507 003c 012B     		cmp	r3, #1
 508 003e 01D0     		beq	.L15
 509              	.L14:
 344:Drivers/STM32H7xx_HAL_Driver/Src/stm32h7xx_hal_tim_ex.c ****   {
 345:Drivers/STM32H7xx_HAL_Driver/Src/stm32h7xx_hal_tim_ex.c ****     return HAL_ERROR;
 510              		.loc 1 345 12
 511 0040 0123     		movs	r3, #1
 512 0042 69E0     		b	.L16
 513              	.L15:
 346:Drivers/STM32H7xx_HAL_Driver/Src/stm32h7xx_hal_tim_ex.c ****   }
 347:Drivers/STM32H7xx_HAL_Driver/Src/stm32h7xx_hal_tim_ex.c **** 
 348:Drivers/STM32H7xx_HAL_Driver/Src/stm32h7xx_hal_tim_ex.c ****   /* Set the TIM channels state */
 349:Drivers/STM32H7xx_HAL_Driver/Src/stm32h7xx_hal_tim_ex.c ****   TIM_CHANNEL_STATE_SET(htim, TIM_CHANNEL_1, HAL_TIM_CHANNEL_STATE_BUSY);
 514              		.loc 1 349 3
 515 0044 7B68     		ldr	r3, [r7, #4]
ARM GAS  C:\Users\Su\AppData\Local\Temp\ccm0VnUy.s 			page 16


 516 0046 0222     		movs	r2, #2
 517 0048 83F83E20 		strb	r2, [r3, #62]
 350:Drivers/STM32H7xx_HAL_Driver/Src/stm32h7xx_hal_tim_ex.c ****   TIM_CHANNEL_STATE_SET(htim, TIM_CHANNEL_2, HAL_TIM_CHANNEL_STATE_BUSY);
 518              		.loc 1 350 3
 519 004c 7B68     		ldr	r3, [r7, #4]
 520 004e 0222     		movs	r2, #2
 521 0050 83F83F20 		strb	r2, [r3, #63]
 351:Drivers/STM32H7xx_HAL_Driver/Src/stm32h7xx_hal_tim_ex.c ****   TIM_CHANNEL_N_STATE_SET(htim, TIM_CHANNEL_1, HAL_TIM_CHANNEL_STATE_BUSY);
 522              		.loc 1 351 3
 523 0054 7B68     		ldr	r3, [r7, #4]
 524 0056 0222     		movs	r2, #2
 525 0058 83F84420 		strb	r2, [r3, #68]
 352:Drivers/STM32H7xx_HAL_Driver/Src/stm32h7xx_hal_tim_ex.c ****   TIM_CHANNEL_N_STATE_SET(htim, TIM_CHANNEL_2, HAL_TIM_CHANNEL_STATE_BUSY);
 526              		.loc 1 352 3
 527 005c 7B68     		ldr	r3, [r7, #4]
 528 005e 0222     		movs	r2, #2
 529 0060 83F84520 		strb	r2, [r3, #69]
 353:Drivers/STM32H7xx_HAL_Driver/Src/stm32h7xx_hal_tim_ex.c **** 
 354:Drivers/STM32H7xx_HAL_Driver/Src/stm32h7xx_hal_tim_ex.c ****   /* Enable the Input Capture channel 1
 355:Drivers/STM32H7xx_HAL_Driver/Src/stm32h7xx_hal_tim_ex.c ****   (in the Hall Sensor Interface the three possible channels that can be used are TIM_CHANNEL_1,
 356:Drivers/STM32H7xx_HAL_Driver/Src/stm32h7xx_hal_tim_ex.c ****   TIM_CHANNEL_2 and TIM_CHANNEL_3) */
 357:Drivers/STM32H7xx_HAL_Driver/Src/stm32h7xx_hal_tim_ex.c ****   TIM_CCxChannelCmd(htim->Instance, TIM_CHANNEL_1, TIM_CCx_ENABLE);
 530              		.loc 1 357 3
 531 0064 7B68     		ldr	r3, [r7, #4]
 532 0066 1B68     		ldr	r3, [r3]
 533 0068 0122     		movs	r2, #1
 534 006a 0021     		movs	r1, #0
 535 006c 1846     		mov	r0, r3
 536 006e FFF7FEFF 		bl	TIM_CCxChannelCmd
 358:Drivers/STM32H7xx_HAL_Driver/Src/stm32h7xx_hal_tim_ex.c **** 
 359:Drivers/STM32H7xx_HAL_Driver/Src/stm32h7xx_hal_tim_ex.c ****   /* Enable the Peripheral, except in trigger mode where enable is automatically done with trigger 
 360:Drivers/STM32H7xx_HAL_Driver/Src/stm32h7xx_hal_tim_ex.c ****   if (IS_TIM_SLAVE_INSTANCE(htim->Instance))
 537              		.loc 1 360 7
 538 0072 7B68     		ldr	r3, [r7, #4]
 539 0074 1B68     		ldr	r3, [r3]
 540              		.loc 1 360 6
 541 0076 2A4A     		ldr	r2, .L22
 542 0078 9342     		cmp	r3, r2
 543 007a 2CD0     		beq	.L17
 544              		.loc 1 360 7 discriminator 1
 545 007c 7B68     		ldr	r3, [r7, #4]
 546 007e 1B68     		ldr	r3, [r3]
 547 0080 B3F1804F 		cmp	r3, #1073741824
 548 0084 27D0     		beq	.L17
 549              		.loc 1 360 7 is_stmt 0 discriminator 2
 550 0086 7B68     		ldr	r3, [r7, #4]
 551 0088 1B68     		ldr	r3, [r3]
 552 008a 264A     		ldr	r2, .L22+4
 553 008c 9342     		cmp	r3, r2
 554 008e 22D0     		beq	.L17
 555              		.loc 1 360 7 discriminator 3
 556 0090 7B68     		ldr	r3, [r7, #4]
 557 0092 1B68     		ldr	r3, [r3]
 558 0094 244A     		ldr	r2, .L22+8
 559 0096 9342     		cmp	r3, r2
 560 0098 1DD0     		beq	.L17
 561              		.loc 1 360 7 discriminator 4
ARM GAS  C:\Users\Su\AppData\Local\Temp\ccm0VnUy.s 			page 17


 562 009a 7B68     		ldr	r3, [r7, #4]
 563 009c 1B68     		ldr	r3, [r3]
 564 009e 234A     		ldr	r2, .L22+12
 565 00a0 9342     		cmp	r3, r2
 566 00a2 18D0     		beq	.L17
 567              		.loc 1 360 7 discriminator 5
 568 00a4 7B68     		ldr	r3, [r7, #4]
 569 00a6 1B68     		ldr	r3, [r3]
 570 00a8 214A     		ldr	r2, .L22+16
 571 00aa 9342     		cmp	r3, r2
 572 00ac 13D0     		beq	.L17
 573              		.loc 1 360 7 discriminator 6
 574 00ae 7B68     		ldr	r3, [r7, #4]
 575 00b0 1B68     		ldr	r3, [r3]
 576 00b2 204A     		ldr	r2, .L22+20
 577 00b4 9342     		cmp	r3, r2
 578 00b6 0ED0     		beq	.L17
 579              		.loc 1 360 7 discriminator 7
 580 00b8 7B68     		ldr	r3, [r7, #4]
 581 00ba 1B68     		ldr	r3, [r3]
 582 00bc 1E4A     		ldr	r2, .L22+24
 583 00be 9342     		cmp	r3, r2
 584 00c0 09D0     		beq	.L17
 585              		.loc 1 360 7 discriminator 8
 586 00c2 7B68     		ldr	r3, [r7, #4]
 587 00c4 1B68     		ldr	r3, [r3]
 588 00c6 1D4A     		ldr	r2, .L22+28
 589 00c8 9342     		cmp	r3, r2
 590 00ca 04D0     		beq	.L17
 591              		.loc 1 360 7 discriminator 9
 592 00cc 7B68     		ldr	r3, [r7, #4]
 593 00ce 1B68     		ldr	r3, [r3]
 594 00d0 1B4A     		ldr	r2, .L22+32
 595 00d2 9342     		cmp	r3, r2
 596 00d4 15D1     		bne	.L18
 597              	.L17:
 361:Drivers/STM32H7xx_HAL_Driver/Src/stm32h7xx_hal_tim_ex.c ****   {
 362:Drivers/STM32H7xx_HAL_Driver/Src/stm32h7xx_hal_tim_ex.c ****     tmpsmcr = htim->Instance->SMCR & TIM_SMCR_SMS;
 598              		.loc 1 362 19 is_stmt 1
 599 00d6 7B68     		ldr	r3, [r7, #4]
 600 00d8 1B68     		ldr	r3, [r3]
 601              		.loc 1 362 29
 602 00da 9A68     		ldr	r2, [r3, #8]
 603              		.loc 1 362 13
 604 00dc 194B     		ldr	r3, .L22+36
 605 00de 1340     		ands	r3, r3, r2
 606 00e0 BB60     		str	r3, [r7, #8]
 363:Drivers/STM32H7xx_HAL_Driver/Src/stm32h7xx_hal_tim_ex.c ****     if (!IS_TIM_SLAVEMODE_TRIGGER_ENABLED(tmpsmcr))
 607              		.loc 1 363 8
 608 00e2 BB68     		ldr	r3, [r7, #8]
 609 00e4 062B     		cmp	r3, #6
 610 00e6 15D0     		beq	.L21
 611              		.loc 1 363 9 discriminator 1
 612 00e8 BB68     		ldr	r3, [r7, #8]
 613 00ea B3F5803F 		cmp	r3, #65536
 614 00ee 11D0     		beq	.L21
 364:Drivers/STM32H7xx_HAL_Driver/Src/stm32h7xx_hal_tim_ex.c ****     {
ARM GAS  C:\Users\Su\AppData\Local\Temp\ccm0VnUy.s 			page 18


 365:Drivers/STM32H7xx_HAL_Driver/Src/stm32h7xx_hal_tim_ex.c ****       __HAL_TIM_ENABLE(htim);
 615              		.loc 1 365 7
 616 00f0 7B68     		ldr	r3, [r7, #4]
 617 00f2 1B68     		ldr	r3, [r3]
 618 00f4 1A68     		ldr	r2, [r3]
 619 00f6 7B68     		ldr	r3, [r7, #4]
 620 00f8 1B68     		ldr	r3, [r3]
 621 00fa 42F00102 		orr	r2, r2, #1
 622 00fe 1A60     		str	r2, [r3]
 363:Drivers/STM32H7xx_HAL_Driver/Src/stm32h7xx_hal_tim_ex.c ****     if (!IS_TIM_SLAVEMODE_TRIGGER_ENABLED(tmpsmcr))
 623              		.loc 1 363 8
 624 0100 08E0     		b	.L21
 625              	.L18:
 366:Drivers/STM32H7xx_HAL_Driver/Src/stm32h7xx_hal_tim_ex.c ****     }
 367:Drivers/STM32H7xx_HAL_Driver/Src/stm32h7xx_hal_tim_ex.c ****   }
 368:Drivers/STM32H7xx_HAL_Driver/Src/stm32h7xx_hal_tim_ex.c ****   else
 369:Drivers/STM32H7xx_HAL_Driver/Src/stm32h7xx_hal_tim_ex.c ****   {
 370:Drivers/STM32H7xx_HAL_Driver/Src/stm32h7xx_hal_tim_ex.c ****     __HAL_TIM_ENABLE(htim);
 626              		.loc 1 370 5
 627 0102 7B68     		ldr	r3, [r7, #4]
 628 0104 1B68     		ldr	r3, [r3]
 629 0106 1A68     		ldr	r2, [r3]
 630 0108 7B68     		ldr	r3, [r7, #4]
 631 010a 1B68     		ldr	r3, [r3]
 632 010c 42F00102 		orr	r2, r2, #1
 633 0110 1A60     		str	r2, [r3]
 634 0112 00E0     		b	.L20
 635              	.L21:
 363:Drivers/STM32H7xx_HAL_Driver/Src/stm32h7xx_hal_tim_ex.c ****     {
 636              		.loc 1 363 8
 637 0114 00BF     		nop
 638              	.L20:
 371:Drivers/STM32H7xx_HAL_Driver/Src/stm32h7xx_hal_tim_ex.c ****   }
 372:Drivers/STM32H7xx_HAL_Driver/Src/stm32h7xx_hal_tim_ex.c **** 
 373:Drivers/STM32H7xx_HAL_Driver/Src/stm32h7xx_hal_tim_ex.c ****   /* Return function status */
 374:Drivers/STM32H7xx_HAL_Driver/Src/stm32h7xx_hal_tim_ex.c ****   return HAL_OK;
 639              		.loc 1 374 10
 640 0116 0023     		movs	r3, #0
 641              	.L16:
 375:Drivers/STM32H7xx_HAL_Driver/Src/stm32h7xx_hal_tim_ex.c **** }
 642              		.loc 1 375 1
 643 0118 1846     		mov	r0, r3
 644 011a 1037     		adds	r7, r7, #16
 645              	.LCFI25:
 646              		.cfi_def_cfa_offset 8
 647 011c BD46     		mov	sp, r7
 648              	.LCFI26:
 649              		.cfi_def_cfa_register 13
 650              		@ sp needed
 651 011e 80BD     		pop	{r7, pc}
 652              	.L23:
 653              		.align	2
 654              	.L22:
 655 0120 00000140 		.word	1073807360
 656 0124 00040040 		.word	1073742848
 657 0128 00080040 		.word	1073743872
 658 012c 000C0040 		.word	1073744896
ARM GAS  C:\Users\Su\AppData\Local\Temp\ccm0VnUy.s 			page 19


 659 0130 00040140 		.word	1073808384
 660 0134 00180040 		.word	1073747968
 661 0138 00400140 		.word	1073823744
 662 013c 00E00040 		.word	1073799168
 663 0140 00E40040 		.word	1073800192
 664 0144 07000100 		.word	65543
 665              		.cfi_endproc
 666              	.LFE148:
 668              		.section	.text.HAL_TIMEx_HallSensor_Stop,"ax",%progbits
 669              		.align	1
 670              		.global	HAL_TIMEx_HallSensor_Stop
 671              		.syntax unified
 672              		.thumb
 673              		.thumb_func
 675              	HAL_TIMEx_HallSensor_Stop:
 676              	.LFB149:
 376:Drivers/STM32H7xx_HAL_Driver/Src/stm32h7xx_hal_tim_ex.c **** 
 377:Drivers/STM32H7xx_HAL_Driver/Src/stm32h7xx_hal_tim_ex.c **** /**
 378:Drivers/STM32H7xx_HAL_Driver/Src/stm32h7xx_hal_tim_ex.c ****   * @brief  Stops the TIM Hall sensor Interface.
 379:Drivers/STM32H7xx_HAL_Driver/Src/stm32h7xx_hal_tim_ex.c ****   * @param  htim TIM Hall Sensor Interface handle
 380:Drivers/STM32H7xx_HAL_Driver/Src/stm32h7xx_hal_tim_ex.c ****   * @retval HAL status
 381:Drivers/STM32H7xx_HAL_Driver/Src/stm32h7xx_hal_tim_ex.c ****   */
 382:Drivers/STM32H7xx_HAL_Driver/Src/stm32h7xx_hal_tim_ex.c **** HAL_StatusTypeDef HAL_TIMEx_HallSensor_Stop(TIM_HandleTypeDef *htim)
 383:Drivers/STM32H7xx_HAL_Driver/Src/stm32h7xx_hal_tim_ex.c **** {
 677              		.loc 1 383 1
 678              		.cfi_startproc
 679              		@ args = 0, pretend = 0, frame = 8
 680              		@ frame_needed = 1, uses_anonymous_args = 0
 681 0000 80B5     		push	{r7, lr}
 682              	.LCFI27:
 683              		.cfi_def_cfa_offset 8
 684              		.cfi_offset 7, -8
 685              		.cfi_offset 14, -4
 686 0002 82B0     		sub	sp, sp, #8
 687              	.LCFI28:
 688              		.cfi_def_cfa_offset 16
 689 0004 00AF     		add	r7, sp, #0
 690              	.LCFI29:
 691              		.cfi_def_cfa_register 7
 692 0006 7860     		str	r0, [r7, #4]
 384:Drivers/STM32H7xx_HAL_Driver/Src/stm32h7xx_hal_tim_ex.c ****   /* Check the parameters */
 385:Drivers/STM32H7xx_HAL_Driver/Src/stm32h7xx_hal_tim_ex.c ****   assert_param(IS_TIM_HALL_SENSOR_INTERFACE_INSTANCE(htim->Instance));
 386:Drivers/STM32H7xx_HAL_Driver/Src/stm32h7xx_hal_tim_ex.c **** 
 387:Drivers/STM32H7xx_HAL_Driver/Src/stm32h7xx_hal_tim_ex.c ****   /* Disable the Input Capture channels 1, 2 and 3
 388:Drivers/STM32H7xx_HAL_Driver/Src/stm32h7xx_hal_tim_ex.c ****   (in the Hall Sensor Interface the three possible channels that can be used are TIM_CHANNEL_1,
 389:Drivers/STM32H7xx_HAL_Driver/Src/stm32h7xx_hal_tim_ex.c ****   TIM_CHANNEL_2 and TIM_CHANNEL_3) */
 390:Drivers/STM32H7xx_HAL_Driver/Src/stm32h7xx_hal_tim_ex.c ****   TIM_CCxChannelCmd(htim->Instance, TIM_CHANNEL_1, TIM_CCx_DISABLE);
 693              		.loc 1 390 3
 694 0008 7B68     		ldr	r3, [r7, #4]
 695 000a 1B68     		ldr	r3, [r3]
 696 000c 0022     		movs	r2, #0
 697 000e 0021     		movs	r1, #0
 698 0010 1846     		mov	r0, r3
 699 0012 FFF7FEFF 		bl	TIM_CCxChannelCmd
 391:Drivers/STM32H7xx_HAL_Driver/Src/stm32h7xx_hal_tim_ex.c **** 
 392:Drivers/STM32H7xx_HAL_Driver/Src/stm32h7xx_hal_tim_ex.c ****   /* Disable the Peripheral */
 393:Drivers/STM32H7xx_HAL_Driver/Src/stm32h7xx_hal_tim_ex.c ****   __HAL_TIM_DISABLE(htim);
ARM GAS  C:\Users\Su\AppData\Local\Temp\ccm0VnUy.s 			page 20


 700              		.loc 1 393 3
 701 0016 7B68     		ldr	r3, [r7, #4]
 702 0018 1B68     		ldr	r3, [r3]
 703 001a 1A6A     		ldr	r2, [r3, #32]
 704 001c 41F21113 		movw	r3, #4369
 705 0020 1340     		ands	r3, r3, r2
 706 0022 002B     		cmp	r3, #0
 707 0024 0FD1     		bne	.L25
 708              		.loc 1 393 3 is_stmt 0 discriminator 1
 709 0026 7B68     		ldr	r3, [r7, #4]
 710 0028 1B68     		ldr	r3, [r3]
 711 002a 1A6A     		ldr	r2, [r3, #32]
 712 002c 40F24443 		movw	r3, #1092
 713 0030 1340     		ands	r3, r3, r2
 714 0032 002B     		cmp	r3, #0
 715 0034 07D1     		bne	.L25
 716              		.loc 1 393 3 discriminator 2
 717 0036 7B68     		ldr	r3, [r7, #4]
 718 0038 1B68     		ldr	r3, [r3]
 719 003a 1A68     		ldr	r2, [r3]
 720 003c 7B68     		ldr	r3, [r7, #4]
 721 003e 1B68     		ldr	r3, [r3]
 722 0040 22F00102 		bic	r2, r2, #1
 723 0044 1A60     		str	r2, [r3]
 724              	.L25:
 394:Drivers/STM32H7xx_HAL_Driver/Src/stm32h7xx_hal_tim_ex.c **** 
 395:Drivers/STM32H7xx_HAL_Driver/Src/stm32h7xx_hal_tim_ex.c ****   /* Set the TIM channels state */
 396:Drivers/STM32H7xx_HAL_Driver/Src/stm32h7xx_hal_tim_ex.c ****   TIM_CHANNEL_STATE_SET(htim, TIM_CHANNEL_1, HAL_TIM_CHANNEL_STATE_READY);
 725              		.loc 1 396 3 is_stmt 1
 726 0046 7B68     		ldr	r3, [r7, #4]
 727 0048 0122     		movs	r2, #1
 728 004a 83F83E20 		strb	r2, [r3, #62]
 397:Drivers/STM32H7xx_HAL_Driver/Src/stm32h7xx_hal_tim_ex.c ****   TIM_CHANNEL_STATE_SET(htim, TIM_CHANNEL_2, HAL_TIM_CHANNEL_STATE_READY);
 729              		.loc 1 397 3
 730 004e 7B68     		ldr	r3, [r7, #4]
 731 0050 0122     		movs	r2, #1
 732 0052 83F83F20 		strb	r2, [r3, #63]
 398:Drivers/STM32H7xx_HAL_Driver/Src/stm32h7xx_hal_tim_ex.c ****   TIM_CHANNEL_N_STATE_SET(htim, TIM_CHANNEL_1, HAL_TIM_CHANNEL_STATE_READY);
 733              		.loc 1 398 3
 734 0056 7B68     		ldr	r3, [r7, #4]
 735 0058 0122     		movs	r2, #1
 736 005a 83F84420 		strb	r2, [r3, #68]
 399:Drivers/STM32H7xx_HAL_Driver/Src/stm32h7xx_hal_tim_ex.c ****   TIM_CHANNEL_N_STATE_SET(htim, TIM_CHANNEL_2, HAL_TIM_CHANNEL_STATE_READY);
 737              		.loc 1 399 3
 738 005e 7B68     		ldr	r3, [r7, #4]
 739 0060 0122     		movs	r2, #1
 740 0062 83F84520 		strb	r2, [r3, #69]
 400:Drivers/STM32H7xx_HAL_Driver/Src/stm32h7xx_hal_tim_ex.c **** 
 401:Drivers/STM32H7xx_HAL_Driver/Src/stm32h7xx_hal_tim_ex.c ****   /* Return function status */
 402:Drivers/STM32H7xx_HAL_Driver/Src/stm32h7xx_hal_tim_ex.c ****   return HAL_OK;
 741              		.loc 1 402 10
 742 0066 0023     		movs	r3, #0
 403:Drivers/STM32H7xx_HAL_Driver/Src/stm32h7xx_hal_tim_ex.c **** }
 743              		.loc 1 403 1
 744 0068 1846     		mov	r0, r3
 745 006a 0837     		adds	r7, r7, #8
 746              	.LCFI30:
ARM GAS  C:\Users\Su\AppData\Local\Temp\ccm0VnUy.s 			page 21


 747              		.cfi_def_cfa_offset 8
 748 006c BD46     		mov	sp, r7
 749              	.LCFI31:
 750              		.cfi_def_cfa_register 13
 751              		@ sp needed
 752 006e 80BD     		pop	{r7, pc}
 753              		.cfi_endproc
 754              	.LFE149:
 756              		.section	.text.HAL_TIMEx_HallSensor_Start_IT,"ax",%progbits
 757              		.align	1
 758              		.global	HAL_TIMEx_HallSensor_Start_IT
 759              		.syntax unified
 760              		.thumb
 761              		.thumb_func
 763              	HAL_TIMEx_HallSensor_Start_IT:
 764              	.LFB150:
 404:Drivers/STM32H7xx_HAL_Driver/Src/stm32h7xx_hal_tim_ex.c **** 
 405:Drivers/STM32H7xx_HAL_Driver/Src/stm32h7xx_hal_tim_ex.c **** /**
 406:Drivers/STM32H7xx_HAL_Driver/Src/stm32h7xx_hal_tim_ex.c ****   * @brief  Starts the TIM Hall Sensor Interface in interrupt mode.
 407:Drivers/STM32H7xx_HAL_Driver/Src/stm32h7xx_hal_tim_ex.c ****   * @param  htim TIM Hall Sensor Interface handle
 408:Drivers/STM32H7xx_HAL_Driver/Src/stm32h7xx_hal_tim_ex.c ****   * @retval HAL status
 409:Drivers/STM32H7xx_HAL_Driver/Src/stm32h7xx_hal_tim_ex.c ****   */
 410:Drivers/STM32H7xx_HAL_Driver/Src/stm32h7xx_hal_tim_ex.c **** HAL_StatusTypeDef HAL_TIMEx_HallSensor_Start_IT(TIM_HandleTypeDef *htim)
 411:Drivers/STM32H7xx_HAL_Driver/Src/stm32h7xx_hal_tim_ex.c **** {
 765              		.loc 1 411 1
 766              		.cfi_startproc
 767              		@ args = 0, pretend = 0, frame = 16
 768              		@ frame_needed = 1, uses_anonymous_args = 0
 769 0000 80B5     		push	{r7, lr}
 770              	.LCFI32:
 771              		.cfi_def_cfa_offset 8
 772              		.cfi_offset 7, -8
 773              		.cfi_offset 14, -4
 774 0002 84B0     		sub	sp, sp, #16
 775              	.LCFI33:
 776              		.cfi_def_cfa_offset 24
 777 0004 00AF     		add	r7, sp, #0
 778              	.LCFI34:
 779              		.cfi_def_cfa_register 7
 780 0006 7860     		str	r0, [r7, #4]
 412:Drivers/STM32H7xx_HAL_Driver/Src/stm32h7xx_hal_tim_ex.c ****   uint32_t tmpsmcr;
 413:Drivers/STM32H7xx_HAL_Driver/Src/stm32h7xx_hal_tim_ex.c ****   HAL_TIM_ChannelStateTypeDef channel_1_state = TIM_CHANNEL_STATE_GET(htim, TIM_CHANNEL_1);
 781              		.loc 1 413 31
 782 0008 7B68     		ldr	r3, [r7, #4]
 783 000a 93F83E30 		ldrb	r3, [r3, #62]
 784 000e FB73     		strb	r3, [r7, #15]
 414:Drivers/STM32H7xx_HAL_Driver/Src/stm32h7xx_hal_tim_ex.c ****   HAL_TIM_ChannelStateTypeDef channel_2_state = TIM_CHANNEL_STATE_GET(htim, TIM_CHANNEL_2);
 785              		.loc 1 414 31
 786 0010 7B68     		ldr	r3, [r7, #4]
 787 0012 93F83F30 		ldrb	r3, [r3, #63]
 788 0016 BB73     		strb	r3, [r7, #14]
 415:Drivers/STM32H7xx_HAL_Driver/Src/stm32h7xx_hal_tim_ex.c ****   HAL_TIM_ChannelStateTypeDef complementary_channel_1_state = TIM_CHANNEL_N_STATE_GET(htim, TIM_CHA
 789              		.loc 1 415 31
 790 0018 7B68     		ldr	r3, [r7, #4]
 791 001a 93F84430 		ldrb	r3, [r3, #68]
 792 001e 7B73     		strb	r3, [r7, #13]
 416:Drivers/STM32H7xx_HAL_Driver/Src/stm32h7xx_hal_tim_ex.c ****   HAL_TIM_ChannelStateTypeDef complementary_channel_2_state = TIM_CHANNEL_N_STATE_GET(htim, TIM_CHA
ARM GAS  C:\Users\Su\AppData\Local\Temp\ccm0VnUy.s 			page 22


 793              		.loc 1 416 31
 794 0020 7B68     		ldr	r3, [r7, #4]
 795 0022 93F84530 		ldrb	r3, [r3, #69]
 796 0026 3B73     		strb	r3, [r7, #12]
 417:Drivers/STM32H7xx_HAL_Driver/Src/stm32h7xx_hal_tim_ex.c **** 
 418:Drivers/STM32H7xx_HAL_Driver/Src/stm32h7xx_hal_tim_ex.c ****   /* Check the parameters */
 419:Drivers/STM32H7xx_HAL_Driver/Src/stm32h7xx_hal_tim_ex.c ****   assert_param(IS_TIM_HALL_SENSOR_INTERFACE_INSTANCE(htim->Instance));
 420:Drivers/STM32H7xx_HAL_Driver/Src/stm32h7xx_hal_tim_ex.c **** 
 421:Drivers/STM32H7xx_HAL_Driver/Src/stm32h7xx_hal_tim_ex.c ****   /* Check the TIM channels state */
 422:Drivers/STM32H7xx_HAL_Driver/Src/stm32h7xx_hal_tim_ex.c ****   if ((channel_1_state != HAL_TIM_CHANNEL_STATE_READY)
 797              		.loc 1 422 6
 798 0028 FB7B     		ldrb	r3, [r7, #15]	@ zero_extendqisi2
 799 002a 012B     		cmp	r3, #1
 800 002c 08D1     		bne	.L28
 423:Drivers/STM32H7xx_HAL_Driver/Src/stm32h7xx_hal_tim_ex.c ****       || (channel_2_state != HAL_TIM_CHANNEL_STATE_READY)
 801              		.loc 1 423 7
 802 002e BB7B     		ldrb	r3, [r7, #14]	@ zero_extendqisi2
 803 0030 012B     		cmp	r3, #1
 804 0032 05D1     		bne	.L28
 424:Drivers/STM32H7xx_HAL_Driver/Src/stm32h7xx_hal_tim_ex.c ****       || (complementary_channel_1_state != HAL_TIM_CHANNEL_STATE_READY)
 805              		.loc 1 424 7
 806 0034 7B7B     		ldrb	r3, [r7, #13]	@ zero_extendqisi2
 807 0036 012B     		cmp	r3, #1
 808 0038 02D1     		bne	.L28
 425:Drivers/STM32H7xx_HAL_Driver/Src/stm32h7xx_hal_tim_ex.c ****       || (complementary_channel_2_state != HAL_TIM_CHANNEL_STATE_READY))
 809              		.loc 1 425 7
 810 003a 3B7B     		ldrb	r3, [r7, #12]	@ zero_extendqisi2
 811 003c 012B     		cmp	r3, #1
 812 003e 01D0     		beq	.L29
 813              	.L28:
 426:Drivers/STM32H7xx_HAL_Driver/Src/stm32h7xx_hal_tim_ex.c ****   {
 427:Drivers/STM32H7xx_HAL_Driver/Src/stm32h7xx_hal_tim_ex.c ****     return HAL_ERROR;
 814              		.loc 1 427 12
 815 0040 0123     		movs	r3, #1
 816 0042 71E0     		b	.L30
 817              	.L29:
 428:Drivers/STM32H7xx_HAL_Driver/Src/stm32h7xx_hal_tim_ex.c ****   }
 429:Drivers/STM32H7xx_HAL_Driver/Src/stm32h7xx_hal_tim_ex.c **** 
 430:Drivers/STM32H7xx_HAL_Driver/Src/stm32h7xx_hal_tim_ex.c ****   /* Set the TIM channels state */
 431:Drivers/STM32H7xx_HAL_Driver/Src/stm32h7xx_hal_tim_ex.c ****   TIM_CHANNEL_STATE_SET(htim, TIM_CHANNEL_1, HAL_TIM_CHANNEL_STATE_BUSY);
 818              		.loc 1 431 3
 819 0044 7B68     		ldr	r3, [r7, #4]
 820 0046 0222     		movs	r2, #2
 821 0048 83F83E20 		strb	r2, [r3, #62]
 432:Drivers/STM32H7xx_HAL_Driver/Src/stm32h7xx_hal_tim_ex.c ****   TIM_CHANNEL_STATE_SET(htim, TIM_CHANNEL_2, HAL_TIM_CHANNEL_STATE_BUSY);
 822              		.loc 1 432 3
 823 004c 7B68     		ldr	r3, [r7, #4]
 824 004e 0222     		movs	r2, #2
 825 0050 83F83F20 		strb	r2, [r3, #63]
 433:Drivers/STM32H7xx_HAL_Driver/Src/stm32h7xx_hal_tim_ex.c ****   TIM_CHANNEL_N_STATE_SET(htim, TIM_CHANNEL_1, HAL_TIM_CHANNEL_STATE_BUSY);
 826              		.loc 1 433 3
 827 0054 7B68     		ldr	r3, [r7, #4]
 828 0056 0222     		movs	r2, #2
 829 0058 83F84420 		strb	r2, [r3, #68]
 434:Drivers/STM32H7xx_HAL_Driver/Src/stm32h7xx_hal_tim_ex.c ****   TIM_CHANNEL_N_STATE_SET(htim, TIM_CHANNEL_2, HAL_TIM_CHANNEL_STATE_BUSY);
 830              		.loc 1 434 3
 831 005c 7B68     		ldr	r3, [r7, #4]
ARM GAS  C:\Users\Su\AppData\Local\Temp\ccm0VnUy.s 			page 23


 832 005e 0222     		movs	r2, #2
 833 0060 83F84520 		strb	r2, [r3, #69]
 435:Drivers/STM32H7xx_HAL_Driver/Src/stm32h7xx_hal_tim_ex.c **** 
 436:Drivers/STM32H7xx_HAL_Driver/Src/stm32h7xx_hal_tim_ex.c ****   /* Enable the capture compare Interrupts 1 event */
 437:Drivers/STM32H7xx_HAL_Driver/Src/stm32h7xx_hal_tim_ex.c ****   __HAL_TIM_ENABLE_IT(htim, TIM_IT_CC1);
 834              		.loc 1 437 3
 835 0064 7B68     		ldr	r3, [r7, #4]
 836 0066 1B68     		ldr	r3, [r3]
 837 0068 DA68     		ldr	r2, [r3, #12]
 838 006a 7B68     		ldr	r3, [r7, #4]
 839 006c 1B68     		ldr	r3, [r3]
 840 006e 42F00202 		orr	r2, r2, #2
 841 0072 DA60     		str	r2, [r3, #12]
 438:Drivers/STM32H7xx_HAL_Driver/Src/stm32h7xx_hal_tim_ex.c **** 
 439:Drivers/STM32H7xx_HAL_Driver/Src/stm32h7xx_hal_tim_ex.c ****   /* Enable the Input Capture channel 1
 440:Drivers/STM32H7xx_HAL_Driver/Src/stm32h7xx_hal_tim_ex.c ****   (in the Hall Sensor Interface the three possible channels that can be used are TIM_CHANNEL_1,
 441:Drivers/STM32H7xx_HAL_Driver/Src/stm32h7xx_hal_tim_ex.c ****   TIM_CHANNEL_2 and TIM_CHANNEL_3) */
 442:Drivers/STM32H7xx_HAL_Driver/Src/stm32h7xx_hal_tim_ex.c ****   TIM_CCxChannelCmd(htim->Instance, TIM_CHANNEL_1, TIM_CCx_ENABLE);
 842              		.loc 1 442 3
 843 0074 7B68     		ldr	r3, [r7, #4]
 844 0076 1B68     		ldr	r3, [r3]
 845 0078 0122     		movs	r2, #1
 846 007a 0021     		movs	r1, #0
 847 007c 1846     		mov	r0, r3
 848 007e FFF7FEFF 		bl	TIM_CCxChannelCmd
 443:Drivers/STM32H7xx_HAL_Driver/Src/stm32h7xx_hal_tim_ex.c **** 
 444:Drivers/STM32H7xx_HAL_Driver/Src/stm32h7xx_hal_tim_ex.c ****   /* Enable the Peripheral, except in trigger mode where enable is automatically done with trigger 
 445:Drivers/STM32H7xx_HAL_Driver/Src/stm32h7xx_hal_tim_ex.c ****   if (IS_TIM_SLAVE_INSTANCE(htim->Instance))
 849              		.loc 1 445 7
 850 0082 7B68     		ldr	r3, [r7, #4]
 851 0084 1B68     		ldr	r3, [r3]
 852              		.loc 1 445 6
 853 0086 2A4A     		ldr	r2, .L36
 854 0088 9342     		cmp	r3, r2
 855 008a 2CD0     		beq	.L31
 856              		.loc 1 445 7 discriminator 1
 857 008c 7B68     		ldr	r3, [r7, #4]
 858 008e 1B68     		ldr	r3, [r3]
 859 0090 B3F1804F 		cmp	r3, #1073741824
 860 0094 27D0     		beq	.L31
 861              		.loc 1 445 7 is_stmt 0 discriminator 2
 862 0096 7B68     		ldr	r3, [r7, #4]
 863 0098 1B68     		ldr	r3, [r3]
 864 009a 264A     		ldr	r2, .L36+4
 865 009c 9342     		cmp	r3, r2
 866 009e 22D0     		beq	.L31
 867              		.loc 1 445 7 discriminator 3
 868 00a0 7B68     		ldr	r3, [r7, #4]
 869 00a2 1B68     		ldr	r3, [r3]
 870 00a4 244A     		ldr	r2, .L36+8
 871 00a6 9342     		cmp	r3, r2
 872 00a8 1DD0     		beq	.L31
 873              		.loc 1 445 7 discriminator 4
 874 00aa 7B68     		ldr	r3, [r7, #4]
 875 00ac 1B68     		ldr	r3, [r3]
 876 00ae 234A     		ldr	r2, .L36+12
 877 00b0 9342     		cmp	r3, r2
ARM GAS  C:\Users\Su\AppData\Local\Temp\ccm0VnUy.s 			page 24


 878 00b2 18D0     		beq	.L31
 879              		.loc 1 445 7 discriminator 5
 880 00b4 7B68     		ldr	r3, [r7, #4]
 881 00b6 1B68     		ldr	r3, [r3]
 882 00b8 214A     		ldr	r2, .L36+16
 883 00ba 9342     		cmp	r3, r2
 884 00bc 13D0     		beq	.L31
 885              		.loc 1 445 7 discriminator 6
 886 00be 7B68     		ldr	r3, [r7, #4]
 887 00c0 1B68     		ldr	r3, [r3]
 888 00c2 204A     		ldr	r2, .L36+20
 889 00c4 9342     		cmp	r3, r2
 890 00c6 0ED0     		beq	.L31
 891              		.loc 1 445 7 discriminator 7
 892 00c8 7B68     		ldr	r3, [r7, #4]
 893 00ca 1B68     		ldr	r3, [r3]
 894 00cc 1E4A     		ldr	r2, .L36+24
 895 00ce 9342     		cmp	r3, r2
 896 00d0 09D0     		beq	.L31
 897              		.loc 1 445 7 discriminator 8
 898 00d2 7B68     		ldr	r3, [r7, #4]
 899 00d4 1B68     		ldr	r3, [r3]
 900 00d6 1D4A     		ldr	r2, .L36+28
 901 00d8 9342     		cmp	r3, r2
 902 00da 04D0     		beq	.L31
 903              		.loc 1 445 7 discriminator 9
 904 00dc 7B68     		ldr	r3, [r7, #4]
 905 00de 1B68     		ldr	r3, [r3]
 906 00e0 1B4A     		ldr	r2, .L36+32
 907 00e2 9342     		cmp	r3, r2
 908 00e4 15D1     		bne	.L32
 909              	.L31:
 446:Drivers/STM32H7xx_HAL_Driver/Src/stm32h7xx_hal_tim_ex.c ****   {
 447:Drivers/STM32H7xx_HAL_Driver/Src/stm32h7xx_hal_tim_ex.c ****     tmpsmcr = htim->Instance->SMCR & TIM_SMCR_SMS;
 910              		.loc 1 447 19 is_stmt 1
 911 00e6 7B68     		ldr	r3, [r7, #4]
 912 00e8 1B68     		ldr	r3, [r3]
 913              		.loc 1 447 29
 914 00ea 9A68     		ldr	r2, [r3, #8]
 915              		.loc 1 447 13
 916 00ec 194B     		ldr	r3, .L36+36
 917 00ee 1340     		ands	r3, r3, r2
 918 00f0 BB60     		str	r3, [r7, #8]
 448:Drivers/STM32H7xx_HAL_Driver/Src/stm32h7xx_hal_tim_ex.c ****     if (!IS_TIM_SLAVEMODE_TRIGGER_ENABLED(tmpsmcr))
 919              		.loc 1 448 8
 920 00f2 BB68     		ldr	r3, [r7, #8]
 921 00f4 062B     		cmp	r3, #6
 922 00f6 15D0     		beq	.L35
 923              		.loc 1 448 9 discriminator 1
 924 00f8 BB68     		ldr	r3, [r7, #8]
 925 00fa B3F5803F 		cmp	r3, #65536
 926 00fe 11D0     		beq	.L35
 449:Drivers/STM32H7xx_HAL_Driver/Src/stm32h7xx_hal_tim_ex.c ****     {
 450:Drivers/STM32H7xx_HAL_Driver/Src/stm32h7xx_hal_tim_ex.c ****       __HAL_TIM_ENABLE(htim);
 927              		.loc 1 450 7
 928 0100 7B68     		ldr	r3, [r7, #4]
 929 0102 1B68     		ldr	r3, [r3]
ARM GAS  C:\Users\Su\AppData\Local\Temp\ccm0VnUy.s 			page 25


 930 0104 1A68     		ldr	r2, [r3]
 931 0106 7B68     		ldr	r3, [r7, #4]
 932 0108 1B68     		ldr	r3, [r3]
 933 010a 42F00102 		orr	r2, r2, #1
 934 010e 1A60     		str	r2, [r3]
 448:Drivers/STM32H7xx_HAL_Driver/Src/stm32h7xx_hal_tim_ex.c ****     if (!IS_TIM_SLAVEMODE_TRIGGER_ENABLED(tmpsmcr))
 935              		.loc 1 448 8
 936 0110 08E0     		b	.L35
 937              	.L32:
 451:Drivers/STM32H7xx_HAL_Driver/Src/stm32h7xx_hal_tim_ex.c ****     }
 452:Drivers/STM32H7xx_HAL_Driver/Src/stm32h7xx_hal_tim_ex.c ****   }
 453:Drivers/STM32H7xx_HAL_Driver/Src/stm32h7xx_hal_tim_ex.c ****   else
 454:Drivers/STM32H7xx_HAL_Driver/Src/stm32h7xx_hal_tim_ex.c ****   {
 455:Drivers/STM32H7xx_HAL_Driver/Src/stm32h7xx_hal_tim_ex.c ****     __HAL_TIM_ENABLE(htim);
 938              		.loc 1 455 5
 939 0112 7B68     		ldr	r3, [r7, #4]
 940 0114 1B68     		ldr	r3, [r3]
 941 0116 1A68     		ldr	r2, [r3]
 942 0118 7B68     		ldr	r3, [r7, #4]
 943 011a 1B68     		ldr	r3, [r3]
 944 011c 42F00102 		orr	r2, r2, #1
 945 0120 1A60     		str	r2, [r3]
 946 0122 00E0     		b	.L34
 947              	.L35:
 448:Drivers/STM32H7xx_HAL_Driver/Src/stm32h7xx_hal_tim_ex.c ****     {
 948              		.loc 1 448 8
 949 0124 00BF     		nop
 950              	.L34:
 456:Drivers/STM32H7xx_HAL_Driver/Src/stm32h7xx_hal_tim_ex.c ****   }
 457:Drivers/STM32H7xx_HAL_Driver/Src/stm32h7xx_hal_tim_ex.c **** 
 458:Drivers/STM32H7xx_HAL_Driver/Src/stm32h7xx_hal_tim_ex.c ****   /* Return function status */
 459:Drivers/STM32H7xx_HAL_Driver/Src/stm32h7xx_hal_tim_ex.c ****   return HAL_OK;
 951              		.loc 1 459 10
 952 0126 0023     		movs	r3, #0
 953              	.L30:
 460:Drivers/STM32H7xx_HAL_Driver/Src/stm32h7xx_hal_tim_ex.c **** }
 954              		.loc 1 460 1
 955 0128 1846     		mov	r0, r3
 956 012a 1037     		adds	r7, r7, #16
 957              	.LCFI35:
 958              		.cfi_def_cfa_offset 8
 959 012c BD46     		mov	sp, r7
 960              	.LCFI36:
 961              		.cfi_def_cfa_register 13
 962              		@ sp needed
 963 012e 80BD     		pop	{r7, pc}
 964              	.L37:
 965              		.align	2
 966              	.L36:
 967 0130 00000140 		.word	1073807360
 968 0134 00040040 		.word	1073742848
 969 0138 00080040 		.word	1073743872
 970 013c 000C0040 		.word	1073744896
 971 0140 00040140 		.word	1073808384
 972 0144 00180040 		.word	1073747968
 973 0148 00400140 		.word	1073823744
 974 014c 00E00040 		.word	1073799168
ARM GAS  C:\Users\Su\AppData\Local\Temp\ccm0VnUy.s 			page 26


 975 0150 00E40040 		.word	1073800192
 976 0154 07000100 		.word	65543
 977              		.cfi_endproc
 978              	.LFE150:
 980              		.section	.text.HAL_TIMEx_HallSensor_Stop_IT,"ax",%progbits
 981              		.align	1
 982              		.global	HAL_TIMEx_HallSensor_Stop_IT
 983              		.syntax unified
 984              		.thumb
 985              		.thumb_func
 987              	HAL_TIMEx_HallSensor_Stop_IT:
 988              	.LFB151:
 461:Drivers/STM32H7xx_HAL_Driver/Src/stm32h7xx_hal_tim_ex.c **** 
 462:Drivers/STM32H7xx_HAL_Driver/Src/stm32h7xx_hal_tim_ex.c **** /**
 463:Drivers/STM32H7xx_HAL_Driver/Src/stm32h7xx_hal_tim_ex.c ****   * @brief  Stops the TIM Hall Sensor Interface in interrupt mode.
 464:Drivers/STM32H7xx_HAL_Driver/Src/stm32h7xx_hal_tim_ex.c ****   * @param  htim TIM Hall Sensor Interface handle
 465:Drivers/STM32H7xx_HAL_Driver/Src/stm32h7xx_hal_tim_ex.c ****   * @retval HAL status
 466:Drivers/STM32H7xx_HAL_Driver/Src/stm32h7xx_hal_tim_ex.c ****   */
 467:Drivers/STM32H7xx_HAL_Driver/Src/stm32h7xx_hal_tim_ex.c **** HAL_StatusTypeDef HAL_TIMEx_HallSensor_Stop_IT(TIM_HandleTypeDef *htim)
 468:Drivers/STM32H7xx_HAL_Driver/Src/stm32h7xx_hal_tim_ex.c **** {
 989              		.loc 1 468 1
 990              		.cfi_startproc
 991              		@ args = 0, pretend = 0, frame = 8
 992              		@ frame_needed = 1, uses_anonymous_args = 0
 993 0000 80B5     		push	{r7, lr}
 994              	.LCFI37:
 995              		.cfi_def_cfa_offset 8
 996              		.cfi_offset 7, -8
 997              		.cfi_offset 14, -4
 998 0002 82B0     		sub	sp, sp, #8
 999              	.LCFI38:
 1000              		.cfi_def_cfa_offset 16
 1001 0004 00AF     		add	r7, sp, #0
 1002              	.LCFI39:
 1003              		.cfi_def_cfa_register 7
 1004 0006 7860     		str	r0, [r7, #4]
 469:Drivers/STM32H7xx_HAL_Driver/Src/stm32h7xx_hal_tim_ex.c ****   /* Check the parameters */
 470:Drivers/STM32H7xx_HAL_Driver/Src/stm32h7xx_hal_tim_ex.c ****   assert_param(IS_TIM_HALL_SENSOR_INTERFACE_INSTANCE(htim->Instance));
 471:Drivers/STM32H7xx_HAL_Driver/Src/stm32h7xx_hal_tim_ex.c **** 
 472:Drivers/STM32H7xx_HAL_Driver/Src/stm32h7xx_hal_tim_ex.c ****   /* Disable the Input Capture channel 1
 473:Drivers/STM32H7xx_HAL_Driver/Src/stm32h7xx_hal_tim_ex.c ****   (in the Hall Sensor Interface the three possible channels that can be used are TIM_CHANNEL_1,
 474:Drivers/STM32H7xx_HAL_Driver/Src/stm32h7xx_hal_tim_ex.c ****   TIM_CHANNEL_2 and TIM_CHANNEL_3) */
 475:Drivers/STM32H7xx_HAL_Driver/Src/stm32h7xx_hal_tim_ex.c ****   TIM_CCxChannelCmd(htim->Instance, TIM_CHANNEL_1, TIM_CCx_DISABLE);
 1005              		.loc 1 475 3
 1006 0008 7B68     		ldr	r3, [r7, #4]
 1007 000a 1B68     		ldr	r3, [r3]
 1008 000c 0022     		movs	r2, #0
 1009 000e 0021     		movs	r1, #0
 1010 0010 1846     		mov	r0, r3
 1011 0012 FFF7FEFF 		bl	TIM_CCxChannelCmd
 476:Drivers/STM32H7xx_HAL_Driver/Src/stm32h7xx_hal_tim_ex.c **** 
 477:Drivers/STM32H7xx_HAL_Driver/Src/stm32h7xx_hal_tim_ex.c ****   /* Disable the capture compare Interrupts event */
 478:Drivers/STM32H7xx_HAL_Driver/Src/stm32h7xx_hal_tim_ex.c ****   __HAL_TIM_DISABLE_IT(htim, TIM_IT_CC1);
 1012              		.loc 1 478 3
 1013 0016 7B68     		ldr	r3, [r7, #4]
 1014 0018 1B68     		ldr	r3, [r3]
 1015 001a DA68     		ldr	r2, [r3, #12]
ARM GAS  C:\Users\Su\AppData\Local\Temp\ccm0VnUy.s 			page 27


 1016 001c 7B68     		ldr	r3, [r7, #4]
 1017 001e 1B68     		ldr	r3, [r3]
 1018 0020 22F00202 		bic	r2, r2, #2
 1019 0024 DA60     		str	r2, [r3, #12]
 479:Drivers/STM32H7xx_HAL_Driver/Src/stm32h7xx_hal_tim_ex.c **** 
 480:Drivers/STM32H7xx_HAL_Driver/Src/stm32h7xx_hal_tim_ex.c ****   /* Disable the Peripheral */
 481:Drivers/STM32H7xx_HAL_Driver/Src/stm32h7xx_hal_tim_ex.c ****   __HAL_TIM_DISABLE(htim);
 1020              		.loc 1 481 3
 1021 0026 7B68     		ldr	r3, [r7, #4]
 1022 0028 1B68     		ldr	r3, [r3]
 1023 002a 1A6A     		ldr	r2, [r3, #32]
 1024 002c 41F21113 		movw	r3, #4369
 1025 0030 1340     		ands	r3, r3, r2
 1026 0032 002B     		cmp	r3, #0
 1027 0034 0FD1     		bne	.L39
 1028              		.loc 1 481 3 is_stmt 0 discriminator 1
 1029 0036 7B68     		ldr	r3, [r7, #4]
 1030 0038 1B68     		ldr	r3, [r3]
 1031 003a 1A6A     		ldr	r2, [r3, #32]
 1032 003c 40F24443 		movw	r3, #1092
 1033 0040 1340     		ands	r3, r3, r2
 1034 0042 002B     		cmp	r3, #0
 1035 0044 07D1     		bne	.L39
 1036              		.loc 1 481 3 discriminator 2
 1037 0046 7B68     		ldr	r3, [r7, #4]
 1038 0048 1B68     		ldr	r3, [r3]
 1039 004a 1A68     		ldr	r2, [r3]
 1040 004c 7B68     		ldr	r3, [r7, #4]
 1041 004e 1B68     		ldr	r3, [r3]
 1042 0050 22F00102 		bic	r2, r2, #1
 1043 0054 1A60     		str	r2, [r3]
 1044              	.L39:
 482:Drivers/STM32H7xx_HAL_Driver/Src/stm32h7xx_hal_tim_ex.c **** 
 483:Drivers/STM32H7xx_HAL_Driver/Src/stm32h7xx_hal_tim_ex.c ****   /* Set the TIM channels state */
 484:Drivers/STM32H7xx_HAL_Driver/Src/stm32h7xx_hal_tim_ex.c ****   TIM_CHANNEL_STATE_SET(htim, TIM_CHANNEL_1, HAL_TIM_CHANNEL_STATE_READY);
 1045              		.loc 1 484 3 is_stmt 1
 1046 0056 7B68     		ldr	r3, [r7, #4]
 1047 0058 0122     		movs	r2, #1
 1048 005a 83F83E20 		strb	r2, [r3, #62]
 485:Drivers/STM32H7xx_HAL_Driver/Src/stm32h7xx_hal_tim_ex.c ****   TIM_CHANNEL_STATE_SET(htim, TIM_CHANNEL_2, HAL_TIM_CHANNEL_STATE_READY);
 1049              		.loc 1 485 3
 1050 005e 7B68     		ldr	r3, [r7, #4]
 1051 0060 0122     		movs	r2, #1
 1052 0062 83F83F20 		strb	r2, [r3, #63]
 486:Drivers/STM32H7xx_HAL_Driver/Src/stm32h7xx_hal_tim_ex.c ****   TIM_CHANNEL_N_STATE_SET(htim, TIM_CHANNEL_1, HAL_TIM_CHANNEL_STATE_READY);
 1053              		.loc 1 486 3
 1054 0066 7B68     		ldr	r3, [r7, #4]
 1055 0068 0122     		movs	r2, #1
 1056 006a 83F84420 		strb	r2, [r3, #68]
 487:Drivers/STM32H7xx_HAL_Driver/Src/stm32h7xx_hal_tim_ex.c ****   TIM_CHANNEL_N_STATE_SET(htim, TIM_CHANNEL_2, HAL_TIM_CHANNEL_STATE_READY);
 1057              		.loc 1 487 3
 1058 006e 7B68     		ldr	r3, [r7, #4]
 1059 0070 0122     		movs	r2, #1
 1060 0072 83F84520 		strb	r2, [r3, #69]
 488:Drivers/STM32H7xx_HAL_Driver/Src/stm32h7xx_hal_tim_ex.c **** 
 489:Drivers/STM32H7xx_HAL_Driver/Src/stm32h7xx_hal_tim_ex.c ****   /* Return function status */
 490:Drivers/STM32H7xx_HAL_Driver/Src/stm32h7xx_hal_tim_ex.c ****   return HAL_OK;
ARM GAS  C:\Users\Su\AppData\Local\Temp\ccm0VnUy.s 			page 28


 1061              		.loc 1 490 10
 1062 0076 0023     		movs	r3, #0
 491:Drivers/STM32H7xx_HAL_Driver/Src/stm32h7xx_hal_tim_ex.c **** }
 1063              		.loc 1 491 1
 1064 0078 1846     		mov	r0, r3
 1065 007a 0837     		adds	r7, r7, #8
 1066              	.LCFI40:
 1067              		.cfi_def_cfa_offset 8
 1068 007c BD46     		mov	sp, r7
 1069              	.LCFI41:
 1070              		.cfi_def_cfa_register 13
 1071              		@ sp needed
 1072 007e 80BD     		pop	{r7, pc}
 1073              		.cfi_endproc
 1074              	.LFE151:
 1076              		.section	.text.HAL_TIMEx_HallSensor_Start_DMA,"ax",%progbits
 1077              		.align	1
 1078              		.global	HAL_TIMEx_HallSensor_Start_DMA
 1079              		.syntax unified
 1080              		.thumb
 1081              		.thumb_func
 1083              	HAL_TIMEx_HallSensor_Start_DMA:
 1084              	.LFB152:
 492:Drivers/STM32H7xx_HAL_Driver/Src/stm32h7xx_hal_tim_ex.c **** 
 493:Drivers/STM32H7xx_HAL_Driver/Src/stm32h7xx_hal_tim_ex.c **** /**
 494:Drivers/STM32H7xx_HAL_Driver/Src/stm32h7xx_hal_tim_ex.c ****   * @brief  Starts the TIM Hall Sensor Interface in DMA mode.
 495:Drivers/STM32H7xx_HAL_Driver/Src/stm32h7xx_hal_tim_ex.c ****   * @param  htim TIM Hall Sensor Interface handle
 496:Drivers/STM32H7xx_HAL_Driver/Src/stm32h7xx_hal_tim_ex.c ****   * @param  pData The destination Buffer address.
 497:Drivers/STM32H7xx_HAL_Driver/Src/stm32h7xx_hal_tim_ex.c ****   * @param  Length The length of data to be transferred from TIM peripheral to memory.
 498:Drivers/STM32H7xx_HAL_Driver/Src/stm32h7xx_hal_tim_ex.c ****   * @retval HAL status
 499:Drivers/STM32H7xx_HAL_Driver/Src/stm32h7xx_hal_tim_ex.c ****   */
 500:Drivers/STM32H7xx_HAL_Driver/Src/stm32h7xx_hal_tim_ex.c **** HAL_StatusTypeDef HAL_TIMEx_HallSensor_Start_DMA(TIM_HandleTypeDef *htim, uint32_t *pData, uint16_t
 501:Drivers/STM32H7xx_HAL_Driver/Src/stm32h7xx_hal_tim_ex.c **** {
 1085              		.loc 1 501 1
 1086              		.cfi_startproc
 1087              		@ args = 0, pretend = 0, frame = 24
 1088              		@ frame_needed = 1, uses_anonymous_args = 0
 1089 0000 80B5     		push	{r7, lr}
 1090              	.LCFI42:
 1091              		.cfi_def_cfa_offset 8
 1092              		.cfi_offset 7, -8
 1093              		.cfi_offset 14, -4
 1094 0002 86B0     		sub	sp, sp, #24
 1095              	.LCFI43:
 1096              		.cfi_def_cfa_offset 32
 1097 0004 00AF     		add	r7, sp, #0
 1098              	.LCFI44:
 1099              		.cfi_def_cfa_register 7
 1100 0006 F860     		str	r0, [r7, #12]
 1101 0008 B960     		str	r1, [r7, #8]
 1102 000a 1346     		mov	r3, r2
 1103 000c FB80     		strh	r3, [r7, #6]	@ movhi
 502:Drivers/STM32H7xx_HAL_Driver/Src/stm32h7xx_hal_tim_ex.c ****   uint32_t tmpsmcr;
 503:Drivers/STM32H7xx_HAL_Driver/Src/stm32h7xx_hal_tim_ex.c ****   HAL_TIM_ChannelStateTypeDef channel_1_state = TIM_CHANNEL_STATE_GET(htim, TIM_CHANNEL_1);
 1104              		.loc 1 503 31
 1105 000e FB68     		ldr	r3, [r7, #12]
 1106 0010 93F83E30 		ldrb	r3, [r3, #62]
ARM GAS  C:\Users\Su\AppData\Local\Temp\ccm0VnUy.s 			page 29


 1107 0014 FB75     		strb	r3, [r7, #23]
 504:Drivers/STM32H7xx_HAL_Driver/Src/stm32h7xx_hal_tim_ex.c ****   HAL_TIM_ChannelStateTypeDef complementary_channel_1_state = TIM_CHANNEL_N_STATE_GET(htim, TIM_CHA
 1108              		.loc 1 504 31
 1109 0016 FB68     		ldr	r3, [r7, #12]
 1110 0018 93F84430 		ldrb	r3, [r3, #68]
 1111 001c BB75     		strb	r3, [r7, #22]
 505:Drivers/STM32H7xx_HAL_Driver/Src/stm32h7xx_hal_tim_ex.c **** 
 506:Drivers/STM32H7xx_HAL_Driver/Src/stm32h7xx_hal_tim_ex.c ****   /* Check the parameters */
 507:Drivers/STM32H7xx_HAL_Driver/Src/stm32h7xx_hal_tim_ex.c ****   assert_param(IS_TIM_HALL_SENSOR_INTERFACE_INSTANCE(htim->Instance));
 508:Drivers/STM32H7xx_HAL_Driver/Src/stm32h7xx_hal_tim_ex.c **** 
 509:Drivers/STM32H7xx_HAL_Driver/Src/stm32h7xx_hal_tim_ex.c ****   /* Set the TIM channel state */
 510:Drivers/STM32H7xx_HAL_Driver/Src/stm32h7xx_hal_tim_ex.c ****   if ((channel_1_state == HAL_TIM_CHANNEL_STATE_BUSY)
 1112              		.loc 1 510 6
 1113 001e FB7D     		ldrb	r3, [r7, #23]	@ zero_extendqisi2
 1114 0020 022B     		cmp	r3, #2
 1115 0022 02D0     		beq	.L42
 511:Drivers/STM32H7xx_HAL_Driver/Src/stm32h7xx_hal_tim_ex.c ****       || (complementary_channel_1_state == HAL_TIM_CHANNEL_STATE_BUSY))
 1116              		.loc 1 511 7
 1117 0024 BB7D     		ldrb	r3, [r7, #22]	@ zero_extendqisi2
 1118 0026 022B     		cmp	r3, #2
 1119 0028 01D1     		bne	.L43
 1120              	.L42:
 512:Drivers/STM32H7xx_HAL_Driver/Src/stm32h7xx_hal_tim_ex.c ****   {
 513:Drivers/STM32H7xx_HAL_Driver/Src/stm32h7xx_hal_tim_ex.c ****     return HAL_BUSY;
 1121              		.loc 1 513 12
 1122 002a 0223     		movs	r3, #2
 1123 002c 96E0     		b	.L44
 1124              	.L43:
 514:Drivers/STM32H7xx_HAL_Driver/Src/stm32h7xx_hal_tim_ex.c ****   }
 515:Drivers/STM32H7xx_HAL_Driver/Src/stm32h7xx_hal_tim_ex.c ****   else if ((channel_1_state == HAL_TIM_CHANNEL_STATE_READY)
 1125              		.loc 1 515 11
 1126 002e FB7D     		ldrb	r3, [r7, #23]	@ zero_extendqisi2
 1127 0030 012B     		cmp	r3, #1
 1128 0032 34D1     		bne	.L45
 516:Drivers/STM32H7xx_HAL_Driver/Src/stm32h7xx_hal_tim_ex.c ****            && (complementary_channel_1_state == HAL_TIM_CHANNEL_STATE_READY))
 1129              		.loc 1 516 12
 1130 0034 BB7D     		ldrb	r3, [r7, #22]	@ zero_extendqisi2
 1131 0036 012B     		cmp	r3, #1
 1132 0038 31D1     		bne	.L45
 517:Drivers/STM32H7xx_HAL_Driver/Src/stm32h7xx_hal_tim_ex.c ****   {
 518:Drivers/STM32H7xx_HAL_Driver/Src/stm32h7xx_hal_tim_ex.c ****     if ((pData == NULL) && (Length > 0U))
 1133              		.loc 1 518 8
 1134 003a BB68     		ldr	r3, [r7, #8]
 1135 003c 002B     		cmp	r3, #0
 1136 003e 04D1     		bne	.L46
 1137              		.loc 1 518 25 discriminator 1
 1138 0040 FB88     		ldrh	r3, [r7, #6]
 1139 0042 002B     		cmp	r3, #0
 1140 0044 01D0     		beq	.L46
 519:Drivers/STM32H7xx_HAL_Driver/Src/stm32h7xx_hal_tim_ex.c ****     {
 520:Drivers/STM32H7xx_HAL_Driver/Src/stm32h7xx_hal_tim_ex.c ****       return HAL_ERROR;
 1141              		.loc 1 520 14
 1142 0046 0123     		movs	r3, #1
 1143 0048 88E0     		b	.L44
 1144              	.L46:
 521:Drivers/STM32H7xx_HAL_Driver/Src/stm32h7xx_hal_tim_ex.c ****     }
 522:Drivers/STM32H7xx_HAL_Driver/Src/stm32h7xx_hal_tim_ex.c ****     else
ARM GAS  C:\Users\Su\AppData\Local\Temp\ccm0VnUy.s 			page 30


 523:Drivers/STM32H7xx_HAL_Driver/Src/stm32h7xx_hal_tim_ex.c ****     {
 524:Drivers/STM32H7xx_HAL_Driver/Src/stm32h7xx_hal_tim_ex.c ****       TIM_CHANNEL_STATE_SET(htim, TIM_CHANNEL_1, HAL_TIM_CHANNEL_STATE_BUSY);
 1145              		.loc 1 524 7
 1146 004a FB68     		ldr	r3, [r7, #12]
 1147 004c 0222     		movs	r2, #2
 1148 004e 83F83E20 		strb	r2, [r3, #62]
 525:Drivers/STM32H7xx_HAL_Driver/Src/stm32h7xx_hal_tim_ex.c ****       TIM_CHANNEL_N_STATE_SET(htim, TIM_CHANNEL_1, HAL_TIM_CHANNEL_STATE_BUSY);
 1149              		.loc 1 525 7
 1150 0052 FB68     		ldr	r3, [r7, #12]
 1151 0054 0222     		movs	r2, #2
 1152 0056 83F84420 		strb	r2, [r3, #68]
 518:Drivers/STM32H7xx_HAL_Driver/Src/stm32h7xx_hal_tim_ex.c ****     {
 1153              		.loc 1 518 8
 1154 005a 00BF     		nop
 526:Drivers/STM32H7xx_HAL_Driver/Src/stm32h7xx_hal_tim_ex.c ****     }
 527:Drivers/STM32H7xx_HAL_Driver/Src/stm32h7xx_hal_tim_ex.c ****   }
 528:Drivers/STM32H7xx_HAL_Driver/Src/stm32h7xx_hal_tim_ex.c ****   else
 529:Drivers/STM32H7xx_HAL_Driver/Src/stm32h7xx_hal_tim_ex.c ****   {
 530:Drivers/STM32H7xx_HAL_Driver/Src/stm32h7xx_hal_tim_ex.c ****     return HAL_ERROR;
 531:Drivers/STM32H7xx_HAL_Driver/Src/stm32h7xx_hal_tim_ex.c ****   }
 532:Drivers/STM32H7xx_HAL_Driver/Src/stm32h7xx_hal_tim_ex.c **** 
 533:Drivers/STM32H7xx_HAL_Driver/Src/stm32h7xx_hal_tim_ex.c ****   /* Enable the Input Capture channel 1
 534:Drivers/STM32H7xx_HAL_Driver/Src/stm32h7xx_hal_tim_ex.c ****   (in the Hall Sensor Interface the three possible channels that can be used are TIM_CHANNEL_1,
 535:Drivers/STM32H7xx_HAL_Driver/Src/stm32h7xx_hal_tim_ex.c ****   TIM_CHANNEL_2 and TIM_CHANNEL_3) */
 536:Drivers/STM32H7xx_HAL_Driver/Src/stm32h7xx_hal_tim_ex.c ****   TIM_CCxChannelCmd(htim->Instance, TIM_CHANNEL_1, TIM_CCx_ENABLE);
 1155              		.loc 1 536 3
 1156 005c FB68     		ldr	r3, [r7, #12]
 1157 005e 1B68     		ldr	r3, [r3]
 1158 0060 0122     		movs	r2, #1
 1159 0062 0021     		movs	r1, #0
 1160 0064 1846     		mov	r0, r3
 1161 0066 FFF7FEFF 		bl	TIM_CCxChannelCmd
 537:Drivers/STM32H7xx_HAL_Driver/Src/stm32h7xx_hal_tim_ex.c **** 
 538:Drivers/STM32H7xx_HAL_Driver/Src/stm32h7xx_hal_tim_ex.c ****   /* Set the DMA Input Capture 1 Callbacks */
 539:Drivers/STM32H7xx_HAL_Driver/Src/stm32h7xx_hal_tim_ex.c ****   htim->hdma[TIM_DMA_ID_CC1]->XferCpltCallback = TIM_DMACaptureCplt;
 1162              		.loc 1 539 13
 1163 006a FB68     		ldr	r3, [r7, #12]
 1164 006c 5B6A     		ldr	r3, [r3, #36]
 1165              		.loc 1 539 48
 1166 006e 3D4A     		ldr	r2, .L55
 1167 0070 DA63     		str	r2, [r3, #60]
 540:Drivers/STM32H7xx_HAL_Driver/Src/stm32h7xx_hal_tim_ex.c ****   htim->hdma[TIM_DMA_ID_CC1]->XferHalfCpltCallback = TIM_DMACaptureHalfCplt;
 1168              		.loc 1 540 13
 1169 0072 FB68     		ldr	r3, [r7, #12]
 1170 0074 5B6A     		ldr	r3, [r3, #36]
 1171              		.loc 1 540 52
 1172 0076 3C4A     		ldr	r2, .L55+4
 1173 0078 1A64     		str	r2, [r3, #64]
 541:Drivers/STM32H7xx_HAL_Driver/Src/stm32h7xx_hal_tim_ex.c ****   /* Set the DMA error callback */
 542:Drivers/STM32H7xx_HAL_Driver/Src/stm32h7xx_hal_tim_ex.c ****   htim->hdma[TIM_DMA_ID_CC1]->XferErrorCallback = TIM_DMAError ;
 1174              		.loc 1 542 13
 1175 007a FB68     		ldr	r3, [r7, #12]
 1176 007c 5B6A     		ldr	r3, [r3, #36]
 1177              		.loc 1 542 49
 1178 007e 3B4A     		ldr	r2, .L55+8
 1179 0080 DA64     		str	r2, [r3, #76]
 543:Drivers/STM32H7xx_HAL_Driver/Src/stm32h7xx_hal_tim_ex.c **** 
ARM GAS  C:\Users\Su\AppData\Local\Temp\ccm0VnUy.s 			page 31


 544:Drivers/STM32H7xx_HAL_Driver/Src/stm32h7xx_hal_tim_ex.c ****   /* Enable the DMA stream for Capture 1*/
 545:Drivers/STM32H7xx_HAL_Driver/Src/stm32h7xx_hal_tim_ex.c ****   if (HAL_DMA_Start_IT(htim->hdma[TIM_DMA_ID_CC1], (uint32_t)&htim->Instance->CCR1, (uint32_t)pData
 1180              		.loc 1 545 7
 1181 0082 FB68     		ldr	r3, [r7, #12]
 1182 0084 586A     		ldr	r0, [r3, #36]
 1183              		.loc 1 545 67
 1184 0086 FB68     		ldr	r3, [r7, #12]
 1185 0088 1B68     		ldr	r3, [r3]
 1186              		.loc 1 545 62
 1187 008a 3433     		adds	r3, r3, #52
 1188              		.loc 1 545 7
 1189 008c 1946     		mov	r1, r3
 1190 008e BA68     		ldr	r2, [r7, #8]
 1191 0090 FB88     		ldrh	r3, [r7, #6]
 1192 0092 FFF7FEFF 		bl	HAL_DMA_Start_IT
 1193 0096 0346     		mov	r3, r0
 1194              		.loc 1 545 6
 1195 0098 002B     		cmp	r3, #0
 1196 009a 04D0     		beq	.L48
 1197 009c 01E0     		b	.L53
 1198              	.L45:
 530:Drivers/STM32H7xx_HAL_Driver/Src/stm32h7xx_hal_tim_ex.c ****   }
 1199              		.loc 1 530 12
 1200 009e 0123     		movs	r3, #1
 1201 00a0 5CE0     		b	.L44
 1202              	.L53:
 546:Drivers/STM32H7xx_HAL_Driver/Src/stm32h7xx_hal_tim_ex.c ****   {
 547:Drivers/STM32H7xx_HAL_Driver/Src/stm32h7xx_hal_tim_ex.c ****     /* Return error status */
 548:Drivers/STM32H7xx_HAL_Driver/Src/stm32h7xx_hal_tim_ex.c ****     return HAL_ERROR;
 1203              		.loc 1 548 12
 1204 00a2 0123     		movs	r3, #1
 1205 00a4 5AE0     		b	.L44
 1206              	.L48:
 549:Drivers/STM32H7xx_HAL_Driver/Src/stm32h7xx_hal_tim_ex.c ****   }
 550:Drivers/STM32H7xx_HAL_Driver/Src/stm32h7xx_hal_tim_ex.c ****   /* Enable the capture compare 1 Interrupt */
 551:Drivers/STM32H7xx_HAL_Driver/Src/stm32h7xx_hal_tim_ex.c ****   __HAL_TIM_ENABLE_DMA(htim, TIM_DMA_CC1);
 1207              		.loc 1 551 3
 1208 00a6 FB68     		ldr	r3, [r7, #12]
 1209 00a8 1B68     		ldr	r3, [r3]
 1210 00aa DA68     		ldr	r2, [r3, #12]
 1211 00ac FB68     		ldr	r3, [r7, #12]
 1212 00ae 1B68     		ldr	r3, [r3]
 1213 00b0 42F40072 		orr	r2, r2, #512
 1214 00b4 DA60     		str	r2, [r3, #12]
 552:Drivers/STM32H7xx_HAL_Driver/Src/stm32h7xx_hal_tim_ex.c **** 
 553:Drivers/STM32H7xx_HAL_Driver/Src/stm32h7xx_hal_tim_ex.c ****   /* Enable the Peripheral, except in trigger mode where enable is automatically done with trigger 
 554:Drivers/STM32H7xx_HAL_Driver/Src/stm32h7xx_hal_tim_ex.c ****   if (IS_TIM_SLAVE_INSTANCE(htim->Instance))
 1215              		.loc 1 554 7
 1216 00b6 FB68     		ldr	r3, [r7, #12]
 1217 00b8 1B68     		ldr	r3, [r3]
 1218              		.loc 1 554 6
 1219 00ba 2D4A     		ldr	r2, .L55+12
 1220 00bc 9342     		cmp	r3, r2
 1221 00be 2CD0     		beq	.L49
 1222              		.loc 1 554 7 discriminator 1
 1223 00c0 FB68     		ldr	r3, [r7, #12]
 1224 00c2 1B68     		ldr	r3, [r3]
ARM GAS  C:\Users\Su\AppData\Local\Temp\ccm0VnUy.s 			page 32


 1225 00c4 B3F1804F 		cmp	r3, #1073741824
 1226 00c8 27D0     		beq	.L49
 1227              		.loc 1 554 7 is_stmt 0 discriminator 2
 1228 00ca FB68     		ldr	r3, [r7, #12]
 1229 00cc 1B68     		ldr	r3, [r3]
 1230 00ce 294A     		ldr	r2, .L55+16
 1231 00d0 9342     		cmp	r3, r2
 1232 00d2 22D0     		beq	.L49
 1233              		.loc 1 554 7 discriminator 3
 1234 00d4 FB68     		ldr	r3, [r7, #12]
 1235 00d6 1B68     		ldr	r3, [r3]
 1236 00d8 274A     		ldr	r2, .L55+20
 1237 00da 9342     		cmp	r3, r2
 1238 00dc 1DD0     		beq	.L49
 1239              		.loc 1 554 7 discriminator 4
 1240 00de FB68     		ldr	r3, [r7, #12]
 1241 00e0 1B68     		ldr	r3, [r3]
 1242 00e2 264A     		ldr	r2, .L55+24
 1243 00e4 9342     		cmp	r3, r2
 1244 00e6 18D0     		beq	.L49
 1245              		.loc 1 554 7 discriminator 5
 1246 00e8 FB68     		ldr	r3, [r7, #12]
 1247 00ea 1B68     		ldr	r3, [r3]
 1248 00ec 244A     		ldr	r2, .L55+28
 1249 00ee 9342     		cmp	r3, r2
 1250 00f0 13D0     		beq	.L49
 1251              		.loc 1 554 7 discriminator 6
 1252 00f2 FB68     		ldr	r3, [r7, #12]
 1253 00f4 1B68     		ldr	r3, [r3]
 1254 00f6 234A     		ldr	r2, .L55+32
 1255 00f8 9342     		cmp	r3, r2
 1256 00fa 0ED0     		beq	.L49
 1257              		.loc 1 554 7 discriminator 7
 1258 00fc FB68     		ldr	r3, [r7, #12]
 1259 00fe 1B68     		ldr	r3, [r3]
 1260 0100 214A     		ldr	r2, .L55+36
 1261 0102 9342     		cmp	r3, r2
 1262 0104 09D0     		beq	.L49
 1263              		.loc 1 554 7 discriminator 8
 1264 0106 FB68     		ldr	r3, [r7, #12]
 1265 0108 1B68     		ldr	r3, [r3]
 1266 010a 204A     		ldr	r2, .L55+40
 1267 010c 9342     		cmp	r3, r2
 1268 010e 04D0     		beq	.L49
 1269              		.loc 1 554 7 discriminator 9
 1270 0110 FB68     		ldr	r3, [r7, #12]
 1271 0112 1B68     		ldr	r3, [r3]
 1272 0114 1E4A     		ldr	r2, .L55+44
 1273 0116 9342     		cmp	r3, r2
 1274 0118 15D1     		bne	.L50
 1275              	.L49:
 555:Drivers/STM32H7xx_HAL_Driver/Src/stm32h7xx_hal_tim_ex.c ****   {
 556:Drivers/STM32H7xx_HAL_Driver/Src/stm32h7xx_hal_tim_ex.c ****     tmpsmcr = htim->Instance->SMCR & TIM_SMCR_SMS;
 1276              		.loc 1 556 19 is_stmt 1
 1277 011a FB68     		ldr	r3, [r7, #12]
 1278 011c 1B68     		ldr	r3, [r3]
 1279              		.loc 1 556 29
ARM GAS  C:\Users\Su\AppData\Local\Temp\ccm0VnUy.s 			page 33


 1280 011e 9A68     		ldr	r2, [r3, #8]
 1281              		.loc 1 556 13
 1282 0120 1C4B     		ldr	r3, .L55+48
 1283 0122 1340     		ands	r3, r3, r2
 1284 0124 3B61     		str	r3, [r7, #16]
 557:Drivers/STM32H7xx_HAL_Driver/Src/stm32h7xx_hal_tim_ex.c ****     if (!IS_TIM_SLAVEMODE_TRIGGER_ENABLED(tmpsmcr))
 1285              		.loc 1 557 8
 1286 0126 3B69     		ldr	r3, [r7, #16]
 1287 0128 062B     		cmp	r3, #6
 1288 012a 15D0     		beq	.L54
 1289              		.loc 1 557 9 discriminator 1
 1290 012c 3B69     		ldr	r3, [r7, #16]
 1291 012e B3F5803F 		cmp	r3, #65536
 1292 0132 11D0     		beq	.L54
 558:Drivers/STM32H7xx_HAL_Driver/Src/stm32h7xx_hal_tim_ex.c ****     {
 559:Drivers/STM32H7xx_HAL_Driver/Src/stm32h7xx_hal_tim_ex.c ****       __HAL_TIM_ENABLE(htim);
 1293              		.loc 1 559 7
 1294 0134 FB68     		ldr	r3, [r7, #12]
 1295 0136 1B68     		ldr	r3, [r3]
 1296 0138 1A68     		ldr	r2, [r3]
 1297 013a FB68     		ldr	r3, [r7, #12]
 1298 013c 1B68     		ldr	r3, [r3]
 1299 013e 42F00102 		orr	r2, r2, #1
 1300 0142 1A60     		str	r2, [r3]
 557:Drivers/STM32H7xx_HAL_Driver/Src/stm32h7xx_hal_tim_ex.c ****     if (!IS_TIM_SLAVEMODE_TRIGGER_ENABLED(tmpsmcr))
 1301              		.loc 1 557 8
 1302 0144 08E0     		b	.L54
 1303              	.L50:
 560:Drivers/STM32H7xx_HAL_Driver/Src/stm32h7xx_hal_tim_ex.c ****     }
 561:Drivers/STM32H7xx_HAL_Driver/Src/stm32h7xx_hal_tim_ex.c ****   }
 562:Drivers/STM32H7xx_HAL_Driver/Src/stm32h7xx_hal_tim_ex.c ****   else
 563:Drivers/STM32H7xx_HAL_Driver/Src/stm32h7xx_hal_tim_ex.c ****   {
 564:Drivers/STM32H7xx_HAL_Driver/Src/stm32h7xx_hal_tim_ex.c ****     __HAL_TIM_ENABLE(htim);
 1304              		.loc 1 564 5
 1305 0146 FB68     		ldr	r3, [r7, #12]
 1306 0148 1B68     		ldr	r3, [r3]
 1307 014a 1A68     		ldr	r2, [r3]
 1308 014c FB68     		ldr	r3, [r7, #12]
 1309 014e 1B68     		ldr	r3, [r3]
 1310 0150 42F00102 		orr	r2, r2, #1
 1311 0154 1A60     		str	r2, [r3]
 1312 0156 00E0     		b	.L52
 1313              	.L54:
 557:Drivers/STM32H7xx_HAL_Driver/Src/stm32h7xx_hal_tim_ex.c ****     {
 1314              		.loc 1 557 8
 1315 0158 00BF     		nop
 1316              	.L52:
 565:Drivers/STM32H7xx_HAL_Driver/Src/stm32h7xx_hal_tim_ex.c ****   }
 566:Drivers/STM32H7xx_HAL_Driver/Src/stm32h7xx_hal_tim_ex.c **** 
 567:Drivers/STM32H7xx_HAL_Driver/Src/stm32h7xx_hal_tim_ex.c ****   /* Return function status */
 568:Drivers/STM32H7xx_HAL_Driver/Src/stm32h7xx_hal_tim_ex.c ****   return HAL_OK;
 1317              		.loc 1 568 10
 1318 015a 0023     		movs	r3, #0
 1319              	.L44:
 569:Drivers/STM32H7xx_HAL_Driver/Src/stm32h7xx_hal_tim_ex.c **** }
 1320              		.loc 1 569 1
 1321 015c 1846     		mov	r0, r3
ARM GAS  C:\Users\Su\AppData\Local\Temp\ccm0VnUy.s 			page 34


 1322 015e 1837     		adds	r7, r7, #24
 1323              	.LCFI45:
 1324              		.cfi_def_cfa_offset 8
 1325 0160 BD46     		mov	sp, r7
 1326              	.LCFI46:
 1327              		.cfi_def_cfa_register 13
 1328              		@ sp needed
 1329 0162 80BD     		pop	{r7, pc}
 1330              	.L56:
 1331              		.align	2
 1332              	.L55:
 1333 0164 00000000 		.word	TIM_DMACaptureCplt
 1334 0168 00000000 		.word	TIM_DMACaptureHalfCplt
 1335 016c 00000000 		.word	TIM_DMAError
 1336 0170 00000140 		.word	1073807360
 1337 0174 00040040 		.word	1073742848
 1338 0178 00080040 		.word	1073743872
 1339 017c 000C0040 		.word	1073744896
 1340 0180 00040140 		.word	1073808384
 1341 0184 00180040 		.word	1073747968
 1342 0188 00400140 		.word	1073823744
 1343 018c 00E00040 		.word	1073799168
 1344 0190 00E40040 		.word	1073800192
 1345 0194 07000100 		.word	65543
 1346              		.cfi_endproc
 1347              	.LFE152:
 1349              		.section	.text.HAL_TIMEx_HallSensor_Stop_DMA,"ax",%progbits
 1350              		.align	1
 1351              		.global	HAL_TIMEx_HallSensor_Stop_DMA
 1352              		.syntax unified
 1353              		.thumb
 1354              		.thumb_func
 1356              	HAL_TIMEx_HallSensor_Stop_DMA:
 1357              	.LFB153:
 570:Drivers/STM32H7xx_HAL_Driver/Src/stm32h7xx_hal_tim_ex.c **** 
 571:Drivers/STM32H7xx_HAL_Driver/Src/stm32h7xx_hal_tim_ex.c **** /**
 572:Drivers/STM32H7xx_HAL_Driver/Src/stm32h7xx_hal_tim_ex.c ****   * @brief  Stops the TIM Hall Sensor Interface in DMA mode.
 573:Drivers/STM32H7xx_HAL_Driver/Src/stm32h7xx_hal_tim_ex.c ****   * @param  htim TIM Hall Sensor Interface handle
 574:Drivers/STM32H7xx_HAL_Driver/Src/stm32h7xx_hal_tim_ex.c ****   * @retval HAL status
 575:Drivers/STM32H7xx_HAL_Driver/Src/stm32h7xx_hal_tim_ex.c ****   */
 576:Drivers/STM32H7xx_HAL_Driver/Src/stm32h7xx_hal_tim_ex.c **** HAL_StatusTypeDef HAL_TIMEx_HallSensor_Stop_DMA(TIM_HandleTypeDef *htim)
 577:Drivers/STM32H7xx_HAL_Driver/Src/stm32h7xx_hal_tim_ex.c **** {
 1358              		.loc 1 577 1
 1359              		.cfi_startproc
 1360              		@ args = 0, pretend = 0, frame = 8
 1361              		@ frame_needed = 1, uses_anonymous_args = 0
 1362 0000 80B5     		push	{r7, lr}
 1363              	.LCFI47:
 1364              		.cfi_def_cfa_offset 8
 1365              		.cfi_offset 7, -8
 1366              		.cfi_offset 14, -4
 1367 0002 82B0     		sub	sp, sp, #8
 1368              	.LCFI48:
 1369              		.cfi_def_cfa_offset 16
 1370 0004 00AF     		add	r7, sp, #0
 1371              	.LCFI49:
 1372              		.cfi_def_cfa_register 7
ARM GAS  C:\Users\Su\AppData\Local\Temp\ccm0VnUy.s 			page 35


 1373 0006 7860     		str	r0, [r7, #4]
 578:Drivers/STM32H7xx_HAL_Driver/Src/stm32h7xx_hal_tim_ex.c ****   /* Check the parameters */
 579:Drivers/STM32H7xx_HAL_Driver/Src/stm32h7xx_hal_tim_ex.c ****   assert_param(IS_TIM_HALL_SENSOR_INTERFACE_INSTANCE(htim->Instance));
 580:Drivers/STM32H7xx_HAL_Driver/Src/stm32h7xx_hal_tim_ex.c **** 
 581:Drivers/STM32H7xx_HAL_Driver/Src/stm32h7xx_hal_tim_ex.c ****   /* Disable the Input Capture channel 1
 582:Drivers/STM32H7xx_HAL_Driver/Src/stm32h7xx_hal_tim_ex.c ****   (in the Hall Sensor Interface the three possible channels that can be used are TIM_CHANNEL_1,
 583:Drivers/STM32H7xx_HAL_Driver/Src/stm32h7xx_hal_tim_ex.c ****   TIM_CHANNEL_2 and TIM_CHANNEL_3) */
 584:Drivers/STM32H7xx_HAL_Driver/Src/stm32h7xx_hal_tim_ex.c ****   TIM_CCxChannelCmd(htim->Instance, TIM_CHANNEL_1, TIM_CCx_DISABLE);
 1374              		.loc 1 584 3
 1375 0008 7B68     		ldr	r3, [r7, #4]
 1376 000a 1B68     		ldr	r3, [r3]
 1377 000c 0022     		movs	r2, #0
 1378 000e 0021     		movs	r1, #0
 1379 0010 1846     		mov	r0, r3
 1380 0012 FFF7FEFF 		bl	TIM_CCxChannelCmd
 585:Drivers/STM32H7xx_HAL_Driver/Src/stm32h7xx_hal_tim_ex.c **** 
 586:Drivers/STM32H7xx_HAL_Driver/Src/stm32h7xx_hal_tim_ex.c **** 
 587:Drivers/STM32H7xx_HAL_Driver/Src/stm32h7xx_hal_tim_ex.c ****   /* Disable the capture compare Interrupts 1 event */
 588:Drivers/STM32H7xx_HAL_Driver/Src/stm32h7xx_hal_tim_ex.c ****   __HAL_TIM_DISABLE_DMA(htim, TIM_DMA_CC1);
 1381              		.loc 1 588 3
 1382 0016 7B68     		ldr	r3, [r7, #4]
 1383 0018 1B68     		ldr	r3, [r3]
 1384 001a DA68     		ldr	r2, [r3, #12]
 1385 001c 7B68     		ldr	r3, [r7, #4]
 1386 001e 1B68     		ldr	r3, [r3]
 1387 0020 22F40072 		bic	r2, r2, #512
 1388 0024 DA60     		str	r2, [r3, #12]
 589:Drivers/STM32H7xx_HAL_Driver/Src/stm32h7xx_hal_tim_ex.c **** 
 590:Drivers/STM32H7xx_HAL_Driver/Src/stm32h7xx_hal_tim_ex.c ****   (void)HAL_DMA_Abort_IT(htim->hdma[TIM_DMA_ID_CC1]);
 1389              		.loc 1 590 9
 1390 0026 7B68     		ldr	r3, [r7, #4]
 1391 0028 5B6A     		ldr	r3, [r3, #36]
 1392 002a 1846     		mov	r0, r3
 1393 002c FFF7FEFF 		bl	HAL_DMA_Abort_IT
 591:Drivers/STM32H7xx_HAL_Driver/Src/stm32h7xx_hal_tim_ex.c **** 
 592:Drivers/STM32H7xx_HAL_Driver/Src/stm32h7xx_hal_tim_ex.c ****   /* Disable the Peripheral */
 593:Drivers/STM32H7xx_HAL_Driver/Src/stm32h7xx_hal_tim_ex.c ****   __HAL_TIM_DISABLE(htim);
 1394              		.loc 1 593 3
 1395 0030 7B68     		ldr	r3, [r7, #4]
 1396 0032 1B68     		ldr	r3, [r3]
 1397 0034 1A6A     		ldr	r2, [r3, #32]
 1398 0036 41F21113 		movw	r3, #4369
 1399 003a 1340     		ands	r3, r3, r2
 1400 003c 002B     		cmp	r3, #0
 1401 003e 0FD1     		bne	.L58
 1402              		.loc 1 593 3 is_stmt 0 discriminator 1
 1403 0040 7B68     		ldr	r3, [r7, #4]
 1404 0042 1B68     		ldr	r3, [r3]
 1405 0044 1A6A     		ldr	r2, [r3, #32]
 1406 0046 40F24443 		movw	r3, #1092
 1407 004a 1340     		ands	r3, r3, r2
 1408 004c 002B     		cmp	r3, #0
 1409 004e 07D1     		bne	.L58
 1410              		.loc 1 593 3 discriminator 2
 1411 0050 7B68     		ldr	r3, [r7, #4]
 1412 0052 1B68     		ldr	r3, [r3]
 1413 0054 1A68     		ldr	r2, [r3]
ARM GAS  C:\Users\Su\AppData\Local\Temp\ccm0VnUy.s 			page 36


 1414 0056 7B68     		ldr	r3, [r7, #4]
 1415 0058 1B68     		ldr	r3, [r3]
 1416 005a 22F00102 		bic	r2, r2, #1
 1417 005e 1A60     		str	r2, [r3]
 1418              	.L58:
 594:Drivers/STM32H7xx_HAL_Driver/Src/stm32h7xx_hal_tim_ex.c **** 
 595:Drivers/STM32H7xx_HAL_Driver/Src/stm32h7xx_hal_tim_ex.c ****   /* Set the TIM channel state */
 596:Drivers/STM32H7xx_HAL_Driver/Src/stm32h7xx_hal_tim_ex.c ****   TIM_CHANNEL_STATE_SET(htim, TIM_CHANNEL_1, HAL_TIM_CHANNEL_STATE_READY);
 1419              		.loc 1 596 3 is_stmt 1
 1420 0060 7B68     		ldr	r3, [r7, #4]
 1421 0062 0122     		movs	r2, #1
 1422 0064 83F83E20 		strb	r2, [r3, #62]
 597:Drivers/STM32H7xx_HAL_Driver/Src/stm32h7xx_hal_tim_ex.c ****   TIM_CHANNEL_N_STATE_SET(htim, TIM_CHANNEL_1, HAL_TIM_CHANNEL_STATE_READY);
 1423              		.loc 1 597 3
 1424 0068 7B68     		ldr	r3, [r7, #4]
 1425 006a 0122     		movs	r2, #1
 1426 006c 83F84420 		strb	r2, [r3, #68]
 598:Drivers/STM32H7xx_HAL_Driver/Src/stm32h7xx_hal_tim_ex.c **** 
 599:Drivers/STM32H7xx_HAL_Driver/Src/stm32h7xx_hal_tim_ex.c ****   /* Return function status */
 600:Drivers/STM32H7xx_HAL_Driver/Src/stm32h7xx_hal_tim_ex.c ****   return HAL_OK;
 1427              		.loc 1 600 10
 1428 0070 0023     		movs	r3, #0
 601:Drivers/STM32H7xx_HAL_Driver/Src/stm32h7xx_hal_tim_ex.c **** }
 1429              		.loc 1 601 1
 1430 0072 1846     		mov	r0, r3
 1431 0074 0837     		adds	r7, r7, #8
 1432              	.LCFI50:
 1433              		.cfi_def_cfa_offset 8
 1434 0076 BD46     		mov	sp, r7
 1435              	.LCFI51:
 1436              		.cfi_def_cfa_register 13
 1437              		@ sp needed
 1438 0078 80BD     		pop	{r7, pc}
 1439              		.cfi_endproc
 1440              	.LFE153:
 1442              		.section	.text.HAL_TIMEx_OCN_Start,"ax",%progbits
 1443              		.align	1
 1444              		.global	HAL_TIMEx_OCN_Start
 1445              		.syntax unified
 1446              		.thumb
 1447              		.thumb_func
 1449              	HAL_TIMEx_OCN_Start:
 1450              	.LFB154:
 602:Drivers/STM32H7xx_HAL_Driver/Src/stm32h7xx_hal_tim_ex.c **** 
 603:Drivers/STM32H7xx_HAL_Driver/Src/stm32h7xx_hal_tim_ex.c **** /**
 604:Drivers/STM32H7xx_HAL_Driver/Src/stm32h7xx_hal_tim_ex.c ****   * @}
 605:Drivers/STM32H7xx_HAL_Driver/Src/stm32h7xx_hal_tim_ex.c ****   */
 606:Drivers/STM32H7xx_HAL_Driver/Src/stm32h7xx_hal_tim_ex.c **** 
 607:Drivers/STM32H7xx_HAL_Driver/Src/stm32h7xx_hal_tim_ex.c **** /** @defgroup TIMEx_Exported_Functions_Group2 Extended Timer Complementary Output Compare functions
 608:Drivers/STM32H7xx_HAL_Driver/Src/stm32h7xx_hal_tim_ex.c ****   *  @brief   Timer Complementary Output Compare functions
 609:Drivers/STM32H7xx_HAL_Driver/Src/stm32h7xx_hal_tim_ex.c ****   *
 610:Drivers/STM32H7xx_HAL_Driver/Src/stm32h7xx_hal_tim_ex.c **** @verbatim
 611:Drivers/STM32H7xx_HAL_Driver/Src/stm32h7xx_hal_tim_ex.c ****   ==============================================================================
 612:Drivers/STM32H7xx_HAL_Driver/Src/stm32h7xx_hal_tim_ex.c ****               ##### Timer Complementary Output Compare functions #####
 613:Drivers/STM32H7xx_HAL_Driver/Src/stm32h7xx_hal_tim_ex.c ****   ==============================================================================
 614:Drivers/STM32H7xx_HAL_Driver/Src/stm32h7xx_hal_tim_ex.c ****   [..]
 615:Drivers/STM32H7xx_HAL_Driver/Src/stm32h7xx_hal_tim_ex.c ****     This section provides functions allowing to:
ARM GAS  C:\Users\Su\AppData\Local\Temp\ccm0VnUy.s 			page 37


 616:Drivers/STM32H7xx_HAL_Driver/Src/stm32h7xx_hal_tim_ex.c ****     (+) Start the Complementary Output Compare/PWM.
 617:Drivers/STM32H7xx_HAL_Driver/Src/stm32h7xx_hal_tim_ex.c ****     (+) Stop the Complementary Output Compare/PWM.
 618:Drivers/STM32H7xx_HAL_Driver/Src/stm32h7xx_hal_tim_ex.c ****     (+) Start the Complementary Output Compare/PWM and enable interrupts.
 619:Drivers/STM32H7xx_HAL_Driver/Src/stm32h7xx_hal_tim_ex.c ****     (+) Stop the Complementary Output Compare/PWM and disable interrupts.
 620:Drivers/STM32H7xx_HAL_Driver/Src/stm32h7xx_hal_tim_ex.c ****     (+) Start the Complementary Output Compare/PWM and enable DMA transfers.
 621:Drivers/STM32H7xx_HAL_Driver/Src/stm32h7xx_hal_tim_ex.c ****     (+) Stop the Complementary Output Compare/PWM and disable DMA transfers.
 622:Drivers/STM32H7xx_HAL_Driver/Src/stm32h7xx_hal_tim_ex.c **** 
 623:Drivers/STM32H7xx_HAL_Driver/Src/stm32h7xx_hal_tim_ex.c **** @endverbatim
 624:Drivers/STM32H7xx_HAL_Driver/Src/stm32h7xx_hal_tim_ex.c ****   * @{
 625:Drivers/STM32H7xx_HAL_Driver/Src/stm32h7xx_hal_tim_ex.c ****   */
 626:Drivers/STM32H7xx_HAL_Driver/Src/stm32h7xx_hal_tim_ex.c **** 
 627:Drivers/STM32H7xx_HAL_Driver/Src/stm32h7xx_hal_tim_ex.c **** /**
 628:Drivers/STM32H7xx_HAL_Driver/Src/stm32h7xx_hal_tim_ex.c ****   * @brief  Starts the TIM Output Compare signal generation on the complementary
 629:Drivers/STM32H7xx_HAL_Driver/Src/stm32h7xx_hal_tim_ex.c ****   *         output.
 630:Drivers/STM32H7xx_HAL_Driver/Src/stm32h7xx_hal_tim_ex.c ****   * @param  htim TIM Output Compare handle
 631:Drivers/STM32H7xx_HAL_Driver/Src/stm32h7xx_hal_tim_ex.c ****   * @param  Channel TIM Channel to be enabled
 632:Drivers/STM32H7xx_HAL_Driver/Src/stm32h7xx_hal_tim_ex.c ****   *          This parameter can be one of the following values:
 633:Drivers/STM32H7xx_HAL_Driver/Src/stm32h7xx_hal_tim_ex.c ****   *            @arg TIM_CHANNEL_1: TIM Channel 1 selected
 634:Drivers/STM32H7xx_HAL_Driver/Src/stm32h7xx_hal_tim_ex.c ****   *            @arg TIM_CHANNEL_2: TIM Channel 2 selected
 635:Drivers/STM32H7xx_HAL_Driver/Src/stm32h7xx_hal_tim_ex.c ****   *            @arg TIM_CHANNEL_3: TIM Channel 3 selected
 636:Drivers/STM32H7xx_HAL_Driver/Src/stm32h7xx_hal_tim_ex.c ****   * @retval HAL status
 637:Drivers/STM32H7xx_HAL_Driver/Src/stm32h7xx_hal_tim_ex.c ****   */
 638:Drivers/STM32H7xx_HAL_Driver/Src/stm32h7xx_hal_tim_ex.c **** HAL_StatusTypeDef HAL_TIMEx_OCN_Start(TIM_HandleTypeDef *htim, uint32_t Channel)
 639:Drivers/STM32H7xx_HAL_Driver/Src/stm32h7xx_hal_tim_ex.c **** {
 1451              		.loc 1 639 1
 1452              		.cfi_startproc
 1453              		@ args = 0, pretend = 0, frame = 16
 1454              		@ frame_needed = 1, uses_anonymous_args = 0
 1455 0000 80B5     		push	{r7, lr}
 1456              	.LCFI52:
 1457              		.cfi_def_cfa_offset 8
 1458              		.cfi_offset 7, -8
 1459              		.cfi_offset 14, -4
 1460 0002 84B0     		sub	sp, sp, #16
 1461              	.LCFI53:
 1462              		.cfi_def_cfa_offset 24
 1463 0004 00AF     		add	r7, sp, #0
 1464              	.LCFI54:
 1465              		.cfi_def_cfa_register 7
 1466 0006 7860     		str	r0, [r7, #4]
 1467 0008 3960     		str	r1, [r7]
 640:Drivers/STM32H7xx_HAL_Driver/Src/stm32h7xx_hal_tim_ex.c ****   uint32_t tmpsmcr;
 641:Drivers/STM32H7xx_HAL_Driver/Src/stm32h7xx_hal_tim_ex.c **** 
 642:Drivers/STM32H7xx_HAL_Driver/Src/stm32h7xx_hal_tim_ex.c ****   /* Check the parameters */
 643:Drivers/STM32H7xx_HAL_Driver/Src/stm32h7xx_hal_tim_ex.c ****   assert_param(IS_TIM_CCXN_INSTANCE(htim->Instance, Channel));
 644:Drivers/STM32H7xx_HAL_Driver/Src/stm32h7xx_hal_tim_ex.c **** 
 645:Drivers/STM32H7xx_HAL_Driver/Src/stm32h7xx_hal_tim_ex.c ****   /* Check the TIM complementary channel state */
 646:Drivers/STM32H7xx_HAL_Driver/Src/stm32h7xx_hal_tim_ex.c ****   if (TIM_CHANNEL_N_STATE_GET(htim, Channel) != HAL_TIM_CHANNEL_STATE_READY)
 1468              		.loc 1 646 46
 1469 000a 3B68     		ldr	r3, [r7]
 1470 000c 002B     		cmp	r3, #0
 1471 000e 09D1     		bne	.L61
 1472              		.loc 1 646 7 discriminator 1
 1473 0010 7B68     		ldr	r3, [r7, #4]
 1474 0012 93F84430 		ldrb	r3, [r3, #68]
 1475 0016 DBB2     		uxtb	r3, r3
 1476              		.loc 1 646 46 discriminator 1
ARM GAS  C:\Users\Su\AppData\Local\Temp\ccm0VnUy.s 			page 38


 1477 0018 012B     		cmp	r3, #1
 1478 001a 14BF     		ite	ne
 1479 001c 0123     		movne	r3, #1
 1480 001e 0023     		moveq	r3, #0
 1481 0020 DBB2     		uxtb	r3, r3
 1482 0022 22E0     		b	.L62
 1483              	.L61:
 1484              		.loc 1 646 46 is_stmt 0 discriminator 2
 1485 0024 3B68     		ldr	r3, [r7]
 1486 0026 042B     		cmp	r3, #4
 1487 0028 09D1     		bne	.L63
 1488              		.loc 1 646 7 is_stmt 1 discriminator 4
 1489 002a 7B68     		ldr	r3, [r7, #4]
 1490 002c 93F84530 		ldrb	r3, [r3, #69]
 1491 0030 DBB2     		uxtb	r3, r3
 1492              		.loc 1 646 46 discriminator 4
 1493 0032 012B     		cmp	r3, #1
 1494 0034 14BF     		ite	ne
 1495 0036 0123     		movne	r3, #1
 1496 0038 0023     		moveq	r3, #0
 1497 003a DBB2     		uxtb	r3, r3
 1498 003c 15E0     		b	.L62
 1499              	.L63:
 1500              		.loc 1 646 46 is_stmt 0 discriminator 5
 1501 003e 3B68     		ldr	r3, [r7]
 1502 0040 082B     		cmp	r3, #8
 1503 0042 09D1     		bne	.L65
 1504              		.loc 1 646 7 is_stmt 1 discriminator 7
 1505 0044 7B68     		ldr	r3, [r7, #4]
 1506 0046 93F84630 		ldrb	r3, [r3, #70]
 1507 004a DBB2     		uxtb	r3, r3
 1508              		.loc 1 646 46 discriminator 7
 1509 004c 012B     		cmp	r3, #1
 1510 004e 14BF     		ite	ne
 1511 0050 0123     		movne	r3, #1
 1512 0052 0023     		moveq	r3, #0
 1513 0054 DBB2     		uxtb	r3, r3
 1514 0056 08E0     		b	.L62
 1515              	.L65:
 1516              		.loc 1 646 7 discriminator 8
 1517 0058 7B68     		ldr	r3, [r7, #4]
 1518 005a 93F84730 		ldrb	r3, [r3, #71]
 1519 005e DBB2     		uxtb	r3, r3
 1520              		.loc 1 646 46 discriminator 8
 1521 0060 012B     		cmp	r3, #1
 1522 0062 14BF     		ite	ne
 1523 0064 0123     		movne	r3, #1
 1524 0066 0023     		moveq	r3, #0
 1525 0068 DBB2     		uxtb	r3, r3
 1526              	.L62:
 1527              		.loc 1 646 6 discriminator 12
 1528 006a 002B     		cmp	r3, #0
 1529 006c 01D0     		beq	.L67
 647:Drivers/STM32H7xx_HAL_Driver/Src/stm32h7xx_hal_tim_ex.c ****   {
 648:Drivers/STM32H7xx_HAL_Driver/Src/stm32h7xx_hal_tim_ex.c ****     return HAL_ERROR;
 1530              		.loc 1 648 12
 1531 006e 0123     		movs	r3, #1
ARM GAS  C:\Users\Su\AppData\Local\Temp\ccm0VnUy.s 			page 39


 1532 0070 7DE0     		b	.L68
 1533              	.L67:
 649:Drivers/STM32H7xx_HAL_Driver/Src/stm32h7xx_hal_tim_ex.c ****   }
 650:Drivers/STM32H7xx_HAL_Driver/Src/stm32h7xx_hal_tim_ex.c **** 
 651:Drivers/STM32H7xx_HAL_Driver/Src/stm32h7xx_hal_tim_ex.c ****   /* Set the TIM complementary channel state */
 652:Drivers/STM32H7xx_HAL_Driver/Src/stm32h7xx_hal_tim_ex.c ****   TIM_CHANNEL_N_STATE_SET(htim, Channel, HAL_TIM_CHANNEL_STATE_BUSY);
 1534              		.loc 1 652 3
 1535 0072 3B68     		ldr	r3, [r7]
 1536 0074 002B     		cmp	r3, #0
 1537 0076 04D1     		bne	.L69
 1538              		.loc 1 652 3 is_stmt 0 discriminator 1
 1539 0078 7B68     		ldr	r3, [r7, #4]
 1540 007a 0222     		movs	r2, #2
 1541 007c 83F84420 		strb	r2, [r3, #68]
 1542 0080 13E0     		b	.L70
 1543              	.L69:
 1544              		.loc 1 652 3 discriminator 2
 1545 0082 3B68     		ldr	r3, [r7]
 1546 0084 042B     		cmp	r3, #4
 1547 0086 04D1     		bne	.L71
 1548              		.loc 1 652 3 discriminator 3
 1549 0088 7B68     		ldr	r3, [r7, #4]
 1550 008a 0222     		movs	r2, #2
 1551 008c 83F84520 		strb	r2, [r3, #69]
 1552 0090 0BE0     		b	.L70
 1553              	.L71:
 1554              		.loc 1 652 3 discriminator 4
 1555 0092 3B68     		ldr	r3, [r7]
 1556 0094 082B     		cmp	r3, #8
 1557 0096 04D1     		bne	.L73
 1558              		.loc 1 652 3 discriminator 6
 1559 0098 7B68     		ldr	r3, [r7, #4]
 1560 009a 0222     		movs	r2, #2
 1561 009c 83F84620 		strb	r2, [r3, #70]
 1562 00a0 03E0     		b	.L70
 1563              	.L73:
 1564              		.loc 1 652 3 discriminator 7
 1565 00a2 7B68     		ldr	r3, [r7, #4]
 1566 00a4 0222     		movs	r2, #2
 1567 00a6 83F84720 		strb	r2, [r3, #71]
 1568              	.L70:
 653:Drivers/STM32H7xx_HAL_Driver/Src/stm32h7xx_hal_tim_ex.c **** 
 654:Drivers/STM32H7xx_HAL_Driver/Src/stm32h7xx_hal_tim_ex.c ****   /* Enable the Capture compare channel N */
 655:Drivers/STM32H7xx_HAL_Driver/Src/stm32h7xx_hal_tim_ex.c ****   TIM_CCxNChannelCmd(htim->Instance, Channel, TIM_CCxN_ENABLE);
 1569              		.loc 1 655 3 is_stmt 1
 1570 00aa 7B68     		ldr	r3, [r7, #4]
 1571 00ac 1B68     		ldr	r3, [r3]
 1572 00ae 0422     		movs	r2, #4
 1573 00b0 3968     		ldr	r1, [r7]
 1574 00b2 1846     		mov	r0, r3
 1575 00b4 FFF7FEFF 		bl	TIM_CCxNChannelCmd
 656:Drivers/STM32H7xx_HAL_Driver/Src/stm32h7xx_hal_tim_ex.c **** 
 657:Drivers/STM32H7xx_HAL_Driver/Src/stm32h7xx_hal_tim_ex.c ****   /* Enable the Main Output */
 658:Drivers/STM32H7xx_HAL_Driver/Src/stm32h7xx_hal_tim_ex.c ****   __HAL_TIM_MOE_ENABLE(htim);
 1576              		.loc 1 658 3
 1577 00b8 7B68     		ldr	r3, [r7, #4]
 1578 00ba 1B68     		ldr	r3, [r3]
ARM GAS  C:\Users\Su\AppData\Local\Temp\ccm0VnUy.s 			page 40


 1579 00bc 5A6C     		ldr	r2, [r3, #68]
 1580 00be 7B68     		ldr	r3, [r7, #4]
 1581 00c0 1B68     		ldr	r3, [r3]
 1582 00c2 42F40042 		orr	r2, r2, #32768
 1583 00c6 5A64     		str	r2, [r3, #68]
 659:Drivers/STM32H7xx_HAL_Driver/Src/stm32h7xx_hal_tim_ex.c **** 
 660:Drivers/STM32H7xx_HAL_Driver/Src/stm32h7xx_hal_tim_ex.c ****   /* Enable the Peripheral, except in trigger mode where enable is automatically done with trigger 
 661:Drivers/STM32H7xx_HAL_Driver/Src/stm32h7xx_hal_tim_ex.c ****   if (IS_TIM_SLAVE_INSTANCE(htim->Instance))
 1584              		.loc 1 661 7
 1585 00c8 7B68     		ldr	r3, [r7, #4]
 1586 00ca 1B68     		ldr	r3, [r3]
 1587              		.loc 1 661 6
 1588 00cc 2A4A     		ldr	r2, .L80
 1589 00ce 9342     		cmp	r3, r2
 1590 00d0 2CD0     		beq	.L75
 1591              		.loc 1 661 7 discriminator 1
 1592 00d2 7B68     		ldr	r3, [r7, #4]
 1593 00d4 1B68     		ldr	r3, [r3]
 1594 00d6 B3F1804F 		cmp	r3, #1073741824
 1595 00da 27D0     		beq	.L75
 1596              		.loc 1 661 7 is_stmt 0 discriminator 2
 1597 00dc 7B68     		ldr	r3, [r7, #4]
 1598 00de 1B68     		ldr	r3, [r3]
 1599 00e0 264A     		ldr	r2, .L80+4
 1600 00e2 9342     		cmp	r3, r2
 1601 00e4 22D0     		beq	.L75
 1602              		.loc 1 661 7 discriminator 3
 1603 00e6 7B68     		ldr	r3, [r7, #4]
 1604 00e8 1B68     		ldr	r3, [r3]
 1605 00ea 254A     		ldr	r2, .L80+8
 1606 00ec 9342     		cmp	r3, r2
 1607 00ee 1DD0     		beq	.L75
 1608              		.loc 1 661 7 discriminator 4
 1609 00f0 7B68     		ldr	r3, [r7, #4]
 1610 00f2 1B68     		ldr	r3, [r3]
 1611 00f4 234A     		ldr	r2, .L80+12
 1612 00f6 9342     		cmp	r3, r2
 1613 00f8 18D0     		beq	.L75
 1614              		.loc 1 661 7 discriminator 5
 1615 00fa 7B68     		ldr	r3, [r7, #4]
 1616 00fc 1B68     		ldr	r3, [r3]
 1617 00fe 224A     		ldr	r2, .L80+16
 1618 0100 9342     		cmp	r3, r2
 1619 0102 13D0     		beq	.L75
 1620              		.loc 1 661 7 discriminator 6
 1621 0104 7B68     		ldr	r3, [r7, #4]
 1622 0106 1B68     		ldr	r3, [r3]
 1623 0108 204A     		ldr	r2, .L80+20
 1624 010a 9342     		cmp	r3, r2
 1625 010c 0ED0     		beq	.L75
 1626              		.loc 1 661 7 discriminator 7
 1627 010e 7B68     		ldr	r3, [r7, #4]
 1628 0110 1B68     		ldr	r3, [r3]
 1629 0112 1F4A     		ldr	r2, .L80+24
 1630 0114 9342     		cmp	r3, r2
 1631 0116 09D0     		beq	.L75
 1632              		.loc 1 661 7 discriminator 8
ARM GAS  C:\Users\Su\AppData\Local\Temp\ccm0VnUy.s 			page 41


 1633 0118 7B68     		ldr	r3, [r7, #4]
 1634 011a 1B68     		ldr	r3, [r3]
 1635 011c 1D4A     		ldr	r2, .L80+28
 1636 011e 9342     		cmp	r3, r2
 1637 0120 04D0     		beq	.L75
 1638              		.loc 1 661 7 discriminator 9
 1639 0122 7B68     		ldr	r3, [r7, #4]
 1640 0124 1B68     		ldr	r3, [r3]
 1641 0126 1C4A     		ldr	r2, .L80+32
 1642 0128 9342     		cmp	r3, r2
 1643 012a 15D1     		bne	.L76
 1644              	.L75:
 662:Drivers/STM32H7xx_HAL_Driver/Src/stm32h7xx_hal_tim_ex.c ****   {
 663:Drivers/STM32H7xx_HAL_Driver/Src/stm32h7xx_hal_tim_ex.c ****     tmpsmcr = htim->Instance->SMCR & TIM_SMCR_SMS;
 1645              		.loc 1 663 19 is_stmt 1
 1646 012c 7B68     		ldr	r3, [r7, #4]
 1647 012e 1B68     		ldr	r3, [r3]
 1648              		.loc 1 663 29
 1649 0130 9A68     		ldr	r2, [r3, #8]
 1650              		.loc 1 663 13
 1651 0132 1A4B     		ldr	r3, .L80+36
 1652 0134 1340     		ands	r3, r3, r2
 1653 0136 FB60     		str	r3, [r7, #12]
 664:Drivers/STM32H7xx_HAL_Driver/Src/stm32h7xx_hal_tim_ex.c ****     if (!IS_TIM_SLAVEMODE_TRIGGER_ENABLED(tmpsmcr))
 1654              		.loc 1 664 8
 1655 0138 FB68     		ldr	r3, [r7, #12]
 1656 013a 062B     		cmp	r3, #6
 1657 013c 15D0     		beq	.L79
 1658              		.loc 1 664 9 discriminator 1
 1659 013e FB68     		ldr	r3, [r7, #12]
 1660 0140 B3F5803F 		cmp	r3, #65536
 1661 0144 11D0     		beq	.L79
 665:Drivers/STM32H7xx_HAL_Driver/Src/stm32h7xx_hal_tim_ex.c ****     {
 666:Drivers/STM32H7xx_HAL_Driver/Src/stm32h7xx_hal_tim_ex.c ****       __HAL_TIM_ENABLE(htim);
 1662              		.loc 1 666 7
 1663 0146 7B68     		ldr	r3, [r7, #4]
 1664 0148 1B68     		ldr	r3, [r3]
 1665 014a 1A68     		ldr	r2, [r3]
 1666 014c 7B68     		ldr	r3, [r7, #4]
 1667 014e 1B68     		ldr	r3, [r3]
 1668 0150 42F00102 		orr	r2, r2, #1
 1669 0154 1A60     		str	r2, [r3]
 664:Drivers/STM32H7xx_HAL_Driver/Src/stm32h7xx_hal_tim_ex.c ****     if (!IS_TIM_SLAVEMODE_TRIGGER_ENABLED(tmpsmcr))
 1670              		.loc 1 664 8
 1671 0156 08E0     		b	.L79
 1672              	.L76:
 667:Drivers/STM32H7xx_HAL_Driver/Src/stm32h7xx_hal_tim_ex.c ****     }
 668:Drivers/STM32H7xx_HAL_Driver/Src/stm32h7xx_hal_tim_ex.c ****   }
 669:Drivers/STM32H7xx_HAL_Driver/Src/stm32h7xx_hal_tim_ex.c ****   else
 670:Drivers/STM32H7xx_HAL_Driver/Src/stm32h7xx_hal_tim_ex.c ****   {
 671:Drivers/STM32H7xx_HAL_Driver/Src/stm32h7xx_hal_tim_ex.c ****     __HAL_TIM_ENABLE(htim);
 1673              		.loc 1 671 5
 1674 0158 7B68     		ldr	r3, [r7, #4]
 1675 015a 1B68     		ldr	r3, [r3]
 1676 015c 1A68     		ldr	r2, [r3]
 1677 015e 7B68     		ldr	r3, [r7, #4]
 1678 0160 1B68     		ldr	r3, [r3]
ARM GAS  C:\Users\Su\AppData\Local\Temp\ccm0VnUy.s 			page 42


 1679 0162 42F00102 		orr	r2, r2, #1
 1680 0166 1A60     		str	r2, [r3]
 1681 0168 00E0     		b	.L78
 1682              	.L79:
 664:Drivers/STM32H7xx_HAL_Driver/Src/stm32h7xx_hal_tim_ex.c ****     {
 1683              		.loc 1 664 8
 1684 016a 00BF     		nop
 1685              	.L78:
 672:Drivers/STM32H7xx_HAL_Driver/Src/stm32h7xx_hal_tim_ex.c ****   }
 673:Drivers/STM32H7xx_HAL_Driver/Src/stm32h7xx_hal_tim_ex.c **** 
 674:Drivers/STM32H7xx_HAL_Driver/Src/stm32h7xx_hal_tim_ex.c ****   /* Return function status */
 675:Drivers/STM32H7xx_HAL_Driver/Src/stm32h7xx_hal_tim_ex.c ****   return HAL_OK;
 1686              		.loc 1 675 10
 1687 016c 0023     		movs	r3, #0
 1688              	.L68:
 676:Drivers/STM32H7xx_HAL_Driver/Src/stm32h7xx_hal_tim_ex.c **** }
 1689              		.loc 1 676 1
 1690 016e 1846     		mov	r0, r3
 1691 0170 1037     		adds	r7, r7, #16
 1692              	.LCFI55:
 1693              		.cfi_def_cfa_offset 8
 1694 0172 BD46     		mov	sp, r7
 1695              	.LCFI56:
 1696              		.cfi_def_cfa_register 13
 1697              		@ sp needed
 1698 0174 80BD     		pop	{r7, pc}
 1699              	.L81:
 1700 0176 00BF     		.align	2
 1701              	.L80:
 1702 0178 00000140 		.word	1073807360
 1703 017c 00040040 		.word	1073742848
 1704 0180 00080040 		.word	1073743872
 1705 0184 000C0040 		.word	1073744896
 1706 0188 00040140 		.word	1073808384
 1707 018c 00180040 		.word	1073747968
 1708 0190 00400140 		.word	1073823744
 1709 0194 00E00040 		.word	1073799168
 1710 0198 00E40040 		.word	1073800192
 1711 019c 07000100 		.word	65543
 1712              		.cfi_endproc
 1713              	.LFE154:
 1715              		.section	.text.HAL_TIMEx_OCN_Stop,"ax",%progbits
 1716              		.align	1
 1717              		.global	HAL_TIMEx_OCN_Stop
 1718              		.syntax unified
 1719              		.thumb
 1720              		.thumb_func
 1722              	HAL_TIMEx_OCN_Stop:
 1723              	.LFB155:
 677:Drivers/STM32H7xx_HAL_Driver/Src/stm32h7xx_hal_tim_ex.c **** 
 678:Drivers/STM32H7xx_HAL_Driver/Src/stm32h7xx_hal_tim_ex.c **** /**
 679:Drivers/STM32H7xx_HAL_Driver/Src/stm32h7xx_hal_tim_ex.c ****   * @brief  Stops the TIM Output Compare signal generation on the complementary
 680:Drivers/STM32H7xx_HAL_Driver/Src/stm32h7xx_hal_tim_ex.c ****   *         output.
 681:Drivers/STM32H7xx_HAL_Driver/Src/stm32h7xx_hal_tim_ex.c ****   * @param  htim TIM handle
 682:Drivers/STM32H7xx_HAL_Driver/Src/stm32h7xx_hal_tim_ex.c ****   * @param  Channel TIM Channel to be disabled
 683:Drivers/STM32H7xx_HAL_Driver/Src/stm32h7xx_hal_tim_ex.c ****   *          This parameter can be one of the following values:
 684:Drivers/STM32H7xx_HAL_Driver/Src/stm32h7xx_hal_tim_ex.c ****   *            @arg TIM_CHANNEL_1: TIM Channel 1 selected
ARM GAS  C:\Users\Su\AppData\Local\Temp\ccm0VnUy.s 			page 43


 685:Drivers/STM32H7xx_HAL_Driver/Src/stm32h7xx_hal_tim_ex.c ****   *            @arg TIM_CHANNEL_2: TIM Channel 2 selected
 686:Drivers/STM32H7xx_HAL_Driver/Src/stm32h7xx_hal_tim_ex.c ****   *            @arg TIM_CHANNEL_3: TIM Channel 3 selected
 687:Drivers/STM32H7xx_HAL_Driver/Src/stm32h7xx_hal_tim_ex.c ****   * @retval HAL status
 688:Drivers/STM32H7xx_HAL_Driver/Src/stm32h7xx_hal_tim_ex.c ****   */
 689:Drivers/STM32H7xx_HAL_Driver/Src/stm32h7xx_hal_tim_ex.c **** HAL_StatusTypeDef HAL_TIMEx_OCN_Stop(TIM_HandleTypeDef *htim, uint32_t Channel)
 690:Drivers/STM32H7xx_HAL_Driver/Src/stm32h7xx_hal_tim_ex.c **** {
 1724              		.loc 1 690 1
 1725              		.cfi_startproc
 1726              		@ args = 0, pretend = 0, frame = 8
 1727              		@ frame_needed = 1, uses_anonymous_args = 0
 1728 0000 80B5     		push	{r7, lr}
 1729              	.LCFI57:
 1730              		.cfi_def_cfa_offset 8
 1731              		.cfi_offset 7, -8
 1732              		.cfi_offset 14, -4
 1733 0002 82B0     		sub	sp, sp, #8
 1734              	.LCFI58:
 1735              		.cfi_def_cfa_offset 16
 1736 0004 00AF     		add	r7, sp, #0
 1737              	.LCFI59:
 1738              		.cfi_def_cfa_register 7
 1739 0006 7860     		str	r0, [r7, #4]
 1740 0008 3960     		str	r1, [r7]
 691:Drivers/STM32H7xx_HAL_Driver/Src/stm32h7xx_hal_tim_ex.c ****   /* Check the parameters */
 692:Drivers/STM32H7xx_HAL_Driver/Src/stm32h7xx_hal_tim_ex.c ****   assert_param(IS_TIM_CCXN_INSTANCE(htim->Instance, Channel));
 693:Drivers/STM32H7xx_HAL_Driver/Src/stm32h7xx_hal_tim_ex.c **** 
 694:Drivers/STM32H7xx_HAL_Driver/Src/stm32h7xx_hal_tim_ex.c ****   /* Disable the Capture compare channel N */
 695:Drivers/STM32H7xx_HAL_Driver/Src/stm32h7xx_hal_tim_ex.c ****   TIM_CCxNChannelCmd(htim->Instance, Channel, TIM_CCxN_DISABLE);
 1741              		.loc 1 695 3
 1742 000a 7B68     		ldr	r3, [r7, #4]
 1743 000c 1B68     		ldr	r3, [r3]
 1744 000e 0022     		movs	r2, #0
 1745 0010 3968     		ldr	r1, [r7]
 1746 0012 1846     		mov	r0, r3
 1747 0014 FFF7FEFF 		bl	TIM_CCxNChannelCmd
 696:Drivers/STM32H7xx_HAL_Driver/Src/stm32h7xx_hal_tim_ex.c **** 
 697:Drivers/STM32H7xx_HAL_Driver/Src/stm32h7xx_hal_tim_ex.c ****   /* Disable the Main Output */
 698:Drivers/STM32H7xx_HAL_Driver/Src/stm32h7xx_hal_tim_ex.c ****   __HAL_TIM_MOE_DISABLE(htim);
 1748              		.loc 1 698 3
 1749 0018 7B68     		ldr	r3, [r7, #4]
 1750 001a 1B68     		ldr	r3, [r3]
 1751 001c 1A6A     		ldr	r2, [r3, #32]
 1752 001e 41F21113 		movw	r3, #4369
 1753 0022 1340     		ands	r3, r3, r2
 1754 0024 002B     		cmp	r3, #0
 1755 0026 0FD1     		bne	.L83
 1756              		.loc 1 698 3 is_stmt 0 discriminator 1
 1757 0028 7B68     		ldr	r3, [r7, #4]
 1758 002a 1B68     		ldr	r3, [r3]
 1759 002c 1A6A     		ldr	r2, [r3, #32]
 1760 002e 40F24443 		movw	r3, #1092
 1761 0032 1340     		ands	r3, r3, r2
 1762 0034 002B     		cmp	r3, #0
 1763 0036 07D1     		bne	.L83
 1764              		.loc 1 698 3 discriminator 2
 1765 0038 7B68     		ldr	r3, [r7, #4]
 1766 003a 1B68     		ldr	r3, [r3]
ARM GAS  C:\Users\Su\AppData\Local\Temp\ccm0VnUy.s 			page 44


 1767 003c 5A6C     		ldr	r2, [r3, #68]
 1768 003e 7B68     		ldr	r3, [r7, #4]
 1769 0040 1B68     		ldr	r3, [r3]
 1770 0042 22F40042 		bic	r2, r2, #32768
 1771 0046 5A64     		str	r2, [r3, #68]
 1772              	.L83:
 699:Drivers/STM32H7xx_HAL_Driver/Src/stm32h7xx_hal_tim_ex.c **** 
 700:Drivers/STM32H7xx_HAL_Driver/Src/stm32h7xx_hal_tim_ex.c ****   /* Disable the Peripheral */
 701:Drivers/STM32H7xx_HAL_Driver/Src/stm32h7xx_hal_tim_ex.c ****   __HAL_TIM_DISABLE(htim);
 1773              		.loc 1 701 3 is_stmt 1
 1774 0048 7B68     		ldr	r3, [r7, #4]
 1775 004a 1B68     		ldr	r3, [r3]
 1776 004c 1A6A     		ldr	r2, [r3, #32]
 1777 004e 41F21113 		movw	r3, #4369
 1778 0052 1340     		ands	r3, r3, r2
 1779 0054 002B     		cmp	r3, #0
 1780 0056 0FD1     		bne	.L84
 1781              		.loc 1 701 3 is_stmt 0 discriminator 1
 1782 0058 7B68     		ldr	r3, [r7, #4]
 1783 005a 1B68     		ldr	r3, [r3]
 1784 005c 1A6A     		ldr	r2, [r3, #32]
 1785 005e 40F24443 		movw	r3, #1092
 1786 0062 1340     		ands	r3, r3, r2
 1787 0064 002B     		cmp	r3, #0
 1788 0066 07D1     		bne	.L84
 1789              		.loc 1 701 3 discriminator 2
 1790 0068 7B68     		ldr	r3, [r7, #4]
 1791 006a 1B68     		ldr	r3, [r3]
 1792 006c 1A68     		ldr	r2, [r3]
 1793 006e 7B68     		ldr	r3, [r7, #4]
 1794 0070 1B68     		ldr	r3, [r3]
 1795 0072 22F00102 		bic	r2, r2, #1
 1796 0076 1A60     		str	r2, [r3]
 1797              	.L84:
 702:Drivers/STM32H7xx_HAL_Driver/Src/stm32h7xx_hal_tim_ex.c **** 
 703:Drivers/STM32H7xx_HAL_Driver/Src/stm32h7xx_hal_tim_ex.c ****   /* Set the TIM complementary channel state */
 704:Drivers/STM32H7xx_HAL_Driver/Src/stm32h7xx_hal_tim_ex.c ****   TIM_CHANNEL_N_STATE_SET(htim, Channel, HAL_TIM_CHANNEL_STATE_READY);
 1798              		.loc 1 704 3 is_stmt 1
 1799 0078 3B68     		ldr	r3, [r7]
 1800 007a 002B     		cmp	r3, #0
 1801 007c 04D1     		bne	.L85
 1802              		.loc 1 704 3 is_stmt 0 discriminator 1
 1803 007e 7B68     		ldr	r3, [r7, #4]
 1804 0080 0122     		movs	r2, #1
 1805 0082 83F84420 		strb	r2, [r3, #68]
 1806 0086 13E0     		b	.L86
 1807              	.L85:
 1808              		.loc 1 704 3 discriminator 2
 1809 0088 3B68     		ldr	r3, [r7]
 1810 008a 042B     		cmp	r3, #4
 1811 008c 04D1     		bne	.L87
 1812              		.loc 1 704 3 discriminator 3
 1813 008e 7B68     		ldr	r3, [r7, #4]
 1814 0090 0122     		movs	r2, #1
 1815 0092 83F84520 		strb	r2, [r3, #69]
 1816 0096 0BE0     		b	.L86
 1817              	.L87:
ARM GAS  C:\Users\Su\AppData\Local\Temp\ccm0VnUy.s 			page 45


 1818              		.loc 1 704 3 discriminator 4
 1819 0098 3B68     		ldr	r3, [r7]
 1820 009a 082B     		cmp	r3, #8
 1821 009c 04D1     		bne	.L89
 1822              		.loc 1 704 3 discriminator 6
 1823 009e 7B68     		ldr	r3, [r7, #4]
 1824 00a0 0122     		movs	r2, #1
 1825 00a2 83F84620 		strb	r2, [r3, #70]
 1826 00a6 03E0     		b	.L86
 1827              	.L89:
 1828              		.loc 1 704 3 discriminator 7
 1829 00a8 7B68     		ldr	r3, [r7, #4]
 1830 00aa 0122     		movs	r2, #1
 1831 00ac 83F84720 		strb	r2, [r3, #71]
 1832              	.L86:
 705:Drivers/STM32H7xx_HAL_Driver/Src/stm32h7xx_hal_tim_ex.c **** 
 706:Drivers/STM32H7xx_HAL_Driver/Src/stm32h7xx_hal_tim_ex.c ****   /* Return function status */
 707:Drivers/STM32H7xx_HAL_Driver/Src/stm32h7xx_hal_tim_ex.c ****   return HAL_OK;
 1833              		.loc 1 707 10 is_stmt 1
 1834 00b0 0023     		movs	r3, #0
 708:Drivers/STM32H7xx_HAL_Driver/Src/stm32h7xx_hal_tim_ex.c **** }
 1835              		.loc 1 708 1
 1836 00b2 1846     		mov	r0, r3
 1837 00b4 0837     		adds	r7, r7, #8
 1838              	.LCFI60:
 1839              		.cfi_def_cfa_offset 8
 1840 00b6 BD46     		mov	sp, r7
 1841              	.LCFI61:
 1842              		.cfi_def_cfa_register 13
 1843              		@ sp needed
 1844 00b8 80BD     		pop	{r7, pc}
 1845              		.cfi_endproc
 1846              	.LFE155:
 1848              		.section	.text.HAL_TIMEx_OCN_Start_IT,"ax",%progbits
 1849              		.align	1
 1850              		.global	HAL_TIMEx_OCN_Start_IT
 1851              		.syntax unified
 1852              		.thumb
 1853              		.thumb_func
 1855              	HAL_TIMEx_OCN_Start_IT:
 1856              	.LFB156:
 709:Drivers/STM32H7xx_HAL_Driver/Src/stm32h7xx_hal_tim_ex.c **** 
 710:Drivers/STM32H7xx_HAL_Driver/Src/stm32h7xx_hal_tim_ex.c **** /**
 711:Drivers/STM32H7xx_HAL_Driver/Src/stm32h7xx_hal_tim_ex.c ****   * @brief  Starts the TIM Output Compare signal generation in interrupt mode
 712:Drivers/STM32H7xx_HAL_Driver/Src/stm32h7xx_hal_tim_ex.c ****   *         on the complementary output.
 713:Drivers/STM32H7xx_HAL_Driver/Src/stm32h7xx_hal_tim_ex.c ****   * @param  htim TIM OC handle
 714:Drivers/STM32H7xx_HAL_Driver/Src/stm32h7xx_hal_tim_ex.c ****   * @param  Channel TIM Channel to be enabled
 715:Drivers/STM32H7xx_HAL_Driver/Src/stm32h7xx_hal_tim_ex.c ****   *          This parameter can be one of the following values:
 716:Drivers/STM32H7xx_HAL_Driver/Src/stm32h7xx_hal_tim_ex.c ****   *            @arg TIM_CHANNEL_1: TIM Channel 1 selected
 717:Drivers/STM32H7xx_HAL_Driver/Src/stm32h7xx_hal_tim_ex.c ****   *            @arg TIM_CHANNEL_2: TIM Channel 2 selected
 718:Drivers/STM32H7xx_HAL_Driver/Src/stm32h7xx_hal_tim_ex.c ****   *            @arg TIM_CHANNEL_3: TIM Channel 3 selected
 719:Drivers/STM32H7xx_HAL_Driver/Src/stm32h7xx_hal_tim_ex.c ****   * @retval HAL status
 720:Drivers/STM32H7xx_HAL_Driver/Src/stm32h7xx_hal_tim_ex.c ****   */
 721:Drivers/STM32H7xx_HAL_Driver/Src/stm32h7xx_hal_tim_ex.c **** HAL_StatusTypeDef HAL_TIMEx_OCN_Start_IT(TIM_HandleTypeDef *htim, uint32_t Channel)
 722:Drivers/STM32H7xx_HAL_Driver/Src/stm32h7xx_hal_tim_ex.c **** {
 1857              		.loc 1 722 1
 1858              		.cfi_startproc
ARM GAS  C:\Users\Su\AppData\Local\Temp\ccm0VnUy.s 			page 46


 1859              		@ args = 0, pretend = 0, frame = 16
 1860              		@ frame_needed = 1, uses_anonymous_args = 0
 1861 0000 80B5     		push	{r7, lr}
 1862              	.LCFI62:
 1863              		.cfi_def_cfa_offset 8
 1864              		.cfi_offset 7, -8
 1865              		.cfi_offset 14, -4
 1866 0002 84B0     		sub	sp, sp, #16
 1867              	.LCFI63:
 1868              		.cfi_def_cfa_offset 24
 1869 0004 00AF     		add	r7, sp, #0
 1870              	.LCFI64:
 1871              		.cfi_def_cfa_register 7
 1872 0006 7860     		str	r0, [r7, #4]
 1873 0008 3960     		str	r1, [r7]
 723:Drivers/STM32H7xx_HAL_Driver/Src/stm32h7xx_hal_tim_ex.c ****   HAL_StatusTypeDef status = HAL_OK;
 1874              		.loc 1 723 21
 1875 000a 0023     		movs	r3, #0
 1876 000c FB73     		strb	r3, [r7, #15]
 724:Drivers/STM32H7xx_HAL_Driver/Src/stm32h7xx_hal_tim_ex.c ****   uint32_t tmpsmcr;
 725:Drivers/STM32H7xx_HAL_Driver/Src/stm32h7xx_hal_tim_ex.c **** 
 726:Drivers/STM32H7xx_HAL_Driver/Src/stm32h7xx_hal_tim_ex.c ****   /* Check the parameters */
 727:Drivers/STM32H7xx_HAL_Driver/Src/stm32h7xx_hal_tim_ex.c ****   assert_param(IS_TIM_CCXN_INSTANCE(htim->Instance, Channel));
 728:Drivers/STM32H7xx_HAL_Driver/Src/stm32h7xx_hal_tim_ex.c **** 
 729:Drivers/STM32H7xx_HAL_Driver/Src/stm32h7xx_hal_tim_ex.c ****   /* Check the TIM complementary channel state */
 730:Drivers/STM32H7xx_HAL_Driver/Src/stm32h7xx_hal_tim_ex.c ****   if (TIM_CHANNEL_N_STATE_GET(htim, Channel) != HAL_TIM_CHANNEL_STATE_READY)
 1877              		.loc 1 730 46
 1878 000e 3B68     		ldr	r3, [r7]
 1879 0010 002B     		cmp	r3, #0
 1880 0012 09D1     		bne	.L93
 1881              		.loc 1 730 7 discriminator 1
 1882 0014 7B68     		ldr	r3, [r7, #4]
 1883 0016 93F84430 		ldrb	r3, [r3, #68]
 1884 001a DBB2     		uxtb	r3, r3
 1885              		.loc 1 730 46 discriminator 1
 1886 001c 012B     		cmp	r3, #1
 1887 001e 14BF     		ite	ne
 1888 0020 0123     		movne	r3, #1
 1889 0022 0023     		moveq	r3, #0
 1890 0024 DBB2     		uxtb	r3, r3
 1891 0026 22E0     		b	.L94
 1892              	.L93:
 1893              		.loc 1 730 46 is_stmt 0 discriminator 2
 1894 0028 3B68     		ldr	r3, [r7]
 1895 002a 042B     		cmp	r3, #4
 1896 002c 09D1     		bne	.L95
 1897              		.loc 1 730 7 is_stmt 1 discriminator 4
 1898 002e 7B68     		ldr	r3, [r7, #4]
 1899 0030 93F84530 		ldrb	r3, [r3, #69]
 1900 0034 DBB2     		uxtb	r3, r3
 1901              		.loc 1 730 46 discriminator 4
 1902 0036 012B     		cmp	r3, #1
 1903 0038 14BF     		ite	ne
 1904 003a 0123     		movne	r3, #1
 1905 003c 0023     		moveq	r3, #0
 1906 003e DBB2     		uxtb	r3, r3
 1907 0040 15E0     		b	.L94
ARM GAS  C:\Users\Su\AppData\Local\Temp\ccm0VnUy.s 			page 47


 1908              	.L95:
 1909              		.loc 1 730 46 is_stmt 0 discriminator 5
 1910 0042 3B68     		ldr	r3, [r7]
 1911 0044 082B     		cmp	r3, #8
 1912 0046 09D1     		bne	.L97
 1913              		.loc 1 730 7 is_stmt 1 discriminator 7
 1914 0048 7B68     		ldr	r3, [r7, #4]
 1915 004a 93F84630 		ldrb	r3, [r3, #70]
 1916 004e DBB2     		uxtb	r3, r3
 1917              		.loc 1 730 46 discriminator 7
 1918 0050 012B     		cmp	r3, #1
 1919 0052 14BF     		ite	ne
 1920 0054 0123     		movne	r3, #1
 1921 0056 0023     		moveq	r3, #0
 1922 0058 DBB2     		uxtb	r3, r3
 1923 005a 08E0     		b	.L94
 1924              	.L97:
 1925              		.loc 1 730 7 discriminator 8
 1926 005c 7B68     		ldr	r3, [r7, #4]
 1927 005e 93F84730 		ldrb	r3, [r3, #71]
 1928 0062 DBB2     		uxtb	r3, r3
 1929              		.loc 1 730 46 discriminator 8
 1930 0064 012B     		cmp	r3, #1
 1931 0066 14BF     		ite	ne
 1932 0068 0123     		movne	r3, #1
 1933 006a 0023     		moveq	r3, #0
 1934 006c DBB2     		uxtb	r3, r3
 1935              	.L94:
 1936              		.loc 1 730 6 discriminator 12
 1937 006e 002B     		cmp	r3, #0
 1938 0070 01D0     		beq	.L99
 731:Drivers/STM32H7xx_HAL_Driver/Src/stm32h7xx_hal_tim_ex.c ****   {
 732:Drivers/STM32H7xx_HAL_Driver/Src/stm32h7xx_hal_tim_ex.c ****     return HAL_ERROR;
 1939              		.loc 1 732 12
 1940 0072 0123     		movs	r3, #1
 1941 0074 B3E0     		b	.L100
 1942              	.L99:
 733:Drivers/STM32H7xx_HAL_Driver/Src/stm32h7xx_hal_tim_ex.c ****   }
 734:Drivers/STM32H7xx_HAL_Driver/Src/stm32h7xx_hal_tim_ex.c **** 
 735:Drivers/STM32H7xx_HAL_Driver/Src/stm32h7xx_hal_tim_ex.c ****   /* Set the TIM complementary channel state */
 736:Drivers/STM32H7xx_HAL_Driver/Src/stm32h7xx_hal_tim_ex.c ****   TIM_CHANNEL_N_STATE_SET(htim, Channel, HAL_TIM_CHANNEL_STATE_BUSY);
 1943              		.loc 1 736 3
 1944 0076 3B68     		ldr	r3, [r7]
 1945 0078 002B     		cmp	r3, #0
 1946 007a 04D1     		bne	.L101
 1947              		.loc 1 736 3 is_stmt 0 discriminator 1
 1948 007c 7B68     		ldr	r3, [r7, #4]
 1949 007e 0222     		movs	r2, #2
 1950 0080 83F84420 		strb	r2, [r3, #68]
 1951 0084 13E0     		b	.L102
 1952              	.L101:
 1953              		.loc 1 736 3 discriminator 2
 1954 0086 3B68     		ldr	r3, [r7]
 1955 0088 042B     		cmp	r3, #4
 1956 008a 04D1     		bne	.L103
 1957              		.loc 1 736 3 discriminator 3
 1958 008c 7B68     		ldr	r3, [r7, #4]
ARM GAS  C:\Users\Su\AppData\Local\Temp\ccm0VnUy.s 			page 48


 1959 008e 0222     		movs	r2, #2
 1960 0090 83F84520 		strb	r2, [r3, #69]
 1961 0094 0BE0     		b	.L102
 1962              	.L103:
 1963              		.loc 1 736 3 discriminator 4
 1964 0096 3B68     		ldr	r3, [r7]
 1965 0098 082B     		cmp	r3, #8
 1966 009a 04D1     		bne	.L105
 1967              		.loc 1 736 3 discriminator 6
 1968 009c 7B68     		ldr	r3, [r7, #4]
 1969 009e 0222     		movs	r2, #2
 1970 00a0 83F84620 		strb	r2, [r3, #70]
 1971 00a4 03E0     		b	.L102
 1972              	.L105:
 1973              		.loc 1 736 3 discriminator 7
 1974 00a6 7B68     		ldr	r3, [r7, #4]
 1975 00a8 0222     		movs	r2, #2
 1976 00aa 83F84720 		strb	r2, [r3, #71]
 1977              	.L102:
 737:Drivers/STM32H7xx_HAL_Driver/Src/stm32h7xx_hal_tim_ex.c **** 
 738:Drivers/STM32H7xx_HAL_Driver/Src/stm32h7xx_hal_tim_ex.c ****   switch (Channel)
 1978              		.loc 1 738 3 is_stmt 1
 1979 00ae 3B68     		ldr	r3, [r7]
 1980 00b0 082B     		cmp	r3, #8
 1981 00b2 1BD0     		beq	.L107
 1982 00b4 3B68     		ldr	r3, [r7]
 1983 00b6 082B     		cmp	r3, #8
 1984 00b8 21D8     		bhi	.L108
 1985 00ba 3B68     		ldr	r3, [r7]
 1986 00bc 002B     		cmp	r3, #0
 1987 00be 03D0     		beq	.L109
 1988 00c0 3B68     		ldr	r3, [r7]
 1989 00c2 042B     		cmp	r3, #4
 1990 00c4 09D0     		beq	.L110
 1991 00c6 1AE0     		b	.L108
 1992              	.L109:
 739:Drivers/STM32H7xx_HAL_Driver/Src/stm32h7xx_hal_tim_ex.c ****   {
 740:Drivers/STM32H7xx_HAL_Driver/Src/stm32h7xx_hal_tim_ex.c ****     case TIM_CHANNEL_1:
 741:Drivers/STM32H7xx_HAL_Driver/Src/stm32h7xx_hal_tim_ex.c ****     {
 742:Drivers/STM32H7xx_HAL_Driver/Src/stm32h7xx_hal_tim_ex.c ****       /* Enable the TIM Output Compare interrupt */
 743:Drivers/STM32H7xx_HAL_Driver/Src/stm32h7xx_hal_tim_ex.c ****       __HAL_TIM_ENABLE_IT(htim, TIM_IT_CC1);
 1993              		.loc 1 743 7
 1994 00c8 7B68     		ldr	r3, [r7, #4]
 1995 00ca 1B68     		ldr	r3, [r3]
 1996 00cc DA68     		ldr	r2, [r3, #12]
 1997 00ce 7B68     		ldr	r3, [r7, #4]
 1998 00d0 1B68     		ldr	r3, [r3]
 1999 00d2 42F00202 		orr	r2, r2, #2
 2000 00d6 DA60     		str	r2, [r3, #12]
 744:Drivers/STM32H7xx_HAL_Driver/Src/stm32h7xx_hal_tim_ex.c ****       break;
 2001              		.loc 1 744 7
 2002 00d8 14E0     		b	.L111
 2003              	.L110:
 745:Drivers/STM32H7xx_HAL_Driver/Src/stm32h7xx_hal_tim_ex.c ****     }
 746:Drivers/STM32H7xx_HAL_Driver/Src/stm32h7xx_hal_tim_ex.c **** 
 747:Drivers/STM32H7xx_HAL_Driver/Src/stm32h7xx_hal_tim_ex.c ****     case TIM_CHANNEL_2:
 748:Drivers/STM32H7xx_HAL_Driver/Src/stm32h7xx_hal_tim_ex.c ****     {
ARM GAS  C:\Users\Su\AppData\Local\Temp\ccm0VnUy.s 			page 49


 749:Drivers/STM32H7xx_HAL_Driver/Src/stm32h7xx_hal_tim_ex.c ****       /* Enable the TIM Output Compare interrupt */
 750:Drivers/STM32H7xx_HAL_Driver/Src/stm32h7xx_hal_tim_ex.c ****       __HAL_TIM_ENABLE_IT(htim, TIM_IT_CC2);
 2004              		.loc 1 750 7
 2005 00da 7B68     		ldr	r3, [r7, #4]
 2006 00dc 1B68     		ldr	r3, [r3]
 2007 00de DA68     		ldr	r2, [r3, #12]
 2008 00e0 7B68     		ldr	r3, [r7, #4]
 2009 00e2 1B68     		ldr	r3, [r3]
 2010 00e4 42F00402 		orr	r2, r2, #4
 2011 00e8 DA60     		str	r2, [r3, #12]
 751:Drivers/STM32H7xx_HAL_Driver/Src/stm32h7xx_hal_tim_ex.c ****       break;
 2012              		.loc 1 751 7
 2013 00ea 0BE0     		b	.L111
 2014              	.L107:
 752:Drivers/STM32H7xx_HAL_Driver/Src/stm32h7xx_hal_tim_ex.c ****     }
 753:Drivers/STM32H7xx_HAL_Driver/Src/stm32h7xx_hal_tim_ex.c **** 
 754:Drivers/STM32H7xx_HAL_Driver/Src/stm32h7xx_hal_tim_ex.c ****     case TIM_CHANNEL_3:
 755:Drivers/STM32H7xx_HAL_Driver/Src/stm32h7xx_hal_tim_ex.c ****     {
 756:Drivers/STM32H7xx_HAL_Driver/Src/stm32h7xx_hal_tim_ex.c ****       /* Enable the TIM Output Compare interrupt */
 757:Drivers/STM32H7xx_HAL_Driver/Src/stm32h7xx_hal_tim_ex.c ****       __HAL_TIM_ENABLE_IT(htim, TIM_IT_CC3);
 2015              		.loc 1 757 7
 2016 00ec 7B68     		ldr	r3, [r7, #4]
 2017 00ee 1B68     		ldr	r3, [r3]
 2018 00f0 DA68     		ldr	r2, [r3, #12]
 2019 00f2 7B68     		ldr	r3, [r7, #4]
 2020 00f4 1B68     		ldr	r3, [r3]
 2021 00f6 42F00802 		orr	r2, r2, #8
 2022 00fa DA60     		str	r2, [r3, #12]
 758:Drivers/STM32H7xx_HAL_Driver/Src/stm32h7xx_hal_tim_ex.c ****       break;
 2023              		.loc 1 758 7
 2024 00fc 02E0     		b	.L111
 2025              	.L108:
 759:Drivers/STM32H7xx_HAL_Driver/Src/stm32h7xx_hal_tim_ex.c ****     }
 760:Drivers/STM32H7xx_HAL_Driver/Src/stm32h7xx_hal_tim_ex.c **** 
 761:Drivers/STM32H7xx_HAL_Driver/Src/stm32h7xx_hal_tim_ex.c **** 
 762:Drivers/STM32H7xx_HAL_Driver/Src/stm32h7xx_hal_tim_ex.c ****     default:
 763:Drivers/STM32H7xx_HAL_Driver/Src/stm32h7xx_hal_tim_ex.c ****       status = HAL_ERROR;
 2026              		.loc 1 763 14
 2027 00fe 0123     		movs	r3, #1
 2028 0100 FB73     		strb	r3, [r7, #15]
 764:Drivers/STM32H7xx_HAL_Driver/Src/stm32h7xx_hal_tim_ex.c ****       break;
 2029              		.loc 1 764 7
 2030 0102 00BF     		nop
 2031              	.L111:
 765:Drivers/STM32H7xx_HAL_Driver/Src/stm32h7xx_hal_tim_ex.c ****   }
 766:Drivers/STM32H7xx_HAL_Driver/Src/stm32h7xx_hal_tim_ex.c **** 
 767:Drivers/STM32H7xx_HAL_Driver/Src/stm32h7xx_hal_tim_ex.c ****   if (status == HAL_OK)
 2032              		.loc 1 767 6
 2033 0104 FB7B     		ldrb	r3, [r7, #15]	@ zero_extendqisi2
 2034 0106 002B     		cmp	r3, #0
 2035 0108 68D1     		bne	.L112
 768:Drivers/STM32H7xx_HAL_Driver/Src/stm32h7xx_hal_tim_ex.c ****   {
 769:Drivers/STM32H7xx_HAL_Driver/Src/stm32h7xx_hal_tim_ex.c ****     /* Enable the TIM Break interrupt */
 770:Drivers/STM32H7xx_HAL_Driver/Src/stm32h7xx_hal_tim_ex.c ****     __HAL_TIM_ENABLE_IT(htim, TIM_IT_BREAK);
 2036              		.loc 1 770 5
 2037 010a 7B68     		ldr	r3, [r7, #4]
 2038 010c 1B68     		ldr	r3, [r3]
ARM GAS  C:\Users\Su\AppData\Local\Temp\ccm0VnUy.s 			page 50


 2039 010e DA68     		ldr	r2, [r3, #12]
 2040 0110 7B68     		ldr	r3, [r7, #4]
 2041 0112 1B68     		ldr	r3, [r3]
 2042 0114 42F08002 		orr	r2, r2, #128
 2043 0118 DA60     		str	r2, [r3, #12]
 771:Drivers/STM32H7xx_HAL_Driver/Src/stm32h7xx_hal_tim_ex.c **** 
 772:Drivers/STM32H7xx_HAL_Driver/Src/stm32h7xx_hal_tim_ex.c ****     /* Enable the Capture compare channel N */
 773:Drivers/STM32H7xx_HAL_Driver/Src/stm32h7xx_hal_tim_ex.c ****     TIM_CCxNChannelCmd(htim->Instance, Channel, TIM_CCxN_ENABLE);
 2044              		.loc 1 773 5
 2045 011a 7B68     		ldr	r3, [r7, #4]
 2046 011c 1B68     		ldr	r3, [r3]
 2047 011e 0422     		movs	r2, #4
 2048 0120 3968     		ldr	r1, [r7]
 2049 0122 1846     		mov	r0, r3
 2050 0124 FFF7FEFF 		bl	TIM_CCxNChannelCmd
 774:Drivers/STM32H7xx_HAL_Driver/Src/stm32h7xx_hal_tim_ex.c **** 
 775:Drivers/STM32H7xx_HAL_Driver/Src/stm32h7xx_hal_tim_ex.c ****     /* Enable the Main Output */
 776:Drivers/STM32H7xx_HAL_Driver/Src/stm32h7xx_hal_tim_ex.c ****     __HAL_TIM_MOE_ENABLE(htim);
 2051              		.loc 1 776 5
 2052 0128 7B68     		ldr	r3, [r7, #4]
 2053 012a 1B68     		ldr	r3, [r3]
 2054 012c 5A6C     		ldr	r2, [r3, #68]
 2055 012e 7B68     		ldr	r3, [r7, #4]
 2056 0130 1B68     		ldr	r3, [r3]
 2057 0132 42F40042 		orr	r2, r2, #32768
 2058 0136 5A64     		str	r2, [r3, #68]
 777:Drivers/STM32H7xx_HAL_Driver/Src/stm32h7xx_hal_tim_ex.c **** 
 778:Drivers/STM32H7xx_HAL_Driver/Src/stm32h7xx_hal_tim_ex.c ****     /* Enable the Peripheral, except in trigger mode where enable is automatically done with trigge
 779:Drivers/STM32H7xx_HAL_Driver/Src/stm32h7xx_hal_tim_ex.c ****     if (IS_TIM_SLAVE_INSTANCE(htim->Instance))
 2059              		.loc 1 779 9
 2060 0138 7B68     		ldr	r3, [r7, #4]
 2061 013a 1B68     		ldr	r3, [r3]
 2062              		.loc 1 779 8
 2063 013c 2A4A     		ldr	r2, .L117
 2064 013e 9342     		cmp	r3, r2
 2065 0140 2CD0     		beq	.L113
 2066              		.loc 1 779 9 discriminator 1
 2067 0142 7B68     		ldr	r3, [r7, #4]
 2068 0144 1B68     		ldr	r3, [r3]
 2069 0146 B3F1804F 		cmp	r3, #1073741824
 2070 014a 27D0     		beq	.L113
 2071              		.loc 1 779 9 is_stmt 0 discriminator 2
 2072 014c 7B68     		ldr	r3, [r7, #4]
 2073 014e 1B68     		ldr	r3, [r3]
 2074 0150 264A     		ldr	r2, .L117+4
 2075 0152 9342     		cmp	r3, r2
 2076 0154 22D0     		beq	.L113
 2077              		.loc 1 779 9 discriminator 3
 2078 0156 7B68     		ldr	r3, [r7, #4]
 2079 0158 1B68     		ldr	r3, [r3]
 2080 015a 254A     		ldr	r2, .L117+8
 2081 015c 9342     		cmp	r3, r2
 2082 015e 1DD0     		beq	.L113
 2083              		.loc 1 779 9 discriminator 4
 2084 0160 7B68     		ldr	r3, [r7, #4]
 2085 0162 1B68     		ldr	r3, [r3]
 2086 0164 234A     		ldr	r2, .L117+12
ARM GAS  C:\Users\Su\AppData\Local\Temp\ccm0VnUy.s 			page 51


 2087 0166 9342     		cmp	r3, r2
 2088 0168 18D0     		beq	.L113
 2089              		.loc 1 779 9 discriminator 5
 2090 016a 7B68     		ldr	r3, [r7, #4]
 2091 016c 1B68     		ldr	r3, [r3]
 2092 016e 224A     		ldr	r2, .L117+16
 2093 0170 9342     		cmp	r3, r2
 2094 0172 13D0     		beq	.L113
 2095              		.loc 1 779 9 discriminator 6
 2096 0174 7B68     		ldr	r3, [r7, #4]
 2097 0176 1B68     		ldr	r3, [r3]
 2098 0178 204A     		ldr	r2, .L117+20
 2099 017a 9342     		cmp	r3, r2
 2100 017c 0ED0     		beq	.L113
 2101              		.loc 1 779 9 discriminator 7
 2102 017e 7B68     		ldr	r3, [r7, #4]
 2103 0180 1B68     		ldr	r3, [r3]
 2104 0182 1F4A     		ldr	r2, .L117+24
 2105 0184 9342     		cmp	r3, r2
 2106 0186 09D0     		beq	.L113
 2107              		.loc 1 779 9 discriminator 8
 2108 0188 7B68     		ldr	r3, [r7, #4]
 2109 018a 1B68     		ldr	r3, [r3]
 2110 018c 1D4A     		ldr	r2, .L117+28
 2111 018e 9342     		cmp	r3, r2
 2112 0190 04D0     		beq	.L113
 2113              		.loc 1 779 9 discriminator 9
 2114 0192 7B68     		ldr	r3, [r7, #4]
 2115 0194 1B68     		ldr	r3, [r3]
 2116 0196 1C4A     		ldr	r2, .L117+32
 2117 0198 9342     		cmp	r3, r2
 2118 019a 15D1     		bne	.L114
 2119              	.L113:
 780:Drivers/STM32H7xx_HAL_Driver/Src/stm32h7xx_hal_tim_ex.c ****     {
 781:Drivers/STM32H7xx_HAL_Driver/Src/stm32h7xx_hal_tim_ex.c ****       tmpsmcr = htim->Instance->SMCR & TIM_SMCR_SMS;
 2120              		.loc 1 781 21 is_stmt 1
 2121 019c 7B68     		ldr	r3, [r7, #4]
 2122 019e 1B68     		ldr	r3, [r3]
 2123              		.loc 1 781 31
 2124 01a0 9A68     		ldr	r2, [r3, #8]
 2125              		.loc 1 781 15
 2126 01a2 1A4B     		ldr	r3, .L117+36
 2127 01a4 1340     		ands	r3, r3, r2
 2128 01a6 BB60     		str	r3, [r7, #8]
 782:Drivers/STM32H7xx_HAL_Driver/Src/stm32h7xx_hal_tim_ex.c ****       if (!IS_TIM_SLAVEMODE_TRIGGER_ENABLED(tmpsmcr))
 2129              		.loc 1 782 10
 2130 01a8 BB68     		ldr	r3, [r7, #8]
 2131 01aa 062B     		cmp	r3, #6
 2132 01ac 15D0     		beq	.L116
 2133              		.loc 1 782 11 discriminator 1
 2134 01ae BB68     		ldr	r3, [r7, #8]
 2135 01b0 B3F5803F 		cmp	r3, #65536
 2136 01b4 11D0     		beq	.L116
 783:Drivers/STM32H7xx_HAL_Driver/Src/stm32h7xx_hal_tim_ex.c ****       {
 784:Drivers/STM32H7xx_HAL_Driver/Src/stm32h7xx_hal_tim_ex.c ****         __HAL_TIM_ENABLE(htim);
 2137              		.loc 1 784 9
 2138 01b6 7B68     		ldr	r3, [r7, #4]
ARM GAS  C:\Users\Su\AppData\Local\Temp\ccm0VnUy.s 			page 52


 2139 01b8 1B68     		ldr	r3, [r3]
 2140 01ba 1A68     		ldr	r2, [r3]
 2141 01bc 7B68     		ldr	r3, [r7, #4]
 2142 01be 1B68     		ldr	r3, [r3]
 2143 01c0 42F00102 		orr	r2, r2, #1
 2144 01c4 1A60     		str	r2, [r3]
 782:Drivers/STM32H7xx_HAL_Driver/Src/stm32h7xx_hal_tim_ex.c ****       if (!IS_TIM_SLAVEMODE_TRIGGER_ENABLED(tmpsmcr))
 2145              		.loc 1 782 10
 2146 01c6 08E0     		b	.L116
 2147              	.L114:
 785:Drivers/STM32H7xx_HAL_Driver/Src/stm32h7xx_hal_tim_ex.c ****       }
 786:Drivers/STM32H7xx_HAL_Driver/Src/stm32h7xx_hal_tim_ex.c ****     }
 787:Drivers/STM32H7xx_HAL_Driver/Src/stm32h7xx_hal_tim_ex.c ****     else
 788:Drivers/STM32H7xx_HAL_Driver/Src/stm32h7xx_hal_tim_ex.c ****     {
 789:Drivers/STM32H7xx_HAL_Driver/Src/stm32h7xx_hal_tim_ex.c ****       __HAL_TIM_ENABLE(htim);
 2148              		.loc 1 789 7
 2149 01c8 7B68     		ldr	r3, [r7, #4]
 2150 01ca 1B68     		ldr	r3, [r3]
 2151 01cc 1A68     		ldr	r2, [r3]
 2152 01ce 7B68     		ldr	r3, [r7, #4]
 2153 01d0 1B68     		ldr	r3, [r3]
 2154 01d2 42F00102 		orr	r2, r2, #1
 2155 01d6 1A60     		str	r2, [r3]
 2156 01d8 00E0     		b	.L112
 2157              	.L116:
 782:Drivers/STM32H7xx_HAL_Driver/Src/stm32h7xx_hal_tim_ex.c ****       {
 2158              		.loc 1 782 10
 2159 01da 00BF     		nop
 2160              	.L112:
 790:Drivers/STM32H7xx_HAL_Driver/Src/stm32h7xx_hal_tim_ex.c ****     }
 791:Drivers/STM32H7xx_HAL_Driver/Src/stm32h7xx_hal_tim_ex.c ****   }
 792:Drivers/STM32H7xx_HAL_Driver/Src/stm32h7xx_hal_tim_ex.c **** 
 793:Drivers/STM32H7xx_HAL_Driver/Src/stm32h7xx_hal_tim_ex.c ****   /* Return function status */
 794:Drivers/STM32H7xx_HAL_Driver/Src/stm32h7xx_hal_tim_ex.c ****   return status;
 2161              		.loc 1 794 10
 2162 01dc FB7B     		ldrb	r3, [r7, #15]	@ zero_extendqisi2
 2163              	.L100:
 795:Drivers/STM32H7xx_HAL_Driver/Src/stm32h7xx_hal_tim_ex.c **** }
 2164              		.loc 1 795 1
 2165 01de 1846     		mov	r0, r3
 2166 01e0 1037     		adds	r7, r7, #16
 2167              	.LCFI65:
 2168              		.cfi_def_cfa_offset 8
 2169 01e2 BD46     		mov	sp, r7
 2170              	.LCFI66:
 2171              		.cfi_def_cfa_register 13
 2172              		@ sp needed
 2173 01e4 80BD     		pop	{r7, pc}
 2174              	.L118:
 2175 01e6 00BF     		.align	2
 2176              	.L117:
 2177 01e8 00000140 		.word	1073807360
 2178 01ec 00040040 		.word	1073742848
 2179 01f0 00080040 		.word	1073743872
 2180 01f4 000C0040 		.word	1073744896
 2181 01f8 00040140 		.word	1073808384
 2182 01fc 00180040 		.word	1073747968
ARM GAS  C:\Users\Su\AppData\Local\Temp\ccm0VnUy.s 			page 53


 2183 0200 00400140 		.word	1073823744
 2184 0204 00E00040 		.word	1073799168
 2185 0208 00E40040 		.word	1073800192
 2186 020c 07000100 		.word	65543
 2187              		.cfi_endproc
 2188              	.LFE156:
 2190              		.section	.text.HAL_TIMEx_OCN_Stop_IT,"ax",%progbits
 2191              		.align	1
 2192              		.global	HAL_TIMEx_OCN_Stop_IT
 2193              		.syntax unified
 2194              		.thumb
 2195              		.thumb_func
 2197              	HAL_TIMEx_OCN_Stop_IT:
 2198              	.LFB157:
 796:Drivers/STM32H7xx_HAL_Driver/Src/stm32h7xx_hal_tim_ex.c **** 
 797:Drivers/STM32H7xx_HAL_Driver/Src/stm32h7xx_hal_tim_ex.c **** /**
 798:Drivers/STM32H7xx_HAL_Driver/Src/stm32h7xx_hal_tim_ex.c ****   * @brief  Stops the TIM Output Compare signal generation in interrupt mode
 799:Drivers/STM32H7xx_HAL_Driver/Src/stm32h7xx_hal_tim_ex.c ****   *         on the complementary output.
 800:Drivers/STM32H7xx_HAL_Driver/Src/stm32h7xx_hal_tim_ex.c ****   * @param  htim TIM Output Compare handle
 801:Drivers/STM32H7xx_HAL_Driver/Src/stm32h7xx_hal_tim_ex.c ****   * @param  Channel TIM Channel to be disabled
 802:Drivers/STM32H7xx_HAL_Driver/Src/stm32h7xx_hal_tim_ex.c ****   *          This parameter can be one of the following values:
 803:Drivers/STM32H7xx_HAL_Driver/Src/stm32h7xx_hal_tim_ex.c ****   *            @arg TIM_CHANNEL_1: TIM Channel 1 selected
 804:Drivers/STM32H7xx_HAL_Driver/Src/stm32h7xx_hal_tim_ex.c ****   *            @arg TIM_CHANNEL_2: TIM Channel 2 selected
 805:Drivers/STM32H7xx_HAL_Driver/Src/stm32h7xx_hal_tim_ex.c ****   *            @arg TIM_CHANNEL_3: TIM Channel 3 selected
 806:Drivers/STM32H7xx_HAL_Driver/Src/stm32h7xx_hal_tim_ex.c ****   * @retval HAL status
 807:Drivers/STM32H7xx_HAL_Driver/Src/stm32h7xx_hal_tim_ex.c ****   */
 808:Drivers/STM32H7xx_HAL_Driver/Src/stm32h7xx_hal_tim_ex.c **** HAL_StatusTypeDef HAL_TIMEx_OCN_Stop_IT(TIM_HandleTypeDef *htim, uint32_t Channel)
 809:Drivers/STM32H7xx_HAL_Driver/Src/stm32h7xx_hal_tim_ex.c **** {
 2199              		.loc 1 809 1
 2200              		.cfi_startproc
 2201              		@ args = 0, pretend = 0, frame = 16
 2202              		@ frame_needed = 1, uses_anonymous_args = 0
 2203 0000 80B5     		push	{r7, lr}
 2204              	.LCFI67:
 2205              		.cfi_def_cfa_offset 8
 2206              		.cfi_offset 7, -8
 2207              		.cfi_offset 14, -4
 2208 0002 84B0     		sub	sp, sp, #16
 2209              	.LCFI68:
 2210              		.cfi_def_cfa_offset 24
 2211 0004 00AF     		add	r7, sp, #0
 2212              	.LCFI69:
 2213              		.cfi_def_cfa_register 7
 2214 0006 7860     		str	r0, [r7, #4]
 2215 0008 3960     		str	r1, [r7]
 810:Drivers/STM32H7xx_HAL_Driver/Src/stm32h7xx_hal_tim_ex.c ****   HAL_StatusTypeDef status = HAL_OK;
 2216              		.loc 1 810 21
 2217 000a 0023     		movs	r3, #0
 2218 000c FB73     		strb	r3, [r7, #15]
 811:Drivers/STM32H7xx_HAL_Driver/Src/stm32h7xx_hal_tim_ex.c ****   uint32_t tmpccer;
 812:Drivers/STM32H7xx_HAL_Driver/Src/stm32h7xx_hal_tim_ex.c **** 
 813:Drivers/STM32H7xx_HAL_Driver/Src/stm32h7xx_hal_tim_ex.c ****   /* Check the parameters */
 814:Drivers/STM32H7xx_HAL_Driver/Src/stm32h7xx_hal_tim_ex.c ****   assert_param(IS_TIM_CCXN_INSTANCE(htim->Instance, Channel));
 815:Drivers/STM32H7xx_HAL_Driver/Src/stm32h7xx_hal_tim_ex.c **** 
 816:Drivers/STM32H7xx_HAL_Driver/Src/stm32h7xx_hal_tim_ex.c ****   switch (Channel)
 2219              		.loc 1 816 3
 2220 000e 3B68     		ldr	r3, [r7]
ARM GAS  C:\Users\Su\AppData\Local\Temp\ccm0VnUy.s 			page 54


 2221 0010 082B     		cmp	r3, #8
 2222 0012 1BD0     		beq	.L120
 2223 0014 3B68     		ldr	r3, [r7]
 2224 0016 082B     		cmp	r3, #8
 2225 0018 21D8     		bhi	.L121
 2226 001a 3B68     		ldr	r3, [r7]
 2227 001c 002B     		cmp	r3, #0
 2228 001e 03D0     		beq	.L122
 2229 0020 3B68     		ldr	r3, [r7]
 2230 0022 042B     		cmp	r3, #4
 2231 0024 09D0     		beq	.L123
 2232 0026 1AE0     		b	.L121
 2233              	.L122:
 817:Drivers/STM32H7xx_HAL_Driver/Src/stm32h7xx_hal_tim_ex.c ****   {
 818:Drivers/STM32H7xx_HAL_Driver/Src/stm32h7xx_hal_tim_ex.c ****     case TIM_CHANNEL_1:
 819:Drivers/STM32H7xx_HAL_Driver/Src/stm32h7xx_hal_tim_ex.c ****     {
 820:Drivers/STM32H7xx_HAL_Driver/Src/stm32h7xx_hal_tim_ex.c ****       /* Disable the TIM Output Compare interrupt */
 821:Drivers/STM32H7xx_HAL_Driver/Src/stm32h7xx_hal_tim_ex.c ****       __HAL_TIM_DISABLE_IT(htim, TIM_IT_CC1);
 2234              		.loc 1 821 7
 2235 0028 7B68     		ldr	r3, [r7, #4]
 2236 002a 1B68     		ldr	r3, [r3]
 2237 002c DA68     		ldr	r2, [r3, #12]
 2238 002e 7B68     		ldr	r3, [r7, #4]
 2239 0030 1B68     		ldr	r3, [r3]
 2240 0032 22F00202 		bic	r2, r2, #2
 2241 0036 DA60     		str	r2, [r3, #12]
 822:Drivers/STM32H7xx_HAL_Driver/Src/stm32h7xx_hal_tim_ex.c ****       break;
 2242              		.loc 1 822 7
 2243 0038 14E0     		b	.L124
 2244              	.L123:
 823:Drivers/STM32H7xx_HAL_Driver/Src/stm32h7xx_hal_tim_ex.c ****     }
 824:Drivers/STM32H7xx_HAL_Driver/Src/stm32h7xx_hal_tim_ex.c **** 
 825:Drivers/STM32H7xx_HAL_Driver/Src/stm32h7xx_hal_tim_ex.c ****     case TIM_CHANNEL_2:
 826:Drivers/STM32H7xx_HAL_Driver/Src/stm32h7xx_hal_tim_ex.c ****     {
 827:Drivers/STM32H7xx_HAL_Driver/Src/stm32h7xx_hal_tim_ex.c ****       /* Disable the TIM Output Compare interrupt */
 828:Drivers/STM32H7xx_HAL_Driver/Src/stm32h7xx_hal_tim_ex.c ****       __HAL_TIM_DISABLE_IT(htim, TIM_IT_CC2);
 2245              		.loc 1 828 7
 2246 003a 7B68     		ldr	r3, [r7, #4]
 2247 003c 1B68     		ldr	r3, [r3]
 2248 003e DA68     		ldr	r2, [r3, #12]
 2249 0040 7B68     		ldr	r3, [r7, #4]
 2250 0042 1B68     		ldr	r3, [r3]
 2251 0044 22F00402 		bic	r2, r2, #4
 2252 0048 DA60     		str	r2, [r3, #12]
 829:Drivers/STM32H7xx_HAL_Driver/Src/stm32h7xx_hal_tim_ex.c ****       break;
 2253              		.loc 1 829 7
 2254 004a 0BE0     		b	.L124
 2255              	.L120:
 830:Drivers/STM32H7xx_HAL_Driver/Src/stm32h7xx_hal_tim_ex.c ****     }
 831:Drivers/STM32H7xx_HAL_Driver/Src/stm32h7xx_hal_tim_ex.c **** 
 832:Drivers/STM32H7xx_HAL_Driver/Src/stm32h7xx_hal_tim_ex.c ****     case TIM_CHANNEL_3:
 833:Drivers/STM32H7xx_HAL_Driver/Src/stm32h7xx_hal_tim_ex.c ****     {
 834:Drivers/STM32H7xx_HAL_Driver/Src/stm32h7xx_hal_tim_ex.c ****       /* Disable the TIM Output Compare interrupt */
 835:Drivers/STM32H7xx_HAL_Driver/Src/stm32h7xx_hal_tim_ex.c ****       __HAL_TIM_DISABLE_IT(htim, TIM_IT_CC3);
 2256              		.loc 1 835 7
 2257 004c 7B68     		ldr	r3, [r7, #4]
 2258 004e 1B68     		ldr	r3, [r3]
ARM GAS  C:\Users\Su\AppData\Local\Temp\ccm0VnUy.s 			page 55


 2259 0050 DA68     		ldr	r2, [r3, #12]
 2260 0052 7B68     		ldr	r3, [r7, #4]
 2261 0054 1B68     		ldr	r3, [r3]
 2262 0056 22F00802 		bic	r2, r2, #8
 2263 005a DA60     		str	r2, [r3, #12]
 836:Drivers/STM32H7xx_HAL_Driver/Src/stm32h7xx_hal_tim_ex.c ****       break;
 2264              		.loc 1 836 7
 2265 005c 02E0     		b	.L124
 2266              	.L121:
 837:Drivers/STM32H7xx_HAL_Driver/Src/stm32h7xx_hal_tim_ex.c ****     }
 838:Drivers/STM32H7xx_HAL_Driver/Src/stm32h7xx_hal_tim_ex.c **** 
 839:Drivers/STM32H7xx_HAL_Driver/Src/stm32h7xx_hal_tim_ex.c ****     default:
 840:Drivers/STM32H7xx_HAL_Driver/Src/stm32h7xx_hal_tim_ex.c ****       status = HAL_ERROR;
 2267              		.loc 1 840 14
 2268 005e 0123     		movs	r3, #1
 2269 0060 FB73     		strb	r3, [r7, #15]
 841:Drivers/STM32H7xx_HAL_Driver/Src/stm32h7xx_hal_tim_ex.c ****       break;
 2270              		.loc 1 841 7
 2271 0062 00BF     		nop
 2272              	.L124:
 842:Drivers/STM32H7xx_HAL_Driver/Src/stm32h7xx_hal_tim_ex.c ****   }
 843:Drivers/STM32H7xx_HAL_Driver/Src/stm32h7xx_hal_tim_ex.c **** 
 844:Drivers/STM32H7xx_HAL_Driver/Src/stm32h7xx_hal_tim_ex.c ****   if (status == HAL_OK)
 2273              		.loc 1 844 6
 2274 0064 FB7B     		ldrb	r3, [r7, #15]	@ zero_extendqisi2
 2275 0066 002B     		cmp	r3, #0
 2276 0068 64D1     		bne	.L125
 845:Drivers/STM32H7xx_HAL_Driver/Src/stm32h7xx_hal_tim_ex.c ****   {
 846:Drivers/STM32H7xx_HAL_Driver/Src/stm32h7xx_hal_tim_ex.c ****     /* Disable the Capture compare channel N */
 847:Drivers/STM32H7xx_HAL_Driver/Src/stm32h7xx_hal_tim_ex.c ****     TIM_CCxNChannelCmd(htim->Instance, Channel, TIM_CCxN_DISABLE);
 2277              		.loc 1 847 5
 2278 006a 7B68     		ldr	r3, [r7, #4]
 2279 006c 1B68     		ldr	r3, [r3]
 2280 006e 0022     		movs	r2, #0
 2281 0070 3968     		ldr	r1, [r7]
 2282 0072 1846     		mov	r0, r3
 2283 0074 FFF7FEFF 		bl	TIM_CCxNChannelCmd
 848:Drivers/STM32H7xx_HAL_Driver/Src/stm32h7xx_hal_tim_ex.c **** 
 849:Drivers/STM32H7xx_HAL_Driver/Src/stm32h7xx_hal_tim_ex.c ****     /* Disable the TIM Break interrupt (only if no more channel is active) */
 850:Drivers/STM32H7xx_HAL_Driver/Src/stm32h7xx_hal_tim_ex.c ****     tmpccer = htim->Instance->CCER;
 2284              		.loc 1 850 19
 2285 0078 7B68     		ldr	r3, [r7, #4]
 2286 007a 1B68     		ldr	r3, [r3]
 2287              		.loc 1 850 13
 2288 007c 1B6A     		ldr	r3, [r3, #32]
 2289 007e BB60     		str	r3, [r7, #8]
 851:Drivers/STM32H7xx_HAL_Driver/Src/stm32h7xx_hal_tim_ex.c ****     if ((tmpccer & (TIM_CCER_CC1NE | TIM_CCER_CC2NE | TIM_CCER_CC3NE)) == (uint32_t)RESET)
 2290              		.loc 1 851 18
 2291 0080 BA68     		ldr	r2, [r7, #8]
 2292 0082 40F24443 		movw	r3, #1092
 2293 0086 1340     		ands	r3, r3, r2
 2294              		.loc 1 851 8
 2295 0088 002B     		cmp	r3, #0
 2296 008a 07D1     		bne	.L126
 852:Drivers/STM32H7xx_HAL_Driver/Src/stm32h7xx_hal_tim_ex.c ****     {
 853:Drivers/STM32H7xx_HAL_Driver/Src/stm32h7xx_hal_tim_ex.c ****       __HAL_TIM_DISABLE_IT(htim, TIM_IT_BREAK);
 2297              		.loc 1 853 7
ARM GAS  C:\Users\Su\AppData\Local\Temp\ccm0VnUy.s 			page 56


 2298 008c 7B68     		ldr	r3, [r7, #4]
 2299 008e 1B68     		ldr	r3, [r3]
 2300 0090 DA68     		ldr	r2, [r3, #12]
 2301 0092 7B68     		ldr	r3, [r7, #4]
 2302 0094 1B68     		ldr	r3, [r3]
 2303 0096 22F08002 		bic	r2, r2, #128
 2304 009a DA60     		str	r2, [r3, #12]
 2305              	.L126:
 854:Drivers/STM32H7xx_HAL_Driver/Src/stm32h7xx_hal_tim_ex.c ****     }
 855:Drivers/STM32H7xx_HAL_Driver/Src/stm32h7xx_hal_tim_ex.c **** 
 856:Drivers/STM32H7xx_HAL_Driver/Src/stm32h7xx_hal_tim_ex.c ****     /* Disable the Main Output */
 857:Drivers/STM32H7xx_HAL_Driver/Src/stm32h7xx_hal_tim_ex.c ****     __HAL_TIM_MOE_DISABLE(htim);
 2306              		.loc 1 857 5
 2307 009c 7B68     		ldr	r3, [r7, #4]
 2308 009e 1B68     		ldr	r3, [r3]
 2309 00a0 1A6A     		ldr	r2, [r3, #32]
 2310 00a2 41F21113 		movw	r3, #4369
 2311 00a6 1340     		ands	r3, r3, r2
 2312 00a8 002B     		cmp	r3, #0
 2313 00aa 0FD1     		bne	.L127
 2314              		.loc 1 857 5 is_stmt 0 discriminator 1
 2315 00ac 7B68     		ldr	r3, [r7, #4]
 2316 00ae 1B68     		ldr	r3, [r3]
 2317 00b0 1A6A     		ldr	r2, [r3, #32]
 2318 00b2 40F24443 		movw	r3, #1092
 2319 00b6 1340     		ands	r3, r3, r2
 2320 00b8 002B     		cmp	r3, #0
 2321 00ba 07D1     		bne	.L127
 2322              		.loc 1 857 5 discriminator 2
 2323 00bc 7B68     		ldr	r3, [r7, #4]
 2324 00be 1B68     		ldr	r3, [r3]
 2325 00c0 5A6C     		ldr	r2, [r3, #68]
 2326 00c2 7B68     		ldr	r3, [r7, #4]
 2327 00c4 1B68     		ldr	r3, [r3]
 2328 00c6 22F40042 		bic	r2, r2, #32768
 2329 00ca 5A64     		str	r2, [r3, #68]
 2330              	.L127:
 858:Drivers/STM32H7xx_HAL_Driver/Src/stm32h7xx_hal_tim_ex.c **** 
 859:Drivers/STM32H7xx_HAL_Driver/Src/stm32h7xx_hal_tim_ex.c ****     /* Disable the Peripheral */
 860:Drivers/STM32H7xx_HAL_Driver/Src/stm32h7xx_hal_tim_ex.c ****     __HAL_TIM_DISABLE(htim);
 2331              		.loc 1 860 5 is_stmt 1
 2332 00cc 7B68     		ldr	r3, [r7, #4]
 2333 00ce 1B68     		ldr	r3, [r3]
 2334 00d0 1A6A     		ldr	r2, [r3, #32]
 2335 00d2 41F21113 		movw	r3, #4369
 2336 00d6 1340     		ands	r3, r3, r2
 2337 00d8 002B     		cmp	r3, #0
 2338 00da 0FD1     		bne	.L128
 2339              		.loc 1 860 5 is_stmt 0 discriminator 1
 2340 00dc 7B68     		ldr	r3, [r7, #4]
 2341 00de 1B68     		ldr	r3, [r3]
 2342 00e0 1A6A     		ldr	r2, [r3, #32]
 2343 00e2 40F24443 		movw	r3, #1092
 2344 00e6 1340     		ands	r3, r3, r2
 2345 00e8 002B     		cmp	r3, #0
 2346 00ea 07D1     		bne	.L128
 2347              		.loc 1 860 5 discriminator 2
ARM GAS  C:\Users\Su\AppData\Local\Temp\ccm0VnUy.s 			page 57


 2348 00ec 7B68     		ldr	r3, [r7, #4]
 2349 00ee 1B68     		ldr	r3, [r3]
 2350 00f0 1A68     		ldr	r2, [r3]
 2351 00f2 7B68     		ldr	r3, [r7, #4]
 2352 00f4 1B68     		ldr	r3, [r3]
 2353 00f6 22F00102 		bic	r2, r2, #1
 2354 00fa 1A60     		str	r2, [r3]
 2355              	.L128:
 861:Drivers/STM32H7xx_HAL_Driver/Src/stm32h7xx_hal_tim_ex.c **** 
 862:Drivers/STM32H7xx_HAL_Driver/Src/stm32h7xx_hal_tim_ex.c ****     /* Set the TIM complementary channel state */
 863:Drivers/STM32H7xx_HAL_Driver/Src/stm32h7xx_hal_tim_ex.c ****     TIM_CHANNEL_N_STATE_SET(htim, Channel, HAL_TIM_CHANNEL_STATE_READY);
 2356              		.loc 1 863 5 is_stmt 1
 2357 00fc 3B68     		ldr	r3, [r7]
 2358 00fe 002B     		cmp	r3, #0
 2359 0100 04D1     		bne	.L129
 2360              		.loc 1 863 5 is_stmt 0 discriminator 1
 2361 0102 7B68     		ldr	r3, [r7, #4]
 2362 0104 0122     		movs	r2, #1
 2363 0106 83F84420 		strb	r2, [r3, #68]
 2364 010a 13E0     		b	.L125
 2365              	.L129:
 2366              		.loc 1 863 5 discriminator 2
 2367 010c 3B68     		ldr	r3, [r7]
 2368 010e 042B     		cmp	r3, #4
 2369 0110 04D1     		bne	.L130
 2370              		.loc 1 863 5 discriminator 3
 2371 0112 7B68     		ldr	r3, [r7, #4]
 2372 0114 0122     		movs	r2, #1
 2373 0116 83F84520 		strb	r2, [r3, #69]
 2374 011a 0BE0     		b	.L125
 2375              	.L130:
 2376              		.loc 1 863 5 discriminator 4
 2377 011c 3B68     		ldr	r3, [r7]
 2378 011e 082B     		cmp	r3, #8
 2379 0120 04D1     		bne	.L132
 2380              		.loc 1 863 5 discriminator 6
 2381 0122 7B68     		ldr	r3, [r7, #4]
 2382 0124 0122     		movs	r2, #1
 2383 0126 83F84620 		strb	r2, [r3, #70]
 2384 012a 03E0     		b	.L125
 2385              	.L132:
 2386              		.loc 1 863 5 discriminator 7
 2387 012c 7B68     		ldr	r3, [r7, #4]
 2388 012e 0122     		movs	r2, #1
 2389 0130 83F84720 		strb	r2, [r3, #71]
 2390              	.L125:
 864:Drivers/STM32H7xx_HAL_Driver/Src/stm32h7xx_hal_tim_ex.c ****   }
 865:Drivers/STM32H7xx_HAL_Driver/Src/stm32h7xx_hal_tim_ex.c **** 
 866:Drivers/STM32H7xx_HAL_Driver/Src/stm32h7xx_hal_tim_ex.c ****   /* Return function status */
 867:Drivers/STM32H7xx_HAL_Driver/Src/stm32h7xx_hal_tim_ex.c ****   return status;
 2391              		.loc 1 867 10 is_stmt 1
 2392 0134 FB7B     		ldrb	r3, [r7, #15]	@ zero_extendqisi2
 868:Drivers/STM32H7xx_HAL_Driver/Src/stm32h7xx_hal_tim_ex.c **** }
 2393              		.loc 1 868 1
 2394 0136 1846     		mov	r0, r3
 2395 0138 1037     		adds	r7, r7, #16
 2396              	.LCFI70:
ARM GAS  C:\Users\Su\AppData\Local\Temp\ccm0VnUy.s 			page 58


 2397              		.cfi_def_cfa_offset 8
 2398 013a BD46     		mov	sp, r7
 2399              	.LCFI71:
 2400              		.cfi_def_cfa_register 13
 2401              		@ sp needed
 2402 013c 80BD     		pop	{r7, pc}
 2403              		.cfi_endproc
 2404              	.LFE157:
 2406              		.section	.text.HAL_TIMEx_OCN_Start_DMA,"ax",%progbits
 2407              		.align	1
 2408              		.global	HAL_TIMEx_OCN_Start_DMA
 2409              		.syntax unified
 2410              		.thumb
 2411              		.thumb_func
 2413              	HAL_TIMEx_OCN_Start_DMA:
 2414              	.LFB158:
 869:Drivers/STM32H7xx_HAL_Driver/Src/stm32h7xx_hal_tim_ex.c **** 
 870:Drivers/STM32H7xx_HAL_Driver/Src/stm32h7xx_hal_tim_ex.c **** /**
 871:Drivers/STM32H7xx_HAL_Driver/Src/stm32h7xx_hal_tim_ex.c ****   * @brief  Starts the TIM Output Compare signal generation in DMA mode
 872:Drivers/STM32H7xx_HAL_Driver/Src/stm32h7xx_hal_tim_ex.c ****   *         on the complementary output.
 873:Drivers/STM32H7xx_HAL_Driver/Src/stm32h7xx_hal_tim_ex.c ****   * @param  htim TIM Output Compare handle
 874:Drivers/STM32H7xx_HAL_Driver/Src/stm32h7xx_hal_tim_ex.c ****   * @param  Channel TIM Channel to be enabled
 875:Drivers/STM32H7xx_HAL_Driver/Src/stm32h7xx_hal_tim_ex.c ****   *          This parameter can be one of the following values:
 876:Drivers/STM32H7xx_HAL_Driver/Src/stm32h7xx_hal_tim_ex.c ****   *            @arg TIM_CHANNEL_1: TIM Channel 1 selected
 877:Drivers/STM32H7xx_HAL_Driver/Src/stm32h7xx_hal_tim_ex.c ****   *            @arg TIM_CHANNEL_2: TIM Channel 2 selected
 878:Drivers/STM32H7xx_HAL_Driver/Src/stm32h7xx_hal_tim_ex.c ****   *            @arg TIM_CHANNEL_3: TIM Channel 3 selected
 879:Drivers/STM32H7xx_HAL_Driver/Src/stm32h7xx_hal_tim_ex.c ****   * @param  pData The source Buffer address.
 880:Drivers/STM32H7xx_HAL_Driver/Src/stm32h7xx_hal_tim_ex.c ****   * @param  Length The length of data to be transferred from memory to TIM peripheral
 881:Drivers/STM32H7xx_HAL_Driver/Src/stm32h7xx_hal_tim_ex.c ****   * @retval HAL status
 882:Drivers/STM32H7xx_HAL_Driver/Src/stm32h7xx_hal_tim_ex.c ****   */
 883:Drivers/STM32H7xx_HAL_Driver/Src/stm32h7xx_hal_tim_ex.c **** HAL_StatusTypeDef HAL_TIMEx_OCN_Start_DMA(TIM_HandleTypeDef *htim, uint32_t Channel, uint32_t *pDat
 884:Drivers/STM32H7xx_HAL_Driver/Src/stm32h7xx_hal_tim_ex.c **** {
 2415              		.loc 1 884 1
 2416              		.cfi_startproc
 2417              		@ args = 0, pretend = 0, frame = 24
 2418              		@ frame_needed = 1, uses_anonymous_args = 0
 2419 0000 80B5     		push	{r7, lr}
 2420              	.LCFI72:
 2421              		.cfi_def_cfa_offset 8
 2422              		.cfi_offset 7, -8
 2423              		.cfi_offset 14, -4
 2424 0002 86B0     		sub	sp, sp, #24
 2425              	.LCFI73:
 2426              		.cfi_def_cfa_offset 32
 2427 0004 00AF     		add	r7, sp, #0
 2428              	.LCFI74:
 2429              		.cfi_def_cfa_register 7
 2430 0006 F860     		str	r0, [r7, #12]
 2431 0008 B960     		str	r1, [r7, #8]
 2432 000a 7A60     		str	r2, [r7, #4]
 2433 000c 7B80     		strh	r3, [r7, #2]	@ movhi
 885:Drivers/STM32H7xx_HAL_Driver/Src/stm32h7xx_hal_tim_ex.c ****   HAL_StatusTypeDef status = HAL_OK;
 2434              		.loc 1 885 21
 2435 000e 0023     		movs	r3, #0
 2436 0010 FB75     		strb	r3, [r7, #23]
 886:Drivers/STM32H7xx_HAL_Driver/Src/stm32h7xx_hal_tim_ex.c ****   uint32_t tmpsmcr;
 887:Drivers/STM32H7xx_HAL_Driver/Src/stm32h7xx_hal_tim_ex.c **** 
ARM GAS  C:\Users\Su\AppData\Local\Temp\ccm0VnUy.s 			page 59


 888:Drivers/STM32H7xx_HAL_Driver/Src/stm32h7xx_hal_tim_ex.c ****   /* Check the parameters */
 889:Drivers/STM32H7xx_HAL_Driver/Src/stm32h7xx_hal_tim_ex.c ****   assert_param(IS_TIM_CCXN_INSTANCE(htim->Instance, Channel));
 890:Drivers/STM32H7xx_HAL_Driver/Src/stm32h7xx_hal_tim_ex.c **** 
 891:Drivers/STM32H7xx_HAL_Driver/Src/stm32h7xx_hal_tim_ex.c ****   /* Set the TIM complementary channel state */
 892:Drivers/STM32H7xx_HAL_Driver/Src/stm32h7xx_hal_tim_ex.c ****   if (TIM_CHANNEL_N_STATE_GET(htim, Channel) == HAL_TIM_CHANNEL_STATE_BUSY)
 2437              		.loc 1 892 46
 2438 0012 BB68     		ldr	r3, [r7, #8]
 2439 0014 002B     		cmp	r3, #0
 2440 0016 09D1     		bne	.L136
 2441              		.loc 1 892 7 discriminator 1
 2442 0018 FB68     		ldr	r3, [r7, #12]
 2443 001a 93F84430 		ldrb	r3, [r3, #68]
 2444 001e DBB2     		uxtb	r3, r3
 2445              		.loc 1 892 46 discriminator 1
 2446 0020 022B     		cmp	r3, #2
 2447 0022 0CBF     		ite	eq
 2448 0024 0123     		moveq	r3, #1
 2449 0026 0023     		movne	r3, #0
 2450 0028 DBB2     		uxtb	r3, r3
 2451 002a 22E0     		b	.L137
 2452              	.L136:
 2453              		.loc 1 892 46 is_stmt 0 discriminator 2
 2454 002c BB68     		ldr	r3, [r7, #8]
 2455 002e 042B     		cmp	r3, #4
 2456 0030 09D1     		bne	.L138
 2457              		.loc 1 892 7 is_stmt 1 discriminator 4
 2458 0032 FB68     		ldr	r3, [r7, #12]
 2459 0034 93F84530 		ldrb	r3, [r3, #69]
 2460 0038 DBB2     		uxtb	r3, r3
 2461              		.loc 1 892 46 discriminator 4
 2462 003a 022B     		cmp	r3, #2
 2463 003c 0CBF     		ite	eq
 2464 003e 0123     		moveq	r3, #1
 2465 0040 0023     		movne	r3, #0
 2466 0042 DBB2     		uxtb	r3, r3
 2467 0044 15E0     		b	.L137
 2468              	.L138:
 2469              		.loc 1 892 46 is_stmt 0 discriminator 5
 2470 0046 BB68     		ldr	r3, [r7, #8]
 2471 0048 082B     		cmp	r3, #8
 2472 004a 09D1     		bne	.L140
 2473              		.loc 1 892 7 is_stmt 1 discriminator 7
 2474 004c FB68     		ldr	r3, [r7, #12]
 2475 004e 93F84630 		ldrb	r3, [r3, #70]
 2476 0052 DBB2     		uxtb	r3, r3
 2477              		.loc 1 892 46 discriminator 7
 2478 0054 022B     		cmp	r3, #2
 2479 0056 0CBF     		ite	eq
 2480 0058 0123     		moveq	r3, #1
 2481 005a 0023     		movne	r3, #0
 2482 005c DBB2     		uxtb	r3, r3
 2483 005e 08E0     		b	.L137
 2484              	.L140:
 2485              		.loc 1 892 7 discriminator 8
 2486 0060 FB68     		ldr	r3, [r7, #12]
 2487 0062 93F84730 		ldrb	r3, [r3, #71]
 2488 0066 DBB2     		uxtb	r3, r3
ARM GAS  C:\Users\Su\AppData\Local\Temp\ccm0VnUy.s 			page 60


 2489              		.loc 1 892 46 discriminator 8
 2490 0068 022B     		cmp	r3, #2
 2491 006a 0CBF     		ite	eq
 2492 006c 0123     		moveq	r3, #1
 2493 006e 0023     		movne	r3, #0
 2494 0070 DBB2     		uxtb	r3, r3
 2495              	.L137:
 2496              		.loc 1 892 6 discriminator 12
 2497 0072 002B     		cmp	r3, #0
 2498 0074 01D0     		beq	.L142
 893:Drivers/STM32H7xx_HAL_Driver/Src/stm32h7xx_hal_tim_ex.c ****   {
 894:Drivers/STM32H7xx_HAL_Driver/Src/stm32h7xx_hal_tim_ex.c ****     return HAL_BUSY;
 2499              		.loc 1 894 12
 2500 0076 0223     		movs	r3, #2
 2501 0078 39E1     		b	.L143
 2502              	.L142:
 895:Drivers/STM32H7xx_HAL_Driver/Src/stm32h7xx_hal_tim_ex.c ****   }
 896:Drivers/STM32H7xx_HAL_Driver/Src/stm32h7xx_hal_tim_ex.c ****   else if (TIM_CHANNEL_N_STATE_GET(htim, Channel) == HAL_TIM_CHANNEL_STATE_READY)
 2503              		.loc 1 896 51
 2504 007a BB68     		ldr	r3, [r7, #8]
 2505 007c 002B     		cmp	r3, #0
 2506 007e 09D1     		bne	.L144
 2507              		.loc 1 896 12 discriminator 1
 2508 0080 FB68     		ldr	r3, [r7, #12]
 2509 0082 93F84430 		ldrb	r3, [r3, #68]
 2510 0086 DBB2     		uxtb	r3, r3
 2511              		.loc 1 896 51 discriminator 1
 2512 0088 012B     		cmp	r3, #1
 2513 008a 0CBF     		ite	eq
 2514 008c 0123     		moveq	r3, #1
 2515 008e 0023     		movne	r3, #0
 2516 0090 DBB2     		uxtb	r3, r3
 2517 0092 22E0     		b	.L145
 2518              	.L144:
 2519              		.loc 1 896 51 is_stmt 0 discriminator 2
 2520 0094 BB68     		ldr	r3, [r7, #8]
 2521 0096 042B     		cmp	r3, #4
 2522 0098 09D1     		bne	.L146
 2523              		.loc 1 896 12 is_stmt 1 discriminator 4
 2524 009a FB68     		ldr	r3, [r7, #12]
 2525 009c 93F84530 		ldrb	r3, [r3, #69]
 2526 00a0 DBB2     		uxtb	r3, r3
 2527              		.loc 1 896 51 discriminator 4
 2528 00a2 012B     		cmp	r3, #1
 2529 00a4 0CBF     		ite	eq
 2530 00a6 0123     		moveq	r3, #1
 2531 00a8 0023     		movne	r3, #0
 2532 00aa DBB2     		uxtb	r3, r3
 2533 00ac 15E0     		b	.L145
 2534              	.L146:
 2535              		.loc 1 896 51 is_stmt 0 discriminator 5
 2536 00ae BB68     		ldr	r3, [r7, #8]
 2537 00b0 082B     		cmp	r3, #8
 2538 00b2 09D1     		bne	.L148
 2539              		.loc 1 896 12 is_stmt 1 discriminator 7
 2540 00b4 FB68     		ldr	r3, [r7, #12]
 2541 00b6 93F84630 		ldrb	r3, [r3, #70]
ARM GAS  C:\Users\Su\AppData\Local\Temp\ccm0VnUy.s 			page 61


 2542 00ba DBB2     		uxtb	r3, r3
 2543              		.loc 1 896 51 discriminator 7
 2544 00bc 012B     		cmp	r3, #1
 2545 00be 0CBF     		ite	eq
 2546 00c0 0123     		moveq	r3, #1
 2547 00c2 0023     		movne	r3, #0
 2548 00c4 DBB2     		uxtb	r3, r3
 2549 00c6 08E0     		b	.L145
 2550              	.L148:
 2551              		.loc 1 896 12 discriminator 8
 2552 00c8 FB68     		ldr	r3, [r7, #12]
 2553 00ca 93F84730 		ldrb	r3, [r3, #71]
 2554 00ce DBB2     		uxtb	r3, r3
 2555              		.loc 1 896 51 discriminator 8
 2556 00d0 012B     		cmp	r3, #1
 2557 00d2 0CBF     		ite	eq
 2558 00d4 0123     		moveq	r3, #1
 2559 00d6 0023     		movne	r3, #0
 2560 00d8 DBB2     		uxtb	r3, r3
 2561              	.L145:
 2562              		.loc 1 896 11 discriminator 12
 2563 00da 002B     		cmp	r3, #0
 2564 00dc 24D0     		beq	.L150
 897:Drivers/STM32H7xx_HAL_Driver/Src/stm32h7xx_hal_tim_ex.c ****   {
 898:Drivers/STM32H7xx_HAL_Driver/Src/stm32h7xx_hal_tim_ex.c ****     if ((pData == NULL) && (Length > 0U))
 2565              		.loc 1 898 8
 2566 00de 7B68     		ldr	r3, [r7, #4]
 2567 00e0 002B     		cmp	r3, #0
 2568 00e2 04D1     		bne	.L151
 2569              		.loc 1 898 25 discriminator 1
 2570 00e4 7B88     		ldrh	r3, [r7, #2]
 2571 00e6 002B     		cmp	r3, #0
 2572 00e8 01D0     		beq	.L151
 899:Drivers/STM32H7xx_HAL_Driver/Src/stm32h7xx_hal_tim_ex.c ****     {
 900:Drivers/STM32H7xx_HAL_Driver/Src/stm32h7xx_hal_tim_ex.c ****       return HAL_ERROR;
 2573              		.loc 1 900 14
 2574 00ea 0123     		movs	r3, #1
 2575 00ec FFE0     		b	.L143
 2576              	.L151:
 901:Drivers/STM32H7xx_HAL_Driver/Src/stm32h7xx_hal_tim_ex.c ****     }
 902:Drivers/STM32H7xx_HAL_Driver/Src/stm32h7xx_hal_tim_ex.c ****     else
 903:Drivers/STM32H7xx_HAL_Driver/Src/stm32h7xx_hal_tim_ex.c ****     {
 904:Drivers/STM32H7xx_HAL_Driver/Src/stm32h7xx_hal_tim_ex.c ****       TIM_CHANNEL_N_STATE_SET(htim, Channel, HAL_TIM_CHANNEL_STATE_BUSY);
 2577              		.loc 1 904 7
 2578 00ee BB68     		ldr	r3, [r7, #8]
 2579 00f0 002B     		cmp	r3, #0
 2580 00f2 04D1     		bne	.L152
 2581              		.loc 1 904 7 is_stmt 0 discriminator 1
 2582 00f4 FB68     		ldr	r3, [r7, #12]
 2583 00f6 0222     		movs	r2, #2
 2584 00f8 83F84420 		strb	r2, [r3, #68]
 2585 00fc 16E0     		b	.L153
 2586              	.L152:
 2587              		.loc 1 904 7 discriminator 2
 2588 00fe BB68     		ldr	r3, [r7, #8]
 2589 0100 042B     		cmp	r3, #4
 2590 0102 04D1     		bne	.L154
ARM GAS  C:\Users\Su\AppData\Local\Temp\ccm0VnUy.s 			page 62


 2591              		.loc 1 904 7 discriminator 3
 2592 0104 FB68     		ldr	r3, [r7, #12]
 2593 0106 0222     		movs	r2, #2
 2594 0108 83F84520 		strb	r2, [r3, #69]
 2595 010c 0EE0     		b	.L153
 2596              	.L154:
 2597              		.loc 1 904 7 discriminator 4
 2598 010e BB68     		ldr	r3, [r7, #8]
 2599 0110 082B     		cmp	r3, #8
 2600 0112 04D1     		bne	.L156
 2601              		.loc 1 904 7 discriminator 6
 2602 0114 FB68     		ldr	r3, [r7, #12]
 2603 0116 0222     		movs	r2, #2
 2604 0118 83F84620 		strb	r2, [r3, #70]
 2605 011c 06E0     		b	.L153
 2606              	.L156:
 2607              		.loc 1 904 7 discriminator 7
 2608 011e FB68     		ldr	r3, [r7, #12]
 2609 0120 0222     		movs	r2, #2
 2610 0122 83F84720 		strb	r2, [r3, #71]
 2611 0126 01E0     		b	.L153
 2612              	.L150:
 905:Drivers/STM32H7xx_HAL_Driver/Src/stm32h7xx_hal_tim_ex.c ****     }
 906:Drivers/STM32H7xx_HAL_Driver/Src/stm32h7xx_hal_tim_ex.c ****   }
 907:Drivers/STM32H7xx_HAL_Driver/Src/stm32h7xx_hal_tim_ex.c ****   else
 908:Drivers/STM32H7xx_HAL_Driver/Src/stm32h7xx_hal_tim_ex.c ****   {
 909:Drivers/STM32H7xx_HAL_Driver/Src/stm32h7xx_hal_tim_ex.c ****     return HAL_ERROR;
 2613              		.loc 1 909 12 is_stmt 1
 2614 0128 0123     		movs	r3, #1
 2615 012a E0E0     		b	.L143
 2616              	.L153:
 910:Drivers/STM32H7xx_HAL_Driver/Src/stm32h7xx_hal_tim_ex.c ****   }
 911:Drivers/STM32H7xx_HAL_Driver/Src/stm32h7xx_hal_tim_ex.c **** 
 912:Drivers/STM32H7xx_HAL_Driver/Src/stm32h7xx_hal_tim_ex.c ****   switch (Channel)
 2617              		.loc 1 912 3
 2618 012c BB68     		ldr	r3, [r7, #8]
 2619 012e 082B     		cmp	r3, #8
 2620 0130 51D0     		beq	.L158
 2621 0132 BB68     		ldr	r3, [r7, #8]
 2622 0134 082B     		cmp	r3, #8
 2623 0136 72D8     		bhi	.L159
 2624 0138 BB68     		ldr	r3, [r7, #8]
 2625 013a 002B     		cmp	r3, #0
 2626 013c 03D0     		beq	.L160
 2627 013e BB68     		ldr	r3, [r7, #8]
 2628 0140 042B     		cmp	r3, #4
 2629 0142 24D0     		beq	.L161
 2630 0144 6BE0     		b	.L159
 2631              	.L160:
 913:Drivers/STM32H7xx_HAL_Driver/Src/stm32h7xx_hal_tim_ex.c ****   {
 914:Drivers/STM32H7xx_HAL_Driver/Src/stm32h7xx_hal_tim_ex.c ****     case TIM_CHANNEL_1:
 915:Drivers/STM32H7xx_HAL_Driver/Src/stm32h7xx_hal_tim_ex.c ****     {
 916:Drivers/STM32H7xx_HAL_Driver/Src/stm32h7xx_hal_tim_ex.c ****       /* Set the DMA compare callbacks */
 917:Drivers/STM32H7xx_HAL_Driver/Src/stm32h7xx_hal_tim_ex.c ****       htim->hdma[TIM_DMA_ID_CC1]->XferCpltCallback = TIM_DMADelayPulseNCplt;
 2632              		.loc 1 917 17
 2633 0146 FB68     		ldr	r3, [r7, #12]
 2634 0148 5B6A     		ldr	r3, [r3, #36]
ARM GAS  C:\Users\Su\AppData\Local\Temp\ccm0VnUy.s 			page 63


 2635              		.loc 1 917 52
 2636 014a 6B4A     		ldr	r2, .L171
 2637 014c DA63     		str	r2, [r3, #60]
 918:Drivers/STM32H7xx_HAL_Driver/Src/stm32h7xx_hal_tim_ex.c ****       htim->hdma[TIM_DMA_ID_CC1]->XferHalfCpltCallback = TIM_DMADelayPulseHalfCplt;
 2638              		.loc 1 918 17
 2639 014e FB68     		ldr	r3, [r7, #12]
 2640 0150 5B6A     		ldr	r3, [r3, #36]
 2641              		.loc 1 918 56
 2642 0152 6A4A     		ldr	r2, .L171+4
 2643 0154 1A64     		str	r2, [r3, #64]
 919:Drivers/STM32H7xx_HAL_Driver/Src/stm32h7xx_hal_tim_ex.c **** 
 920:Drivers/STM32H7xx_HAL_Driver/Src/stm32h7xx_hal_tim_ex.c ****       /* Set the DMA error callback */
 921:Drivers/STM32H7xx_HAL_Driver/Src/stm32h7xx_hal_tim_ex.c ****       htim->hdma[TIM_DMA_ID_CC1]->XferErrorCallback = TIM_DMAErrorCCxN ;
 2644              		.loc 1 921 17
 2645 0156 FB68     		ldr	r3, [r7, #12]
 2646 0158 5B6A     		ldr	r3, [r3, #36]
 2647              		.loc 1 921 53
 2648 015a 694A     		ldr	r2, .L171+8
 2649 015c DA64     		str	r2, [r3, #76]
 922:Drivers/STM32H7xx_HAL_Driver/Src/stm32h7xx_hal_tim_ex.c **** 
 923:Drivers/STM32H7xx_HAL_Driver/Src/stm32h7xx_hal_tim_ex.c ****       /* Enable the DMA stream */
 924:Drivers/STM32H7xx_HAL_Driver/Src/stm32h7xx_hal_tim_ex.c ****       if (HAL_DMA_Start_IT(htim->hdma[TIM_DMA_ID_CC1], (uint32_t)pData, (uint32_t)&htim->Instance->
 2650              		.loc 1 924 11
 2651 015e FB68     		ldr	r3, [r7, #12]
 2652 0160 586A     		ldr	r0, [r3, #36]
 2653 0162 7968     		ldr	r1, [r7, #4]
 2654              		.loc 1 924 88
 2655 0164 FB68     		ldr	r3, [r7, #12]
 2656 0166 1B68     		ldr	r3, [r3]
 2657              		.loc 1 924 83
 2658 0168 3433     		adds	r3, r3, #52
 2659              		.loc 1 924 11
 2660 016a 1A46     		mov	r2, r3
 2661 016c 7B88     		ldrh	r3, [r7, #2]
 2662 016e FFF7FEFF 		bl	HAL_DMA_Start_IT
 2663 0172 0346     		mov	r3, r0
 2664              		.loc 1 924 10
 2665 0174 002B     		cmp	r3, #0
 2666 0176 01D0     		beq	.L162
 925:Drivers/STM32H7xx_HAL_Driver/Src/stm32h7xx_hal_tim_ex.c ****                            Length) != HAL_OK)
 926:Drivers/STM32H7xx_HAL_Driver/Src/stm32h7xx_hal_tim_ex.c ****       {
 927:Drivers/STM32H7xx_HAL_Driver/Src/stm32h7xx_hal_tim_ex.c ****         /* Return error status */
 928:Drivers/STM32H7xx_HAL_Driver/Src/stm32h7xx_hal_tim_ex.c ****         return HAL_ERROR;
 2667              		.loc 1 928 16
 2668 0178 0123     		movs	r3, #1
 2669 017a B8E0     		b	.L143
 2670              	.L162:
 929:Drivers/STM32H7xx_HAL_Driver/Src/stm32h7xx_hal_tim_ex.c ****       }
 930:Drivers/STM32H7xx_HAL_Driver/Src/stm32h7xx_hal_tim_ex.c ****       /* Enable the TIM Output Compare DMA request */
 931:Drivers/STM32H7xx_HAL_Driver/Src/stm32h7xx_hal_tim_ex.c ****       __HAL_TIM_ENABLE_DMA(htim, TIM_DMA_CC1);
 2671              		.loc 1 931 7
 2672 017c FB68     		ldr	r3, [r7, #12]
 2673 017e 1B68     		ldr	r3, [r3]
 2674 0180 DA68     		ldr	r2, [r3, #12]
 2675 0182 FB68     		ldr	r3, [r7, #12]
 2676 0184 1B68     		ldr	r3, [r3]
 2677 0186 42F40072 		orr	r2, r2, #512
ARM GAS  C:\Users\Su\AppData\Local\Temp\ccm0VnUy.s 			page 64


 2678 018a DA60     		str	r2, [r3, #12]
 932:Drivers/STM32H7xx_HAL_Driver/Src/stm32h7xx_hal_tim_ex.c ****       break;
 2679              		.loc 1 932 7
 2680 018c 4AE0     		b	.L163
 2681              	.L161:
 933:Drivers/STM32H7xx_HAL_Driver/Src/stm32h7xx_hal_tim_ex.c ****     }
 934:Drivers/STM32H7xx_HAL_Driver/Src/stm32h7xx_hal_tim_ex.c **** 
 935:Drivers/STM32H7xx_HAL_Driver/Src/stm32h7xx_hal_tim_ex.c ****     case TIM_CHANNEL_2:
 936:Drivers/STM32H7xx_HAL_Driver/Src/stm32h7xx_hal_tim_ex.c ****     {
 937:Drivers/STM32H7xx_HAL_Driver/Src/stm32h7xx_hal_tim_ex.c ****       /* Set the DMA compare callbacks */
 938:Drivers/STM32H7xx_HAL_Driver/Src/stm32h7xx_hal_tim_ex.c ****       htim->hdma[TIM_DMA_ID_CC2]->XferCpltCallback = TIM_DMADelayPulseNCplt;
 2682              		.loc 1 938 17
 2683 018e FB68     		ldr	r3, [r7, #12]
 2684 0190 9B6A     		ldr	r3, [r3, #40]
 2685              		.loc 1 938 52
 2686 0192 594A     		ldr	r2, .L171
 2687 0194 DA63     		str	r2, [r3, #60]
 939:Drivers/STM32H7xx_HAL_Driver/Src/stm32h7xx_hal_tim_ex.c ****       htim->hdma[TIM_DMA_ID_CC2]->XferHalfCpltCallback = TIM_DMADelayPulseHalfCplt;
 2688              		.loc 1 939 17
 2689 0196 FB68     		ldr	r3, [r7, #12]
 2690 0198 9B6A     		ldr	r3, [r3, #40]
 2691              		.loc 1 939 56
 2692 019a 584A     		ldr	r2, .L171+4
 2693 019c 1A64     		str	r2, [r3, #64]
 940:Drivers/STM32H7xx_HAL_Driver/Src/stm32h7xx_hal_tim_ex.c **** 
 941:Drivers/STM32H7xx_HAL_Driver/Src/stm32h7xx_hal_tim_ex.c ****       /* Set the DMA error callback */
 942:Drivers/STM32H7xx_HAL_Driver/Src/stm32h7xx_hal_tim_ex.c ****       htim->hdma[TIM_DMA_ID_CC2]->XferErrorCallback = TIM_DMAErrorCCxN ;
 2694              		.loc 1 942 17
 2695 019e FB68     		ldr	r3, [r7, #12]
 2696 01a0 9B6A     		ldr	r3, [r3, #40]
 2697              		.loc 1 942 53
 2698 01a2 574A     		ldr	r2, .L171+8
 2699 01a4 DA64     		str	r2, [r3, #76]
 943:Drivers/STM32H7xx_HAL_Driver/Src/stm32h7xx_hal_tim_ex.c **** 
 944:Drivers/STM32H7xx_HAL_Driver/Src/stm32h7xx_hal_tim_ex.c ****       /* Enable the DMA stream */
 945:Drivers/STM32H7xx_HAL_Driver/Src/stm32h7xx_hal_tim_ex.c ****       if (HAL_DMA_Start_IT(htim->hdma[TIM_DMA_ID_CC2], (uint32_t)pData, (uint32_t)&htim->Instance->
 2700              		.loc 1 945 11
 2701 01a6 FB68     		ldr	r3, [r7, #12]
 2702 01a8 986A     		ldr	r0, [r3, #40]
 2703 01aa 7968     		ldr	r1, [r7, #4]
 2704              		.loc 1 945 88
 2705 01ac FB68     		ldr	r3, [r7, #12]
 2706 01ae 1B68     		ldr	r3, [r3]
 2707              		.loc 1 945 83
 2708 01b0 3833     		adds	r3, r3, #56
 2709              		.loc 1 945 11
 2710 01b2 1A46     		mov	r2, r3
 2711 01b4 7B88     		ldrh	r3, [r7, #2]
 2712 01b6 FFF7FEFF 		bl	HAL_DMA_Start_IT
 2713 01ba 0346     		mov	r3, r0
 2714              		.loc 1 945 10
 2715 01bc 002B     		cmp	r3, #0
 2716 01be 01D0     		beq	.L164
 946:Drivers/STM32H7xx_HAL_Driver/Src/stm32h7xx_hal_tim_ex.c ****                            Length) != HAL_OK)
 947:Drivers/STM32H7xx_HAL_Driver/Src/stm32h7xx_hal_tim_ex.c ****       {
 948:Drivers/STM32H7xx_HAL_Driver/Src/stm32h7xx_hal_tim_ex.c ****         /* Return error status */
 949:Drivers/STM32H7xx_HAL_Driver/Src/stm32h7xx_hal_tim_ex.c ****         return HAL_ERROR;
ARM GAS  C:\Users\Su\AppData\Local\Temp\ccm0VnUy.s 			page 65


 2717              		.loc 1 949 16
 2718 01c0 0123     		movs	r3, #1
 2719 01c2 94E0     		b	.L143
 2720              	.L164:
 950:Drivers/STM32H7xx_HAL_Driver/Src/stm32h7xx_hal_tim_ex.c ****       }
 951:Drivers/STM32H7xx_HAL_Driver/Src/stm32h7xx_hal_tim_ex.c ****       /* Enable the TIM Output Compare DMA request */
 952:Drivers/STM32H7xx_HAL_Driver/Src/stm32h7xx_hal_tim_ex.c ****       __HAL_TIM_ENABLE_DMA(htim, TIM_DMA_CC2);
 2721              		.loc 1 952 7
 2722 01c4 FB68     		ldr	r3, [r7, #12]
 2723 01c6 1B68     		ldr	r3, [r3]
 2724 01c8 DA68     		ldr	r2, [r3, #12]
 2725 01ca FB68     		ldr	r3, [r7, #12]
 2726 01cc 1B68     		ldr	r3, [r3]
 2727 01ce 42F48062 		orr	r2, r2, #1024
 2728 01d2 DA60     		str	r2, [r3, #12]
 953:Drivers/STM32H7xx_HAL_Driver/Src/stm32h7xx_hal_tim_ex.c ****       break;
 2729              		.loc 1 953 7
 2730 01d4 26E0     		b	.L163
 2731              	.L158:
 954:Drivers/STM32H7xx_HAL_Driver/Src/stm32h7xx_hal_tim_ex.c ****     }
 955:Drivers/STM32H7xx_HAL_Driver/Src/stm32h7xx_hal_tim_ex.c **** 
 956:Drivers/STM32H7xx_HAL_Driver/Src/stm32h7xx_hal_tim_ex.c ****     case TIM_CHANNEL_3:
 957:Drivers/STM32H7xx_HAL_Driver/Src/stm32h7xx_hal_tim_ex.c ****     {
 958:Drivers/STM32H7xx_HAL_Driver/Src/stm32h7xx_hal_tim_ex.c ****       /* Set the DMA compare callbacks */
 959:Drivers/STM32H7xx_HAL_Driver/Src/stm32h7xx_hal_tim_ex.c ****       htim->hdma[TIM_DMA_ID_CC3]->XferCpltCallback = TIM_DMADelayPulseNCplt;
 2732              		.loc 1 959 17
 2733 01d6 FB68     		ldr	r3, [r7, #12]
 2734 01d8 DB6A     		ldr	r3, [r3, #44]
 2735              		.loc 1 959 52
 2736 01da 474A     		ldr	r2, .L171
 2737 01dc DA63     		str	r2, [r3, #60]
 960:Drivers/STM32H7xx_HAL_Driver/Src/stm32h7xx_hal_tim_ex.c ****       htim->hdma[TIM_DMA_ID_CC3]->XferHalfCpltCallback = TIM_DMADelayPulseHalfCplt;
 2738              		.loc 1 960 17
 2739 01de FB68     		ldr	r3, [r7, #12]
 2740 01e0 DB6A     		ldr	r3, [r3, #44]
 2741              		.loc 1 960 56
 2742 01e2 464A     		ldr	r2, .L171+4
 2743 01e4 1A64     		str	r2, [r3, #64]
 961:Drivers/STM32H7xx_HAL_Driver/Src/stm32h7xx_hal_tim_ex.c **** 
 962:Drivers/STM32H7xx_HAL_Driver/Src/stm32h7xx_hal_tim_ex.c ****       /* Set the DMA error callback */
 963:Drivers/STM32H7xx_HAL_Driver/Src/stm32h7xx_hal_tim_ex.c ****       htim->hdma[TIM_DMA_ID_CC3]->XferErrorCallback = TIM_DMAErrorCCxN ;
 2744              		.loc 1 963 17
 2745 01e6 FB68     		ldr	r3, [r7, #12]
 2746 01e8 DB6A     		ldr	r3, [r3, #44]
 2747              		.loc 1 963 53
 2748 01ea 454A     		ldr	r2, .L171+8
 2749 01ec DA64     		str	r2, [r3, #76]
 964:Drivers/STM32H7xx_HAL_Driver/Src/stm32h7xx_hal_tim_ex.c **** 
 965:Drivers/STM32H7xx_HAL_Driver/Src/stm32h7xx_hal_tim_ex.c ****       /* Enable the DMA stream */
 966:Drivers/STM32H7xx_HAL_Driver/Src/stm32h7xx_hal_tim_ex.c ****       if (HAL_DMA_Start_IT(htim->hdma[TIM_DMA_ID_CC3], (uint32_t)pData, (uint32_t)&htim->Instance->
 2750              		.loc 1 966 11
 2751 01ee FB68     		ldr	r3, [r7, #12]
 2752 01f0 D86A     		ldr	r0, [r3, #44]
 2753 01f2 7968     		ldr	r1, [r7, #4]
 2754              		.loc 1 966 88
 2755 01f4 FB68     		ldr	r3, [r7, #12]
 2756 01f6 1B68     		ldr	r3, [r3]
ARM GAS  C:\Users\Su\AppData\Local\Temp\ccm0VnUy.s 			page 66


 2757              		.loc 1 966 83
 2758 01f8 3C33     		adds	r3, r3, #60
 2759              		.loc 1 966 11
 2760 01fa 1A46     		mov	r2, r3
 2761 01fc 7B88     		ldrh	r3, [r7, #2]
 2762 01fe FFF7FEFF 		bl	HAL_DMA_Start_IT
 2763 0202 0346     		mov	r3, r0
 2764              		.loc 1 966 10
 2765 0204 002B     		cmp	r3, #0
 2766 0206 01D0     		beq	.L165
 967:Drivers/STM32H7xx_HAL_Driver/Src/stm32h7xx_hal_tim_ex.c ****                            Length) != HAL_OK)
 968:Drivers/STM32H7xx_HAL_Driver/Src/stm32h7xx_hal_tim_ex.c ****       {
 969:Drivers/STM32H7xx_HAL_Driver/Src/stm32h7xx_hal_tim_ex.c ****         /* Return error status */
 970:Drivers/STM32H7xx_HAL_Driver/Src/stm32h7xx_hal_tim_ex.c ****         return HAL_ERROR;
 2767              		.loc 1 970 16
 2768 0208 0123     		movs	r3, #1
 2769 020a 70E0     		b	.L143
 2770              	.L165:
 971:Drivers/STM32H7xx_HAL_Driver/Src/stm32h7xx_hal_tim_ex.c ****       }
 972:Drivers/STM32H7xx_HAL_Driver/Src/stm32h7xx_hal_tim_ex.c ****       /* Enable the TIM Output Compare DMA request */
 973:Drivers/STM32H7xx_HAL_Driver/Src/stm32h7xx_hal_tim_ex.c ****       __HAL_TIM_ENABLE_DMA(htim, TIM_DMA_CC3);
 2771              		.loc 1 973 7
 2772 020c FB68     		ldr	r3, [r7, #12]
 2773 020e 1B68     		ldr	r3, [r3]
 2774 0210 DA68     		ldr	r2, [r3, #12]
 2775 0212 FB68     		ldr	r3, [r7, #12]
 2776 0214 1B68     		ldr	r3, [r3]
 2777 0216 42F40062 		orr	r2, r2, #2048
 2778 021a DA60     		str	r2, [r3, #12]
 974:Drivers/STM32H7xx_HAL_Driver/Src/stm32h7xx_hal_tim_ex.c ****       break;
 2779              		.loc 1 974 7
 2780 021c 02E0     		b	.L163
 2781              	.L159:
 975:Drivers/STM32H7xx_HAL_Driver/Src/stm32h7xx_hal_tim_ex.c ****     }
 976:Drivers/STM32H7xx_HAL_Driver/Src/stm32h7xx_hal_tim_ex.c **** 
 977:Drivers/STM32H7xx_HAL_Driver/Src/stm32h7xx_hal_tim_ex.c ****     default:
 978:Drivers/STM32H7xx_HAL_Driver/Src/stm32h7xx_hal_tim_ex.c ****       status = HAL_ERROR;
 2782              		.loc 1 978 14
 2783 021e 0123     		movs	r3, #1
 2784 0220 FB75     		strb	r3, [r7, #23]
 979:Drivers/STM32H7xx_HAL_Driver/Src/stm32h7xx_hal_tim_ex.c ****       break;
 2785              		.loc 1 979 7
 2786 0222 00BF     		nop
 2787              	.L163:
 980:Drivers/STM32H7xx_HAL_Driver/Src/stm32h7xx_hal_tim_ex.c ****   }
 981:Drivers/STM32H7xx_HAL_Driver/Src/stm32h7xx_hal_tim_ex.c **** 
 982:Drivers/STM32H7xx_HAL_Driver/Src/stm32h7xx_hal_tim_ex.c ****   if (status == HAL_OK)
 2788              		.loc 1 982 6
 2789 0224 FB7D     		ldrb	r3, [r7, #23]	@ zero_extendqisi2
 2790 0226 002B     		cmp	r3, #0
 2791 0228 60D1     		bne	.L166
 983:Drivers/STM32H7xx_HAL_Driver/Src/stm32h7xx_hal_tim_ex.c ****   {
 984:Drivers/STM32H7xx_HAL_Driver/Src/stm32h7xx_hal_tim_ex.c ****     /* Enable the Capture compare channel N */
 985:Drivers/STM32H7xx_HAL_Driver/Src/stm32h7xx_hal_tim_ex.c ****     TIM_CCxNChannelCmd(htim->Instance, Channel, TIM_CCxN_ENABLE);
 2792              		.loc 1 985 5
 2793 022a FB68     		ldr	r3, [r7, #12]
 2794 022c 1B68     		ldr	r3, [r3]
ARM GAS  C:\Users\Su\AppData\Local\Temp\ccm0VnUy.s 			page 67


 2795 022e 0422     		movs	r2, #4
 2796 0230 B968     		ldr	r1, [r7, #8]
 2797 0232 1846     		mov	r0, r3
 2798 0234 FFF7FEFF 		bl	TIM_CCxNChannelCmd
 986:Drivers/STM32H7xx_HAL_Driver/Src/stm32h7xx_hal_tim_ex.c **** 
 987:Drivers/STM32H7xx_HAL_Driver/Src/stm32h7xx_hal_tim_ex.c ****     /* Enable the Main Output */
 988:Drivers/STM32H7xx_HAL_Driver/Src/stm32h7xx_hal_tim_ex.c ****     __HAL_TIM_MOE_ENABLE(htim);
 2799              		.loc 1 988 5
 2800 0238 FB68     		ldr	r3, [r7, #12]
 2801 023a 1B68     		ldr	r3, [r3]
 2802 023c 5A6C     		ldr	r2, [r3, #68]
 2803 023e FB68     		ldr	r3, [r7, #12]
 2804 0240 1B68     		ldr	r3, [r3]
 2805 0242 42F40042 		orr	r2, r2, #32768
 2806 0246 5A64     		str	r2, [r3, #68]
 989:Drivers/STM32H7xx_HAL_Driver/Src/stm32h7xx_hal_tim_ex.c **** 
 990:Drivers/STM32H7xx_HAL_Driver/Src/stm32h7xx_hal_tim_ex.c ****     /* Enable the Peripheral, except in trigger mode where enable is automatically done with trigge
 991:Drivers/STM32H7xx_HAL_Driver/Src/stm32h7xx_hal_tim_ex.c ****     if (IS_TIM_SLAVE_INSTANCE(htim->Instance))
 2807              		.loc 1 991 9
 2808 0248 FB68     		ldr	r3, [r7, #12]
 2809 024a 1B68     		ldr	r3, [r3]
 2810              		.loc 1 991 8
 2811 024c 2D4A     		ldr	r2, .L171+12
 2812 024e 9342     		cmp	r3, r2
 2813 0250 2CD0     		beq	.L167
 2814              		.loc 1 991 9 discriminator 1
 2815 0252 FB68     		ldr	r3, [r7, #12]
 2816 0254 1B68     		ldr	r3, [r3]
 2817 0256 B3F1804F 		cmp	r3, #1073741824
 2818 025a 27D0     		beq	.L167
 2819              		.loc 1 991 9 is_stmt 0 discriminator 2
 2820 025c FB68     		ldr	r3, [r7, #12]
 2821 025e 1B68     		ldr	r3, [r3]
 2822 0260 294A     		ldr	r2, .L171+16
 2823 0262 9342     		cmp	r3, r2
 2824 0264 22D0     		beq	.L167
 2825              		.loc 1 991 9 discriminator 3
 2826 0266 FB68     		ldr	r3, [r7, #12]
 2827 0268 1B68     		ldr	r3, [r3]
 2828 026a 284A     		ldr	r2, .L171+20
 2829 026c 9342     		cmp	r3, r2
 2830 026e 1DD0     		beq	.L167
 2831              		.loc 1 991 9 discriminator 4
 2832 0270 FB68     		ldr	r3, [r7, #12]
 2833 0272 1B68     		ldr	r3, [r3]
 2834 0274 264A     		ldr	r2, .L171+24
 2835 0276 9342     		cmp	r3, r2
 2836 0278 18D0     		beq	.L167
 2837              		.loc 1 991 9 discriminator 5
 2838 027a FB68     		ldr	r3, [r7, #12]
 2839 027c 1B68     		ldr	r3, [r3]
 2840 027e 254A     		ldr	r2, .L171+28
 2841 0280 9342     		cmp	r3, r2
 2842 0282 13D0     		beq	.L167
 2843              		.loc 1 991 9 discriminator 6
 2844 0284 FB68     		ldr	r3, [r7, #12]
 2845 0286 1B68     		ldr	r3, [r3]
ARM GAS  C:\Users\Su\AppData\Local\Temp\ccm0VnUy.s 			page 68


 2846 0288 234A     		ldr	r2, .L171+32
 2847 028a 9342     		cmp	r3, r2
 2848 028c 0ED0     		beq	.L167
 2849              		.loc 1 991 9 discriminator 7
 2850 028e FB68     		ldr	r3, [r7, #12]
 2851 0290 1B68     		ldr	r3, [r3]
 2852 0292 224A     		ldr	r2, .L171+36
 2853 0294 9342     		cmp	r3, r2
 2854 0296 09D0     		beq	.L167
 2855              		.loc 1 991 9 discriminator 8
 2856 0298 FB68     		ldr	r3, [r7, #12]
 2857 029a 1B68     		ldr	r3, [r3]
 2858 029c 204A     		ldr	r2, .L171+40
 2859 029e 9342     		cmp	r3, r2
 2860 02a0 04D0     		beq	.L167
 2861              		.loc 1 991 9 discriminator 9
 2862 02a2 FB68     		ldr	r3, [r7, #12]
 2863 02a4 1B68     		ldr	r3, [r3]
 2864 02a6 1F4A     		ldr	r2, .L171+44
 2865 02a8 9342     		cmp	r3, r2
 2866 02aa 15D1     		bne	.L168
 2867              	.L167:
 992:Drivers/STM32H7xx_HAL_Driver/Src/stm32h7xx_hal_tim_ex.c ****     {
 993:Drivers/STM32H7xx_HAL_Driver/Src/stm32h7xx_hal_tim_ex.c ****       tmpsmcr = htim->Instance->SMCR & TIM_SMCR_SMS;
 2868              		.loc 1 993 21 is_stmt 1
 2869 02ac FB68     		ldr	r3, [r7, #12]
 2870 02ae 1B68     		ldr	r3, [r3]
 2871              		.loc 1 993 31
 2872 02b0 9A68     		ldr	r2, [r3, #8]
 2873              		.loc 1 993 15
 2874 02b2 1D4B     		ldr	r3, .L171+48
 2875 02b4 1340     		ands	r3, r3, r2
 2876 02b6 3B61     		str	r3, [r7, #16]
 994:Drivers/STM32H7xx_HAL_Driver/Src/stm32h7xx_hal_tim_ex.c ****       if (!IS_TIM_SLAVEMODE_TRIGGER_ENABLED(tmpsmcr))
 2877              		.loc 1 994 10
 2878 02b8 3B69     		ldr	r3, [r7, #16]
 2879 02ba 062B     		cmp	r3, #6
 2880 02bc 15D0     		beq	.L170
 2881              		.loc 1 994 11 discriminator 1
 2882 02be 3B69     		ldr	r3, [r7, #16]
 2883 02c0 B3F5803F 		cmp	r3, #65536
 2884 02c4 11D0     		beq	.L170
 995:Drivers/STM32H7xx_HAL_Driver/Src/stm32h7xx_hal_tim_ex.c ****       {
 996:Drivers/STM32H7xx_HAL_Driver/Src/stm32h7xx_hal_tim_ex.c ****         __HAL_TIM_ENABLE(htim);
 2885              		.loc 1 996 9
 2886 02c6 FB68     		ldr	r3, [r7, #12]
 2887 02c8 1B68     		ldr	r3, [r3]
 2888 02ca 1A68     		ldr	r2, [r3]
 2889 02cc FB68     		ldr	r3, [r7, #12]
 2890 02ce 1B68     		ldr	r3, [r3]
 2891 02d0 42F00102 		orr	r2, r2, #1
 2892 02d4 1A60     		str	r2, [r3]
 994:Drivers/STM32H7xx_HAL_Driver/Src/stm32h7xx_hal_tim_ex.c ****       if (!IS_TIM_SLAVEMODE_TRIGGER_ENABLED(tmpsmcr))
 2893              		.loc 1 994 10
 2894 02d6 08E0     		b	.L170
 2895              	.L168:
 997:Drivers/STM32H7xx_HAL_Driver/Src/stm32h7xx_hal_tim_ex.c ****       }
ARM GAS  C:\Users\Su\AppData\Local\Temp\ccm0VnUy.s 			page 69


 998:Drivers/STM32H7xx_HAL_Driver/Src/stm32h7xx_hal_tim_ex.c ****     }
 999:Drivers/STM32H7xx_HAL_Driver/Src/stm32h7xx_hal_tim_ex.c ****     else
1000:Drivers/STM32H7xx_HAL_Driver/Src/stm32h7xx_hal_tim_ex.c ****     {
1001:Drivers/STM32H7xx_HAL_Driver/Src/stm32h7xx_hal_tim_ex.c ****       __HAL_TIM_ENABLE(htim);
 2896              		.loc 1 1001 7
 2897 02d8 FB68     		ldr	r3, [r7, #12]
 2898 02da 1B68     		ldr	r3, [r3]
 2899 02dc 1A68     		ldr	r2, [r3]
 2900 02de FB68     		ldr	r3, [r7, #12]
 2901 02e0 1B68     		ldr	r3, [r3]
 2902 02e2 42F00102 		orr	r2, r2, #1
 2903 02e6 1A60     		str	r2, [r3]
 2904 02e8 00E0     		b	.L166
 2905              	.L170:
 994:Drivers/STM32H7xx_HAL_Driver/Src/stm32h7xx_hal_tim_ex.c ****       {
 2906              		.loc 1 994 10
 2907 02ea 00BF     		nop
 2908              	.L166:
1002:Drivers/STM32H7xx_HAL_Driver/Src/stm32h7xx_hal_tim_ex.c ****     }
1003:Drivers/STM32H7xx_HAL_Driver/Src/stm32h7xx_hal_tim_ex.c ****   }
1004:Drivers/STM32H7xx_HAL_Driver/Src/stm32h7xx_hal_tim_ex.c **** 
1005:Drivers/STM32H7xx_HAL_Driver/Src/stm32h7xx_hal_tim_ex.c ****   /* Return function status */
1006:Drivers/STM32H7xx_HAL_Driver/Src/stm32h7xx_hal_tim_ex.c ****   return status;
 2909              		.loc 1 1006 10
 2910 02ec FB7D     		ldrb	r3, [r7, #23]	@ zero_extendqisi2
 2911              	.L143:
1007:Drivers/STM32H7xx_HAL_Driver/Src/stm32h7xx_hal_tim_ex.c **** }
 2912              		.loc 1 1007 1
 2913 02ee 1846     		mov	r0, r3
 2914 02f0 1837     		adds	r7, r7, #24
 2915              	.LCFI75:
 2916              		.cfi_def_cfa_offset 8
 2917 02f2 BD46     		mov	sp, r7
 2918              	.LCFI76:
 2919              		.cfi_def_cfa_register 13
 2920              		@ sp needed
 2921 02f4 80BD     		pop	{r7, pc}
 2922              	.L172:
 2923 02f6 00BF     		.align	2
 2924              	.L171:
 2925 02f8 00000000 		.word	TIM_DMADelayPulseNCplt
 2926 02fc 00000000 		.word	TIM_DMADelayPulseHalfCplt
 2927 0300 00000000 		.word	TIM_DMAErrorCCxN
 2928 0304 00000140 		.word	1073807360
 2929 0308 00040040 		.word	1073742848
 2930 030c 00080040 		.word	1073743872
 2931 0310 000C0040 		.word	1073744896
 2932 0314 00040140 		.word	1073808384
 2933 0318 00180040 		.word	1073747968
 2934 031c 00400140 		.word	1073823744
 2935 0320 00E00040 		.word	1073799168
 2936 0324 00E40040 		.word	1073800192
 2937 0328 07000100 		.word	65543
 2938              		.cfi_endproc
 2939              	.LFE158:
 2941              		.section	.text.HAL_TIMEx_OCN_Stop_DMA,"ax",%progbits
 2942              		.align	1
ARM GAS  C:\Users\Su\AppData\Local\Temp\ccm0VnUy.s 			page 70


 2943              		.global	HAL_TIMEx_OCN_Stop_DMA
 2944              		.syntax unified
 2945              		.thumb
 2946              		.thumb_func
 2948              	HAL_TIMEx_OCN_Stop_DMA:
 2949              	.LFB159:
1008:Drivers/STM32H7xx_HAL_Driver/Src/stm32h7xx_hal_tim_ex.c **** 
1009:Drivers/STM32H7xx_HAL_Driver/Src/stm32h7xx_hal_tim_ex.c **** /**
1010:Drivers/STM32H7xx_HAL_Driver/Src/stm32h7xx_hal_tim_ex.c ****   * @brief  Stops the TIM Output Compare signal generation in DMA mode
1011:Drivers/STM32H7xx_HAL_Driver/Src/stm32h7xx_hal_tim_ex.c ****   *         on the complementary output.
1012:Drivers/STM32H7xx_HAL_Driver/Src/stm32h7xx_hal_tim_ex.c ****   * @param  htim TIM Output Compare handle
1013:Drivers/STM32H7xx_HAL_Driver/Src/stm32h7xx_hal_tim_ex.c ****   * @param  Channel TIM Channel to be disabled
1014:Drivers/STM32H7xx_HAL_Driver/Src/stm32h7xx_hal_tim_ex.c ****   *          This parameter can be one of the following values:
1015:Drivers/STM32H7xx_HAL_Driver/Src/stm32h7xx_hal_tim_ex.c ****   *            @arg TIM_CHANNEL_1: TIM Channel 1 selected
1016:Drivers/STM32H7xx_HAL_Driver/Src/stm32h7xx_hal_tim_ex.c ****   *            @arg TIM_CHANNEL_2: TIM Channel 2 selected
1017:Drivers/STM32H7xx_HAL_Driver/Src/stm32h7xx_hal_tim_ex.c ****   *            @arg TIM_CHANNEL_3: TIM Channel 3 selected
1018:Drivers/STM32H7xx_HAL_Driver/Src/stm32h7xx_hal_tim_ex.c ****   * @retval HAL status
1019:Drivers/STM32H7xx_HAL_Driver/Src/stm32h7xx_hal_tim_ex.c ****   */
1020:Drivers/STM32H7xx_HAL_Driver/Src/stm32h7xx_hal_tim_ex.c **** HAL_StatusTypeDef HAL_TIMEx_OCN_Stop_DMA(TIM_HandleTypeDef *htim, uint32_t Channel)
1021:Drivers/STM32H7xx_HAL_Driver/Src/stm32h7xx_hal_tim_ex.c **** {
 2950              		.loc 1 1021 1
 2951              		.cfi_startproc
 2952              		@ args = 0, pretend = 0, frame = 16
 2953              		@ frame_needed = 1, uses_anonymous_args = 0
 2954 0000 80B5     		push	{r7, lr}
 2955              	.LCFI77:
 2956              		.cfi_def_cfa_offset 8
 2957              		.cfi_offset 7, -8
 2958              		.cfi_offset 14, -4
 2959 0002 84B0     		sub	sp, sp, #16
 2960              	.LCFI78:
 2961              		.cfi_def_cfa_offset 24
 2962 0004 00AF     		add	r7, sp, #0
 2963              	.LCFI79:
 2964              		.cfi_def_cfa_register 7
 2965 0006 7860     		str	r0, [r7, #4]
 2966 0008 3960     		str	r1, [r7]
1022:Drivers/STM32H7xx_HAL_Driver/Src/stm32h7xx_hal_tim_ex.c ****   HAL_StatusTypeDef status = HAL_OK;
 2967              		.loc 1 1022 21
 2968 000a 0023     		movs	r3, #0
 2969 000c FB73     		strb	r3, [r7, #15]
1023:Drivers/STM32H7xx_HAL_Driver/Src/stm32h7xx_hal_tim_ex.c **** 
1024:Drivers/STM32H7xx_HAL_Driver/Src/stm32h7xx_hal_tim_ex.c ****   /* Check the parameters */
1025:Drivers/STM32H7xx_HAL_Driver/Src/stm32h7xx_hal_tim_ex.c ****   assert_param(IS_TIM_CCXN_INSTANCE(htim->Instance, Channel));
1026:Drivers/STM32H7xx_HAL_Driver/Src/stm32h7xx_hal_tim_ex.c **** 
1027:Drivers/STM32H7xx_HAL_Driver/Src/stm32h7xx_hal_tim_ex.c ****   switch (Channel)
 2970              		.loc 1 1027 3
 2971 000e 3B68     		ldr	r3, [r7]
 2972 0010 082B     		cmp	r3, #8
 2973 0012 25D0     		beq	.L174
 2974 0014 3B68     		ldr	r3, [r7]
 2975 0016 082B     		cmp	r3, #8
 2976 0018 30D8     		bhi	.L175
 2977 001a 3B68     		ldr	r3, [r7]
 2978 001c 002B     		cmp	r3, #0
 2979 001e 03D0     		beq	.L176
 2980 0020 3B68     		ldr	r3, [r7]
ARM GAS  C:\Users\Su\AppData\Local\Temp\ccm0VnUy.s 			page 71


 2981 0022 042B     		cmp	r3, #4
 2982 0024 0ED0     		beq	.L177
 2983 0026 29E0     		b	.L175
 2984              	.L176:
1028:Drivers/STM32H7xx_HAL_Driver/Src/stm32h7xx_hal_tim_ex.c ****   {
1029:Drivers/STM32H7xx_HAL_Driver/Src/stm32h7xx_hal_tim_ex.c ****     case TIM_CHANNEL_1:
1030:Drivers/STM32H7xx_HAL_Driver/Src/stm32h7xx_hal_tim_ex.c ****     {
1031:Drivers/STM32H7xx_HAL_Driver/Src/stm32h7xx_hal_tim_ex.c ****       /* Disable the TIM Output Compare DMA request */
1032:Drivers/STM32H7xx_HAL_Driver/Src/stm32h7xx_hal_tim_ex.c ****       __HAL_TIM_DISABLE_DMA(htim, TIM_DMA_CC1);
 2985              		.loc 1 1032 7
 2986 0028 7B68     		ldr	r3, [r7, #4]
 2987 002a 1B68     		ldr	r3, [r3]
 2988 002c DA68     		ldr	r2, [r3, #12]
 2989 002e 7B68     		ldr	r3, [r7, #4]
 2990 0030 1B68     		ldr	r3, [r3]
 2991 0032 22F40072 		bic	r2, r2, #512
 2992 0036 DA60     		str	r2, [r3, #12]
1033:Drivers/STM32H7xx_HAL_Driver/Src/stm32h7xx_hal_tim_ex.c ****       (void)HAL_DMA_Abort_IT(htim->hdma[TIM_DMA_ID_CC1]);
 2993              		.loc 1 1033 13
 2994 0038 7B68     		ldr	r3, [r7, #4]
 2995 003a 5B6A     		ldr	r3, [r3, #36]
 2996 003c 1846     		mov	r0, r3
 2997 003e FFF7FEFF 		bl	HAL_DMA_Abort_IT
1034:Drivers/STM32H7xx_HAL_Driver/Src/stm32h7xx_hal_tim_ex.c ****       break;
 2998              		.loc 1 1034 7
 2999 0042 1EE0     		b	.L178
 3000              	.L177:
1035:Drivers/STM32H7xx_HAL_Driver/Src/stm32h7xx_hal_tim_ex.c ****     }
1036:Drivers/STM32H7xx_HAL_Driver/Src/stm32h7xx_hal_tim_ex.c **** 
1037:Drivers/STM32H7xx_HAL_Driver/Src/stm32h7xx_hal_tim_ex.c ****     case TIM_CHANNEL_2:
1038:Drivers/STM32H7xx_HAL_Driver/Src/stm32h7xx_hal_tim_ex.c ****     {
1039:Drivers/STM32H7xx_HAL_Driver/Src/stm32h7xx_hal_tim_ex.c ****       /* Disable the TIM Output Compare DMA request */
1040:Drivers/STM32H7xx_HAL_Driver/Src/stm32h7xx_hal_tim_ex.c ****       __HAL_TIM_DISABLE_DMA(htim, TIM_DMA_CC2);
 3001              		.loc 1 1040 7
 3002 0044 7B68     		ldr	r3, [r7, #4]
 3003 0046 1B68     		ldr	r3, [r3]
 3004 0048 DA68     		ldr	r2, [r3, #12]
 3005 004a 7B68     		ldr	r3, [r7, #4]
 3006 004c 1B68     		ldr	r3, [r3]
 3007 004e 22F48062 		bic	r2, r2, #1024
 3008 0052 DA60     		str	r2, [r3, #12]
1041:Drivers/STM32H7xx_HAL_Driver/Src/stm32h7xx_hal_tim_ex.c ****       (void)HAL_DMA_Abort_IT(htim->hdma[TIM_DMA_ID_CC2]);
 3009              		.loc 1 1041 13
 3010 0054 7B68     		ldr	r3, [r7, #4]
 3011 0056 9B6A     		ldr	r3, [r3, #40]
 3012 0058 1846     		mov	r0, r3
 3013 005a FFF7FEFF 		bl	HAL_DMA_Abort_IT
1042:Drivers/STM32H7xx_HAL_Driver/Src/stm32h7xx_hal_tim_ex.c ****       break;
 3014              		.loc 1 1042 7
 3015 005e 10E0     		b	.L178
 3016              	.L174:
1043:Drivers/STM32H7xx_HAL_Driver/Src/stm32h7xx_hal_tim_ex.c ****     }
1044:Drivers/STM32H7xx_HAL_Driver/Src/stm32h7xx_hal_tim_ex.c **** 
1045:Drivers/STM32H7xx_HAL_Driver/Src/stm32h7xx_hal_tim_ex.c ****     case TIM_CHANNEL_3:
1046:Drivers/STM32H7xx_HAL_Driver/Src/stm32h7xx_hal_tim_ex.c ****     {
1047:Drivers/STM32H7xx_HAL_Driver/Src/stm32h7xx_hal_tim_ex.c ****       /* Disable the TIM Output Compare DMA request */
1048:Drivers/STM32H7xx_HAL_Driver/Src/stm32h7xx_hal_tim_ex.c ****       __HAL_TIM_DISABLE_DMA(htim, TIM_DMA_CC3);
ARM GAS  C:\Users\Su\AppData\Local\Temp\ccm0VnUy.s 			page 72


 3017              		.loc 1 1048 7
 3018 0060 7B68     		ldr	r3, [r7, #4]
 3019 0062 1B68     		ldr	r3, [r3]
 3020 0064 DA68     		ldr	r2, [r3, #12]
 3021 0066 7B68     		ldr	r3, [r7, #4]
 3022 0068 1B68     		ldr	r3, [r3]
 3023 006a 22F40062 		bic	r2, r2, #2048
 3024 006e DA60     		str	r2, [r3, #12]
1049:Drivers/STM32H7xx_HAL_Driver/Src/stm32h7xx_hal_tim_ex.c ****       (void)HAL_DMA_Abort_IT(htim->hdma[TIM_DMA_ID_CC3]);
 3025              		.loc 1 1049 13
 3026 0070 7B68     		ldr	r3, [r7, #4]
 3027 0072 DB6A     		ldr	r3, [r3, #44]
 3028 0074 1846     		mov	r0, r3
 3029 0076 FFF7FEFF 		bl	HAL_DMA_Abort_IT
1050:Drivers/STM32H7xx_HAL_Driver/Src/stm32h7xx_hal_tim_ex.c ****       break;
 3030              		.loc 1 1050 7
 3031 007a 02E0     		b	.L178
 3032              	.L175:
1051:Drivers/STM32H7xx_HAL_Driver/Src/stm32h7xx_hal_tim_ex.c ****     }
1052:Drivers/STM32H7xx_HAL_Driver/Src/stm32h7xx_hal_tim_ex.c **** 
1053:Drivers/STM32H7xx_HAL_Driver/Src/stm32h7xx_hal_tim_ex.c ****     default:
1054:Drivers/STM32H7xx_HAL_Driver/Src/stm32h7xx_hal_tim_ex.c ****       status = HAL_ERROR;
 3033              		.loc 1 1054 14
 3034 007c 0123     		movs	r3, #1
 3035 007e FB73     		strb	r3, [r7, #15]
1055:Drivers/STM32H7xx_HAL_Driver/Src/stm32h7xx_hal_tim_ex.c ****       break;
 3036              		.loc 1 1055 7
 3037 0080 00BF     		nop
 3038              	.L178:
1056:Drivers/STM32H7xx_HAL_Driver/Src/stm32h7xx_hal_tim_ex.c ****   }
1057:Drivers/STM32H7xx_HAL_Driver/Src/stm32h7xx_hal_tim_ex.c **** 
1058:Drivers/STM32H7xx_HAL_Driver/Src/stm32h7xx_hal_tim_ex.c ****   if (status == HAL_OK)
 3039              		.loc 1 1058 6
 3040 0082 FB7B     		ldrb	r3, [r7, #15]	@ zero_extendqisi2
 3041 0084 002B     		cmp	r3, #0
 3042 0086 52D1     		bne	.L179
1059:Drivers/STM32H7xx_HAL_Driver/Src/stm32h7xx_hal_tim_ex.c ****   {
1060:Drivers/STM32H7xx_HAL_Driver/Src/stm32h7xx_hal_tim_ex.c ****     /* Disable the Capture compare channel N */
1061:Drivers/STM32H7xx_HAL_Driver/Src/stm32h7xx_hal_tim_ex.c ****     TIM_CCxNChannelCmd(htim->Instance, Channel, TIM_CCxN_DISABLE);
 3043              		.loc 1 1061 5
 3044 0088 7B68     		ldr	r3, [r7, #4]
 3045 008a 1B68     		ldr	r3, [r3]
 3046 008c 0022     		movs	r2, #0
 3047 008e 3968     		ldr	r1, [r7]
 3048 0090 1846     		mov	r0, r3
 3049 0092 FFF7FEFF 		bl	TIM_CCxNChannelCmd
1062:Drivers/STM32H7xx_HAL_Driver/Src/stm32h7xx_hal_tim_ex.c **** 
1063:Drivers/STM32H7xx_HAL_Driver/Src/stm32h7xx_hal_tim_ex.c ****     /* Disable the Main Output */
1064:Drivers/STM32H7xx_HAL_Driver/Src/stm32h7xx_hal_tim_ex.c ****     __HAL_TIM_MOE_DISABLE(htim);
 3050              		.loc 1 1064 5
 3051 0096 7B68     		ldr	r3, [r7, #4]
 3052 0098 1B68     		ldr	r3, [r3]
 3053 009a 1A6A     		ldr	r2, [r3, #32]
 3054 009c 41F21113 		movw	r3, #4369
 3055 00a0 1340     		ands	r3, r3, r2
 3056 00a2 002B     		cmp	r3, #0
 3057 00a4 0FD1     		bne	.L180
ARM GAS  C:\Users\Su\AppData\Local\Temp\ccm0VnUy.s 			page 73


 3058              		.loc 1 1064 5 is_stmt 0 discriminator 1
 3059 00a6 7B68     		ldr	r3, [r7, #4]
 3060 00a8 1B68     		ldr	r3, [r3]
 3061 00aa 1A6A     		ldr	r2, [r3, #32]
 3062 00ac 40F24443 		movw	r3, #1092
 3063 00b0 1340     		ands	r3, r3, r2
 3064 00b2 002B     		cmp	r3, #0
 3065 00b4 07D1     		bne	.L180
 3066              		.loc 1 1064 5 discriminator 2
 3067 00b6 7B68     		ldr	r3, [r7, #4]
 3068 00b8 1B68     		ldr	r3, [r3]
 3069 00ba 5A6C     		ldr	r2, [r3, #68]
 3070 00bc 7B68     		ldr	r3, [r7, #4]
 3071 00be 1B68     		ldr	r3, [r3]
 3072 00c0 22F40042 		bic	r2, r2, #32768
 3073 00c4 5A64     		str	r2, [r3, #68]
 3074              	.L180:
1065:Drivers/STM32H7xx_HAL_Driver/Src/stm32h7xx_hal_tim_ex.c **** 
1066:Drivers/STM32H7xx_HAL_Driver/Src/stm32h7xx_hal_tim_ex.c ****     /* Disable the Peripheral */
1067:Drivers/STM32H7xx_HAL_Driver/Src/stm32h7xx_hal_tim_ex.c ****     __HAL_TIM_DISABLE(htim);
 3075              		.loc 1 1067 5 is_stmt 1
 3076 00c6 7B68     		ldr	r3, [r7, #4]
 3077 00c8 1B68     		ldr	r3, [r3]
 3078 00ca 1A6A     		ldr	r2, [r3, #32]
 3079 00cc 41F21113 		movw	r3, #4369
 3080 00d0 1340     		ands	r3, r3, r2
 3081 00d2 002B     		cmp	r3, #0
 3082 00d4 0FD1     		bne	.L181
 3083              		.loc 1 1067 5 is_stmt 0 discriminator 1
 3084 00d6 7B68     		ldr	r3, [r7, #4]
 3085 00d8 1B68     		ldr	r3, [r3]
 3086 00da 1A6A     		ldr	r2, [r3, #32]
 3087 00dc 40F24443 		movw	r3, #1092
 3088 00e0 1340     		ands	r3, r3, r2
 3089 00e2 002B     		cmp	r3, #0
 3090 00e4 07D1     		bne	.L181
 3091              		.loc 1 1067 5 discriminator 2
 3092 00e6 7B68     		ldr	r3, [r7, #4]
 3093 00e8 1B68     		ldr	r3, [r3]
 3094 00ea 1A68     		ldr	r2, [r3]
 3095 00ec 7B68     		ldr	r3, [r7, #4]
 3096 00ee 1B68     		ldr	r3, [r3]
 3097 00f0 22F00102 		bic	r2, r2, #1
 3098 00f4 1A60     		str	r2, [r3]
 3099              	.L181:
1068:Drivers/STM32H7xx_HAL_Driver/Src/stm32h7xx_hal_tim_ex.c **** 
1069:Drivers/STM32H7xx_HAL_Driver/Src/stm32h7xx_hal_tim_ex.c ****     /* Set the TIM complementary channel state */
1070:Drivers/STM32H7xx_HAL_Driver/Src/stm32h7xx_hal_tim_ex.c ****     TIM_CHANNEL_N_STATE_SET(htim, Channel, HAL_TIM_CHANNEL_STATE_READY);
 3100              		.loc 1 1070 5 is_stmt 1
 3101 00f6 3B68     		ldr	r3, [r7]
 3102 00f8 002B     		cmp	r3, #0
 3103 00fa 04D1     		bne	.L182
 3104              		.loc 1 1070 5 is_stmt 0 discriminator 1
 3105 00fc 7B68     		ldr	r3, [r7, #4]
 3106 00fe 0122     		movs	r2, #1
 3107 0100 83F84420 		strb	r2, [r3, #68]
 3108 0104 13E0     		b	.L179
ARM GAS  C:\Users\Su\AppData\Local\Temp\ccm0VnUy.s 			page 74


 3109              	.L182:
 3110              		.loc 1 1070 5 discriminator 2
 3111 0106 3B68     		ldr	r3, [r7]
 3112 0108 042B     		cmp	r3, #4
 3113 010a 04D1     		bne	.L183
 3114              		.loc 1 1070 5 discriminator 3
 3115 010c 7B68     		ldr	r3, [r7, #4]
 3116 010e 0122     		movs	r2, #1
 3117 0110 83F84520 		strb	r2, [r3, #69]
 3118 0114 0BE0     		b	.L179
 3119              	.L183:
 3120              		.loc 1 1070 5 discriminator 4
 3121 0116 3B68     		ldr	r3, [r7]
 3122 0118 082B     		cmp	r3, #8
 3123 011a 04D1     		bne	.L185
 3124              		.loc 1 1070 5 discriminator 6
 3125 011c 7B68     		ldr	r3, [r7, #4]
 3126 011e 0122     		movs	r2, #1
 3127 0120 83F84620 		strb	r2, [r3, #70]
 3128 0124 03E0     		b	.L179
 3129              	.L185:
 3130              		.loc 1 1070 5 discriminator 7
 3131 0126 7B68     		ldr	r3, [r7, #4]
 3132 0128 0122     		movs	r2, #1
 3133 012a 83F84720 		strb	r2, [r3, #71]
 3134              	.L179:
1071:Drivers/STM32H7xx_HAL_Driver/Src/stm32h7xx_hal_tim_ex.c ****   }
1072:Drivers/STM32H7xx_HAL_Driver/Src/stm32h7xx_hal_tim_ex.c **** 
1073:Drivers/STM32H7xx_HAL_Driver/Src/stm32h7xx_hal_tim_ex.c ****   /* Return function status */
1074:Drivers/STM32H7xx_HAL_Driver/Src/stm32h7xx_hal_tim_ex.c ****   return status;
 3135              		.loc 1 1074 10 is_stmt 1
 3136 012e FB7B     		ldrb	r3, [r7, #15]	@ zero_extendqisi2
1075:Drivers/STM32H7xx_HAL_Driver/Src/stm32h7xx_hal_tim_ex.c **** }
 3137              		.loc 1 1075 1
 3138 0130 1846     		mov	r0, r3
 3139 0132 1037     		adds	r7, r7, #16
 3140              	.LCFI80:
 3141              		.cfi_def_cfa_offset 8
 3142 0134 BD46     		mov	sp, r7
 3143              	.LCFI81:
 3144              		.cfi_def_cfa_register 13
 3145              		@ sp needed
 3146 0136 80BD     		pop	{r7, pc}
 3147              		.cfi_endproc
 3148              	.LFE159:
 3150              		.section	.text.HAL_TIMEx_PWMN_Start,"ax",%progbits
 3151              		.align	1
 3152              		.global	HAL_TIMEx_PWMN_Start
 3153              		.syntax unified
 3154              		.thumb
 3155              		.thumb_func
 3157              	HAL_TIMEx_PWMN_Start:
 3158              	.LFB160:
1076:Drivers/STM32H7xx_HAL_Driver/Src/stm32h7xx_hal_tim_ex.c **** 
1077:Drivers/STM32H7xx_HAL_Driver/Src/stm32h7xx_hal_tim_ex.c **** /**
1078:Drivers/STM32H7xx_HAL_Driver/Src/stm32h7xx_hal_tim_ex.c ****   * @}
1079:Drivers/STM32H7xx_HAL_Driver/Src/stm32h7xx_hal_tim_ex.c ****   */
ARM GAS  C:\Users\Su\AppData\Local\Temp\ccm0VnUy.s 			page 75


1080:Drivers/STM32H7xx_HAL_Driver/Src/stm32h7xx_hal_tim_ex.c **** 
1081:Drivers/STM32H7xx_HAL_Driver/Src/stm32h7xx_hal_tim_ex.c **** /** @defgroup TIMEx_Exported_Functions_Group3 Extended Timer Complementary PWM functions
1082:Drivers/STM32H7xx_HAL_Driver/Src/stm32h7xx_hal_tim_ex.c ****   * @brief    Timer Complementary PWM functions
1083:Drivers/STM32H7xx_HAL_Driver/Src/stm32h7xx_hal_tim_ex.c ****   *
1084:Drivers/STM32H7xx_HAL_Driver/Src/stm32h7xx_hal_tim_ex.c **** @verbatim
1085:Drivers/STM32H7xx_HAL_Driver/Src/stm32h7xx_hal_tim_ex.c ****   ==============================================================================
1086:Drivers/STM32H7xx_HAL_Driver/Src/stm32h7xx_hal_tim_ex.c ****                  ##### Timer Complementary PWM functions #####
1087:Drivers/STM32H7xx_HAL_Driver/Src/stm32h7xx_hal_tim_ex.c ****   ==============================================================================
1088:Drivers/STM32H7xx_HAL_Driver/Src/stm32h7xx_hal_tim_ex.c ****   [..]
1089:Drivers/STM32H7xx_HAL_Driver/Src/stm32h7xx_hal_tim_ex.c ****     This section provides functions allowing to:
1090:Drivers/STM32H7xx_HAL_Driver/Src/stm32h7xx_hal_tim_ex.c ****     (+) Start the Complementary PWM.
1091:Drivers/STM32H7xx_HAL_Driver/Src/stm32h7xx_hal_tim_ex.c ****     (+) Stop the Complementary PWM.
1092:Drivers/STM32H7xx_HAL_Driver/Src/stm32h7xx_hal_tim_ex.c ****     (+) Start the Complementary PWM and enable interrupts.
1093:Drivers/STM32H7xx_HAL_Driver/Src/stm32h7xx_hal_tim_ex.c ****     (+) Stop the Complementary PWM and disable interrupts.
1094:Drivers/STM32H7xx_HAL_Driver/Src/stm32h7xx_hal_tim_ex.c ****     (+) Start the Complementary PWM and enable DMA transfers.
1095:Drivers/STM32H7xx_HAL_Driver/Src/stm32h7xx_hal_tim_ex.c ****     (+) Stop the Complementary PWM and disable DMA transfers.
1096:Drivers/STM32H7xx_HAL_Driver/Src/stm32h7xx_hal_tim_ex.c ****     (+) Start the Complementary Input Capture measurement.
1097:Drivers/STM32H7xx_HAL_Driver/Src/stm32h7xx_hal_tim_ex.c ****     (+) Stop the Complementary Input Capture.
1098:Drivers/STM32H7xx_HAL_Driver/Src/stm32h7xx_hal_tim_ex.c ****     (+) Start the Complementary Input Capture and enable interrupts.
1099:Drivers/STM32H7xx_HAL_Driver/Src/stm32h7xx_hal_tim_ex.c ****     (+) Stop the Complementary Input Capture and disable interrupts.
1100:Drivers/STM32H7xx_HAL_Driver/Src/stm32h7xx_hal_tim_ex.c ****     (+) Start the Complementary Input Capture and enable DMA transfers.
1101:Drivers/STM32H7xx_HAL_Driver/Src/stm32h7xx_hal_tim_ex.c ****     (+) Stop the Complementary Input Capture and disable DMA transfers.
1102:Drivers/STM32H7xx_HAL_Driver/Src/stm32h7xx_hal_tim_ex.c ****     (+) Start the Complementary One Pulse generation.
1103:Drivers/STM32H7xx_HAL_Driver/Src/stm32h7xx_hal_tim_ex.c ****     (+) Stop the Complementary One Pulse.
1104:Drivers/STM32H7xx_HAL_Driver/Src/stm32h7xx_hal_tim_ex.c ****     (+) Start the Complementary One Pulse and enable interrupts.
1105:Drivers/STM32H7xx_HAL_Driver/Src/stm32h7xx_hal_tim_ex.c ****     (+) Stop the Complementary One Pulse and disable interrupts.
1106:Drivers/STM32H7xx_HAL_Driver/Src/stm32h7xx_hal_tim_ex.c **** 
1107:Drivers/STM32H7xx_HAL_Driver/Src/stm32h7xx_hal_tim_ex.c **** @endverbatim
1108:Drivers/STM32H7xx_HAL_Driver/Src/stm32h7xx_hal_tim_ex.c ****   * @{
1109:Drivers/STM32H7xx_HAL_Driver/Src/stm32h7xx_hal_tim_ex.c ****   */
1110:Drivers/STM32H7xx_HAL_Driver/Src/stm32h7xx_hal_tim_ex.c **** 
1111:Drivers/STM32H7xx_HAL_Driver/Src/stm32h7xx_hal_tim_ex.c **** /**
1112:Drivers/STM32H7xx_HAL_Driver/Src/stm32h7xx_hal_tim_ex.c ****   * @brief  Starts the PWM signal generation on the complementary output.
1113:Drivers/STM32H7xx_HAL_Driver/Src/stm32h7xx_hal_tim_ex.c ****   * @param  htim TIM handle
1114:Drivers/STM32H7xx_HAL_Driver/Src/stm32h7xx_hal_tim_ex.c ****   * @param  Channel TIM Channel to be enabled
1115:Drivers/STM32H7xx_HAL_Driver/Src/stm32h7xx_hal_tim_ex.c ****   *          This parameter can be one of the following values:
1116:Drivers/STM32H7xx_HAL_Driver/Src/stm32h7xx_hal_tim_ex.c ****   *            @arg TIM_CHANNEL_1: TIM Channel 1 selected
1117:Drivers/STM32H7xx_HAL_Driver/Src/stm32h7xx_hal_tim_ex.c ****   *            @arg TIM_CHANNEL_2: TIM Channel 2 selected
1118:Drivers/STM32H7xx_HAL_Driver/Src/stm32h7xx_hal_tim_ex.c ****   *            @arg TIM_CHANNEL_3: TIM Channel 3 selected
1119:Drivers/STM32H7xx_HAL_Driver/Src/stm32h7xx_hal_tim_ex.c ****   * @retval HAL status
1120:Drivers/STM32H7xx_HAL_Driver/Src/stm32h7xx_hal_tim_ex.c ****   */
1121:Drivers/STM32H7xx_HAL_Driver/Src/stm32h7xx_hal_tim_ex.c **** HAL_StatusTypeDef HAL_TIMEx_PWMN_Start(TIM_HandleTypeDef *htim, uint32_t Channel)
1122:Drivers/STM32H7xx_HAL_Driver/Src/stm32h7xx_hal_tim_ex.c **** {
 3159              		.loc 1 1122 1
 3160              		.cfi_startproc
 3161              		@ args = 0, pretend = 0, frame = 16
 3162              		@ frame_needed = 1, uses_anonymous_args = 0
 3163 0000 80B5     		push	{r7, lr}
 3164              	.LCFI82:
 3165              		.cfi_def_cfa_offset 8
 3166              		.cfi_offset 7, -8
 3167              		.cfi_offset 14, -4
 3168 0002 84B0     		sub	sp, sp, #16
 3169              	.LCFI83:
 3170              		.cfi_def_cfa_offset 24
 3171 0004 00AF     		add	r7, sp, #0
 3172              	.LCFI84:
ARM GAS  C:\Users\Su\AppData\Local\Temp\ccm0VnUy.s 			page 76


 3173              		.cfi_def_cfa_register 7
 3174 0006 7860     		str	r0, [r7, #4]
 3175 0008 3960     		str	r1, [r7]
1123:Drivers/STM32H7xx_HAL_Driver/Src/stm32h7xx_hal_tim_ex.c ****   uint32_t tmpsmcr;
1124:Drivers/STM32H7xx_HAL_Driver/Src/stm32h7xx_hal_tim_ex.c **** 
1125:Drivers/STM32H7xx_HAL_Driver/Src/stm32h7xx_hal_tim_ex.c ****   /* Check the parameters */
1126:Drivers/STM32H7xx_HAL_Driver/Src/stm32h7xx_hal_tim_ex.c ****   assert_param(IS_TIM_CCXN_INSTANCE(htim->Instance, Channel));
1127:Drivers/STM32H7xx_HAL_Driver/Src/stm32h7xx_hal_tim_ex.c **** 
1128:Drivers/STM32H7xx_HAL_Driver/Src/stm32h7xx_hal_tim_ex.c ****   /* Check the TIM complementary channel state */
1129:Drivers/STM32H7xx_HAL_Driver/Src/stm32h7xx_hal_tim_ex.c ****   if (TIM_CHANNEL_N_STATE_GET(htim, Channel) != HAL_TIM_CHANNEL_STATE_READY)
 3176              		.loc 1 1129 46
 3177 000a 3B68     		ldr	r3, [r7]
 3178 000c 002B     		cmp	r3, #0
 3179 000e 09D1     		bne	.L189
 3180              		.loc 1 1129 7 discriminator 1
 3181 0010 7B68     		ldr	r3, [r7, #4]
 3182 0012 93F84430 		ldrb	r3, [r3, #68]
 3183 0016 DBB2     		uxtb	r3, r3
 3184              		.loc 1 1129 46 discriminator 1
 3185 0018 012B     		cmp	r3, #1
 3186 001a 14BF     		ite	ne
 3187 001c 0123     		movne	r3, #1
 3188 001e 0023     		moveq	r3, #0
 3189 0020 DBB2     		uxtb	r3, r3
 3190 0022 22E0     		b	.L190
 3191              	.L189:
 3192              		.loc 1 1129 46 is_stmt 0 discriminator 2
 3193 0024 3B68     		ldr	r3, [r7]
 3194 0026 042B     		cmp	r3, #4
 3195 0028 09D1     		bne	.L191
 3196              		.loc 1 1129 7 is_stmt 1 discriminator 4
 3197 002a 7B68     		ldr	r3, [r7, #4]
 3198 002c 93F84530 		ldrb	r3, [r3, #69]
 3199 0030 DBB2     		uxtb	r3, r3
 3200              		.loc 1 1129 46 discriminator 4
 3201 0032 012B     		cmp	r3, #1
 3202 0034 14BF     		ite	ne
 3203 0036 0123     		movne	r3, #1
 3204 0038 0023     		moveq	r3, #0
 3205 003a DBB2     		uxtb	r3, r3
 3206 003c 15E0     		b	.L190
 3207              	.L191:
 3208              		.loc 1 1129 46 is_stmt 0 discriminator 5
 3209 003e 3B68     		ldr	r3, [r7]
 3210 0040 082B     		cmp	r3, #8
 3211 0042 09D1     		bne	.L193
 3212              		.loc 1 1129 7 is_stmt 1 discriminator 7
 3213 0044 7B68     		ldr	r3, [r7, #4]
 3214 0046 93F84630 		ldrb	r3, [r3, #70]
 3215 004a DBB2     		uxtb	r3, r3
 3216              		.loc 1 1129 46 discriminator 7
 3217 004c 012B     		cmp	r3, #1
 3218 004e 14BF     		ite	ne
 3219 0050 0123     		movne	r3, #1
 3220 0052 0023     		moveq	r3, #0
 3221 0054 DBB2     		uxtb	r3, r3
 3222 0056 08E0     		b	.L190
ARM GAS  C:\Users\Su\AppData\Local\Temp\ccm0VnUy.s 			page 77


 3223              	.L193:
 3224              		.loc 1 1129 7 discriminator 8
 3225 0058 7B68     		ldr	r3, [r7, #4]
 3226 005a 93F84730 		ldrb	r3, [r3, #71]
 3227 005e DBB2     		uxtb	r3, r3
 3228              		.loc 1 1129 46 discriminator 8
 3229 0060 012B     		cmp	r3, #1
 3230 0062 14BF     		ite	ne
 3231 0064 0123     		movne	r3, #1
 3232 0066 0023     		moveq	r3, #0
 3233 0068 DBB2     		uxtb	r3, r3
 3234              	.L190:
 3235              		.loc 1 1129 6 discriminator 12
 3236 006a 002B     		cmp	r3, #0
 3237 006c 01D0     		beq	.L195
1130:Drivers/STM32H7xx_HAL_Driver/Src/stm32h7xx_hal_tim_ex.c ****   {
1131:Drivers/STM32H7xx_HAL_Driver/Src/stm32h7xx_hal_tim_ex.c ****     return HAL_ERROR;
 3238              		.loc 1 1131 12
 3239 006e 0123     		movs	r3, #1
 3240 0070 7DE0     		b	.L196
 3241              	.L195:
1132:Drivers/STM32H7xx_HAL_Driver/Src/stm32h7xx_hal_tim_ex.c ****   }
1133:Drivers/STM32H7xx_HAL_Driver/Src/stm32h7xx_hal_tim_ex.c **** 
1134:Drivers/STM32H7xx_HAL_Driver/Src/stm32h7xx_hal_tim_ex.c ****   /* Set the TIM complementary channel state */
1135:Drivers/STM32H7xx_HAL_Driver/Src/stm32h7xx_hal_tim_ex.c ****   TIM_CHANNEL_N_STATE_SET(htim, Channel, HAL_TIM_CHANNEL_STATE_BUSY);
 3242              		.loc 1 1135 3
 3243 0072 3B68     		ldr	r3, [r7]
 3244 0074 002B     		cmp	r3, #0
 3245 0076 04D1     		bne	.L197
 3246              		.loc 1 1135 3 is_stmt 0 discriminator 1
 3247 0078 7B68     		ldr	r3, [r7, #4]
 3248 007a 0222     		movs	r2, #2
 3249 007c 83F84420 		strb	r2, [r3, #68]
 3250 0080 13E0     		b	.L198
 3251              	.L197:
 3252              		.loc 1 1135 3 discriminator 2
 3253 0082 3B68     		ldr	r3, [r7]
 3254 0084 042B     		cmp	r3, #4
 3255 0086 04D1     		bne	.L199
 3256              		.loc 1 1135 3 discriminator 3
 3257 0088 7B68     		ldr	r3, [r7, #4]
 3258 008a 0222     		movs	r2, #2
 3259 008c 83F84520 		strb	r2, [r3, #69]
 3260 0090 0BE0     		b	.L198
 3261              	.L199:
 3262              		.loc 1 1135 3 discriminator 4
 3263 0092 3B68     		ldr	r3, [r7]
 3264 0094 082B     		cmp	r3, #8
 3265 0096 04D1     		bne	.L201
 3266              		.loc 1 1135 3 discriminator 6
 3267 0098 7B68     		ldr	r3, [r7, #4]
 3268 009a 0222     		movs	r2, #2
 3269 009c 83F84620 		strb	r2, [r3, #70]
 3270 00a0 03E0     		b	.L198
 3271              	.L201:
 3272              		.loc 1 1135 3 discriminator 7
 3273 00a2 7B68     		ldr	r3, [r7, #4]
ARM GAS  C:\Users\Su\AppData\Local\Temp\ccm0VnUy.s 			page 78


 3274 00a4 0222     		movs	r2, #2
 3275 00a6 83F84720 		strb	r2, [r3, #71]
 3276              	.L198:
1136:Drivers/STM32H7xx_HAL_Driver/Src/stm32h7xx_hal_tim_ex.c **** 
1137:Drivers/STM32H7xx_HAL_Driver/Src/stm32h7xx_hal_tim_ex.c ****   /* Enable the complementary PWM output  */
1138:Drivers/STM32H7xx_HAL_Driver/Src/stm32h7xx_hal_tim_ex.c ****   TIM_CCxNChannelCmd(htim->Instance, Channel, TIM_CCxN_ENABLE);
 3277              		.loc 1 1138 3 is_stmt 1
 3278 00aa 7B68     		ldr	r3, [r7, #4]
 3279 00ac 1B68     		ldr	r3, [r3]
 3280 00ae 0422     		movs	r2, #4
 3281 00b0 3968     		ldr	r1, [r7]
 3282 00b2 1846     		mov	r0, r3
 3283 00b4 FFF7FEFF 		bl	TIM_CCxNChannelCmd
1139:Drivers/STM32H7xx_HAL_Driver/Src/stm32h7xx_hal_tim_ex.c **** 
1140:Drivers/STM32H7xx_HAL_Driver/Src/stm32h7xx_hal_tim_ex.c ****   /* Enable the Main Output */
1141:Drivers/STM32H7xx_HAL_Driver/Src/stm32h7xx_hal_tim_ex.c ****   __HAL_TIM_MOE_ENABLE(htim);
 3284              		.loc 1 1141 3
 3285 00b8 7B68     		ldr	r3, [r7, #4]
 3286 00ba 1B68     		ldr	r3, [r3]
 3287 00bc 5A6C     		ldr	r2, [r3, #68]
 3288 00be 7B68     		ldr	r3, [r7, #4]
 3289 00c0 1B68     		ldr	r3, [r3]
 3290 00c2 42F40042 		orr	r2, r2, #32768
 3291 00c6 5A64     		str	r2, [r3, #68]
1142:Drivers/STM32H7xx_HAL_Driver/Src/stm32h7xx_hal_tim_ex.c **** 
1143:Drivers/STM32H7xx_HAL_Driver/Src/stm32h7xx_hal_tim_ex.c ****   /* Enable the Peripheral, except in trigger mode where enable is automatically done with trigger 
1144:Drivers/STM32H7xx_HAL_Driver/Src/stm32h7xx_hal_tim_ex.c ****   if (IS_TIM_SLAVE_INSTANCE(htim->Instance))
 3292              		.loc 1 1144 7
 3293 00c8 7B68     		ldr	r3, [r7, #4]
 3294 00ca 1B68     		ldr	r3, [r3]
 3295              		.loc 1 1144 6
 3296 00cc 2A4A     		ldr	r2, .L208
 3297 00ce 9342     		cmp	r3, r2
 3298 00d0 2CD0     		beq	.L203
 3299              		.loc 1 1144 7 discriminator 1
 3300 00d2 7B68     		ldr	r3, [r7, #4]
 3301 00d4 1B68     		ldr	r3, [r3]
 3302 00d6 B3F1804F 		cmp	r3, #1073741824
 3303 00da 27D0     		beq	.L203
 3304              		.loc 1 1144 7 is_stmt 0 discriminator 2
 3305 00dc 7B68     		ldr	r3, [r7, #4]
 3306 00de 1B68     		ldr	r3, [r3]
 3307 00e0 264A     		ldr	r2, .L208+4
 3308 00e2 9342     		cmp	r3, r2
 3309 00e4 22D0     		beq	.L203
 3310              		.loc 1 1144 7 discriminator 3
 3311 00e6 7B68     		ldr	r3, [r7, #4]
 3312 00e8 1B68     		ldr	r3, [r3]
 3313 00ea 254A     		ldr	r2, .L208+8
 3314 00ec 9342     		cmp	r3, r2
 3315 00ee 1DD0     		beq	.L203
 3316              		.loc 1 1144 7 discriminator 4
 3317 00f0 7B68     		ldr	r3, [r7, #4]
 3318 00f2 1B68     		ldr	r3, [r3]
 3319 00f4 234A     		ldr	r2, .L208+12
 3320 00f6 9342     		cmp	r3, r2
 3321 00f8 18D0     		beq	.L203
ARM GAS  C:\Users\Su\AppData\Local\Temp\ccm0VnUy.s 			page 79


 3322              		.loc 1 1144 7 discriminator 5
 3323 00fa 7B68     		ldr	r3, [r7, #4]
 3324 00fc 1B68     		ldr	r3, [r3]
 3325 00fe 224A     		ldr	r2, .L208+16
 3326 0100 9342     		cmp	r3, r2
 3327 0102 13D0     		beq	.L203
 3328              		.loc 1 1144 7 discriminator 6
 3329 0104 7B68     		ldr	r3, [r7, #4]
 3330 0106 1B68     		ldr	r3, [r3]
 3331 0108 204A     		ldr	r2, .L208+20
 3332 010a 9342     		cmp	r3, r2
 3333 010c 0ED0     		beq	.L203
 3334              		.loc 1 1144 7 discriminator 7
 3335 010e 7B68     		ldr	r3, [r7, #4]
 3336 0110 1B68     		ldr	r3, [r3]
 3337 0112 1F4A     		ldr	r2, .L208+24
 3338 0114 9342     		cmp	r3, r2
 3339 0116 09D0     		beq	.L203
 3340              		.loc 1 1144 7 discriminator 8
 3341 0118 7B68     		ldr	r3, [r7, #4]
 3342 011a 1B68     		ldr	r3, [r3]
 3343 011c 1D4A     		ldr	r2, .L208+28
 3344 011e 9342     		cmp	r3, r2
 3345 0120 04D0     		beq	.L203
 3346              		.loc 1 1144 7 discriminator 9
 3347 0122 7B68     		ldr	r3, [r7, #4]
 3348 0124 1B68     		ldr	r3, [r3]
 3349 0126 1C4A     		ldr	r2, .L208+32
 3350 0128 9342     		cmp	r3, r2
 3351 012a 15D1     		bne	.L204
 3352              	.L203:
1145:Drivers/STM32H7xx_HAL_Driver/Src/stm32h7xx_hal_tim_ex.c ****   {
1146:Drivers/STM32H7xx_HAL_Driver/Src/stm32h7xx_hal_tim_ex.c ****     tmpsmcr = htim->Instance->SMCR & TIM_SMCR_SMS;
 3353              		.loc 1 1146 19 is_stmt 1
 3354 012c 7B68     		ldr	r3, [r7, #4]
 3355 012e 1B68     		ldr	r3, [r3]
 3356              		.loc 1 1146 29
 3357 0130 9A68     		ldr	r2, [r3, #8]
 3358              		.loc 1 1146 13
 3359 0132 1A4B     		ldr	r3, .L208+36
 3360 0134 1340     		ands	r3, r3, r2
 3361 0136 FB60     		str	r3, [r7, #12]
1147:Drivers/STM32H7xx_HAL_Driver/Src/stm32h7xx_hal_tim_ex.c ****     if (!IS_TIM_SLAVEMODE_TRIGGER_ENABLED(tmpsmcr))
 3362              		.loc 1 1147 8
 3363 0138 FB68     		ldr	r3, [r7, #12]
 3364 013a 062B     		cmp	r3, #6
 3365 013c 15D0     		beq	.L207
 3366              		.loc 1 1147 9 discriminator 1
 3367 013e FB68     		ldr	r3, [r7, #12]
 3368 0140 B3F5803F 		cmp	r3, #65536
 3369 0144 11D0     		beq	.L207
1148:Drivers/STM32H7xx_HAL_Driver/Src/stm32h7xx_hal_tim_ex.c ****     {
1149:Drivers/STM32H7xx_HAL_Driver/Src/stm32h7xx_hal_tim_ex.c ****       __HAL_TIM_ENABLE(htim);
 3370              		.loc 1 1149 7
 3371 0146 7B68     		ldr	r3, [r7, #4]
 3372 0148 1B68     		ldr	r3, [r3]
 3373 014a 1A68     		ldr	r2, [r3]
ARM GAS  C:\Users\Su\AppData\Local\Temp\ccm0VnUy.s 			page 80


 3374 014c 7B68     		ldr	r3, [r7, #4]
 3375 014e 1B68     		ldr	r3, [r3]
 3376 0150 42F00102 		orr	r2, r2, #1
 3377 0154 1A60     		str	r2, [r3]
1147:Drivers/STM32H7xx_HAL_Driver/Src/stm32h7xx_hal_tim_ex.c ****     if (!IS_TIM_SLAVEMODE_TRIGGER_ENABLED(tmpsmcr))
 3378              		.loc 1 1147 8
 3379 0156 08E0     		b	.L207
 3380              	.L204:
1150:Drivers/STM32H7xx_HAL_Driver/Src/stm32h7xx_hal_tim_ex.c ****     }
1151:Drivers/STM32H7xx_HAL_Driver/Src/stm32h7xx_hal_tim_ex.c ****   }
1152:Drivers/STM32H7xx_HAL_Driver/Src/stm32h7xx_hal_tim_ex.c ****   else
1153:Drivers/STM32H7xx_HAL_Driver/Src/stm32h7xx_hal_tim_ex.c ****   {
1154:Drivers/STM32H7xx_HAL_Driver/Src/stm32h7xx_hal_tim_ex.c ****     __HAL_TIM_ENABLE(htim);
 3381              		.loc 1 1154 5
 3382 0158 7B68     		ldr	r3, [r7, #4]
 3383 015a 1B68     		ldr	r3, [r3]
 3384 015c 1A68     		ldr	r2, [r3]
 3385 015e 7B68     		ldr	r3, [r7, #4]
 3386 0160 1B68     		ldr	r3, [r3]
 3387 0162 42F00102 		orr	r2, r2, #1
 3388 0166 1A60     		str	r2, [r3]
 3389 0168 00E0     		b	.L206
 3390              	.L207:
1147:Drivers/STM32H7xx_HAL_Driver/Src/stm32h7xx_hal_tim_ex.c ****     {
 3391              		.loc 1 1147 8
 3392 016a 00BF     		nop
 3393              	.L206:
1155:Drivers/STM32H7xx_HAL_Driver/Src/stm32h7xx_hal_tim_ex.c ****   }
1156:Drivers/STM32H7xx_HAL_Driver/Src/stm32h7xx_hal_tim_ex.c **** 
1157:Drivers/STM32H7xx_HAL_Driver/Src/stm32h7xx_hal_tim_ex.c ****   /* Return function status */
1158:Drivers/STM32H7xx_HAL_Driver/Src/stm32h7xx_hal_tim_ex.c ****   return HAL_OK;
 3394              		.loc 1 1158 10
 3395 016c 0023     		movs	r3, #0
 3396              	.L196:
1159:Drivers/STM32H7xx_HAL_Driver/Src/stm32h7xx_hal_tim_ex.c **** }
 3397              		.loc 1 1159 1
 3398 016e 1846     		mov	r0, r3
 3399 0170 1037     		adds	r7, r7, #16
 3400              	.LCFI85:
 3401              		.cfi_def_cfa_offset 8
 3402 0172 BD46     		mov	sp, r7
 3403              	.LCFI86:
 3404              		.cfi_def_cfa_register 13
 3405              		@ sp needed
 3406 0174 80BD     		pop	{r7, pc}
 3407              	.L209:
 3408 0176 00BF     		.align	2
 3409              	.L208:
 3410 0178 00000140 		.word	1073807360
 3411 017c 00040040 		.word	1073742848
 3412 0180 00080040 		.word	1073743872
 3413 0184 000C0040 		.word	1073744896
 3414 0188 00040140 		.word	1073808384
 3415 018c 00180040 		.word	1073747968
 3416 0190 00400140 		.word	1073823744
 3417 0194 00E00040 		.word	1073799168
 3418 0198 00E40040 		.word	1073800192
ARM GAS  C:\Users\Su\AppData\Local\Temp\ccm0VnUy.s 			page 81


 3419 019c 07000100 		.word	65543
 3420              		.cfi_endproc
 3421              	.LFE160:
 3423              		.section	.text.HAL_TIMEx_PWMN_Stop,"ax",%progbits
 3424              		.align	1
 3425              		.global	HAL_TIMEx_PWMN_Stop
 3426              		.syntax unified
 3427              		.thumb
 3428              		.thumb_func
 3430              	HAL_TIMEx_PWMN_Stop:
 3431              	.LFB161:
1160:Drivers/STM32H7xx_HAL_Driver/Src/stm32h7xx_hal_tim_ex.c **** 
1161:Drivers/STM32H7xx_HAL_Driver/Src/stm32h7xx_hal_tim_ex.c **** /**
1162:Drivers/STM32H7xx_HAL_Driver/Src/stm32h7xx_hal_tim_ex.c ****   * @brief  Stops the PWM signal generation on the complementary output.
1163:Drivers/STM32H7xx_HAL_Driver/Src/stm32h7xx_hal_tim_ex.c ****   * @param  htim TIM handle
1164:Drivers/STM32H7xx_HAL_Driver/Src/stm32h7xx_hal_tim_ex.c ****   * @param  Channel TIM Channel to be disabled
1165:Drivers/STM32H7xx_HAL_Driver/Src/stm32h7xx_hal_tim_ex.c ****   *          This parameter can be one of the following values:
1166:Drivers/STM32H7xx_HAL_Driver/Src/stm32h7xx_hal_tim_ex.c ****   *            @arg TIM_CHANNEL_1: TIM Channel 1 selected
1167:Drivers/STM32H7xx_HAL_Driver/Src/stm32h7xx_hal_tim_ex.c ****   *            @arg TIM_CHANNEL_2: TIM Channel 2 selected
1168:Drivers/STM32H7xx_HAL_Driver/Src/stm32h7xx_hal_tim_ex.c ****   *            @arg TIM_CHANNEL_3: TIM Channel 3 selected
1169:Drivers/STM32H7xx_HAL_Driver/Src/stm32h7xx_hal_tim_ex.c ****   * @retval HAL status
1170:Drivers/STM32H7xx_HAL_Driver/Src/stm32h7xx_hal_tim_ex.c ****   */
1171:Drivers/STM32H7xx_HAL_Driver/Src/stm32h7xx_hal_tim_ex.c **** HAL_StatusTypeDef HAL_TIMEx_PWMN_Stop(TIM_HandleTypeDef *htim, uint32_t Channel)
1172:Drivers/STM32H7xx_HAL_Driver/Src/stm32h7xx_hal_tim_ex.c **** {
 3432              		.loc 1 1172 1
 3433              		.cfi_startproc
 3434              		@ args = 0, pretend = 0, frame = 8
 3435              		@ frame_needed = 1, uses_anonymous_args = 0
 3436 0000 80B5     		push	{r7, lr}
 3437              	.LCFI87:
 3438              		.cfi_def_cfa_offset 8
 3439              		.cfi_offset 7, -8
 3440              		.cfi_offset 14, -4
 3441 0002 82B0     		sub	sp, sp, #8
 3442              	.LCFI88:
 3443              		.cfi_def_cfa_offset 16
 3444 0004 00AF     		add	r7, sp, #0
 3445              	.LCFI89:
 3446              		.cfi_def_cfa_register 7
 3447 0006 7860     		str	r0, [r7, #4]
 3448 0008 3960     		str	r1, [r7]
1173:Drivers/STM32H7xx_HAL_Driver/Src/stm32h7xx_hal_tim_ex.c ****   /* Check the parameters */
1174:Drivers/STM32H7xx_HAL_Driver/Src/stm32h7xx_hal_tim_ex.c ****   assert_param(IS_TIM_CCXN_INSTANCE(htim->Instance, Channel));
1175:Drivers/STM32H7xx_HAL_Driver/Src/stm32h7xx_hal_tim_ex.c **** 
1176:Drivers/STM32H7xx_HAL_Driver/Src/stm32h7xx_hal_tim_ex.c ****   /* Disable the complementary PWM output  */
