ARM GAS  C:\Users\Su\AppData\Local\Temp\ccdx3s9E.s 			page 1


   1              		.cpu cortex-m7
   2              		.arch armv7e-m
   3              		.fpu fpv5-d16
   4              		.eabi_attribute 28, 1
   5              		.eabi_attribute 20, 1
   6              		.eabi_attribute 21, 1
   7              		.eabi_attribute 23, 3
   8              		.eabi_attribute 24, 1
   9              		.eabi_attribute 25, 1
  10              		.eabi_attribute 26, 1
  11              		.eabi_attribute 30, 6
  12              		.eabi_attribute 34, 1
  13              		.eabi_attribute 18, 4
  14              		.file	"stm32h7xx_hal_mdma.c"
  15              		.text
  16              	.Ltext0:
  17              		.cfi_sections	.debug_frame
  18              		.section	.text.HAL_MDMA_Init,"ax",%progbits
  19              		.align	1
  20              		.global	HAL_MDMA_Init
  21              		.syntax unified
  22              		.thumb
  23              		.thumb_func
  25              	HAL_MDMA_Init:
  26              	.LFB144:
  27              		.file 1 "Drivers/STM32H7xx_HAL_Driver/Src/stm32h7xx_hal_mdma.c"
   1:Drivers/STM32H7xx_HAL_Driver/Src/stm32h7xx_hal_mdma.c **** /**
   2:Drivers/STM32H7xx_HAL_Driver/Src/stm32h7xx_hal_mdma.c ****   ******************************************************************************
   3:Drivers/STM32H7xx_HAL_Driver/Src/stm32h7xx_hal_mdma.c ****   * @file    stm32h7xx_hal_mdma.c
   4:Drivers/STM32H7xx_HAL_Driver/Src/stm32h7xx_hal_mdma.c ****   * @author  MCD Application Team
   5:Drivers/STM32H7xx_HAL_Driver/Src/stm32h7xx_hal_mdma.c ****   * @brief  This file provides firmware functions to manage the following
   6:Drivers/STM32H7xx_HAL_Driver/Src/stm32h7xx_hal_mdma.c ****   *         functionalities of the Master Direct Memory Access (MDMA) peripheral:
   7:Drivers/STM32H7xx_HAL_Driver/Src/stm32h7xx_hal_mdma.c ****   *           + Initialization/de-initialization functions
   8:Drivers/STM32H7xx_HAL_Driver/Src/stm32h7xx_hal_mdma.c ****   *           + I/O operation functions
   9:Drivers/STM32H7xx_HAL_Driver/Src/stm32h7xx_hal_mdma.c ****   *           + Peripheral State and errors functions
  10:Drivers/STM32H7xx_HAL_Driver/Src/stm32h7xx_hal_mdma.c ****   ******************************************************************************
  11:Drivers/STM32H7xx_HAL_Driver/Src/stm32h7xx_hal_mdma.c ****   * @attention
  12:Drivers/STM32H7xx_HAL_Driver/Src/stm32h7xx_hal_mdma.c ****   *
  13:Drivers/STM32H7xx_HAL_Driver/Src/stm32h7xx_hal_mdma.c ****   * Copyright (c) 2017 STMicroelectronics.
  14:Drivers/STM32H7xx_HAL_Driver/Src/stm32h7xx_hal_mdma.c ****   * All rights reserved.
  15:Drivers/STM32H7xx_HAL_Driver/Src/stm32h7xx_hal_mdma.c ****   *
  16:Drivers/STM32H7xx_HAL_Driver/Src/stm32h7xx_hal_mdma.c ****   * This software is licensed under terms that can be found in the LICENSE file
  17:Drivers/STM32H7xx_HAL_Driver/Src/stm32h7xx_hal_mdma.c ****   * in the root directory of this software component.
  18:Drivers/STM32H7xx_HAL_Driver/Src/stm32h7xx_hal_mdma.c ****   * If no LICENSE file comes with this software, it is provided AS-IS.
  19:Drivers/STM32H7xx_HAL_Driver/Src/stm32h7xx_hal_mdma.c ****   *
  20:Drivers/STM32H7xx_HAL_Driver/Src/stm32h7xx_hal_mdma.c ****   ******************************************************************************
  21:Drivers/STM32H7xx_HAL_Driver/Src/stm32h7xx_hal_mdma.c ****   @verbatim
  22:Drivers/STM32H7xx_HAL_Driver/Src/stm32h7xx_hal_mdma.c ****   ==============================================================================
  23:Drivers/STM32H7xx_HAL_Driver/Src/stm32h7xx_hal_mdma.c ****                         ##### How to use this driver #####
  24:Drivers/STM32H7xx_HAL_Driver/Src/stm32h7xx_hal_mdma.c ****   ==============================================================================
  25:Drivers/STM32H7xx_HAL_Driver/Src/stm32h7xx_hal_mdma.c ****   [..]
  26:Drivers/STM32H7xx_HAL_Driver/Src/stm32h7xx_hal_mdma.c ****    (#) Enable and configure the peripheral to be connected to the MDMA Channel
  27:Drivers/STM32H7xx_HAL_Driver/Src/stm32h7xx_hal_mdma.c ****        (except for internal SRAM/FLASH memories: no initialization is
  28:Drivers/STM32H7xx_HAL_Driver/Src/stm32h7xx_hal_mdma.c ****        necessary) please refer to Reference manual for connection between peripherals
  29:Drivers/STM32H7xx_HAL_Driver/Src/stm32h7xx_hal_mdma.c ****        and MDMA requests.
  30:Drivers/STM32H7xx_HAL_Driver/Src/stm32h7xx_hal_mdma.c **** 
  31:Drivers/STM32H7xx_HAL_Driver/Src/stm32h7xx_hal_mdma.c ****    (#)
ARM GAS  C:\Users\Su\AppData\Local\Temp\ccdx3s9E.s 			page 2


  32:Drivers/STM32H7xx_HAL_Driver/Src/stm32h7xx_hal_mdma.c ****        For a given Channel use HAL_MDMA_Init function to program the required configuration through
  33:Drivers/STM32H7xx_HAL_Driver/Src/stm32h7xx_hal_mdma.c ****        transfer request , channel priority, data endianness, Source increment, destination incremen
  34:Drivers/STM32H7xx_HAL_Driver/Src/stm32h7xx_hal_mdma.c ****        source data size, destination data size, data alignment, source Burst, destination Burst ,
  35:Drivers/STM32H7xx_HAL_Driver/Src/stm32h7xx_hal_mdma.c ****        buffer Transfer Length, Transfer Trigger Mode (buffer transfer, block transfer, repeated blo
  36:Drivers/STM32H7xx_HAL_Driver/Src/stm32h7xx_hal_mdma.c ****        or full transfer) source and destination block address offset, mask address and data.
  37:Drivers/STM32H7xx_HAL_Driver/Src/stm32h7xx_hal_mdma.c **** 
  38:Drivers/STM32H7xx_HAL_Driver/Src/stm32h7xx_hal_mdma.c ****        If using the MDMA in linked list mode then use function HAL_MDMA_LinkedList_CreateNode to fi
  39:Drivers/STM32H7xx_HAL_Driver/Src/stm32h7xx_hal_mdma.c ****        Note that parameters given to the function HAL_MDMA_Init corresponds always to the node zero
  40:Drivers/STM32H7xx_HAL_Driver/Src/stm32h7xx_hal_mdma.c ****        Use function HAL_MDMA_LinkedList_AddNode to connect the created node to the linked list at a
  41:Drivers/STM32H7xx_HAL_Driver/Src/stm32h7xx_hal_mdma.c ****        User can make a linked list circular using function HAL_MDMA_LinkedList_EnableCircularMode ,
  42:Drivers/STM32H7xx_HAL_Driver/Src/stm32h7xx_hal_mdma.c ****        last node of the list to the first one in order to make the list circular.
  43:Drivers/STM32H7xx_HAL_Driver/Src/stm32h7xx_hal_mdma.c ****        In this case the linked list will loop on node 1 : first node connected after the initial tr
  44:Drivers/STM32H7xx_HAL_Driver/Src/stm32h7xx_hal_mdma.c **** 
  45:Drivers/STM32H7xx_HAL_Driver/Src/stm32h7xx_hal_mdma.c ****       -@-   The initial transfer itself (node 0 corresponding to the Init).
  46:Drivers/STM32H7xx_HAL_Driver/Src/stm32h7xx_hal_mdma.c ****             User can disable the circular mode using function HAL_MDMA_LinkedList_DisableCircularMo
  47:Drivers/STM32H7xx_HAL_Driver/Src/stm32h7xx_hal_mdma.c ****             the connection between last node and first one.
  48:Drivers/STM32H7xx_HAL_Driver/Src/stm32h7xx_hal_mdma.c **** 
  49:Drivers/STM32H7xx_HAL_Driver/Src/stm32h7xx_hal_mdma.c ****        Function HAL_MDMA_LinkedList_RemoveNode can be used to remove (disconnect) a node from the t
  50:Drivers/STM32H7xx_HAL_Driver/Src/stm32h7xx_hal_mdma.c ****        When a linked list is circular (last node connected to first one), if removing node1  (node 
  51:Drivers/STM32H7xx_HAL_Driver/Src/stm32h7xx_hal_mdma.c ****        the linked list remains circular and node 2 becomes the first one.
  52:Drivers/STM32H7xx_HAL_Driver/Src/stm32h7xx_hal_mdma.c ****        Note that if the linked list is made circular the transfer will loop infinitely (or until ab
  53:Drivers/STM32H7xx_HAL_Driver/Src/stm32h7xx_hal_mdma.c **** 
  54:Drivers/STM32H7xx_HAL_Driver/Src/stm32h7xx_hal_mdma.c ****     [..]
  55:Drivers/STM32H7xx_HAL_Driver/Src/stm32h7xx_hal_mdma.c ****        (+) User can select the transfer trigger mode (parameter TransferTriggerMode) to define the 
  56:Drivers/STM32H7xx_HAL_Driver/Src/stm32h7xx_hal_mdma.c ****            transfer upon a request :
  57:Drivers/STM32H7xx_HAL_Driver/Src/stm32h7xx_hal_mdma.c ****              (++) MDMA_BUFFER_TRANSFER : each request triggers a transfer of BufferTransferLength d
  58:Drivers/STM32H7xx_HAL_Driver/Src/stm32h7xx_hal_mdma.c ****                with BufferTransferLength defined within the HAL_MDMA_Init.
  59:Drivers/STM32H7xx_HAL_Driver/Src/stm32h7xx_hal_mdma.c ****              (++) MDMA_BLOCK_TRANSFER : each request triggers a transfer of a block
  60:Drivers/STM32H7xx_HAL_Driver/Src/stm32h7xx_hal_mdma.c ****                with block size defined within the function HAL_MDMA_Start/HAL_MDMA_Start_IT
  61:Drivers/STM32H7xx_HAL_Driver/Src/stm32h7xx_hal_mdma.c ****                or within the current linked list node parameters.
  62:Drivers/STM32H7xx_HAL_Driver/Src/stm32h7xx_hal_mdma.c ****              (++) MDMA_REPEAT_BLOCK_TRANSFER : each request triggers a transfer of a number of bloc
  63:Drivers/STM32H7xx_HAL_Driver/Src/stm32h7xx_hal_mdma.c ****                with block size and number of blocks defined within the function HAL_MDMA_Start/HAL_
  64:Drivers/STM32H7xx_HAL_Driver/Src/stm32h7xx_hal_mdma.c ****                or within the current linked list node parameters.
  65:Drivers/STM32H7xx_HAL_Driver/Src/stm32h7xx_hal_mdma.c ****              (++) MDMA_FULL_TRANSFER : each request triggers a full transfer
  66:Drivers/STM32H7xx_HAL_Driver/Src/stm32h7xx_hal_mdma.c ****               all blocks and all nodes(if a linked list has been created using HAL_MDMA_LinkedList_
  67:Drivers/STM32H7xx_HAL_Driver/Src/stm32h7xx_hal_mdma.c **** 
  68:Drivers/STM32H7xx_HAL_Driver/Src/stm32h7xx_hal_mdma.c ****      *** Polling mode IO operation ***
  69:Drivers/STM32H7xx_HAL_Driver/Src/stm32h7xx_hal_mdma.c ****      =================================
  70:Drivers/STM32H7xx_HAL_Driver/Src/stm32h7xx_hal_mdma.c ****     [..]
  71:Drivers/STM32H7xx_HAL_Driver/Src/stm32h7xx_hal_mdma.c ****           (+) Use HAL_MDMA_Start() to start MDMA transfer after the configuration of Source
  72:Drivers/STM32H7xx_HAL_Driver/Src/stm32h7xx_hal_mdma.c ****               address and destination address and the Length of data to be transferred.
  73:Drivers/STM32H7xx_HAL_Driver/Src/stm32h7xx_hal_mdma.c ****           (+) Use HAL_MDMA_PollForTransfer() to poll for the end of current transfer or a transfer 
  74:Drivers/STM32H7xx_HAL_Driver/Src/stm32h7xx_hal_mdma.c ****              In this case a fixed Timeout can be configured by User depending from his application.
  75:Drivers/STM32H7xx_HAL_Driver/Src/stm32h7xx_hal_mdma.c ****           (+) Use HAL_MDMA_Abort() function to abort the current transfer : blocking method this AP
  76:Drivers/STM32H7xx_HAL_Driver/Src/stm32h7xx_hal_mdma.c ****               when the abort ends or timeout (should not be called from an interrupt service routin
  77:Drivers/STM32H7xx_HAL_Driver/Src/stm32h7xx_hal_mdma.c **** 
  78:Drivers/STM32H7xx_HAL_Driver/Src/stm32h7xx_hal_mdma.c ****      *** Interrupt mode IO operation ***
  79:Drivers/STM32H7xx_HAL_Driver/Src/stm32h7xx_hal_mdma.c ****      ===================================
  80:Drivers/STM32H7xx_HAL_Driver/Src/stm32h7xx_hal_mdma.c ****     [..]
  81:Drivers/STM32H7xx_HAL_Driver/Src/stm32h7xx_hal_mdma.c ****           (+) Configure the MDMA interrupt priority using HAL_NVIC_SetPriority()
  82:Drivers/STM32H7xx_HAL_Driver/Src/stm32h7xx_hal_mdma.c ****           (+) Enable the MDMA IRQ handler using HAL_NVIC_EnableIRQ()
  83:Drivers/STM32H7xx_HAL_Driver/Src/stm32h7xx_hal_mdma.c ****           (+) Use HAL_MDMA_Start_IT() to start MDMA transfer after the configuration of
  84:Drivers/STM32H7xx_HAL_Driver/Src/stm32h7xx_hal_mdma.c ****               Source address and destination address and the Length of data to be transferred. In t
  85:Drivers/STM32H7xx_HAL_Driver/Src/stm32h7xx_hal_mdma.c ****               case the MDMA interrupt is configured.
  86:Drivers/STM32H7xx_HAL_Driver/Src/stm32h7xx_hal_mdma.c ****           (+) Use HAL_MDMA_IRQHandler() called under MDMA_IRQHandler() Interrupt subroutine
  87:Drivers/STM32H7xx_HAL_Driver/Src/stm32h7xx_hal_mdma.c ****           (+) At the end of data transfer HAL_MDMA_IRQHandler() function is executed and user can
  88:Drivers/STM32H7xx_HAL_Driver/Src/stm32h7xx_hal_mdma.c ****               add his own function by customization of function pointer XferCpltCallback and
ARM GAS  C:\Users\Su\AppData\Local\Temp\ccdx3s9E.s 			page 3


  89:Drivers/STM32H7xx_HAL_Driver/Src/stm32h7xx_hal_mdma.c ****               XferErrorCallback (i.e a member of MDMA handle structure).
  90:Drivers/STM32H7xx_HAL_Driver/Src/stm32h7xx_hal_mdma.c **** 
  91:Drivers/STM32H7xx_HAL_Driver/Src/stm32h7xx_hal_mdma.c ****           (+) Use HAL_MDMA_Abort_IT() function to abort the current transfer : non-blocking method.
  92:Drivers/STM32H7xx_HAL_Driver/Src/stm32h7xx_hal_mdma.c ****               then the callback XferAbortCallback (if specified  by the user) is asserted once the 
  93:Drivers/STM32H7xx_HAL_Driver/Src/stm32h7xx_hal_mdma.c ****               (could be called from an interrupt service routine).
  94:Drivers/STM32H7xx_HAL_Driver/Src/stm32h7xx_hal_mdma.c **** 
  95:Drivers/STM32H7xx_HAL_Driver/Src/stm32h7xx_hal_mdma.c ****           (+) Use functions HAL_MDMA_RegisterCallback and HAL_MDMA_UnRegisterCallback respectevely 
  96:Drivers/STM32H7xx_HAL_Driver/Src/stm32h7xx_hal_mdma.c ****               from the following list :
  97:Drivers/STM32H7xx_HAL_Driver/Src/stm32h7xx_hal_mdma.c ****               (++) XferCpltCallback            : transfer complete callback.
  98:Drivers/STM32H7xx_HAL_Driver/Src/stm32h7xx_hal_mdma.c ****               (++) XferBufferCpltCallback      : buffer transfer complete callback.
  99:Drivers/STM32H7xx_HAL_Driver/Src/stm32h7xx_hal_mdma.c ****               (++) XferBlockCpltCallback       : block transfer complete callback.
 100:Drivers/STM32H7xx_HAL_Driver/Src/stm32h7xx_hal_mdma.c ****               (++) XferRepeatBlockCpltCallback : repeated block transfer complete callback.
 101:Drivers/STM32H7xx_HAL_Driver/Src/stm32h7xx_hal_mdma.c ****               (++) XferErrorCallback           : transfer error callback.
 102:Drivers/STM32H7xx_HAL_Driver/Src/stm32h7xx_hal_mdma.c ****               (++) XferAbortCallback           : transfer abort complete callback.
 103:Drivers/STM32H7xx_HAL_Driver/Src/stm32h7xx_hal_mdma.c **** 
 104:Drivers/STM32H7xx_HAL_Driver/Src/stm32h7xx_hal_mdma.c ****     [..]
 105:Drivers/STM32H7xx_HAL_Driver/Src/stm32h7xx_hal_mdma.c ****          (+)  If the transfer Request corresponds to SW request (MDMA_REQUEST_SW) User can use func
 106:Drivers/STM32H7xx_HAL_Driver/Src/stm32h7xx_hal_mdma.c ****               trigger requests manually. Function HAL_MDMA_GenerateSWRequest must be used with the 
 107:Drivers/STM32H7xx_HAL_Driver/Src/stm32h7xx_hal_mdma.c ****               (++) This function returns an error if used while the Transfer has ended or not start
 108:Drivers/STM32H7xx_HAL_Driver/Src/stm32h7xx_hal_mdma.c ****               (++) If used while the current request has not been served yet (current request trans
 109:Drivers/STM32H7xx_HAL_Driver/Src/stm32h7xx_hal_mdma.c ****                 this function returns an error and the new request is ignored.
 110:Drivers/STM32H7xx_HAL_Driver/Src/stm32h7xx_hal_mdma.c **** 
 111:Drivers/STM32H7xx_HAL_Driver/Src/stm32h7xx_hal_mdma.c ****               Generally this function should be used in conjunctions with the MDMA callbacks:
 112:Drivers/STM32H7xx_HAL_Driver/Src/stm32h7xx_hal_mdma.c ****               (++) example 1:
 113:Drivers/STM32H7xx_HAL_Driver/Src/stm32h7xx_hal_mdma.c ****                  (+++) Configure a transfer with request set to MDMA_REQUEST_SW and trigger mode se
 114:Drivers/STM32H7xx_HAL_Driver/Src/stm32h7xx_hal_mdma.c ****                  (+++) Register a callback for buffer transfer complete (using callback ID set to H
 115:Drivers/STM32H7xx_HAL_Driver/Src/stm32h7xx_hal_mdma.c ****                  (+++) After calling HAL_MDMA_Start_IT the MDMA will issue the transfer of a first 
 116:Drivers/STM32H7xx_HAL_Driver/Src/stm32h7xx_hal_mdma.c ****                  (+++) When the buffer transfer complete callback is asserted first buffer has been
 117:Drivers/STM32H7xx_HAL_Driver/Src/stm32h7xx_hal_mdma.c ****                    request using HAL_MDMA_GenerateSWRequest.
 118:Drivers/STM32H7xx_HAL_Driver/Src/stm32h7xx_hal_mdma.c **** 
 119:Drivers/STM32H7xx_HAL_Driver/Src/stm32h7xx_hal_mdma.c ****               (++) example 2:
 120:Drivers/STM32H7xx_HAL_Driver/Src/stm32h7xx_hal_mdma.c ****                  (+++) Configure a transfer with request set to MDMA_REQUEST_SW and trigger mode se
 121:Drivers/STM32H7xx_HAL_Driver/Src/stm32h7xx_hal_mdma.c ****                  (+++) Register a callback for block transfer complete (using callback ID HAL_MDMA_
 122:Drivers/STM32H7xx_HAL_Driver/Src/stm32h7xx_hal_mdma.c ****                  (+++) After calling HAL_MDMA_Start_IT the MDMA will issue the transfer of a first 
 123:Drivers/STM32H7xx_HAL_Driver/Src/stm32h7xx_hal_mdma.c ****                  (+++) When the block transfer complete callback is asserted the first block has be
 124:Drivers/STM32H7xx_HAL_Driver/Src/stm32h7xx_hal_mdma.c ****                    for a new block transfer request using HAL_MDMA_GenerateSWRequest.
 125:Drivers/STM32H7xx_HAL_Driver/Src/stm32h7xx_hal_mdma.c **** 
 126:Drivers/STM32H7xx_HAL_Driver/Src/stm32h7xx_hal_mdma.c ****     [..]  Use HAL_MDMA_GetState() function to return the MDMA state and HAL_MDMA_GetError() in case
 127:Drivers/STM32H7xx_HAL_Driver/Src/stm32h7xx_hal_mdma.c **** 
 128:Drivers/STM32H7xx_HAL_Driver/Src/stm32h7xx_hal_mdma.c ****      *** MDMA HAL driver macros list ***
 129:Drivers/STM32H7xx_HAL_Driver/Src/stm32h7xx_hal_mdma.c ****      =============================================
 130:Drivers/STM32H7xx_HAL_Driver/Src/stm32h7xx_hal_mdma.c ****      [..]
 131:Drivers/STM32H7xx_HAL_Driver/Src/stm32h7xx_hal_mdma.c ****        Below the list of most used macros in MDMA HAL driver.
 132:Drivers/STM32H7xx_HAL_Driver/Src/stm32h7xx_hal_mdma.c **** 
 133:Drivers/STM32H7xx_HAL_Driver/Src/stm32h7xx_hal_mdma.c ****       (+) __HAL_MDMA_ENABLE: Enable the specified MDMA Channel.
 134:Drivers/STM32H7xx_HAL_Driver/Src/stm32h7xx_hal_mdma.c ****       (+) __HAL_MDMA_DISABLE: Disable the specified MDMA Channel.
 135:Drivers/STM32H7xx_HAL_Driver/Src/stm32h7xx_hal_mdma.c ****       (+) __HAL_MDMA_GET_FLAG: Get the MDMA Channel pending flags.
 136:Drivers/STM32H7xx_HAL_Driver/Src/stm32h7xx_hal_mdma.c ****       (+) __HAL_MDMA_CLEAR_FLAG: Clear the MDMA Channel pending flags.
 137:Drivers/STM32H7xx_HAL_Driver/Src/stm32h7xx_hal_mdma.c ****       (+) __HAL_MDMA_ENABLE_IT: Enable the specified MDMA Channel interrupts.
 138:Drivers/STM32H7xx_HAL_Driver/Src/stm32h7xx_hal_mdma.c ****       (+) __HAL_MDMA_DISABLE_IT: Disable the specified MDMA Channel interrupts.
 139:Drivers/STM32H7xx_HAL_Driver/Src/stm32h7xx_hal_mdma.c ****       (+) __HAL_MDMA_GET_IT_SOURCE: Check whether the specified MDMA Channel interrupt has occurred
 140:Drivers/STM32H7xx_HAL_Driver/Src/stm32h7xx_hal_mdma.c **** 
 141:Drivers/STM32H7xx_HAL_Driver/Src/stm32h7xx_hal_mdma.c ****      [..]
 142:Drivers/STM32H7xx_HAL_Driver/Src/stm32h7xx_hal_mdma.c ****       (@) You can refer to the header file of the MDMA HAL driver for more useful macros.
 143:Drivers/STM32H7xx_HAL_Driver/Src/stm32h7xx_hal_mdma.c **** 
 144:Drivers/STM32H7xx_HAL_Driver/Src/stm32h7xx_hal_mdma.c ****     [..]
 145:Drivers/STM32H7xx_HAL_Driver/Src/stm32h7xx_hal_mdma.c **** 
ARM GAS  C:\Users\Su\AppData\Local\Temp\ccdx3s9E.s 			page 4


 146:Drivers/STM32H7xx_HAL_Driver/Src/stm32h7xx_hal_mdma.c ****   @endverbatim
 147:Drivers/STM32H7xx_HAL_Driver/Src/stm32h7xx_hal_mdma.c ****   */
 148:Drivers/STM32H7xx_HAL_Driver/Src/stm32h7xx_hal_mdma.c **** 
 149:Drivers/STM32H7xx_HAL_Driver/Src/stm32h7xx_hal_mdma.c **** /* Includes ------------------------------------------------------------------*/
 150:Drivers/STM32H7xx_HAL_Driver/Src/stm32h7xx_hal_mdma.c **** #include "stm32h7xx_hal.h"
 151:Drivers/STM32H7xx_HAL_Driver/Src/stm32h7xx_hal_mdma.c **** 
 152:Drivers/STM32H7xx_HAL_Driver/Src/stm32h7xx_hal_mdma.c **** /** @addtogroup STM32H7xx_HAL_Driver
 153:Drivers/STM32H7xx_HAL_Driver/Src/stm32h7xx_hal_mdma.c ****   * @{
 154:Drivers/STM32H7xx_HAL_Driver/Src/stm32h7xx_hal_mdma.c ****   */
 155:Drivers/STM32H7xx_HAL_Driver/Src/stm32h7xx_hal_mdma.c **** 
 156:Drivers/STM32H7xx_HAL_Driver/Src/stm32h7xx_hal_mdma.c **** /** @defgroup MDMA  MDMA
 157:Drivers/STM32H7xx_HAL_Driver/Src/stm32h7xx_hal_mdma.c ****   * @brief MDMA HAL module driver
 158:Drivers/STM32H7xx_HAL_Driver/Src/stm32h7xx_hal_mdma.c ****   * @{
 159:Drivers/STM32H7xx_HAL_Driver/Src/stm32h7xx_hal_mdma.c ****   */
 160:Drivers/STM32H7xx_HAL_Driver/Src/stm32h7xx_hal_mdma.c **** 
 161:Drivers/STM32H7xx_HAL_Driver/Src/stm32h7xx_hal_mdma.c **** #ifdef HAL_MDMA_MODULE_ENABLED
 162:Drivers/STM32H7xx_HAL_Driver/Src/stm32h7xx_hal_mdma.c **** 
 163:Drivers/STM32H7xx_HAL_Driver/Src/stm32h7xx_hal_mdma.c **** /* Private typedef -----------------------------------------------------------*/
 164:Drivers/STM32H7xx_HAL_Driver/Src/stm32h7xx_hal_mdma.c **** /* Private constants ---------------------------------------------------------*/
 165:Drivers/STM32H7xx_HAL_Driver/Src/stm32h7xx_hal_mdma.c **** /** @addtogroup MDMA_Private_Constants
 166:Drivers/STM32H7xx_HAL_Driver/Src/stm32h7xx_hal_mdma.c ****  * @{
 167:Drivers/STM32H7xx_HAL_Driver/Src/stm32h7xx_hal_mdma.c ****  */
 168:Drivers/STM32H7xx_HAL_Driver/Src/stm32h7xx_hal_mdma.c **** #define HAL_TIMEOUT_MDMA_ABORT    5U    /* 5 ms */
 169:Drivers/STM32H7xx_HAL_Driver/Src/stm32h7xx_hal_mdma.c **** #define HAL_MDMA_CHANNEL_SIZE     0x40U /* an MDMA instance channel size is 64 byte  */
 170:Drivers/STM32H7xx_HAL_Driver/Src/stm32h7xx_hal_mdma.c **** /**
 171:Drivers/STM32H7xx_HAL_Driver/Src/stm32h7xx_hal_mdma.c ****   * @}
 172:Drivers/STM32H7xx_HAL_Driver/Src/stm32h7xx_hal_mdma.c ****   */
 173:Drivers/STM32H7xx_HAL_Driver/Src/stm32h7xx_hal_mdma.c **** /* Private macro -------------------------------------------------------------*/
 174:Drivers/STM32H7xx_HAL_Driver/Src/stm32h7xx_hal_mdma.c **** /* Private variables ---------------------------------------------------------*/
 175:Drivers/STM32H7xx_HAL_Driver/Src/stm32h7xx_hal_mdma.c **** /* Private function prototypes -----------------------------------------------*/
 176:Drivers/STM32H7xx_HAL_Driver/Src/stm32h7xx_hal_mdma.c **** /** @addtogroup MDMA_Private_Functions_Prototypes
 177:Drivers/STM32H7xx_HAL_Driver/Src/stm32h7xx_hal_mdma.c ****   * @{
 178:Drivers/STM32H7xx_HAL_Driver/Src/stm32h7xx_hal_mdma.c ****   */
 179:Drivers/STM32H7xx_HAL_Driver/Src/stm32h7xx_hal_mdma.c **** static void MDMA_SetConfig(MDMA_HandleTypeDef *hmdma, uint32_t SrcAddress, uint32_t DstAddress, uin
 180:Drivers/STM32H7xx_HAL_Driver/Src/stm32h7xx_hal_mdma.c **** static void MDMA_Init(MDMA_HandleTypeDef *hmdma);
 181:Drivers/STM32H7xx_HAL_Driver/Src/stm32h7xx_hal_mdma.c **** 
 182:Drivers/STM32H7xx_HAL_Driver/Src/stm32h7xx_hal_mdma.c **** /**
 183:Drivers/STM32H7xx_HAL_Driver/Src/stm32h7xx_hal_mdma.c ****   * @}
 184:Drivers/STM32H7xx_HAL_Driver/Src/stm32h7xx_hal_mdma.c ****   */
 185:Drivers/STM32H7xx_HAL_Driver/Src/stm32h7xx_hal_mdma.c **** 
 186:Drivers/STM32H7xx_HAL_Driver/Src/stm32h7xx_hal_mdma.c **** /** @addtogroup MDMA_Exported_Functions MDMA Exported Functions
 187:Drivers/STM32H7xx_HAL_Driver/Src/stm32h7xx_hal_mdma.c ****   * @{
 188:Drivers/STM32H7xx_HAL_Driver/Src/stm32h7xx_hal_mdma.c ****   */
 189:Drivers/STM32H7xx_HAL_Driver/Src/stm32h7xx_hal_mdma.c **** 
 190:Drivers/STM32H7xx_HAL_Driver/Src/stm32h7xx_hal_mdma.c **** /** @addtogroup MDMA_Exported_Functions_Group1
 191:Drivers/STM32H7xx_HAL_Driver/Src/stm32h7xx_hal_mdma.c ****   *
 192:Drivers/STM32H7xx_HAL_Driver/Src/stm32h7xx_hal_mdma.c **** @verbatim
 193:Drivers/STM32H7xx_HAL_Driver/Src/stm32h7xx_hal_mdma.c ****  ===============================================================================
 194:Drivers/STM32H7xx_HAL_Driver/Src/stm32h7xx_hal_mdma.c ****              ##### Initialization and de-initialization functions  #####
 195:Drivers/STM32H7xx_HAL_Driver/Src/stm32h7xx_hal_mdma.c ****  ===============================================================================
 196:Drivers/STM32H7xx_HAL_Driver/Src/stm32h7xx_hal_mdma.c ****     [..]
 197:Drivers/STM32H7xx_HAL_Driver/Src/stm32h7xx_hal_mdma.c ****     This section provides functions allowing to :
 198:Drivers/STM32H7xx_HAL_Driver/Src/stm32h7xx_hal_mdma.c ****       Initialize and de-initialize the MDMA channel.
 199:Drivers/STM32H7xx_HAL_Driver/Src/stm32h7xx_hal_mdma.c ****       Register and Unregister MDMA callbacks
 200:Drivers/STM32H7xx_HAL_Driver/Src/stm32h7xx_hal_mdma.c ****     [..]
 201:Drivers/STM32H7xx_HAL_Driver/Src/stm32h7xx_hal_mdma.c ****     The HAL_MDMA_Init() function follows the MDMA channel configuration procedures as described in
 202:Drivers/STM32H7xx_HAL_Driver/Src/stm32h7xx_hal_mdma.c ****     reference manual.
ARM GAS  C:\Users\Su\AppData\Local\Temp\ccdx3s9E.s 			page 5


 203:Drivers/STM32H7xx_HAL_Driver/Src/stm32h7xx_hal_mdma.c ****     The HAL_MDMA_DeInit function allows to deinitialize the MDMA channel.
 204:Drivers/STM32H7xx_HAL_Driver/Src/stm32h7xx_hal_mdma.c ****     HAL_MDMA_RegisterCallback and  HAL_MDMA_UnRegisterCallback functions allows
 205:Drivers/STM32H7xx_HAL_Driver/Src/stm32h7xx_hal_mdma.c ****     respectevely to register/unregister an MDMA callback function.
 206:Drivers/STM32H7xx_HAL_Driver/Src/stm32h7xx_hal_mdma.c **** 
 207:Drivers/STM32H7xx_HAL_Driver/Src/stm32h7xx_hal_mdma.c **** @endverbatim
 208:Drivers/STM32H7xx_HAL_Driver/Src/stm32h7xx_hal_mdma.c ****   * @{
 209:Drivers/STM32H7xx_HAL_Driver/Src/stm32h7xx_hal_mdma.c ****   */
 210:Drivers/STM32H7xx_HAL_Driver/Src/stm32h7xx_hal_mdma.c **** 
 211:Drivers/STM32H7xx_HAL_Driver/Src/stm32h7xx_hal_mdma.c **** /**
 212:Drivers/STM32H7xx_HAL_Driver/Src/stm32h7xx_hal_mdma.c ****   * @brief  Initializes the MDMA according to the specified
 213:Drivers/STM32H7xx_HAL_Driver/Src/stm32h7xx_hal_mdma.c ****   *         parameters in the MDMA_InitTypeDef and create the associated handle.
 214:Drivers/STM32H7xx_HAL_Driver/Src/stm32h7xx_hal_mdma.c ****   * @param  hmdma: Pointer to a MDMA_HandleTypeDef structure that contains
 215:Drivers/STM32H7xx_HAL_Driver/Src/stm32h7xx_hal_mdma.c ****   *               the configuration information for the specified MDMA Channel.
 216:Drivers/STM32H7xx_HAL_Driver/Src/stm32h7xx_hal_mdma.c ****   * @retval HAL status
 217:Drivers/STM32H7xx_HAL_Driver/Src/stm32h7xx_hal_mdma.c ****   */
 218:Drivers/STM32H7xx_HAL_Driver/Src/stm32h7xx_hal_mdma.c **** HAL_StatusTypeDef HAL_MDMA_Init(MDMA_HandleTypeDef *hmdma)
 219:Drivers/STM32H7xx_HAL_Driver/Src/stm32h7xx_hal_mdma.c **** {
  28              		.loc 1 219 1
  29              		.cfi_startproc
  30              		@ args = 0, pretend = 0, frame = 16
  31              		@ frame_needed = 1, uses_anonymous_args = 0
  32 0000 80B5     		push	{r7, lr}
  33              	.LCFI0:
  34              		.cfi_def_cfa_offset 8
  35              		.cfi_offset 7, -8
  36              		.cfi_offset 14, -4
  37 0002 84B0     		sub	sp, sp, #16
  38              	.LCFI1:
  39              		.cfi_def_cfa_offset 24
  40 0004 00AF     		add	r7, sp, #0
  41              	.LCFI2:
  42              		.cfi_def_cfa_register 7
  43 0006 7860     		str	r0, [r7, #4]
 220:Drivers/STM32H7xx_HAL_Driver/Src/stm32h7xx_hal_mdma.c ****   uint32_t tickstart = HAL_GetTick();
  44              		.loc 1 220 24
  45 0008 FFF7FEFF 		bl	HAL_GetTick
  46 000c F860     		str	r0, [r7, #12]
 221:Drivers/STM32H7xx_HAL_Driver/Src/stm32h7xx_hal_mdma.c **** 
 222:Drivers/STM32H7xx_HAL_Driver/Src/stm32h7xx_hal_mdma.c ****   /* Check the MDMA peripheral handle */
 223:Drivers/STM32H7xx_HAL_Driver/Src/stm32h7xx_hal_mdma.c ****   if(hmdma == NULL)
  47              		.loc 1 223 5
  48 000e 7B68     		ldr	r3, [r7, #4]
  49 0010 002B     		cmp	r3, #0
  50 0012 01D1     		bne	.L2
 224:Drivers/STM32H7xx_HAL_Driver/Src/stm32h7xx_hal_mdma.c ****   {
 225:Drivers/STM32H7xx_HAL_Driver/Src/stm32h7xx_hal_mdma.c ****     return HAL_ERROR;
  51              		.loc 1 225 12
  52 0014 0123     		movs	r3, #1
  53 0016 3BE0     		b	.L3
  54              	.L2:
 226:Drivers/STM32H7xx_HAL_Driver/Src/stm32h7xx_hal_mdma.c ****   }
 227:Drivers/STM32H7xx_HAL_Driver/Src/stm32h7xx_hal_mdma.c **** 
 228:Drivers/STM32H7xx_HAL_Driver/Src/stm32h7xx_hal_mdma.c ****   /* Check the parameters */
 229:Drivers/STM32H7xx_HAL_Driver/Src/stm32h7xx_hal_mdma.c ****   assert_param(IS_MDMA_STREAM_ALL_INSTANCE(hmdma->Instance));
 230:Drivers/STM32H7xx_HAL_Driver/Src/stm32h7xx_hal_mdma.c ****   assert_param(IS_MDMA_PRIORITY(hmdma->Init.Priority));
 231:Drivers/STM32H7xx_HAL_Driver/Src/stm32h7xx_hal_mdma.c ****   assert_param(IS_MDMA_ENDIANNESS_MODE(hmdma->Init.Endianness));
 232:Drivers/STM32H7xx_HAL_Driver/Src/stm32h7xx_hal_mdma.c ****   assert_param(IS_MDMA_REQUEST(hmdma->Init.Request));
ARM GAS  C:\Users\Su\AppData\Local\Temp\ccdx3s9E.s 			page 6


 233:Drivers/STM32H7xx_HAL_Driver/Src/stm32h7xx_hal_mdma.c ****   assert_param(IS_MDMA_SOURCE_INC(hmdma->Init.SourceInc));
 234:Drivers/STM32H7xx_HAL_Driver/Src/stm32h7xx_hal_mdma.c ****   assert_param(IS_MDMA_DESTINATION_INC(hmdma->Init.DestinationInc));
 235:Drivers/STM32H7xx_HAL_Driver/Src/stm32h7xx_hal_mdma.c ****   assert_param(IS_MDMA_SOURCE_DATASIZE(hmdma->Init.SourceDataSize));
 236:Drivers/STM32H7xx_HAL_Driver/Src/stm32h7xx_hal_mdma.c ****   assert_param(IS_MDMA_DESTINATION_DATASIZE(hmdma->Init.DestDataSize));
 237:Drivers/STM32H7xx_HAL_Driver/Src/stm32h7xx_hal_mdma.c ****   assert_param(IS_MDMA_DATA_ALIGNMENT(hmdma->Init.DataAlignment));
 238:Drivers/STM32H7xx_HAL_Driver/Src/stm32h7xx_hal_mdma.c ****   assert_param(IS_MDMA_SOURCE_BURST(hmdma->Init.SourceBurst));
 239:Drivers/STM32H7xx_HAL_Driver/Src/stm32h7xx_hal_mdma.c ****   assert_param(IS_MDMA_DESTINATION_BURST(hmdma->Init.DestBurst));
 240:Drivers/STM32H7xx_HAL_Driver/Src/stm32h7xx_hal_mdma.c ****   assert_param(IS_MDMA_BUFFER_TRANSFER_LENGTH(hmdma->Init.BufferTransferLength));
 241:Drivers/STM32H7xx_HAL_Driver/Src/stm32h7xx_hal_mdma.c ****   assert_param(IS_MDMA_TRANSFER_TRIGGER_MODE(hmdma->Init.TransferTriggerMode));
 242:Drivers/STM32H7xx_HAL_Driver/Src/stm32h7xx_hal_mdma.c ****   assert_param(IS_MDMA_BLOCK_ADDR_OFFSET(hmdma->Init.SourceBlockAddressOffset));
 243:Drivers/STM32H7xx_HAL_Driver/Src/stm32h7xx_hal_mdma.c ****   assert_param(IS_MDMA_BLOCK_ADDR_OFFSET(hmdma->Init.DestBlockAddressOffset));
 244:Drivers/STM32H7xx_HAL_Driver/Src/stm32h7xx_hal_mdma.c **** 
 245:Drivers/STM32H7xx_HAL_Driver/Src/stm32h7xx_hal_mdma.c **** 
 246:Drivers/STM32H7xx_HAL_Driver/Src/stm32h7xx_hal_mdma.c ****   /* Allocate lock resource */
 247:Drivers/STM32H7xx_HAL_Driver/Src/stm32h7xx_hal_mdma.c ****   __HAL_UNLOCK(hmdma);
  55              		.loc 1 247 3
  56 0018 7B68     		ldr	r3, [r7, #4]
  57 001a 0022     		movs	r2, #0
  58 001c 83F83C20 		strb	r2, [r3, #60]
 248:Drivers/STM32H7xx_HAL_Driver/Src/stm32h7xx_hal_mdma.c **** 
 249:Drivers/STM32H7xx_HAL_Driver/Src/stm32h7xx_hal_mdma.c ****   /* Change MDMA peripheral state */
 250:Drivers/STM32H7xx_HAL_Driver/Src/stm32h7xx_hal_mdma.c ****   hmdma->State = HAL_MDMA_STATE_BUSY;
  59              		.loc 1 250 16
  60 0020 7B68     		ldr	r3, [r7, #4]
  61 0022 0222     		movs	r2, #2
  62 0024 83F83D20 		strb	r2, [r3, #61]
 251:Drivers/STM32H7xx_HAL_Driver/Src/stm32h7xx_hal_mdma.c **** 
 252:Drivers/STM32H7xx_HAL_Driver/Src/stm32h7xx_hal_mdma.c ****   /* Disable the MDMA channel */
 253:Drivers/STM32H7xx_HAL_Driver/Src/stm32h7xx_hal_mdma.c ****   __HAL_MDMA_DISABLE(hmdma);
  63              		.loc 1 253 3
  64 0028 7B68     		ldr	r3, [r7, #4]
  65 002a 1B68     		ldr	r3, [r3]
  66 002c DA68     		ldr	r2, [r3, #12]
  67 002e 7B68     		ldr	r3, [r7, #4]
  68 0030 1B68     		ldr	r3, [r3]
  69 0032 22F00102 		bic	r2, r2, #1
  70 0036 DA60     		str	r2, [r3, #12]
 254:Drivers/STM32H7xx_HAL_Driver/Src/stm32h7xx_hal_mdma.c **** 
 255:Drivers/STM32H7xx_HAL_Driver/Src/stm32h7xx_hal_mdma.c ****   /* Check if the MDMA channel is effectively disabled */
 256:Drivers/STM32H7xx_HAL_Driver/Src/stm32h7xx_hal_mdma.c ****   while((hmdma->Instance->CCR & MDMA_CCR_EN) != 0U)
  71              		.loc 1 256 8
  72 0038 0FE0     		b	.L4
  73              	.L5:
 257:Drivers/STM32H7xx_HAL_Driver/Src/stm32h7xx_hal_mdma.c ****   {
 258:Drivers/STM32H7xx_HAL_Driver/Src/stm32h7xx_hal_mdma.c ****     /* Check for the Timeout */
 259:Drivers/STM32H7xx_HAL_Driver/Src/stm32h7xx_hal_mdma.c ****     if((HAL_GetTick() - tickstart ) > HAL_TIMEOUT_MDMA_ABORT)
  74              		.loc 1 259 9
  75 003a FFF7FEFF 		bl	HAL_GetTick
  76 003e 0246     		mov	r2, r0
  77              		.loc 1 259 23
  78 0040 FB68     		ldr	r3, [r7, #12]
  79 0042 D31A     		subs	r3, r2, r3
  80              		.loc 1 259 7
  81 0044 052B     		cmp	r3, #5
  82 0046 08D9     		bls	.L4
 260:Drivers/STM32H7xx_HAL_Driver/Src/stm32h7xx_hal_mdma.c ****     {
 261:Drivers/STM32H7xx_HAL_Driver/Src/stm32h7xx_hal_mdma.c ****       /* Update error code */
ARM GAS  C:\Users\Su\AppData\Local\Temp\ccdx3s9E.s 			page 7


 262:Drivers/STM32H7xx_HAL_Driver/Src/stm32h7xx_hal_mdma.c ****       hmdma->ErrorCode = HAL_MDMA_ERROR_TIMEOUT;
  83              		.loc 1 262 24
  84 0048 7B68     		ldr	r3, [r7, #4]
  85 004a 4022     		movs	r2, #64
  86 004c 9A66     		str	r2, [r3, #104]
 263:Drivers/STM32H7xx_HAL_Driver/Src/stm32h7xx_hal_mdma.c **** 
 264:Drivers/STM32H7xx_HAL_Driver/Src/stm32h7xx_hal_mdma.c ****       /* Change the MDMA state */
 265:Drivers/STM32H7xx_HAL_Driver/Src/stm32h7xx_hal_mdma.c ****       hmdma->State = HAL_MDMA_STATE_ERROR;
  87              		.loc 1 265 20
  88 004e 7B68     		ldr	r3, [r7, #4]
  89 0050 0322     		movs	r2, #3
  90 0052 83F83D20 		strb	r2, [r3, #61]
 266:Drivers/STM32H7xx_HAL_Driver/Src/stm32h7xx_hal_mdma.c **** 
 267:Drivers/STM32H7xx_HAL_Driver/Src/stm32h7xx_hal_mdma.c ****       return HAL_ERROR;
  91              		.loc 1 267 14
  92 0056 0123     		movs	r3, #1
  93 0058 1AE0     		b	.L3
  94              	.L4:
 256:Drivers/STM32H7xx_HAL_Driver/Src/stm32h7xx_hal_mdma.c ****   {
  95              		.loc 1 256 15
  96 005a 7B68     		ldr	r3, [r7, #4]
  97 005c 1B68     		ldr	r3, [r3]
 256:Drivers/STM32H7xx_HAL_Driver/Src/stm32h7xx_hal_mdma.c ****   {
  98              		.loc 1 256 25
  99 005e DB68     		ldr	r3, [r3, #12]
 256:Drivers/STM32H7xx_HAL_Driver/Src/stm32h7xx_hal_mdma.c ****   {
 100              		.loc 1 256 31
 101 0060 03F00103 		and	r3, r3, #1
 256:Drivers/STM32H7xx_HAL_Driver/Src/stm32h7xx_hal_mdma.c ****   {
 102              		.loc 1 256 8
 103 0064 002B     		cmp	r3, #0
 104 0066 E8D1     		bne	.L5
 268:Drivers/STM32H7xx_HAL_Driver/Src/stm32h7xx_hal_mdma.c ****     }
 269:Drivers/STM32H7xx_HAL_Driver/Src/stm32h7xx_hal_mdma.c ****   }
 270:Drivers/STM32H7xx_HAL_Driver/Src/stm32h7xx_hal_mdma.c **** 
 271:Drivers/STM32H7xx_HAL_Driver/Src/stm32h7xx_hal_mdma.c ****   /* Initialize the MDMA channel registers */
 272:Drivers/STM32H7xx_HAL_Driver/Src/stm32h7xx_hal_mdma.c ****   MDMA_Init(hmdma);
 105              		.loc 1 272 3
 106 0068 7868     		ldr	r0, [r7, #4]
 107 006a FFF7FEFF 		bl	MDMA_Init
 273:Drivers/STM32H7xx_HAL_Driver/Src/stm32h7xx_hal_mdma.c **** 
 274:Drivers/STM32H7xx_HAL_Driver/Src/stm32h7xx_hal_mdma.c ****   /* Reset the MDMA first/last linkedlist node addresses and node counter */
 275:Drivers/STM32H7xx_HAL_Driver/Src/stm32h7xx_hal_mdma.c ****   hmdma->FirstLinkedListNodeAddress  = 0;
 108              		.loc 1 275 38
 109 006e 7B68     		ldr	r3, [r7, #4]
 110 0070 0022     		movs	r2, #0
 111 0072 DA65     		str	r2, [r3, #92]
 276:Drivers/STM32H7xx_HAL_Driver/Src/stm32h7xx_hal_mdma.c ****   hmdma->LastLinkedListNodeAddress   = 0;
 112              		.loc 1 276 38
 113 0074 7B68     		ldr	r3, [r7, #4]
 114 0076 0022     		movs	r2, #0
 115 0078 1A66     		str	r2, [r3, #96]
 277:Drivers/STM32H7xx_HAL_Driver/Src/stm32h7xx_hal_mdma.c ****   hmdma->LinkedListNodeCounter  = 0;
 116              		.loc 1 277 33
 117 007a 7B68     		ldr	r3, [r7, #4]
 118 007c 0022     		movs	r2, #0
 119 007e 5A66     		str	r2, [r3, #100]
ARM GAS  C:\Users\Su\AppData\Local\Temp\ccdx3s9E.s 			page 8


 278:Drivers/STM32H7xx_HAL_Driver/Src/stm32h7xx_hal_mdma.c **** 
 279:Drivers/STM32H7xx_HAL_Driver/Src/stm32h7xx_hal_mdma.c ****   /* Initialize the error code */
 280:Drivers/STM32H7xx_HAL_Driver/Src/stm32h7xx_hal_mdma.c ****   hmdma->ErrorCode = HAL_MDMA_ERROR_NONE;
 120              		.loc 1 280 20
 121 0080 7B68     		ldr	r3, [r7, #4]
 122 0082 0022     		movs	r2, #0
 123 0084 9A66     		str	r2, [r3, #104]
 281:Drivers/STM32H7xx_HAL_Driver/Src/stm32h7xx_hal_mdma.c **** 
 282:Drivers/STM32H7xx_HAL_Driver/Src/stm32h7xx_hal_mdma.c ****   /* Initialize the MDMA state */
 283:Drivers/STM32H7xx_HAL_Driver/Src/stm32h7xx_hal_mdma.c ****   hmdma->State = HAL_MDMA_STATE_READY;
 124              		.loc 1 283 16
 125 0086 7B68     		ldr	r3, [r7, #4]
 126 0088 0122     		movs	r2, #1
 127 008a 83F83D20 		strb	r2, [r3, #61]
 284:Drivers/STM32H7xx_HAL_Driver/Src/stm32h7xx_hal_mdma.c **** 
 285:Drivers/STM32H7xx_HAL_Driver/Src/stm32h7xx_hal_mdma.c ****   return HAL_OK;
 128              		.loc 1 285 10
 129 008e 0023     		movs	r3, #0
 130              	.L3:
 286:Drivers/STM32H7xx_HAL_Driver/Src/stm32h7xx_hal_mdma.c **** }
 131              		.loc 1 286 1
 132 0090 1846     		mov	r0, r3
 133 0092 1037     		adds	r7, r7, #16
 134              	.LCFI3:
 135              		.cfi_def_cfa_offset 8
 136 0094 BD46     		mov	sp, r7
 137              	.LCFI4:
 138              		.cfi_def_cfa_register 13
 139              		@ sp needed
 140 0096 80BD     		pop	{r7, pc}
 141              		.cfi_endproc
 142              	.LFE144:
 144              		.section	.text.HAL_MDMA_DeInit,"ax",%progbits
 145              		.align	1
 146              		.global	HAL_MDMA_DeInit
 147              		.syntax unified
 148              		.thumb
 149              		.thumb_func
 151              	HAL_MDMA_DeInit:
 152              	.LFB145:
 287:Drivers/STM32H7xx_HAL_Driver/Src/stm32h7xx_hal_mdma.c **** 
 288:Drivers/STM32H7xx_HAL_Driver/Src/stm32h7xx_hal_mdma.c **** /**
 289:Drivers/STM32H7xx_HAL_Driver/Src/stm32h7xx_hal_mdma.c ****   * @brief  DeInitializes the MDMA peripheral
 290:Drivers/STM32H7xx_HAL_Driver/Src/stm32h7xx_hal_mdma.c ****   * @param  hmdma: pointer to a MDMA_HandleTypeDef structure that contains
 291:Drivers/STM32H7xx_HAL_Driver/Src/stm32h7xx_hal_mdma.c ****   *               the configuration information for the specified MDMA Channel.
 292:Drivers/STM32H7xx_HAL_Driver/Src/stm32h7xx_hal_mdma.c ****   * @retval HAL status
 293:Drivers/STM32H7xx_HAL_Driver/Src/stm32h7xx_hal_mdma.c ****   */
 294:Drivers/STM32H7xx_HAL_Driver/Src/stm32h7xx_hal_mdma.c **** HAL_StatusTypeDef HAL_MDMA_DeInit(MDMA_HandleTypeDef *hmdma)
 295:Drivers/STM32H7xx_HAL_Driver/Src/stm32h7xx_hal_mdma.c **** {
 153              		.loc 1 295 1
 154              		.cfi_startproc
 155              		@ args = 0, pretend = 0, frame = 8
 156              		@ frame_needed = 1, uses_anonymous_args = 0
 157              		@ link register save eliminated.
 158 0000 80B4     		push	{r7}
 159              	.LCFI5:
 160              		.cfi_def_cfa_offset 4
ARM GAS  C:\Users\Su\AppData\Local\Temp\ccdx3s9E.s 			page 9


 161              		.cfi_offset 7, -4
 162 0002 83B0     		sub	sp, sp, #12
 163              	.LCFI6:
 164              		.cfi_def_cfa_offset 16
 165 0004 00AF     		add	r7, sp, #0
 166              	.LCFI7:
 167              		.cfi_def_cfa_register 7
 168 0006 7860     		str	r0, [r7, #4]
 296:Drivers/STM32H7xx_HAL_Driver/Src/stm32h7xx_hal_mdma.c **** 
 297:Drivers/STM32H7xx_HAL_Driver/Src/stm32h7xx_hal_mdma.c ****   /* Check the MDMA peripheral handle */
 298:Drivers/STM32H7xx_HAL_Driver/Src/stm32h7xx_hal_mdma.c ****   if(hmdma == NULL)
 169              		.loc 1 298 5
 170 0008 7B68     		ldr	r3, [r7, #4]
 171 000a 002B     		cmp	r3, #0
 172 000c 01D1     		bne	.L7
 299:Drivers/STM32H7xx_HAL_Driver/Src/stm32h7xx_hal_mdma.c ****   {
 300:Drivers/STM32H7xx_HAL_Driver/Src/stm32h7xx_hal_mdma.c ****     return HAL_ERROR;
 173              		.loc 1 300 12
 174 000e 0123     		movs	r3, #1
 175 0010 48E0     		b	.L8
 176              	.L7:
 301:Drivers/STM32H7xx_HAL_Driver/Src/stm32h7xx_hal_mdma.c ****   }
 302:Drivers/STM32H7xx_HAL_Driver/Src/stm32h7xx_hal_mdma.c **** 
 303:Drivers/STM32H7xx_HAL_Driver/Src/stm32h7xx_hal_mdma.c ****   /* Disable the selected MDMA Channelx */
 304:Drivers/STM32H7xx_HAL_Driver/Src/stm32h7xx_hal_mdma.c ****   __HAL_MDMA_DISABLE(hmdma);
 177              		.loc 1 304 3
 178 0012 7B68     		ldr	r3, [r7, #4]
 179 0014 1B68     		ldr	r3, [r3]
 180 0016 DA68     		ldr	r2, [r3, #12]
 181 0018 7B68     		ldr	r3, [r7, #4]
 182 001a 1B68     		ldr	r3, [r3]
 183 001c 22F00102 		bic	r2, r2, #1
 184 0020 DA60     		str	r2, [r3, #12]
 305:Drivers/STM32H7xx_HAL_Driver/Src/stm32h7xx_hal_mdma.c **** 
 306:Drivers/STM32H7xx_HAL_Driver/Src/stm32h7xx_hal_mdma.c ****   /* Reset MDMA Channel control register */
 307:Drivers/STM32H7xx_HAL_Driver/Src/stm32h7xx_hal_mdma.c ****   hmdma->Instance->CCR  = 0;
 185              		.loc 1 307 8
 186 0022 7B68     		ldr	r3, [r7, #4]
 187 0024 1B68     		ldr	r3, [r3]
 188              		.loc 1 307 25
 189 0026 0022     		movs	r2, #0
 190 0028 DA60     		str	r2, [r3, #12]
 308:Drivers/STM32H7xx_HAL_Driver/Src/stm32h7xx_hal_mdma.c ****   hmdma->Instance->CTCR = 0;
 191              		.loc 1 308 8
 192 002a 7B68     		ldr	r3, [r7, #4]
 193 002c 1B68     		ldr	r3, [r3]
 194              		.loc 1 308 25
 195 002e 0022     		movs	r2, #0
 196 0030 1A61     		str	r2, [r3, #16]
 309:Drivers/STM32H7xx_HAL_Driver/Src/stm32h7xx_hal_mdma.c ****   hmdma->Instance->CBNDTR = 0;
 197              		.loc 1 309 8
 198 0032 7B68     		ldr	r3, [r7, #4]
 199 0034 1B68     		ldr	r3, [r3]
 200              		.loc 1 309 27
 201 0036 0022     		movs	r2, #0
 202 0038 5A61     		str	r2, [r3, #20]
 310:Drivers/STM32H7xx_HAL_Driver/Src/stm32h7xx_hal_mdma.c ****   hmdma->Instance->CSAR = 0;
ARM GAS  C:\Users\Su\AppData\Local\Temp\ccdx3s9E.s 			page 10


 203              		.loc 1 310 8
 204 003a 7B68     		ldr	r3, [r7, #4]
 205 003c 1B68     		ldr	r3, [r3]
 206              		.loc 1 310 25
 207 003e 0022     		movs	r2, #0
 208 0040 9A61     		str	r2, [r3, #24]
 311:Drivers/STM32H7xx_HAL_Driver/Src/stm32h7xx_hal_mdma.c ****   hmdma->Instance->CDAR = 0;
 209              		.loc 1 311 8
 210 0042 7B68     		ldr	r3, [r7, #4]
 211 0044 1B68     		ldr	r3, [r3]
 212              		.loc 1 311 25
 213 0046 0022     		movs	r2, #0
 214 0048 DA61     		str	r2, [r3, #28]
 312:Drivers/STM32H7xx_HAL_Driver/Src/stm32h7xx_hal_mdma.c ****   hmdma->Instance->CBRUR = 0;
 215              		.loc 1 312 8
 216 004a 7B68     		ldr	r3, [r7, #4]
 217 004c 1B68     		ldr	r3, [r3]
 218              		.loc 1 312 26
 219 004e 0022     		movs	r2, #0
 220 0050 1A62     		str	r2, [r3, #32]
 313:Drivers/STM32H7xx_HAL_Driver/Src/stm32h7xx_hal_mdma.c ****   hmdma->Instance->CLAR = 0;
 221              		.loc 1 313 8
 222 0052 7B68     		ldr	r3, [r7, #4]
 223 0054 1B68     		ldr	r3, [r3]
 224              		.loc 1 313 25
 225 0056 0022     		movs	r2, #0
 226 0058 5A62     		str	r2, [r3, #36]
 314:Drivers/STM32H7xx_HAL_Driver/Src/stm32h7xx_hal_mdma.c ****   hmdma->Instance->CTBR = 0;
 227              		.loc 1 314 8
 228 005a 7B68     		ldr	r3, [r7, #4]
 229 005c 1B68     		ldr	r3, [r3]
 230              		.loc 1 314 25
 231 005e 0022     		movs	r2, #0
 232 0060 9A62     		str	r2, [r3, #40]
 315:Drivers/STM32H7xx_HAL_Driver/Src/stm32h7xx_hal_mdma.c ****   hmdma->Instance->CMAR = 0;
 233              		.loc 1 315 8
 234 0062 7B68     		ldr	r3, [r7, #4]
 235 0064 1B68     		ldr	r3, [r3]
 236              		.loc 1 315 25
 237 0066 0022     		movs	r2, #0
 238 0068 1A63     		str	r2, [r3, #48]
 316:Drivers/STM32H7xx_HAL_Driver/Src/stm32h7xx_hal_mdma.c ****   hmdma->Instance->CMDR = 0;
 239              		.loc 1 316 8
 240 006a 7B68     		ldr	r3, [r7, #4]
 241 006c 1B68     		ldr	r3, [r3]
 242              		.loc 1 316 25
 243 006e 0022     		movs	r2, #0
 244 0070 5A63     		str	r2, [r3, #52]
 317:Drivers/STM32H7xx_HAL_Driver/Src/stm32h7xx_hal_mdma.c **** 
 318:Drivers/STM32H7xx_HAL_Driver/Src/stm32h7xx_hal_mdma.c ****   /* Clear all flags */
 319:Drivers/STM32H7xx_HAL_Driver/Src/stm32h7xx_hal_mdma.c ****   __HAL_MDMA_CLEAR_FLAG(hmdma,(MDMA_FLAG_TE | MDMA_FLAG_CTC | MDMA_FLAG_BRT | MDMA_FLAG_BT | MDMA_F
 245              		.loc 1 319 3
 246 0072 7B68     		ldr	r3, [r7, #4]
 247 0074 1B68     		ldr	r3, [r3]
 248 0076 1F22     		movs	r2, #31
 249 0078 5A60     		str	r2, [r3, #4]
 320:Drivers/STM32H7xx_HAL_Driver/Src/stm32h7xx_hal_mdma.c **** 
ARM GAS  C:\Users\Su\AppData\Local\Temp\ccdx3s9E.s 			page 11


 321:Drivers/STM32H7xx_HAL_Driver/Src/stm32h7xx_hal_mdma.c ****   /* Reset the  MDMA first/last linkedlist node addresses and node counter */
 322:Drivers/STM32H7xx_HAL_Driver/Src/stm32h7xx_hal_mdma.c ****   hmdma->FirstLinkedListNodeAddress  = 0;
 250              		.loc 1 322 38
 251 007a 7B68     		ldr	r3, [r7, #4]
 252 007c 0022     		movs	r2, #0
 253 007e DA65     		str	r2, [r3, #92]
 323:Drivers/STM32H7xx_HAL_Driver/Src/stm32h7xx_hal_mdma.c ****   hmdma->LastLinkedListNodeAddress   = 0;
 254              		.loc 1 323 38
 255 0080 7B68     		ldr	r3, [r7, #4]
 256 0082 0022     		movs	r2, #0
 257 0084 1A66     		str	r2, [r3, #96]
 324:Drivers/STM32H7xx_HAL_Driver/Src/stm32h7xx_hal_mdma.c ****   hmdma->LinkedListNodeCounter  = 0;
 258              		.loc 1 324 33
 259 0086 7B68     		ldr	r3, [r7, #4]
 260 0088 0022     		movs	r2, #0
 261 008a 5A66     		str	r2, [r3, #100]
 325:Drivers/STM32H7xx_HAL_Driver/Src/stm32h7xx_hal_mdma.c **** 
 326:Drivers/STM32H7xx_HAL_Driver/Src/stm32h7xx_hal_mdma.c ****   /* Initialize the error code */
 327:Drivers/STM32H7xx_HAL_Driver/Src/stm32h7xx_hal_mdma.c ****   hmdma->ErrorCode = HAL_MDMA_ERROR_NONE;
 262              		.loc 1 327 20
 263 008c 7B68     		ldr	r3, [r7, #4]
 264 008e 0022     		movs	r2, #0
 265 0090 9A66     		str	r2, [r3, #104]
 328:Drivers/STM32H7xx_HAL_Driver/Src/stm32h7xx_hal_mdma.c **** 
 329:Drivers/STM32H7xx_HAL_Driver/Src/stm32h7xx_hal_mdma.c ****   /* Initialize the MDMA state */
 330:Drivers/STM32H7xx_HAL_Driver/Src/stm32h7xx_hal_mdma.c ****   hmdma->State = HAL_MDMA_STATE_RESET;
 266              		.loc 1 330 16
 267 0092 7B68     		ldr	r3, [r7, #4]
 268 0094 0022     		movs	r2, #0
 269 0096 83F83D20 		strb	r2, [r3, #61]
 331:Drivers/STM32H7xx_HAL_Driver/Src/stm32h7xx_hal_mdma.c **** 
 332:Drivers/STM32H7xx_HAL_Driver/Src/stm32h7xx_hal_mdma.c ****   /* Release Lock */
 333:Drivers/STM32H7xx_HAL_Driver/Src/stm32h7xx_hal_mdma.c ****   __HAL_UNLOCK(hmdma);
 270              		.loc 1 333 3
 271 009a 7B68     		ldr	r3, [r7, #4]
 272 009c 0022     		movs	r2, #0
 273 009e 83F83C20 		strb	r2, [r3, #60]
 334:Drivers/STM32H7xx_HAL_Driver/Src/stm32h7xx_hal_mdma.c **** 
 335:Drivers/STM32H7xx_HAL_Driver/Src/stm32h7xx_hal_mdma.c ****   return HAL_OK;
 274              		.loc 1 335 10
 275 00a2 0023     		movs	r3, #0
 276              	.L8:
 336:Drivers/STM32H7xx_HAL_Driver/Src/stm32h7xx_hal_mdma.c **** }
 277              		.loc 1 336 1
 278 00a4 1846     		mov	r0, r3
 279 00a6 0C37     		adds	r7, r7, #12
 280              	.LCFI8:
 281              		.cfi_def_cfa_offset 4
 282 00a8 BD46     		mov	sp, r7
 283              	.LCFI9:
 284              		.cfi_def_cfa_register 13
 285              		@ sp needed
 286 00aa 5DF8047B 		ldr	r7, [sp], #4
 287              	.LCFI10:
 288              		.cfi_restore 7
 289              		.cfi_def_cfa_offset 0
 290 00ae 7047     		bx	lr
ARM GAS  C:\Users\Su\AppData\Local\Temp\ccdx3s9E.s 			page 12


 291              		.cfi_endproc
 292              	.LFE145:
 294              		.section	.text.HAL_MDMA_ConfigPostRequestMask,"ax",%progbits
 295              		.align	1
 296              		.global	HAL_MDMA_ConfigPostRequestMask
 297              		.syntax unified
 298              		.thumb
 299              		.thumb_func
 301              	HAL_MDMA_ConfigPostRequestMask:
 302              	.LFB146:
 337:Drivers/STM32H7xx_HAL_Driver/Src/stm32h7xx_hal_mdma.c **** 
 338:Drivers/STM32H7xx_HAL_Driver/Src/stm32h7xx_hal_mdma.c **** /**
 339:Drivers/STM32H7xx_HAL_Driver/Src/stm32h7xx_hal_mdma.c ****   * @brief  Config the Post request Mask address and Mask data
 340:Drivers/STM32H7xx_HAL_Driver/Src/stm32h7xx_hal_mdma.c ****   * @param  hmdma      : pointer to a MDMA_HandleTypeDef structure that contains
 341:Drivers/STM32H7xx_HAL_Driver/Src/stm32h7xx_hal_mdma.c ****   *                               the configuration information for the specified MDMA Channel.
 342:Drivers/STM32H7xx_HAL_Driver/Src/stm32h7xx_hal_mdma.c ****   * @param  MaskAddress: specifies the address to be updated (written) with MaskData after a reques
 343:Drivers/STM32H7xx_HAL_Driver/Src/stm32h7xx_hal_mdma.c ****   * @param  MaskData:    specifies the value to be written to MaskAddress after a request is served
 344:Drivers/STM32H7xx_HAL_Driver/Src/stm32h7xx_hal_mdma.c ****   *                      MaskAddress and MaskData could be used to automatically clear a peripheral
 345:Drivers/STM32H7xx_HAL_Driver/Src/stm32h7xx_hal_mdma.c ****   * @retval HAL status
 346:Drivers/STM32H7xx_HAL_Driver/Src/stm32h7xx_hal_mdma.c ****   */
 347:Drivers/STM32H7xx_HAL_Driver/Src/stm32h7xx_hal_mdma.c **** HAL_StatusTypeDef HAL_MDMA_ConfigPostRequestMask(MDMA_HandleTypeDef *hmdma, uint32_t MaskAddress, u
 348:Drivers/STM32H7xx_HAL_Driver/Src/stm32h7xx_hal_mdma.c **** {
 303              		.loc 1 348 1
 304              		.cfi_startproc
 305              		@ args = 0, pretend = 0, frame = 24
 306              		@ frame_needed = 1, uses_anonymous_args = 0
 307              		@ link register save eliminated.
 308 0000 80B4     		push	{r7}
 309              	.LCFI11:
 310              		.cfi_def_cfa_offset 4
 311              		.cfi_offset 7, -4
 312 0002 87B0     		sub	sp, sp, #28
 313              	.LCFI12:
 314              		.cfi_def_cfa_offset 32
 315 0004 00AF     		add	r7, sp, #0
 316              	.LCFI13:
 317              		.cfi_def_cfa_register 7
 318 0006 F860     		str	r0, [r7, #12]
 319 0008 B960     		str	r1, [r7, #8]
 320 000a 7A60     		str	r2, [r7, #4]
 349:Drivers/STM32H7xx_HAL_Driver/Src/stm32h7xx_hal_mdma.c ****   HAL_StatusTypeDef  status = HAL_OK;
 321              		.loc 1 349 22
 322 000c 0023     		movs	r3, #0
 323 000e FB75     		strb	r3, [r7, #23]
 350:Drivers/STM32H7xx_HAL_Driver/Src/stm32h7xx_hal_mdma.c **** 
 351:Drivers/STM32H7xx_HAL_Driver/Src/stm32h7xx_hal_mdma.c ****   /* Check the MDMA peripheral handle */
 352:Drivers/STM32H7xx_HAL_Driver/Src/stm32h7xx_hal_mdma.c ****   if(hmdma == NULL)
 324              		.loc 1 352 5
 325 0010 FB68     		ldr	r3, [r7, #12]
 326 0012 002B     		cmp	r3, #0
 327 0014 01D1     		bne	.L10
 353:Drivers/STM32H7xx_HAL_Driver/Src/stm32h7xx_hal_mdma.c ****   {
 354:Drivers/STM32H7xx_HAL_Driver/Src/stm32h7xx_hal_mdma.c ****     return HAL_ERROR;
 328              		.loc 1 354 12
 329 0016 0123     		movs	r3, #1
 330 0018 3EE0     		b	.L11
 331              	.L10:
ARM GAS  C:\Users\Su\AppData\Local\Temp\ccdx3s9E.s 			page 13


 355:Drivers/STM32H7xx_HAL_Driver/Src/stm32h7xx_hal_mdma.c ****   }
 356:Drivers/STM32H7xx_HAL_Driver/Src/stm32h7xx_hal_mdma.c **** 
 357:Drivers/STM32H7xx_HAL_Driver/Src/stm32h7xx_hal_mdma.c ****   /* Process locked */
 358:Drivers/STM32H7xx_HAL_Driver/Src/stm32h7xx_hal_mdma.c ****   __HAL_LOCK(hmdma);
 332              		.loc 1 358 3
 333 001a FB68     		ldr	r3, [r7, #12]
 334 001c 93F83C30 		ldrb	r3, [r3, #60]	@ zero_extendqisi2
 335 0020 012B     		cmp	r3, #1
 336 0022 01D1     		bne	.L12
 337              		.loc 1 358 3 is_stmt 0 discriminator 1
 338 0024 0223     		movs	r3, #2
 339 0026 37E0     		b	.L11
 340              	.L12:
 341              		.loc 1 358 3 discriminator 2
 342 0028 FB68     		ldr	r3, [r7, #12]
 343 002a 0122     		movs	r2, #1
 344 002c 83F83C20 		strb	r2, [r3, #60]
 359:Drivers/STM32H7xx_HAL_Driver/Src/stm32h7xx_hal_mdma.c **** 
 360:Drivers/STM32H7xx_HAL_Driver/Src/stm32h7xx_hal_mdma.c ****   if(HAL_MDMA_STATE_READY == hmdma->State)
 345              		.loc 1 360 35 is_stmt 1 discriminator 2
 346 0030 FB68     		ldr	r3, [r7, #12]
 347 0032 93F83D30 		ldrb	r3, [r3, #61]
 348 0036 DBB2     		uxtb	r3, r3
 349              		.loc 1 360 5 discriminator 2
 350 0038 012B     		cmp	r3, #1
 351 003a 26D1     		bne	.L13
 361:Drivers/STM32H7xx_HAL_Driver/Src/stm32h7xx_hal_mdma.c ****   {
 362:Drivers/STM32H7xx_HAL_Driver/Src/stm32h7xx_hal_mdma.c ****     /* if HW request set Post Request MaskAddress and MaskData,  */
 363:Drivers/STM32H7xx_HAL_Driver/Src/stm32h7xx_hal_mdma.c ****     if((hmdma->Instance->CTCR & MDMA_CTCR_SWRM) == 0U)
 352              		.loc 1 363 14
 353 003c FB68     		ldr	r3, [r7, #12]
 354 003e 1B68     		ldr	r3, [r3]
 355              		.loc 1 363 24
 356 0040 1B69     		ldr	r3, [r3, #16]
 357              		.loc 1 363 31
 358 0042 03F08043 		and	r3, r3, #1073741824
 359              		.loc 1 363 7
 360 0046 002B     		cmp	r3, #0
 361 0048 1CD1     		bne	.L14
 364:Drivers/STM32H7xx_HAL_Driver/Src/stm32h7xx_hal_mdma.c ****     {
 365:Drivers/STM32H7xx_HAL_Driver/Src/stm32h7xx_hal_mdma.c ****       /* Set the HW request clear Mask and Data */
 366:Drivers/STM32H7xx_HAL_Driver/Src/stm32h7xx_hal_mdma.c ****       hmdma->Instance->CMAR = MaskAddress;
 362              		.loc 1 366 12
 363 004a FB68     		ldr	r3, [r7, #12]
 364 004c 1B68     		ldr	r3, [r3]
 365              		.loc 1 366 29
 366 004e BA68     		ldr	r2, [r7, #8]
 367 0050 1A63     		str	r2, [r3, #48]
 367:Drivers/STM32H7xx_HAL_Driver/Src/stm32h7xx_hal_mdma.c ****       hmdma->Instance->CMDR = MaskData;
 368              		.loc 1 367 12
 369 0052 FB68     		ldr	r3, [r7, #12]
 370 0054 1B68     		ldr	r3, [r3]
 371              		.loc 1 367 29
 372 0056 7A68     		ldr	r2, [r7, #4]
 373 0058 5A63     		str	r2, [r3, #52]
 368:Drivers/STM32H7xx_HAL_Driver/Src/stm32h7xx_hal_mdma.c **** 
 369:Drivers/STM32H7xx_HAL_Driver/Src/stm32h7xx_hal_mdma.c ****       /*
ARM GAS  C:\Users\Su\AppData\Local\Temp\ccdx3s9E.s 			page 14


 370:Drivers/STM32H7xx_HAL_Driver/Src/stm32h7xx_hal_mdma.c ****       -If the request is done by SW : BWM could be set to 1 or 0.
 371:Drivers/STM32H7xx_HAL_Driver/Src/stm32h7xx_hal_mdma.c ****       -If the request is done by a peripheral :
 372:Drivers/STM32H7xx_HAL_Driver/Src/stm32h7xx_hal_mdma.c ****          If mask address not set (0) => BWM must be set to 0
 373:Drivers/STM32H7xx_HAL_Driver/Src/stm32h7xx_hal_mdma.c ****          If mask address set (different than 0) => BWM could be set to 1 or 0
 374:Drivers/STM32H7xx_HAL_Driver/Src/stm32h7xx_hal_mdma.c ****       */
 375:Drivers/STM32H7xx_HAL_Driver/Src/stm32h7xx_hal_mdma.c ****       if(MaskAddress == 0U)
 374              		.loc 1 375 9
 375 005a BB68     		ldr	r3, [r7, #8]
 376 005c 002B     		cmp	r3, #0
 377 005e 08D1     		bne	.L15
 376:Drivers/STM32H7xx_HAL_Driver/Src/stm32h7xx_hal_mdma.c ****       {
 377:Drivers/STM32H7xx_HAL_Driver/Src/stm32h7xx_hal_mdma.c ****         hmdma->Instance->CTCR &=  ~MDMA_CTCR_BWM;
 378              		.loc 1 377 14
 379 0060 FB68     		ldr	r3, [r7, #12]
 380 0062 1B68     		ldr	r3, [r3]
 381              		.loc 1 377 31
 382 0064 1A69     		ldr	r2, [r3, #16]
 383              		.loc 1 377 14
 384 0066 FB68     		ldr	r3, [r7, #12]
 385 0068 1B68     		ldr	r3, [r3]
 386              		.loc 1 377 31
 387 006a 22F00042 		bic	r2, r2, #-2147483648
 388 006e 1A61     		str	r2, [r3, #16]
 389 0070 0DE0     		b	.L16
 390              	.L15:
 378:Drivers/STM32H7xx_HAL_Driver/Src/stm32h7xx_hal_mdma.c ****       }
 379:Drivers/STM32H7xx_HAL_Driver/Src/stm32h7xx_hal_mdma.c ****       else
 380:Drivers/STM32H7xx_HAL_Driver/Src/stm32h7xx_hal_mdma.c ****       {
 381:Drivers/STM32H7xx_HAL_Driver/Src/stm32h7xx_hal_mdma.c ****         hmdma->Instance->CTCR |=  MDMA_CTCR_BWM;
 391              		.loc 1 381 14
 392 0072 FB68     		ldr	r3, [r7, #12]
 393 0074 1B68     		ldr	r3, [r3]
 394              		.loc 1 381 31
 395 0076 1A69     		ldr	r2, [r3, #16]
 396              		.loc 1 381 14
 397 0078 FB68     		ldr	r3, [r7, #12]
 398 007a 1B68     		ldr	r3, [r3]
 399              		.loc 1 381 31
 400 007c 42F00042 		orr	r2, r2, #-2147483648
 401 0080 1A61     		str	r2, [r3, #16]
 402 0082 04E0     		b	.L16
 403              	.L14:
 382:Drivers/STM32H7xx_HAL_Driver/Src/stm32h7xx_hal_mdma.c ****       }
 383:Drivers/STM32H7xx_HAL_Driver/Src/stm32h7xx_hal_mdma.c ****     }
 384:Drivers/STM32H7xx_HAL_Driver/Src/stm32h7xx_hal_mdma.c ****     else
 385:Drivers/STM32H7xx_HAL_Driver/Src/stm32h7xx_hal_mdma.c ****     {
 386:Drivers/STM32H7xx_HAL_Driver/Src/stm32h7xx_hal_mdma.c ****       /* Return error status */
 387:Drivers/STM32H7xx_HAL_Driver/Src/stm32h7xx_hal_mdma.c ****       status =  HAL_ERROR;
 404              		.loc 1 387 14
 405 0084 0123     		movs	r3, #1
 406 0086 FB75     		strb	r3, [r7, #23]
 407 0088 01E0     		b	.L16
 408              	.L13:
 388:Drivers/STM32H7xx_HAL_Driver/Src/stm32h7xx_hal_mdma.c ****     }
 389:Drivers/STM32H7xx_HAL_Driver/Src/stm32h7xx_hal_mdma.c ****   }
 390:Drivers/STM32H7xx_HAL_Driver/Src/stm32h7xx_hal_mdma.c ****   else
 391:Drivers/STM32H7xx_HAL_Driver/Src/stm32h7xx_hal_mdma.c ****   {
ARM GAS  C:\Users\Su\AppData\Local\Temp\ccdx3s9E.s 			page 15


 392:Drivers/STM32H7xx_HAL_Driver/Src/stm32h7xx_hal_mdma.c ****     /* Return error status */
 393:Drivers/STM32H7xx_HAL_Driver/Src/stm32h7xx_hal_mdma.c ****     status =  HAL_ERROR;
 409              		.loc 1 393 12
 410 008a 0123     		movs	r3, #1
 411 008c FB75     		strb	r3, [r7, #23]
 412              	.L16:
 394:Drivers/STM32H7xx_HAL_Driver/Src/stm32h7xx_hal_mdma.c ****   }
 395:Drivers/STM32H7xx_HAL_Driver/Src/stm32h7xx_hal_mdma.c ****   /* Release Lock */
 396:Drivers/STM32H7xx_HAL_Driver/Src/stm32h7xx_hal_mdma.c ****   __HAL_UNLOCK(hmdma);
 413              		.loc 1 396 3
 414 008e FB68     		ldr	r3, [r7, #12]
 415 0090 0022     		movs	r2, #0
 416 0092 83F83C20 		strb	r2, [r3, #60]
 397:Drivers/STM32H7xx_HAL_Driver/Src/stm32h7xx_hal_mdma.c **** 
 398:Drivers/STM32H7xx_HAL_Driver/Src/stm32h7xx_hal_mdma.c ****   return status;
 417              		.loc 1 398 10
 418 0096 FB7D     		ldrb	r3, [r7, #23]	@ zero_extendqisi2
 419              	.L11:
 399:Drivers/STM32H7xx_HAL_Driver/Src/stm32h7xx_hal_mdma.c **** }
 420              		.loc 1 399 1
 421 0098 1846     		mov	r0, r3
 422 009a 1C37     		adds	r7, r7, #28
 423              	.LCFI14:
 424              		.cfi_def_cfa_offset 4
 425 009c BD46     		mov	sp, r7
 426              	.LCFI15:
 427              		.cfi_def_cfa_register 13
 428              		@ sp needed
 429 009e 5DF8047B 		ldr	r7, [sp], #4
 430              	.LCFI16:
 431              		.cfi_restore 7
 432              		.cfi_def_cfa_offset 0
 433 00a2 7047     		bx	lr
 434              		.cfi_endproc
 435              	.LFE146:
 437              		.section	.text.HAL_MDMA_RegisterCallback,"ax",%progbits
 438              		.align	1
 439              		.global	HAL_MDMA_RegisterCallback
 440              		.syntax unified
 441              		.thumb
 442              		.thumb_func
 444              	HAL_MDMA_RegisterCallback:
 445              	.LFB147:
 400:Drivers/STM32H7xx_HAL_Driver/Src/stm32h7xx_hal_mdma.c **** 
 401:Drivers/STM32H7xx_HAL_Driver/Src/stm32h7xx_hal_mdma.c **** /**
 402:Drivers/STM32H7xx_HAL_Driver/Src/stm32h7xx_hal_mdma.c ****   * @brief  Register callbacks
 403:Drivers/STM32H7xx_HAL_Driver/Src/stm32h7xx_hal_mdma.c ****   * @param  hmdma:                pointer to a MDMA_HandleTypeDef structure that contains
 404:Drivers/STM32H7xx_HAL_Driver/Src/stm32h7xx_hal_mdma.c ****   *                               the configuration information for the specified MDMA Channel.
 405:Drivers/STM32H7xx_HAL_Driver/Src/stm32h7xx_hal_mdma.c ****   * @param  CallbackID:           User Callback identifier
 406:Drivers/STM32H7xx_HAL_Driver/Src/stm32h7xx_hal_mdma.c ****   * @param  pCallback:            pointer to callbacsk function.
 407:Drivers/STM32H7xx_HAL_Driver/Src/stm32h7xx_hal_mdma.c ****   * @retval HAL status
 408:Drivers/STM32H7xx_HAL_Driver/Src/stm32h7xx_hal_mdma.c ****   */
 409:Drivers/STM32H7xx_HAL_Driver/Src/stm32h7xx_hal_mdma.c **** HAL_StatusTypeDef HAL_MDMA_RegisterCallback(MDMA_HandleTypeDef *hmdma, HAL_MDMA_CallbackIDTypeDef C
 410:Drivers/STM32H7xx_HAL_Driver/Src/stm32h7xx_hal_mdma.c **** {
 446              		.loc 1 410 1
 447              		.cfi_startproc
 448              		@ args = 0, pretend = 0, frame = 24
ARM GAS  C:\Users\Su\AppData\Local\Temp\ccdx3s9E.s 			page 16


 449              		@ frame_needed = 1, uses_anonymous_args = 0
 450              		@ link register save eliminated.
 451 0000 80B4     		push	{r7}
 452              	.LCFI17:
 453              		.cfi_def_cfa_offset 4
 454              		.cfi_offset 7, -4
 455 0002 87B0     		sub	sp, sp, #28
 456              	.LCFI18:
 457              		.cfi_def_cfa_offset 32
 458 0004 00AF     		add	r7, sp, #0
 459              	.LCFI19:
 460              		.cfi_def_cfa_register 7
 461 0006 F860     		str	r0, [r7, #12]
 462 0008 0B46     		mov	r3, r1
 463 000a 7A60     		str	r2, [r7, #4]
 464 000c FB72     		strb	r3, [r7, #11]
 411:Drivers/STM32H7xx_HAL_Driver/Src/stm32h7xx_hal_mdma.c ****   HAL_StatusTypeDef status = HAL_OK;
 465              		.loc 1 411 21
 466 000e 0023     		movs	r3, #0
 467 0010 FB75     		strb	r3, [r7, #23]
 412:Drivers/STM32H7xx_HAL_Driver/Src/stm32h7xx_hal_mdma.c **** 
 413:Drivers/STM32H7xx_HAL_Driver/Src/stm32h7xx_hal_mdma.c ****   /* Check the MDMA peripheral handle */
 414:Drivers/STM32H7xx_HAL_Driver/Src/stm32h7xx_hal_mdma.c ****   if(hmdma == NULL)
 468              		.loc 1 414 5
 469 0012 FB68     		ldr	r3, [r7, #12]
 470 0014 002B     		cmp	r3, #0
 471 0016 01D1     		bne	.L18
 415:Drivers/STM32H7xx_HAL_Driver/Src/stm32h7xx_hal_mdma.c ****   {
 416:Drivers/STM32H7xx_HAL_Driver/Src/stm32h7xx_hal_mdma.c ****     return HAL_ERROR;
 472              		.loc 1 416 12
 473 0018 0123     		movs	r3, #1
 474 001a 44E0     		b	.L19
 475              	.L18:
 417:Drivers/STM32H7xx_HAL_Driver/Src/stm32h7xx_hal_mdma.c ****   }
 418:Drivers/STM32H7xx_HAL_Driver/Src/stm32h7xx_hal_mdma.c **** 
 419:Drivers/STM32H7xx_HAL_Driver/Src/stm32h7xx_hal_mdma.c ****   /* Process locked */
 420:Drivers/STM32H7xx_HAL_Driver/Src/stm32h7xx_hal_mdma.c ****   __HAL_LOCK(hmdma);
 476              		.loc 1 420 3
 477 001c FB68     		ldr	r3, [r7, #12]
 478 001e 93F83C30 		ldrb	r3, [r3, #60]	@ zero_extendqisi2
 479 0022 012B     		cmp	r3, #1
 480 0024 01D1     		bne	.L20
 481              		.loc 1 420 3 is_stmt 0 discriminator 1
 482 0026 0223     		movs	r3, #2
 483 0028 3DE0     		b	.L19
 484              	.L20:
 485              		.loc 1 420 3 discriminator 2
 486 002a FB68     		ldr	r3, [r7, #12]
 487 002c 0122     		movs	r2, #1
 488 002e 83F83C20 		strb	r2, [r3, #60]
 421:Drivers/STM32H7xx_HAL_Driver/Src/stm32h7xx_hal_mdma.c **** 
 422:Drivers/STM32H7xx_HAL_Driver/Src/stm32h7xx_hal_mdma.c ****   if(HAL_MDMA_STATE_READY == hmdma->State)
 489              		.loc 1 422 35 is_stmt 1 discriminator 2
 490 0032 FB68     		ldr	r3, [r7, #12]
 491 0034 93F83D30 		ldrb	r3, [r3, #61]
 492 0038 DBB2     		uxtb	r3, r3
 493              		.loc 1 422 5 discriminator 2
ARM GAS  C:\Users\Su\AppData\Local\Temp\ccdx3s9E.s 			page 17


 494 003a 012B     		cmp	r3, #1
 495 003c 2AD1     		bne	.L21
 423:Drivers/STM32H7xx_HAL_Driver/Src/stm32h7xx_hal_mdma.c ****   {
 424:Drivers/STM32H7xx_HAL_Driver/Src/stm32h7xx_hal_mdma.c ****     switch (CallbackID)
 496              		.loc 1 424 5
 497 003e FB7A     		ldrb	r3, [r7, #11]	@ zero_extendqisi2
 498 0040 052B     		cmp	r3, #5
 499 0042 2AD8     		bhi	.L32
 500 0044 01A2     		adr	r2, .L24
 501 0046 52F823F0 		ldr	pc, [r2, r3, lsl #2]
 502 004a 00BF     		.p2align 2
 503              	.L24:
 504 004c 65000000 		.word	.L29+1
 505 0050 6D000000 		.word	.L28+1
 506 0054 75000000 		.word	.L27+1
 507 0058 7D000000 		.word	.L26+1
 508 005c 85000000 		.word	.L25+1
 509 0060 8D000000 		.word	.L23+1
 510              		.p2align 1
 511              	.L29:
 425:Drivers/STM32H7xx_HAL_Driver/Src/stm32h7xx_hal_mdma.c ****     {
 426:Drivers/STM32H7xx_HAL_Driver/Src/stm32h7xx_hal_mdma.c ****     case  HAL_MDMA_XFER_CPLT_CB_ID:
 427:Drivers/STM32H7xx_HAL_Driver/Src/stm32h7xx_hal_mdma.c ****       hmdma->XferCpltCallback = pCallback;
 512              		.loc 1 427 31
 513 0064 FB68     		ldr	r3, [r7, #12]
 514 0066 7A68     		ldr	r2, [r7, #4]
 515 0068 5A64     		str	r2, [r3, #68]
 428:Drivers/STM32H7xx_HAL_Driver/Src/stm32h7xx_hal_mdma.c ****       break;
 516              		.loc 1 428 7
 517 006a 17E0     		b	.L31
 518              	.L28:
 429:Drivers/STM32H7xx_HAL_Driver/Src/stm32h7xx_hal_mdma.c **** 
 430:Drivers/STM32H7xx_HAL_Driver/Src/stm32h7xx_hal_mdma.c ****     case  HAL_MDMA_XFER_BUFFERCPLT_CB_ID:
 431:Drivers/STM32H7xx_HAL_Driver/Src/stm32h7xx_hal_mdma.c ****       hmdma->XferBufferCpltCallback = pCallback;
 519              		.loc 1 431 37
 520 006c FB68     		ldr	r3, [r7, #12]
 521 006e 7A68     		ldr	r2, [r7, #4]
 522 0070 9A64     		str	r2, [r3, #72]
 432:Drivers/STM32H7xx_HAL_Driver/Src/stm32h7xx_hal_mdma.c ****       break;
 523              		.loc 1 432 7
 524 0072 13E0     		b	.L31
 525              	.L27:
 433:Drivers/STM32H7xx_HAL_Driver/Src/stm32h7xx_hal_mdma.c **** 
 434:Drivers/STM32H7xx_HAL_Driver/Src/stm32h7xx_hal_mdma.c ****     case  HAL_MDMA_XFER_BLOCKCPLT_CB_ID:
 435:Drivers/STM32H7xx_HAL_Driver/Src/stm32h7xx_hal_mdma.c ****       hmdma->XferBlockCpltCallback = pCallback;
 526              		.loc 1 435 36
 527 0074 FB68     		ldr	r3, [r7, #12]
 528 0076 7A68     		ldr	r2, [r7, #4]
 529 0078 DA64     		str	r2, [r3, #76]
 436:Drivers/STM32H7xx_HAL_Driver/Src/stm32h7xx_hal_mdma.c ****       break;
 530              		.loc 1 436 7
 531 007a 0FE0     		b	.L31
 532              	.L26:
 437:Drivers/STM32H7xx_HAL_Driver/Src/stm32h7xx_hal_mdma.c **** 
 438:Drivers/STM32H7xx_HAL_Driver/Src/stm32h7xx_hal_mdma.c ****     case  HAL_MDMA_XFER_REPBLOCKCPLT_CB_ID:
 439:Drivers/STM32H7xx_HAL_Driver/Src/stm32h7xx_hal_mdma.c ****       hmdma->XferRepeatBlockCpltCallback = pCallback;
 533              		.loc 1 439 42
ARM GAS  C:\Users\Su\AppData\Local\Temp\ccdx3s9E.s 			page 18


 534 007c FB68     		ldr	r3, [r7, #12]
 535 007e 7A68     		ldr	r2, [r7, #4]
 536 0080 1A65     		str	r2, [r3, #80]
 440:Drivers/STM32H7xx_HAL_Driver/Src/stm32h7xx_hal_mdma.c ****       break;
 537              		.loc 1 440 7
 538 0082 0BE0     		b	.L31
 539              	.L25:
 441:Drivers/STM32H7xx_HAL_Driver/Src/stm32h7xx_hal_mdma.c **** 
 442:Drivers/STM32H7xx_HAL_Driver/Src/stm32h7xx_hal_mdma.c ****     case  HAL_MDMA_XFER_ERROR_CB_ID:
 443:Drivers/STM32H7xx_HAL_Driver/Src/stm32h7xx_hal_mdma.c ****       hmdma->XferErrorCallback = pCallback;
 540              		.loc 1 443 32
 541 0084 FB68     		ldr	r3, [r7, #12]
 542 0086 7A68     		ldr	r2, [r7, #4]
 543 0088 5A65     		str	r2, [r3, #84]
 444:Drivers/STM32H7xx_HAL_Driver/Src/stm32h7xx_hal_mdma.c ****       break;
 544              		.loc 1 444 7
 545 008a 07E0     		b	.L31
 546              	.L23:
 445:Drivers/STM32H7xx_HAL_Driver/Src/stm32h7xx_hal_mdma.c **** 
 446:Drivers/STM32H7xx_HAL_Driver/Src/stm32h7xx_hal_mdma.c ****     case  HAL_MDMA_XFER_ABORT_CB_ID:
 447:Drivers/STM32H7xx_HAL_Driver/Src/stm32h7xx_hal_mdma.c ****       hmdma->XferAbortCallback = pCallback;
 547              		.loc 1 447 32
 548 008c FB68     		ldr	r3, [r7, #12]
 549 008e 7A68     		ldr	r2, [r7, #4]
 550 0090 9A65     		str	r2, [r3, #88]
 448:Drivers/STM32H7xx_HAL_Driver/Src/stm32h7xx_hal_mdma.c ****       break;
 551              		.loc 1 448 7
 552 0092 03E0     		b	.L31
 553              	.L21:
 449:Drivers/STM32H7xx_HAL_Driver/Src/stm32h7xx_hal_mdma.c **** 
 450:Drivers/STM32H7xx_HAL_Driver/Src/stm32h7xx_hal_mdma.c ****     default:
 451:Drivers/STM32H7xx_HAL_Driver/Src/stm32h7xx_hal_mdma.c ****       break;
 452:Drivers/STM32H7xx_HAL_Driver/Src/stm32h7xx_hal_mdma.c ****     }
 453:Drivers/STM32H7xx_HAL_Driver/Src/stm32h7xx_hal_mdma.c ****   }
 454:Drivers/STM32H7xx_HAL_Driver/Src/stm32h7xx_hal_mdma.c ****   else
 455:Drivers/STM32H7xx_HAL_Driver/Src/stm32h7xx_hal_mdma.c ****   {
 456:Drivers/STM32H7xx_HAL_Driver/Src/stm32h7xx_hal_mdma.c ****     /* Return error status */
 457:Drivers/STM32H7xx_HAL_Driver/Src/stm32h7xx_hal_mdma.c ****     status =  HAL_ERROR;
 554              		.loc 1 457 12
 555 0094 0123     		movs	r3, #1
 556 0096 FB75     		strb	r3, [r7, #23]
 557 0098 00E0     		b	.L31
 558              	.L32:
 451:Drivers/STM32H7xx_HAL_Driver/Src/stm32h7xx_hal_mdma.c ****     }
 559              		.loc 1 451 7
 560 009a 00BF     		nop
 561              	.L31:
 458:Drivers/STM32H7xx_HAL_Driver/Src/stm32h7xx_hal_mdma.c ****   }
 459:Drivers/STM32H7xx_HAL_Driver/Src/stm32h7xx_hal_mdma.c **** 
 460:Drivers/STM32H7xx_HAL_Driver/Src/stm32h7xx_hal_mdma.c ****   /* Release Lock */
 461:Drivers/STM32H7xx_HAL_Driver/Src/stm32h7xx_hal_mdma.c ****   __HAL_UNLOCK(hmdma);
 562              		.loc 1 461 3
 563 009c FB68     		ldr	r3, [r7, #12]
 564 009e 0022     		movs	r2, #0
 565 00a0 83F83C20 		strb	r2, [r3, #60]
 462:Drivers/STM32H7xx_HAL_Driver/Src/stm32h7xx_hal_mdma.c **** 
 463:Drivers/STM32H7xx_HAL_Driver/Src/stm32h7xx_hal_mdma.c ****   return status;
ARM GAS  C:\Users\Su\AppData\Local\Temp\ccdx3s9E.s 			page 19


 566              		.loc 1 463 10
 567 00a4 FB7D     		ldrb	r3, [r7, #23]	@ zero_extendqisi2
 568              	.L19:
 464:Drivers/STM32H7xx_HAL_Driver/Src/stm32h7xx_hal_mdma.c **** }
 569              		.loc 1 464 1
 570 00a6 1846     		mov	r0, r3
 571 00a8 1C37     		adds	r7, r7, #28
 572              	.LCFI20:
 573              		.cfi_def_cfa_offset 4
 574 00aa BD46     		mov	sp, r7
 575              	.LCFI21:
 576              		.cfi_def_cfa_register 13
 577              		@ sp needed
 578 00ac 5DF8047B 		ldr	r7, [sp], #4
 579              	.LCFI22:
 580              		.cfi_restore 7
 581              		.cfi_def_cfa_offset 0
 582 00b0 7047     		bx	lr
 583              		.cfi_endproc
 584              	.LFE147:
 586 00b2 00BF     		.section	.text.HAL_MDMA_UnRegisterCallback,"ax",%progbits
 587              		.align	1
 588              		.global	HAL_MDMA_UnRegisterCallback
 589              		.syntax unified
 590              		.thumb
 591              		.thumb_func
 593              	HAL_MDMA_UnRegisterCallback:
 594              	.LFB148:
 465:Drivers/STM32H7xx_HAL_Driver/Src/stm32h7xx_hal_mdma.c **** 
 466:Drivers/STM32H7xx_HAL_Driver/Src/stm32h7xx_hal_mdma.c **** /**
 467:Drivers/STM32H7xx_HAL_Driver/Src/stm32h7xx_hal_mdma.c ****   * @brief  UnRegister callbacks
 468:Drivers/STM32H7xx_HAL_Driver/Src/stm32h7xx_hal_mdma.c ****   * @param  hmdma:                 pointer to a MDMA_HandleTypeDef structure that contains
 469:Drivers/STM32H7xx_HAL_Driver/Src/stm32h7xx_hal_mdma.c ****   *                               the configuration information for the specified MDMA Channel.
 470:Drivers/STM32H7xx_HAL_Driver/Src/stm32h7xx_hal_mdma.c ****   * @param  CallbackID:           User Callback identifier
 471:Drivers/STM32H7xx_HAL_Driver/Src/stm32h7xx_hal_mdma.c ****   *                               a HAL_MDMA_CallbackIDTypeDef ENUM as parameter.
 472:Drivers/STM32H7xx_HAL_Driver/Src/stm32h7xx_hal_mdma.c ****   * @retval HAL status
 473:Drivers/STM32H7xx_HAL_Driver/Src/stm32h7xx_hal_mdma.c ****   */
 474:Drivers/STM32H7xx_HAL_Driver/Src/stm32h7xx_hal_mdma.c **** HAL_StatusTypeDef HAL_MDMA_UnRegisterCallback(MDMA_HandleTypeDef *hmdma, HAL_MDMA_CallbackIDTypeDef
 475:Drivers/STM32H7xx_HAL_Driver/Src/stm32h7xx_hal_mdma.c **** {
 595              		.loc 1 475 1
 596              		.cfi_startproc
 597              		@ args = 0, pretend = 0, frame = 16
 598              		@ frame_needed = 1, uses_anonymous_args = 0
 599              		@ link register save eliminated.
 600 0000 80B4     		push	{r7}
 601              	.LCFI23:
 602              		.cfi_def_cfa_offset 4
 603              		.cfi_offset 7, -4
 604 0002 85B0     		sub	sp, sp, #20
 605              	.LCFI24:
 606              		.cfi_def_cfa_offset 24
 607 0004 00AF     		add	r7, sp, #0
 608              	.LCFI25:
 609              		.cfi_def_cfa_register 7
 610 0006 7860     		str	r0, [r7, #4]
 611 0008 0B46     		mov	r3, r1
 612 000a FB70     		strb	r3, [r7, #3]
ARM GAS  C:\Users\Su\AppData\Local\Temp\ccdx3s9E.s 			page 20


 476:Drivers/STM32H7xx_HAL_Driver/Src/stm32h7xx_hal_mdma.c ****   HAL_StatusTypeDef status = HAL_OK;
 613              		.loc 1 476 21
 614 000c 0023     		movs	r3, #0
 615 000e FB73     		strb	r3, [r7, #15]
 477:Drivers/STM32H7xx_HAL_Driver/Src/stm32h7xx_hal_mdma.c **** 
 478:Drivers/STM32H7xx_HAL_Driver/Src/stm32h7xx_hal_mdma.c ****   /* Check the MDMA peripheral handle */
 479:Drivers/STM32H7xx_HAL_Driver/Src/stm32h7xx_hal_mdma.c ****   if(hmdma == NULL)
 616              		.loc 1 479 5
 617 0010 7B68     		ldr	r3, [r7, #4]
 618 0012 002B     		cmp	r3, #0
 619 0014 01D1     		bne	.L34
 480:Drivers/STM32H7xx_HAL_Driver/Src/stm32h7xx_hal_mdma.c ****   {
 481:Drivers/STM32H7xx_HAL_Driver/Src/stm32h7xx_hal_mdma.c ****     return HAL_ERROR;
 620              		.loc 1 481 12
 621 0016 0123     		movs	r3, #1
 622 0018 59E0     		b	.L35
 623              	.L34:
 482:Drivers/STM32H7xx_HAL_Driver/Src/stm32h7xx_hal_mdma.c ****   }
 483:Drivers/STM32H7xx_HAL_Driver/Src/stm32h7xx_hal_mdma.c **** 
 484:Drivers/STM32H7xx_HAL_Driver/Src/stm32h7xx_hal_mdma.c ****   /* Process locked */
 485:Drivers/STM32H7xx_HAL_Driver/Src/stm32h7xx_hal_mdma.c ****   __HAL_LOCK(hmdma);
 624              		.loc 1 485 3
 625 001a 7B68     		ldr	r3, [r7, #4]
 626 001c 93F83C30 		ldrb	r3, [r3, #60]	@ zero_extendqisi2
 627 0020 012B     		cmp	r3, #1
 628 0022 01D1     		bne	.L36
 629              		.loc 1 485 3 is_stmt 0 discriminator 1
 630 0024 0223     		movs	r3, #2
 631 0026 52E0     		b	.L35
 632              	.L36:
 633              		.loc 1 485 3 discriminator 2
 634 0028 7B68     		ldr	r3, [r7, #4]
 635 002a 0122     		movs	r2, #1
 636 002c 83F83C20 		strb	r2, [r3, #60]
 486:Drivers/STM32H7xx_HAL_Driver/Src/stm32h7xx_hal_mdma.c **** 
 487:Drivers/STM32H7xx_HAL_Driver/Src/stm32h7xx_hal_mdma.c ****   if(HAL_MDMA_STATE_READY == hmdma->State)
 637              		.loc 1 487 35 is_stmt 1 discriminator 2
 638 0030 7B68     		ldr	r3, [r7, #4]
 639 0032 93F83D30 		ldrb	r3, [r3, #61]
 640 0036 DBB2     		uxtb	r3, r3
 641              		.loc 1 487 5 discriminator 2
 642 0038 012B     		cmp	r3, #1
 643 003a 41D1     		bne	.L37
 488:Drivers/STM32H7xx_HAL_Driver/Src/stm32h7xx_hal_mdma.c ****   {
 489:Drivers/STM32H7xx_HAL_Driver/Src/stm32h7xx_hal_mdma.c ****     switch (CallbackID)
 644              		.loc 1 489 5
 645 003c FB78     		ldrb	r3, [r7, #3]	@ zero_extendqisi2
 646 003e 062B     		cmp	r3, #6
 647 0040 3BD8     		bhi	.L38
 648 0042 01A2     		adr	r2, .L40
 649 0044 52F823F0 		ldr	pc, [r2, r3, lsl #2]
 650              		.p2align 2
 651              	.L40:
 652 0048 65000000 		.word	.L46+1
 653 004c 6D000000 		.word	.L45+1
 654 0050 75000000 		.word	.L44+1
 655 0054 7D000000 		.word	.L43+1
ARM GAS  C:\Users\Su\AppData\Local\Temp\ccdx3s9E.s 			page 21


 656 0058 85000000 		.word	.L42+1
 657 005c 8D000000 		.word	.L41+1
 658 0060 95000000 		.word	.L39+1
 659              		.p2align 1
 660              	.L46:
 490:Drivers/STM32H7xx_HAL_Driver/Src/stm32h7xx_hal_mdma.c ****     {
 491:Drivers/STM32H7xx_HAL_Driver/Src/stm32h7xx_hal_mdma.c ****     case  HAL_MDMA_XFER_CPLT_CB_ID:
 492:Drivers/STM32H7xx_HAL_Driver/Src/stm32h7xx_hal_mdma.c ****       hmdma->XferCpltCallback = NULL;
 661              		.loc 1 492 31
 662 0064 7B68     		ldr	r3, [r7, #4]
 663 0066 0022     		movs	r2, #0
 664 0068 5A64     		str	r2, [r3, #68]
 493:Drivers/STM32H7xx_HAL_Driver/Src/stm32h7xx_hal_mdma.c ****       break;
 665              		.loc 1 493 7
 666 006a 2BE0     		b	.L48
 667              	.L45:
 494:Drivers/STM32H7xx_HAL_Driver/Src/stm32h7xx_hal_mdma.c **** 
 495:Drivers/STM32H7xx_HAL_Driver/Src/stm32h7xx_hal_mdma.c ****     case  HAL_MDMA_XFER_BUFFERCPLT_CB_ID:
 496:Drivers/STM32H7xx_HAL_Driver/Src/stm32h7xx_hal_mdma.c ****       hmdma->XferBufferCpltCallback = NULL;
 668              		.loc 1 496 37
 669 006c 7B68     		ldr	r3, [r7, #4]
 670 006e 0022     		movs	r2, #0
 671 0070 9A64     		str	r2, [r3, #72]
 497:Drivers/STM32H7xx_HAL_Driver/Src/stm32h7xx_hal_mdma.c ****       break;
 672              		.loc 1 497 7
 673 0072 27E0     		b	.L48
 674              	.L44:
 498:Drivers/STM32H7xx_HAL_Driver/Src/stm32h7xx_hal_mdma.c **** 
 499:Drivers/STM32H7xx_HAL_Driver/Src/stm32h7xx_hal_mdma.c ****     case  HAL_MDMA_XFER_BLOCKCPLT_CB_ID:
 500:Drivers/STM32H7xx_HAL_Driver/Src/stm32h7xx_hal_mdma.c ****       hmdma->XferBlockCpltCallback = NULL;
 675              		.loc 1 500 36
 676 0074 7B68     		ldr	r3, [r7, #4]
 677 0076 0022     		movs	r2, #0
 678 0078 DA64     		str	r2, [r3, #76]
 501:Drivers/STM32H7xx_HAL_Driver/Src/stm32h7xx_hal_mdma.c ****       break;
 679              		.loc 1 501 7
 680 007a 23E0     		b	.L48
 681              	.L43:
 502:Drivers/STM32H7xx_HAL_Driver/Src/stm32h7xx_hal_mdma.c **** 
 503:Drivers/STM32H7xx_HAL_Driver/Src/stm32h7xx_hal_mdma.c ****     case  HAL_MDMA_XFER_REPBLOCKCPLT_CB_ID:
 504:Drivers/STM32H7xx_HAL_Driver/Src/stm32h7xx_hal_mdma.c ****       hmdma->XferRepeatBlockCpltCallback = NULL;
 682              		.loc 1 504 42
 683 007c 7B68     		ldr	r3, [r7, #4]
 684 007e 0022     		movs	r2, #0
 685 0080 1A65     		str	r2, [r3, #80]
 505:Drivers/STM32H7xx_HAL_Driver/Src/stm32h7xx_hal_mdma.c ****       break;
 686              		.loc 1 505 7
 687 0082 1FE0     		b	.L48
 688              	.L42:
 506:Drivers/STM32H7xx_HAL_Driver/Src/stm32h7xx_hal_mdma.c **** 
 507:Drivers/STM32H7xx_HAL_Driver/Src/stm32h7xx_hal_mdma.c ****     case  HAL_MDMA_XFER_ERROR_CB_ID:
 508:Drivers/STM32H7xx_HAL_Driver/Src/stm32h7xx_hal_mdma.c ****       hmdma->XferErrorCallback = NULL;
 689              		.loc 1 508 32
 690 0084 7B68     		ldr	r3, [r7, #4]
 691 0086 0022     		movs	r2, #0
 692 0088 5A65     		str	r2, [r3, #84]
 509:Drivers/STM32H7xx_HAL_Driver/Src/stm32h7xx_hal_mdma.c ****       break;
ARM GAS  C:\Users\Su\AppData\Local\Temp\ccdx3s9E.s 			page 22


 693              		.loc 1 509 7
 694 008a 1BE0     		b	.L48
 695              	.L41:
 510:Drivers/STM32H7xx_HAL_Driver/Src/stm32h7xx_hal_mdma.c **** 
 511:Drivers/STM32H7xx_HAL_Driver/Src/stm32h7xx_hal_mdma.c ****     case  HAL_MDMA_XFER_ABORT_CB_ID:
 512:Drivers/STM32H7xx_HAL_Driver/Src/stm32h7xx_hal_mdma.c ****       hmdma->XferAbortCallback = NULL;
 696              		.loc 1 512 32
 697 008c 7B68     		ldr	r3, [r7, #4]
 698 008e 0022     		movs	r2, #0
 699 0090 9A65     		str	r2, [r3, #88]
 513:Drivers/STM32H7xx_HAL_Driver/Src/stm32h7xx_hal_mdma.c ****       break;
 700              		.loc 1 513 7
 701 0092 17E0     		b	.L48
 702              	.L39:
 514:Drivers/STM32H7xx_HAL_Driver/Src/stm32h7xx_hal_mdma.c **** 
 515:Drivers/STM32H7xx_HAL_Driver/Src/stm32h7xx_hal_mdma.c ****     case   HAL_MDMA_XFER_ALL_CB_ID:
 516:Drivers/STM32H7xx_HAL_Driver/Src/stm32h7xx_hal_mdma.c ****       hmdma->XferCpltCallback = NULL;
 703              		.loc 1 516 31
 704 0094 7B68     		ldr	r3, [r7, #4]
 705 0096 0022     		movs	r2, #0
 706 0098 5A64     		str	r2, [r3, #68]
 517:Drivers/STM32H7xx_HAL_Driver/Src/stm32h7xx_hal_mdma.c ****       hmdma->XferBufferCpltCallback = NULL;
 707              		.loc 1 517 37
 708 009a 7B68     		ldr	r3, [r7, #4]
 709 009c 0022     		movs	r2, #0
 710 009e 9A64     		str	r2, [r3, #72]
 518:Drivers/STM32H7xx_HAL_Driver/Src/stm32h7xx_hal_mdma.c ****       hmdma->XferBlockCpltCallback = NULL;
 711              		.loc 1 518 36
 712 00a0 7B68     		ldr	r3, [r7, #4]
 713 00a2 0022     		movs	r2, #0
 714 00a4 DA64     		str	r2, [r3, #76]
 519:Drivers/STM32H7xx_HAL_Driver/Src/stm32h7xx_hal_mdma.c ****       hmdma->XferRepeatBlockCpltCallback = NULL;
 715              		.loc 1 519 42
 716 00a6 7B68     		ldr	r3, [r7, #4]
 717 00a8 0022     		movs	r2, #0
 718 00aa 1A65     		str	r2, [r3, #80]
 520:Drivers/STM32H7xx_HAL_Driver/Src/stm32h7xx_hal_mdma.c ****       hmdma->XferErrorCallback = NULL;
 719              		.loc 1 520 32
 720 00ac 7B68     		ldr	r3, [r7, #4]
 721 00ae 0022     		movs	r2, #0
 722 00b0 5A65     		str	r2, [r3, #84]
 521:Drivers/STM32H7xx_HAL_Driver/Src/stm32h7xx_hal_mdma.c ****       hmdma->XferAbortCallback = NULL;
 723              		.loc 1 521 32
 724 00b2 7B68     		ldr	r3, [r7, #4]
 725 00b4 0022     		movs	r2, #0
 726 00b6 9A65     		str	r2, [r3, #88]
 522:Drivers/STM32H7xx_HAL_Driver/Src/stm32h7xx_hal_mdma.c ****       break;
 727              		.loc 1 522 7
 728 00b8 04E0     		b	.L48
 729              	.L38:
 523:Drivers/STM32H7xx_HAL_Driver/Src/stm32h7xx_hal_mdma.c **** 
 524:Drivers/STM32H7xx_HAL_Driver/Src/stm32h7xx_hal_mdma.c ****     default:
 525:Drivers/STM32H7xx_HAL_Driver/Src/stm32h7xx_hal_mdma.c ****       status = HAL_ERROR;
 730              		.loc 1 525 14
 731 00ba 0123     		movs	r3, #1
 732 00bc FB73     		strb	r3, [r7, #15]
 526:Drivers/STM32H7xx_HAL_Driver/Src/stm32h7xx_hal_mdma.c ****       break;
ARM GAS  C:\Users\Su\AppData\Local\Temp\ccdx3s9E.s 			page 23


 733              		.loc 1 526 7
 734 00be 01E0     		b	.L48
 735              	.L37:
 527:Drivers/STM32H7xx_HAL_Driver/Src/stm32h7xx_hal_mdma.c ****     }
 528:Drivers/STM32H7xx_HAL_Driver/Src/stm32h7xx_hal_mdma.c ****   }
 529:Drivers/STM32H7xx_HAL_Driver/Src/stm32h7xx_hal_mdma.c ****   else
 530:Drivers/STM32H7xx_HAL_Driver/Src/stm32h7xx_hal_mdma.c ****   {
 531:Drivers/STM32H7xx_HAL_Driver/Src/stm32h7xx_hal_mdma.c ****     status = HAL_ERROR;
 736              		.loc 1 531 12
 737 00c0 0123     		movs	r3, #1
 738 00c2 FB73     		strb	r3, [r7, #15]
 739              	.L48:
 532:Drivers/STM32H7xx_HAL_Driver/Src/stm32h7xx_hal_mdma.c ****   }
 533:Drivers/STM32H7xx_HAL_Driver/Src/stm32h7xx_hal_mdma.c **** 
 534:Drivers/STM32H7xx_HAL_Driver/Src/stm32h7xx_hal_mdma.c ****   /* Release Lock */
 535:Drivers/STM32H7xx_HAL_Driver/Src/stm32h7xx_hal_mdma.c ****   __HAL_UNLOCK(hmdma);
 740              		.loc 1 535 3
 741 00c4 7B68     		ldr	r3, [r7, #4]
 742 00c6 0022     		movs	r2, #0
 743 00c8 83F83C20 		strb	r2, [r3, #60]
 536:Drivers/STM32H7xx_HAL_Driver/Src/stm32h7xx_hal_mdma.c **** 
 537:Drivers/STM32H7xx_HAL_Driver/Src/stm32h7xx_hal_mdma.c ****   return status;
 744              		.loc 1 537 10
 745 00cc FB7B     		ldrb	r3, [r7, #15]	@ zero_extendqisi2
 746              	.L35:
 538:Drivers/STM32H7xx_HAL_Driver/Src/stm32h7xx_hal_mdma.c **** }
 747              		.loc 1 538 1
 748 00ce 1846     		mov	r0, r3
 749 00d0 1437     		adds	r7, r7, #20
 750              	.LCFI26:
 751              		.cfi_def_cfa_offset 4
 752 00d2 BD46     		mov	sp, r7
 753              	.LCFI27:
 754              		.cfi_def_cfa_register 13
 755              		@ sp needed
 756 00d4 5DF8047B 		ldr	r7, [sp], #4
 757              	.LCFI28:
 758              		.cfi_restore 7
 759              		.cfi_def_cfa_offset 0
 760 00d8 7047     		bx	lr
 761              		.cfi_endproc
 762              	.LFE148:
 764 00da 00BF     		.section	.text.HAL_MDMA_LinkedList_CreateNode,"ax",%progbits
 765              		.align	1
 766              		.global	HAL_MDMA_LinkedList_CreateNode
 767              		.syntax unified
 768              		.thumb
 769              		.thumb_func
 771              	HAL_MDMA_LinkedList_CreateNode:
 772              	.LFB149:
 539:Drivers/STM32H7xx_HAL_Driver/Src/stm32h7xx_hal_mdma.c **** 
 540:Drivers/STM32H7xx_HAL_Driver/Src/stm32h7xx_hal_mdma.c **** /**
 541:Drivers/STM32H7xx_HAL_Driver/Src/stm32h7xx_hal_mdma.c ****   * @}
 542:Drivers/STM32H7xx_HAL_Driver/Src/stm32h7xx_hal_mdma.c ****   */
 543:Drivers/STM32H7xx_HAL_Driver/Src/stm32h7xx_hal_mdma.c **** 
 544:Drivers/STM32H7xx_HAL_Driver/Src/stm32h7xx_hal_mdma.c **** /** @addtogroup MDMA_Exported_Functions_Group2
 545:Drivers/STM32H7xx_HAL_Driver/Src/stm32h7xx_hal_mdma.c ****  *
ARM GAS  C:\Users\Su\AppData\Local\Temp\ccdx3s9E.s 			page 24


 546:Drivers/STM32H7xx_HAL_Driver/Src/stm32h7xx_hal_mdma.c **** @verbatim
 547:Drivers/STM32H7xx_HAL_Driver/Src/stm32h7xx_hal_mdma.c ****  ===============================================================================
 548:Drivers/STM32H7xx_HAL_Driver/Src/stm32h7xx_hal_mdma.c ****                       #####  Linked list operation functions  #####
 549:Drivers/STM32H7xx_HAL_Driver/Src/stm32h7xx_hal_mdma.c ****  ===============================================================================
 550:Drivers/STM32H7xx_HAL_Driver/Src/stm32h7xx_hal_mdma.c ****     [..]  This section provides functions allowing to:
 551:Drivers/STM32H7xx_HAL_Driver/Src/stm32h7xx_hal_mdma.c ****       (+) Create a linked list node
 552:Drivers/STM32H7xx_HAL_Driver/Src/stm32h7xx_hal_mdma.c ****       (+) Add a node to the MDMA linked list
 553:Drivers/STM32H7xx_HAL_Driver/Src/stm32h7xx_hal_mdma.c ****       (+) Remove a node from the MDMA linked list
 554:Drivers/STM32H7xx_HAL_Driver/Src/stm32h7xx_hal_mdma.c ****       (+) Enable/Disable linked list circular mode
 555:Drivers/STM32H7xx_HAL_Driver/Src/stm32h7xx_hal_mdma.c **** @endverbatim
 556:Drivers/STM32H7xx_HAL_Driver/Src/stm32h7xx_hal_mdma.c ****   * @{
 557:Drivers/STM32H7xx_HAL_Driver/Src/stm32h7xx_hal_mdma.c ****   */
 558:Drivers/STM32H7xx_HAL_Driver/Src/stm32h7xx_hal_mdma.c **** 
 559:Drivers/STM32H7xx_HAL_Driver/Src/stm32h7xx_hal_mdma.c **** /**
 560:Drivers/STM32H7xx_HAL_Driver/Src/stm32h7xx_hal_mdma.c ****   * @brief  Initializes an MDMA Link Node according to the specified
 561:Drivers/STM32H7xx_HAL_Driver/Src/stm32h7xx_hal_mdma.c ****   *         parameters in the pMDMA_LinkedListNodeConfig .
 562:Drivers/STM32H7xx_HAL_Driver/Src/stm32h7xx_hal_mdma.c ****   * @param  pNode: Pointer to a MDMA_LinkNodeTypeDef structure that contains Linked list node
 563:Drivers/STM32H7xx_HAL_Driver/Src/stm32h7xx_hal_mdma.c ****   *         registers configurations.
 564:Drivers/STM32H7xx_HAL_Driver/Src/stm32h7xx_hal_mdma.c ****   * @param  pNodeConfig: Pointer to a MDMA_LinkNodeConfTypeDef structure that contains
 565:Drivers/STM32H7xx_HAL_Driver/Src/stm32h7xx_hal_mdma.c ****   *               the configuration information for the specified MDMA Linked List Node.
 566:Drivers/STM32H7xx_HAL_Driver/Src/stm32h7xx_hal_mdma.c ****   * @retval HAL status
 567:Drivers/STM32H7xx_HAL_Driver/Src/stm32h7xx_hal_mdma.c ****   */
 568:Drivers/STM32H7xx_HAL_Driver/Src/stm32h7xx_hal_mdma.c **** HAL_StatusTypeDef HAL_MDMA_LinkedList_CreateNode(MDMA_LinkNodeTypeDef *pNode, MDMA_LinkNodeConfType
 569:Drivers/STM32H7xx_HAL_Driver/Src/stm32h7xx_hal_mdma.c **** {
 773              		.loc 1 569 1
 774              		.cfi_startproc
 775              		@ args = 0, pretend = 0, frame = 16
 776              		@ frame_needed = 1, uses_anonymous_args = 0
 777              		@ link register save eliminated.
 778 0000 80B4     		push	{r7}
 779              	.LCFI29:
 780              		.cfi_def_cfa_offset 4
 781              		.cfi_offset 7, -4
 782 0002 85B0     		sub	sp, sp, #20
 783              	.LCFI30:
 784              		.cfi_def_cfa_offset 24
 785 0004 00AF     		add	r7, sp, #0
 786              	.LCFI31:
 787              		.cfi_def_cfa_register 7
 788 0006 7860     		str	r0, [r7, #4]
 789 0008 3960     		str	r1, [r7]
 570:Drivers/STM32H7xx_HAL_Driver/Src/stm32h7xx_hal_mdma.c ****   uint32_t addressMask;
 571:Drivers/STM32H7xx_HAL_Driver/Src/stm32h7xx_hal_mdma.c ****   uint32_t blockoffset;
 572:Drivers/STM32H7xx_HAL_Driver/Src/stm32h7xx_hal_mdma.c **** 
 573:Drivers/STM32H7xx_HAL_Driver/Src/stm32h7xx_hal_mdma.c ****   /* Check the MDMA peripheral state */
 574:Drivers/STM32H7xx_HAL_Driver/Src/stm32h7xx_hal_mdma.c ****   if((pNode == NULL) || (pNodeConfig == NULL))
 790              		.loc 1 574 5
 791 000a 7B68     		ldr	r3, [r7, #4]
 792 000c 002B     		cmp	r3, #0
 793 000e 02D0     		beq	.L50
 794              		.loc 1 574 22 discriminator 1
 795 0010 3B68     		ldr	r3, [r7]
 796 0012 002B     		cmp	r3, #0
 797 0014 01D1     		bne	.L51
 798              	.L50:
 575:Drivers/STM32H7xx_HAL_Driver/Src/stm32h7xx_hal_mdma.c ****   {
 576:Drivers/STM32H7xx_HAL_Driver/Src/stm32h7xx_hal_mdma.c ****     return HAL_ERROR;
ARM GAS  C:\Users\Su\AppData\Local\Temp\ccdx3s9E.s 			page 25


 799              		.loc 1 576 12
 800 0016 0123     		movs	r3, #1
 801 0018 C8E0     		b	.L52
 802              	.L51:
 577:Drivers/STM32H7xx_HAL_Driver/Src/stm32h7xx_hal_mdma.c ****   }
 578:Drivers/STM32H7xx_HAL_Driver/Src/stm32h7xx_hal_mdma.c **** 
 579:Drivers/STM32H7xx_HAL_Driver/Src/stm32h7xx_hal_mdma.c ****   /* Check the parameters */
 580:Drivers/STM32H7xx_HAL_Driver/Src/stm32h7xx_hal_mdma.c ****   assert_param(IS_MDMA_PRIORITY(pNodeConfig->Init.Priority));
 581:Drivers/STM32H7xx_HAL_Driver/Src/stm32h7xx_hal_mdma.c ****   assert_param(IS_MDMA_ENDIANNESS_MODE(pNodeConfig->Init.Endianness));
 582:Drivers/STM32H7xx_HAL_Driver/Src/stm32h7xx_hal_mdma.c ****   assert_param(IS_MDMA_REQUEST(pNodeConfig->Init.Request));
 583:Drivers/STM32H7xx_HAL_Driver/Src/stm32h7xx_hal_mdma.c ****   assert_param(IS_MDMA_SOURCE_INC(pNodeConfig->Init.SourceInc));
 584:Drivers/STM32H7xx_HAL_Driver/Src/stm32h7xx_hal_mdma.c ****   assert_param(IS_MDMA_DESTINATION_INC(pNodeConfig->Init.DestinationInc));
 585:Drivers/STM32H7xx_HAL_Driver/Src/stm32h7xx_hal_mdma.c ****   assert_param(IS_MDMA_SOURCE_DATASIZE(pNodeConfig->Init.SourceDataSize));
 586:Drivers/STM32H7xx_HAL_Driver/Src/stm32h7xx_hal_mdma.c ****   assert_param(IS_MDMA_DESTINATION_DATASIZE(pNodeConfig->Init.DestDataSize));
 587:Drivers/STM32H7xx_HAL_Driver/Src/stm32h7xx_hal_mdma.c ****   assert_param(IS_MDMA_DATA_ALIGNMENT(pNodeConfig->Init.DataAlignment));
 588:Drivers/STM32H7xx_HAL_Driver/Src/stm32h7xx_hal_mdma.c ****   assert_param(IS_MDMA_SOURCE_BURST(pNodeConfig->Init.SourceBurst));
 589:Drivers/STM32H7xx_HAL_Driver/Src/stm32h7xx_hal_mdma.c ****   assert_param(IS_MDMA_DESTINATION_BURST(pNodeConfig->Init.DestBurst));
 590:Drivers/STM32H7xx_HAL_Driver/Src/stm32h7xx_hal_mdma.c ****   assert_param(IS_MDMA_BUFFER_TRANSFER_LENGTH(pNodeConfig->Init.BufferTransferLength));
 591:Drivers/STM32H7xx_HAL_Driver/Src/stm32h7xx_hal_mdma.c ****   assert_param(IS_MDMA_TRANSFER_TRIGGER_MODE(pNodeConfig->Init.TransferTriggerMode));
 592:Drivers/STM32H7xx_HAL_Driver/Src/stm32h7xx_hal_mdma.c ****   assert_param(IS_MDMA_BLOCK_ADDR_OFFSET(pNodeConfig->Init.SourceBlockAddressOffset));
 593:Drivers/STM32H7xx_HAL_Driver/Src/stm32h7xx_hal_mdma.c ****   assert_param(IS_MDMA_BLOCK_ADDR_OFFSET(pNodeConfig->Init.DestBlockAddressOffset));
 594:Drivers/STM32H7xx_HAL_Driver/Src/stm32h7xx_hal_mdma.c **** 
 595:Drivers/STM32H7xx_HAL_Driver/Src/stm32h7xx_hal_mdma.c ****   assert_param(IS_MDMA_TRANSFER_LENGTH(pNodeConfig->BlockDataLength));
 596:Drivers/STM32H7xx_HAL_Driver/Src/stm32h7xx_hal_mdma.c ****   assert_param(IS_MDMA_BLOCK_COUNT(pNodeConfig->BlockCount));
 597:Drivers/STM32H7xx_HAL_Driver/Src/stm32h7xx_hal_mdma.c **** 
 598:Drivers/STM32H7xx_HAL_Driver/Src/stm32h7xx_hal_mdma.c **** 
 599:Drivers/STM32H7xx_HAL_Driver/Src/stm32h7xx_hal_mdma.c ****   /* Configure next Link node Address Register to zero */
 600:Drivers/STM32H7xx_HAL_Driver/Src/stm32h7xx_hal_mdma.c ****   pNode->CLAR =  0;
 803              		.loc 1 600 15
 804 001a 7B68     		ldr	r3, [r7, #4]
 805 001c 0022     		movs	r2, #0
 806 001e 5A61     		str	r2, [r3, #20]
 601:Drivers/STM32H7xx_HAL_Driver/Src/stm32h7xx_hal_mdma.c **** 
 602:Drivers/STM32H7xx_HAL_Driver/Src/stm32h7xx_hal_mdma.c ****   /* Configure the Link Node registers*/
 603:Drivers/STM32H7xx_HAL_Driver/Src/stm32h7xx_hal_mdma.c ****   pNode->CTBR   = 0;
 807              		.loc 1 603 17
 808 0020 7B68     		ldr	r3, [r7, #4]
 809 0022 0022     		movs	r2, #0
 810 0024 9A61     		str	r2, [r3, #24]
 604:Drivers/STM32H7xx_HAL_Driver/Src/stm32h7xx_hal_mdma.c ****   pNode->CMAR   = 0;
 811              		.loc 1 604 17
 812 0026 7B68     		ldr	r3, [r7, #4]
 813 0028 0022     		movs	r2, #0
 814 002a 1A62     		str	r2, [r3, #32]
 605:Drivers/STM32H7xx_HAL_Driver/Src/stm32h7xx_hal_mdma.c ****   pNode->CMDR   = 0;
 815              		.loc 1 605 17
 816 002c 7B68     		ldr	r3, [r7, #4]
 817 002e 0022     		movs	r2, #0
 818 0030 5A62     		str	r2, [r3, #36]
 606:Drivers/STM32H7xx_HAL_Driver/Src/stm32h7xx_hal_mdma.c ****   pNode->Reserved = 0;
 819              		.loc 1 606 19
 820 0032 7B68     		ldr	r3, [r7, #4]
 821 0034 0022     		movs	r2, #0
 822 0036 DA61     		str	r2, [r3, #28]
 607:Drivers/STM32H7xx_HAL_Driver/Src/stm32h7xx_hal_mdma.c **** 
 608:Drivers/STM32H7xx_HAL_Driver/Src/stm32h7xx_hal_mdma.c ****   /* Write new CTCR Register value */
 609:Drivers/STM32H7xx_HAL_Driver/Src/stm32h7xx_hal_mdma.c ****   pNode->CTCR =  pNodeConfig->Init.SourceInc | pNodeConfig->Init.DestinationInc | \
ARM GAS  C:\Users\Su\AppData\Local\Temp\ccdx3s9E.s 			page 26


 823              		.loc 1 609 35
 824 0038 3B68     		ldr	r3, [r7]
 825 003a 1A69     		ldr	r2, [r3, #16]
 826              		.loc 1 609 65
 827 003c 3B68     		ldr	r3, [r7]
 828 003e 5B69     		ldr	r3, [r3, #20]
 829              		.loc 1 609 46
 830 0040 1A43     		orrs	r2, r2, r3
 610:Drivers/STM32H7xx_HAL_Driver/Src/stm32h7xx_hal_mdma.c ****     pNodeConfig->Init.SourceDataSize | pNodeConfig->Init.DestDataSize           | \
 831              		.loc 1 610 22
 832 0042 3B68     		ldr	r3, [r7]
 833 0044 9B69     		ldr	r3, [r3, #24]
 609:Drivers/STM32H7xx_HAL_Driver/Src/stm32h7xx_hal_mdma.c ****     pNodeConfig->Init.SourceDataSize | pNodeConfig->Init.DestDataSize           | \
 834              		.loc 1 609 81
 835 0046 1A43     		orrs	r2, r2, r3
 836              		.loc 1 610 57
 837 0048 3B68     		ldr	r3, [r7]
 838 004a DB69     		ldr	r3, [r3, #28]
 839              		.loc 1 610 38
 840 004c 1A43     		orrs	r2, r2, r3
 611:Drivers/STM32H7xx_HAL_Driver/Src/stm32h7xx_hal_mdma.c ****       pNodeConfig->Init.DataAlignment| pNodeConfig->Init.SourceBurst            | \
 841              		.loc 1 611 24
 842 004e 3B68     		ldr	r3, [r7]
 843 0050 1B6A     		ldr	r3, [r3, #32]
 610:Drivers/STM32H7xx_HAL_Driver/Src/stm32h7xx_hal_mdma.c ****     pNodeConfig->Init.SourceDataSize | pNodeConfig->Init.DestDataSize           | \
 844              		.loc 1 610 81
 845 0052 1A43     		orrs	r2, r2, r3
 846              		.loc 1 611 57
 847 0054 3B68     		ldr	r3, [r7]
 848 0056 9B6A     		ldr	r3, [r3, #40]
 849              		.loc 1 611 38
 850 0058 1A43     		orrs	r2, r2, r3
 612:Drivers/STM32H7xx_HAL_Driver/Src/stm32h7xx_hal_mdma.c ****         pNodeConfig->Init.DestBurst                                             | \
 851              		.loc 1 612 26
 852 005a 3B68     		ldr	r3, [r7]
 853 005c DB6A     		ldr	r3, [r3, #44]
 611:Drivers/STM32H7xx_HAL_Driver/Src/stm32h7xx_hal_mdma.c ****       pNodeConfig->Init.DataAlignment| pNodeConfig->Init.SourceBurst            | \
 854              		.loc 1 611 81
 855 005e 1A43     		orrs	r2, r2, r3
 613:Drivers/STM32H7xx_HAL_Driver/Src/stm32h7xx_hal_mdma.c ****           ((pNodeConfig->Init.BufferTransferLength - 1U) << MDMA_CTCR_TLEN_Pos) | \
 856              		.loc 1 613 30
 857 0060 3B68     		ldr	r3, [r7]
 858 0062 5B6A     		ldr	r3, [r3, #36]
 859              		.loc 1 613 52
 860 0064 013B     		subs	r3, r3, #1
 861              		.loc 1 613 58
 862 0066 9B04     		lsls	r3, r3, #18
 612:Drivers/STM32H7xx_HAL_Driver/Src/stm32h7xx_hal_mdma.c ****         pNodeConfig->Init.DestBurst                                             | \
 863              		.loc 1 612 81
 864 0068 1A43     		orrs	r2, r2, r3
 614:Drivers/STM32H7xx_HAL_Driver/Src/stm32h7xx_hal_mdma.c ****             pNodeConfig->Init.TransferTriggerMode;
 865              		.loc 1 614 30
 866 006a 3B68     		ldr	r3, [r7]
 867 006c 5B68     		ldr	r3, [r3, #4]
 613:Drivers/STM32H7xx_HAL_Driver/Src/stm32h7xx_hal_mdma.c ****           ((pNodeConfig->Init.BufferTransferLength - 1U) << MDMA_CTCR_TLEN_Pos) | \
 868              		.loc 1 613 81
 869 006e 1A43     		orrs	r2, r2, r3
ARM GAS  C:\Users\Su\AppData\Local\Temp\ccdx3s9E.s 			page 27


 609:Drivers/STM32H7xx_HAL_Driver/Src/stm32h7xx_hal_mdma.c ****     pNodeConfig->Init.SourceDataSize | pNodeConfig->Init.DestDataSize           | \
 870              		.loc 1 609 15
 871 0070 7B68     		ldr	r3, [r7, #4]
 872 0072 1A60     		str	r2, [r3]
 615:Drivers/STM32H7xx_HAL_Driver/Src/stm32h7xx_hal_mdma.c **** 
 616:Drivers/STM32H7xx_HAL_Driver/Src/stm32h7xx_hal_mdma.c ****   /* If SW request set the CTCR register to SW Request Mode*/
 617:Drivers/STM32H7xx_HAL_Driver/Src/stm32h7xx_hal_mdma.c ****   if(pNodeConfig->Init.Request == MDMA_REQUEST_SW)
 873              		.loc 1 617 23
 874 0074 3B68     		ldr	r3, [r7]
 875 0076 1B68     		ldr	r3, [r3]
 876              		.loc 1 617 5
 877 0078 B3F1804F 		cmp	r3, #1073741824
 878 007c 05D1     		bne	.L53
 618:Drivers/STM32H7xx_HAL_Driver/Src/stm32h7xx_hal_mdma.c ****   {
 619:Drivers/STM32H7xx_HAL_Driver/Src/stm32h7xx_hal_mdma.c ****     pNode->CTCR |= MDMA_CTCR_SWRM;
 879              		.loc 1 619 17
 880 007e 7B68     		ldr	r3, [r7, #4]
 881 0080 1B68     		ldr	r3, [r3]
 882 0082 43F08042 		orr	r2, r3, #1073741824
 883 0086 7B68     		ldr	r3, [r7, #4]
 884 0088 1A60     		str	r2, [r3]
 885              	.L53:
 620:Drivers/STM32H7xx_HAL_Driver/Src/stm32h7xx_hal_mdma.c ****   }
 621:Drivers/STM32H7xx_HAL_Driver/Src/stm32h7xx_hal_mdma.c **** 
 622:Drivers/STM32H7xx_HAL_Driver/Src/stm32h7xx_hal_mdma.c ****   /*
 623:Drivers/STM32H7xx_HAL_Driver/Src/stm32h7xx_hal_mdma.c ****   -If the request is done by SW : BWM could be set to 1 or 0.
 624:Drivers/STM32H7xx_HAL_Driver/Src/stm32h7xx_hal_mdma.c ****   -If the request is done by a peripheral :
 625:Drivers/STM32H7xx_HAL_Driver/Src/stm32h7xx_hal_mdma.c ****      If mask address not set (0) => BWM must be set to 0
 626:Drivers/STM32H7xx_HAL_Driver/Src/stm32h7xx_hal_mdma.c ****      If mask address set (different than 0) => BWM could be set to 1 or 0
 627:Drivers/STM32H7xx_HAL_Driver/Src/stm32h7xx_hal_mdma.c ****   */
 628:Drivers/STM32H7xx_HAL_Driver/Src/stm32h7xx_hal_mdma.c ****   if((pNodeConfig->Init.Request == MDMA_REQUEST_SW) || (pNodeConfig->PostRequestMaskAddress != 0U))
 886              		.loc 1 628 24
 887 008a 3B68     		ldr	r3, [r7]
 888 008c 1B68     		ldr	r3, [r3]
 889              		.loc 1 628 5
 890 008e B3F1804F 		cmp	r3, #1073741824
 891 0092 03D0     		beq	.L54
 892              		.loc 1 628 68 discriminator 1
 893 0094 3B68     		ldr	r3, [r7]
 894 0096 9B6C     		ldr	r3, [r3, #72]
 895              		.loc 1 628 53 discriminator 1
 896 0098 002B     		cmp	r3, #0
 897 009a 05D0     		beq	.L55
 898              	.L54:
 629:Drivers/STM32H7xx_HAL_Driver/Src/stm32h7xx_hal_mdma.c ****   {
 630:Drivers/STM32H7xx_HAL_Driver/Src/stm32h7xx_hal_mdma.c ****     pNode->CTCR |=  MDMA_CTCR_BWM;
 899              		.loc 1 630 17
 900 009c 7B68     		ldr	r3, [r7, #4]
 901 009e 1B68     		ldr	r3, [r3]
 902 00a0 43F00042 		orr	r2, r3, #-2147483648
 903 00a4 7B68     		ldr	r3, [r7, #4]
 904 00a6 1A60     		str	r2, [r3]
 905              	.L55:
 631:Drivers/STM32H7xx_HAL_Driver/Src/stm32h7xx_hal_mdma.c ****   }
 632:Drivers/STM32H7xx_HAL_Driver/Src/stm32h7xx_hal_mdma.c **** 
 633:Drivers/STM32H7xx_HAL_Driver/Src/stm32h7xx_hal_mdma.c ****   /* Set the new CBNDTR Register value */
 634:Drivers/STM32H7xx_HAL_Driver/Src/stm32h7xx_hal_mdma.c ****   pNode->CBNDTR = ((pNodeConfig->BlockCount - 1U) << MDMA_CBNDTR_BRC_Pos) & MDMA_CBNDTR_BRC;
ARM GAS  C:\Users\Su\AppData\Local\Temp\ccdx3s9E.s 			page 28


 906              		.loc 1 634 32
 907 00a8 3B68     		ldr	r3, [r7]
 908 00aa 5B6C     		ldr	r3, [r3, #68]
 909              		.loc 1 634 45
 910 00ac 013B     		subs	r3, r3, #1
 911              		.loc 1 634 75
 912 00ae 1A05     		lsls	r2, r3, #20
 913              		.loc 1 634 17
 914 00b0 7B68     		ldr	r3, [r7, #4]
 915 00b2 5A60     		str	r2, [r3, #4]
 635:Drivers/STM32H7xx_HAL_Driver/Src/stm32h7xx_hal_mdma.c **** 
 636:Drivers/STM32H7xx_HAL_Driver/Src/stm32h7xx_hal_mdma.c ****   /* if block source address offset is negative set the Block Repeat Source address Update Mode to 
 637:Drivers/STM32H7xx_HAL_Driver/Src/stm32h7xx_hal_mdma.c ****   if(pNodeConfig->Init.SourceBlockAddressOffset < 0)
 916              		.loc 1 637 23
 917 00b4 3B68     		ldr	r3, [r7]
 918 00b6 1B6B     		ldr	r3, [r3, #48]
 919              		.loc 1 637 5
 920 00b8 002B     		cmp	r3, #0
 921 00ba 0EDA     		bge	.L56
 638:Drivers/STM32H7xx_HAL_Driver/Src/stm32h7xx_hal_mdma.c ****   {
 639:Drivers/STM32H7xx_HAL_Driver/Src/stm32h7xx_hal_mdma.c ****     pNode->CBNDTR |= MDMA_CBNDTR_BRSUM;
 922              		.loc 1 639 19
 923 00bc 7B68     		ldr	r3, [r7, #4]
 924 00be 5B68     		ldr	r3, [r3, #4]
 925 00c0 43F48022 		orr	r2, r3, #262144
 926 00c4 7B68     		ldr	r3, [r7, #4]
 927 00c6 5A60     		str	r2, [r3, #4]
 640:Drivers/STM32H7xx_HAL_Driver/Src/stm32h7xx_hal_mdma.c ****     /*write new CBRUR Register value : source repeat block offset */
 641:Drivers/STM32H7xx_HAL_Driver/Src/stm32h7xx_hal_mdma.c ****     blockoffset = (uint32_t)(- pNodeConfig->Init.SourceBlockAddressOffset);
 928              		.loc 1 641 49
 929 00c8 3B68     		ldr	r3, [r7]
 930 00ca 1B6B     		ldr	r3, [r3, #48]
 931              		.loc 1 641 30
 932 00cc 5B42     		rsbs	r3, r3, #0
 933              		.loc 1 641 17
 934 00ce FB60     		str	r3, [r7, #12]
 642:Drivers/STM32H7xx_HAL_Driver/Src/stm32h7xx_hal_mdma.c ****     pNode->CBRUR = blockoffset & 0x0000FFFFU;
 935              		.loc 1 642 32
 936 00d0 FB68     		ldr	r3, [r7, #12]
 937 00d2 9AB2     		uxth	r2, r3
 938              		.loc 1 642 18
 939 00d4 7B68     		ldr	r3, [r7, #4]
 940 00d6 1A61     		str	r2, [r3, #16]
 941 00d8 04E0     		b	.L57
 942              	.L56:
 643:Drivers/STM32H7xx_HAL_Driver/Src/stm32h7xx_hal_mdma.c ****   }
 644:Drivers/STM32H7xx_HAL_Driver/Src/stm32h7xx_hal_mdma.c ****   else
 645:Drivers/STM32H7xx_HAL_Driver/Src/stm32h7xx_hal_mdma.c ****   {
 646:Drivers/STM32H7xx_HAL_Driver/Src/stm32h7xx_hal_mdma.c ****     /*write new CBRUR Register value : source repeat block offset */
 647:Drivers/STM32H7xx_HAL_Driver/Src/stm32h7xx_hal_mdma.c ****     pNode->CBRUR = (((uint32_t) pNodeConfig->Init.SourceBlockAddressOffset) & 0x0000FFFFU);
 943              		.loc 1 647 50
 944 00da 3B68     		ldr	r3, [r7]
 945 00dc 1B6B     		ldr	r3, [r3, #48]
 946              		.loc 1 647 77
 947 00de 9AB2     		uxth	r2, r3
 948              		.loc 1 647 18
 949 00e0 7B68     		ldr	r3, [r7, #4]
ARM GAS  C:\Users\Su\AppData\Local\Temp\ccdx3s9E.s 			page 29


 950 00e2 1A61     		str	r2, [r3, #16]
 951              	.L57:
 648:Drivers/STM32H7xx_HAL_Driver/Src/stm32h7xx_hal_mdma.c ****   }
 649:Drivers/STM32H7xx_HAL_Driver/Src/stm32h7xx_hal_mdma.c **** 
 650:Drivers/STM32H7xx_HAL_Driver/Src/stm32h7xx_hal_mdma.c ****   /* if block destination address offset is negative set the Block Repeat destination address Updat
 651:Drivers/STM32H7xx_HAL_Driver/Src/stm32h7xx_hal_mdma.c ****   if(pNodeConfig->Init.DestBlockAddressOffset < 0)
 952              		.loc 1 651 23
 953 00e4 3B68     		ldr	r3, [r7]
 954 00e6 5B6B     		ldr	r3, [r3, #52]
 955              		.loc 1 651 5
 956 00e8 002B     		cmp	r3, #0
 957 00ea 11DA     		bge	.L58
 652:Drivers/STM32H7xx_HAL_Driver/Src/stm32h7xx_hal_mdma.c ****   {
 653:Drivers/STM32H7xx_HAL_Driver/Src/stm32h7xx_hal_mdma.c ****     pNode->CBNDTR |= MDMA_CBNDTR_BRDUM;
 958              		.loc 1 653 19
 959 00ec 7B68     		ldr	r3, [r7, #4]
 960 00ee 5B68     		ldr	r3, [r3, #4]
 961 00f0 43F40022 		orr	r2, r3, #524288
 962 00f4 7B68     		ldr	r3, [r7, #4]
 963 00f6 5A60     		str	r2, [r3, #4]
 654:Drivers/STM32H7xx_HAL_Driver/Src/stm32h7xx_hal_mdma.c ****     /*write new CBRUR Register value : destination repeat block offset */
 655:Drivers/STM32H7xx_HAL_Driver/Src/stm32h7xx_hal_mdma.c ****     blockoffset = (uint32_t)(- pNodeConfig->Init.DestBlockAddressOffset);
 964              		.loc 1 655 49
 965 00f8 3B68     		ldr	r3, [r7]
 966 00fa 5B6B     		ldr	r3, [r3, #52]
 967              		.loc 1 655 30
 968 00fc 5B42     		rsbs	r3, r3, #0
 969              		.loc 1 655 17
 970 00fe FB60     		str	r3, [r7, #12]
 656:Drivers/STM32H7xx_HAL_Driver/Src/stm32h7xx_hal_mdma.c ****     pNode->CBRUR |= ((blockoffset & 0x0000FFFFU) << MDMA_CBRUR_DUV_Pos);
 971              		.loc 1 656 18
 972 0100 7B68     		ldr	r3, [r7, #4]
 973 0102 1A69     		ldr	r2, [r3, #16]
 974              		.loc 1 656 50
 975 0104 FB68     		ldr	r3, [r7, #12]
 976 0106 1B04     		lsls	r3, r3, #16
 977              		.loc 1 656 18
 978 0108 1A43     		orrs	r2, r2, r3
 979 010a 7B68     		ldr	r3, [r7, #4]
 980 010c 1A61     		str	r2, [r3, #16]
 981 010e 07E0     		b	.L59
 982              	.L58:
 657:Drivers/STM32H7xx_HAL_Driver/Src/stm32h7xx_hal_mdma.c ****   }
 658:Drivers/STM32H7xx_HAL_Driver/Src/stm32h7xx_hal_mdma.c ****   else
 659:Drivers/STM32H7xx_HAL_Driver/Src/stm32h7xx_hal_mdma.c ****   {
 660:Drivers/STM32H7xx_HAL_Driver/Src/stm32h7xx_hal_mdma.c ****     /*write new CBRUR Register value : destination repeat block offset */
 661:Drivers/STM32H7xx_HAL_Driver/Src/stm32h7xx_hal_mdma.c ****     pNode->CBRUR |= ((((uint32_t)pNodeConfig->Init.DestBlockAddressOffset) & 0x0000FFFFU) << MDMA_C
 983              		.loc 1 661 18
 984 0110 7B68     		ldr	r3, [r7, #4]
 985 0112 1A69     		ldr	r2, [r3, #16]
 986              		.loc 1 661 51
 987 0114 3B68     		ldr	r3, [r7]
 988 0116 5B6B     		ldr	r3, [r3, #52]
 989              		.loc 1 661 91
 990 0118 1B04     		lsls	r3, r3, #16
 991              		.loc 1 661 18
 992 011a 1A43     		orrs	r2, r2, r3
ARM GAS  C:\Users\Su\AppData\Local\Temp\ccdx3s9E.s 			page 30


 993 011c 7B68     		ldr	r3, [r7, #4]
 994 011e 1A61     		str	r2, [r3, #16]
 995              	.L59:
 662:Drivers/STM32H7xx_HAL_Driver/Src/stm32h7xx_hal_mdma.c ****   }
 663:Drivers/STM32H7xx_HAL_Driver/Src/stm32h7xx_hal_mdma.c **** 
 664:Drivers/STM32H7xx_HAL_Driver/Src/stm32h7xx_hal_mdma.c ****   /* Configure MDMA Link Node data length */
 665:Drivers/STM32H7xx_HAL_Driver/Src/stm32h7xx_hal_mdma.c ****   pNode->CBNDTR |=  pNodeConfig->BlockDataLength;
 996              		.loc 1 665 17
 997 0120 7B68     		ldr	r3, [r7, #4]
 998 0122 5A68     		ldr	r2, [r3, #4]
 999              		.loc 1 665 32
 1000 0124 3B68     		ldr	r3, [r7]
 1001 0126 1B6C     		ldr	r3, [r3, #64]
 1002              		.loc 1 665 17
 1003 0128 1A43     		orrs	r2, r2, r3
 1004 012a 7B68     		ldr	r3, [r7, #4]
 1005 012c 5A60     		str	r2, [r3, #4]
 666:Drivers/STM32H7xx_HAL_Driver/Src/stm32h7xx_hal_mdma.c **** 
 667:Drivers/STM32H7xx_HAL_Driver/Src/stm32h7xx_hal_mdma.c ****   /* Configure MDMA Link Node destination address */
 668:Drivers/STM32H7xx_HAL_Driver/Src/stm32h7xx_hal_mdma.c ****   pNode->CDAR = pNodeConfig->DstAddress;
 1006              		.loc 1 668 28
 1007 012e 3B68     		ldr	r3, [r7]
 1008 0130 DA6B     		ldr	r2, [r3, #60]
 1009              		.loc 1 668 15
 1010 0132 7B68     		ldr	r3, [r7, #4]
 1011 0134 DA60     		str	r2, [r3, #12]
 669:Drivers/STM32H7xx_HAL_Driver/Src/stm32h7xx_hal_mdma.c **** 
 670:Drivers/STM32H7xx_HAL_Driver/Src/stm32h7xx_hal_mdma.c ****   /* Configure MDMA Link Node Source address */
 671:Drivers/STM32H7xx_HAL_Driver/Src/stm32h7xx_hal_mdma.c ****   pNode->CSAR = pNodeConfig->SrcAddress;
 1012              		.loc 1 671 28
 1013 0136 3B68     		ldr	r3, [r7]
 1014 0138 9A6B     		ldr	r2, [r3, #56]
 1015              		.loc 1 671 15
 1016 013a 7B68     		ldr	r3, [r7, #4]
 1017 013c 9A60     		str	r2, [r3, #8]
 672:Drivers/STM32H7xx_HAL_Driver/Src/stm32h7xx_hal_mdma.c **** 
 673:Drivers/STM32H7xx_HAL_Driver/Src/stm32h7xx_hal_mdma.c ****   /* if HW request set the HW request and the requet CleraMask and ClearData MaskData,  */
 674:Drivers/STM32H7xx_HAL_Driver/Src/stm32h7xx_hal_mdma.c ****   if(pNodeConfig->Init.Request != MDMA_REQUEST_SW)
 1018              		.loc 1 674 23
 1019 013e 3B68     		ldr	r3, [r7]
 1020 0140 1B68     		ldr	r3, [r3]
 1021              		.loc 1 674 5
 1022 0142 B3F1804F 		cmp	r3, #1073741824
 1023 0146 0CD0     		beq	.L60
 675:Drivers/STM32H7xx_HAL_Driver/Src/stm32h7xx_hal_mdma.c ****   {
 676:Drivers/STM32H7xx_HAL_Driver/Src/stm32h7xx_hal_mdma.c ****     /* Set the HW request in CTBR register  */
 677:Drivers/STM32H7xx_HAL_Driver/Src/stm32h7xx_hal_mdma.c ****     pNode->CTBR = pNodeConfig->Init.Request & MDMA_CTBR_TSEL;
 1024              		.loc 1 677 36
 1025 0148 3B68     		ldr	r3, [r7]
 1026 014a 1B68     		ldr	r3, [r3]
 1027              		.loc 1 677 45
 1028 014c DAB2     		uxtb	r2, r3
 1029              		.loc 1 677 17
 1030 014e 7B68     		ldr	r3, [r7, #4]
 1031 0150 9A61     		str	r2, [r3, #24]
 678:Drivers/STM32H7xx_HAL_Driver/Src/stm32h7xx_hal_mdma.c ****     /* Set the HW request clear Mask and Data */
 679:Drivers/STM32H7xx_HAL_Driver/Src/stm32h7xx_hal_mdma.c ****     pNode->CMAR = pNodeConfig->PostRequestMaskAddress;
ARM GAS  C:\Users\Su\AppData\Local\Temp\ccdx3s9E.s 			page 31


 1032              		.loc 1 679 30
 1033 0152 3B68     		ldr	r3, [r7]
 1034 0154 9A6C     		ldr	r2, [r3, #72]
 1035              		.loc 1 679 17
 1036 0156 7B68     		ldr	r3, [r7, #4]
 1037 0158 1A62     		str	r2, [r3, #32]
 680:Drivers/STM32H7xx_HAL_Driver/Src/stm32h7xx_hal_mdma.c ****     pNode->CMDR = pNodeConfig->PostRequestMaskData;
 1038              		.loc 1 680 30
 1039 015a 3B68     		ldr	r3, [r7]
 1040 015c DA6C     		ldr	r2, [r3, #76]
 1041              		.loc 1 680 17
 1042 015e 7B68     		ldr	r3, [r7, #4]
 1043 0160 5A62     		str	r2, [r3, #36]
 1044              	.L60:
 681:Drivers/STM32H7xx_HAL_Driver/Src/stm32h7xx_hal_mdma.c ****   }
 682:Drivers/STM32H7xx_HAL_Driver/Src/stm32h7xx_hal_mdma.c **** 
 683:Drivers/STM32H7xx_HAL_Driver/Src/stm32h7xx_hal_mdma.c ****   addressMask = pNodeConfig->SrcAddress & 0xFF000000U;
 1045              		.loc 1 683 28
 1046 0162 3B68     		ldr	r3, [r7]
 1047 0164 9B6B     		ldr	r3, [r3, #56]
 1048              		.loc 1 683 15
 1049 0166 03F07F43 		and	r3, r3, #-16777216
 1050 016a BB60     		str	r3, [r7, #8]
 684:Drivers/STM32H7xx_HAL_Driver/Src/stm32h7xx_hal_mdma.c ****   if((addressMask == 0x20000000U) || (addressMask == 0x00000000U))
 1051              		.loc 1 684 5
 1052 016c BB68     		ldr	r3, [r7, #8]
 1053 016e B3F1005F 		cmp	r3, #536870912
 1054 0172 02D0     		beq	.L61
 1055              		.loc 1 684 35 discriminator 1
 1056 0174 BB68     		ldr	r3, [r7, #8]
 1057 0176 002B     		cmp	r3, #0
 1058 0178 05D1     		bne	.L62
 1059              	.L61:
 685:Drivers/STM32H7xx_HAL_Driver/Src/stm32h7xx_hal_mdma.c ****   {
 686:Drivers/STM32H7xx_HAL_Driver/Src/stm32h7xx_hal_mdma.c ****     /*The AHBSbus is used as source (read operation) on channel x */
 687:Drivers/STM32H7xx_HAL_Driver/Src/stm32h7xx_hal_mdma.c ****     pNode->CTBR |= MDMA_CTBR_SBUS;
 1060              		.loc 1 687 17
 1061 017a 7B68     		ldr	r3, [r7, #4]
 1062 017c 9B69     		ldr	r3, [r3, #24]
 1063 017e 43F48032 		orr	r2, r3, #65536
 1064 0182 7B68     		ldr	r3, [r7, #4]
 1065 0184 9A61     		str	r2, [r3, #24]
 1066              	.L62:
 688:Drivers/STM32H7xx_HAL_Driver/Src/stm32h7xx_hal_mdma.c ****   }
 689:Drivers/STM32H7xx_HAL_Driver/Src/stm32h7xx_hal_mdma.c **** 
 690:Drivers/STM32H7xx_HAL_Driver/Src/stm32h7xx_hal_mdma.c ****   addressMask = pNodeConfig->DstAddress & 0xFF000000U;
 1067              		.loc 1 690 28
 1068 0186 3B68     		ldr	r3, [r7]
 1069 0188 DB6B     		ldr	r3, [r3, #60]
 1070              		.loc 1 690 15
 1071 018a 03F07F43 		and	r3, r3, #-16777216
 1072 018e BB60     		str	r3, [r7, #8]
 691:Drivers/STM32H7xx_HAL_Driver/Src/stm32h7xx_hal_mdma.c ****   if((addressMask == 0x20000000U) || (addressMask == 0x00000000U))
 1073              		.loc 1 691 5
 1074 0190 BB68     		ldr	r3, [r7, #8]
 1075 0192 B3F1005F 		cmp	r3, #536870912
 1076 0196 02D0     		beq	.L63
ARM GAS  C:\Users\Su\AppData\Local\Temp\ccdx3s9E.s 			page 32


 1077              		.loc 1 691 35 discriminator 1
 1078 0198 BB68     		ldr	r3, [r7, #8]
 1079 019a 002B     		cmp	r3, #0
 1080 019c 05D1     		bne	.L64
 1081              	.L63:
 692:Drivers/STM32H7xx_HAL_Driver/Src/stm32h7xx_hal_mdma.c ****   {
 693:Drivers/STM32H7xx_HAL_Driver/Src/stm32h7xx_hal_mdma.c ****     /*The AHB bus is used as destination (write operation) on channel x */
 694:Drivers/STM32H7xx_HAL_Driver/Src/stm32h7xx_hal_mdma.c ****     pNode->CTBR |= MDMA_CTBR_DBUS;
 1082              		.loc 1 694 17
 1083 019e 7B68     		ldr	r3, [r7, #4]
 1084 01a0 9B69     		ldr	r3, [r3, #24]
 1085 01a2 43F40032 		orr	r2, r3, #131072
 1086 01a6 7B68     		ldr	r3, [r7, #4]
 1087 01a8 9A61     		str	r2, [r3, #24]
 1088              	.L64:
 695:Drivers/STM32H7xx_HAL_Driver/Src/stm32h7xx_hal_mdma.c ****   }
 696:Drivers/STM32H7xx_HAL_Driver/Src/stm32h7xx_hal_mdma.c **** 
 697:Drivers/STM32H7xx_HAL_Driver/Src/stm32h7xx_hal_mdma.c ****   return HAL_OK;
 1089              		.loc 1 697 10
 1090 01aa 0023     		movs	r3, #0
 1091              	.L52:
 698:Drivers/STM32H7xx_HAL_Driver/Src/stm32h7xx_hal_mdma.c **** }
 1092              		.loc 1 698 1
 1093 01ac 1846     		mov	r0, r3
 1094 01ae 1437     		adds	r7, r7, #20
 1095              	.LCFI32:
 1096              		.cfi_def_cfa_offset 4
 1097 01b0 BD46     		mov	sp, r7
 1098              	.LCFI33:
 1099              		.cfi_def_cfa_register 13
 1100              		@ sp needed
 1101 01b2 5DF8047B 		ldr	r7, [sp], #4
 1102              	.LCFI34:
 1103              		.cfi_restore 7
 1104              		.cfi_def_cfa_offset 0
 1105 01b6 7047     		bx	lr
 1106              		.cfi_endproc
 1107              	.LFE149:
 1109              		.section	.text.HAL_MDMA_LinkedList_AddNode,"ax",%progbits
 1110              		.align	1
 1111              		.global	HAL_MDMA_LinkedList_AddNode
 1112              		.syntax unified
 1113              		.thumb
 1114              		.thumb_func
 1116              	HAL_MDMA_LinkedList_AddNode:
 1117              	.LFB150:
 699:Drivers/STM32H7xx_HAL_Driver/Src/stm32h7xx_hal_mdma.c **** 
 700:Drivers/STM32H7xx_HAL_Driver/Src/stm32h7xx_hal_mdma.c **** /**
 701:Drivers/STM32H7xx_HAL_Driver/Src/stm32h7xx_hal_mdma.c ****   * @brief  Connect a node to the linked list.
 702:Drivers/STM32H7xx_HAL_Driver/Src/stm32h7xx_hal_mdma.c ****   * @param  hmdma    : Pointer to a MDMA_HandleTypeDef structure that contains
 703:Drivers/STM32H7xx_HAL_Driver/Src/stm32h7xx_hal_mdma.c ****   *                    the configuration information for the specified MDMA Channel.
 704:Drivers/STM32H7xx_HAL_Driver/Src/stm32h7xx_hal_mdma.c ****   * @param  pNewNode : Pointer to a MDMA_LinkNodeTypeDef structure that contains Linked list node
 705:Drivers/STM32H7xx_HAL_Driver/Src/stm32h7xx_hal_mdma.c ****   *                    to be add to the list.
 706:Drivers/STM32H7xx_HAL_Driver/Src/stm32h7xx_hal_mdma.c ****   * @param pPrevNode : Pointer to the new node position in the linked list or zero to insert the ne
 707:Drivers/STM32H7xx_HAL_Driver/Src/stm32h7xx_hal_mdma.c ****   *                    at the end of the list
 708:Drivers/STM32H7xx_HAL_Driver/Src/stm32h7xx_hal_mdma.c ****   *
 709:Drivers/STM32H7xx_HAL_Driver/Src/stm32h7xx_hal_mdma.c ****   * @retval HAL status
ARM GAS  C:\Users\Su\AppData\Local\Temp\ccdx3s9E.s 			page 33


 710:Drivers/STM32H7xx_HAL_Driver/Src/stm32h7xx_hal_mdma.c ****   */
 711:Drivers/STM32H7xx_HAL_Driver/Src/stm32h7xx_hal_mdma.c **** HAL_StatusTypeDef HAL_MDMA_LinkedList_AddNode(MDMA_HandleTypeDef *hmdma, MDMA_LinkNodeTypeDef *pNew
 712:Drivers/STM32H7xx_HAL_Driver/Src/stm32h7xx_hal_mdma.c **** {
 1118              		.loc 1 712 1
 1119              		.cfi_startproc
 1120              		@ args = 0, pretend = 0, frame = 32
 1121              		@ frame_needed = 1, uses_anonymous_args = 0
 1122              		@ link register save eliminated.
 1123 0000 80B4     		push	{r7}
 1124              	.LCFI35:
 1125              		.cfi_def_cfa_offset 4
 1126              		.cfi_offset 7, -4
 1127 0002 89B0     		sub	sp, sp, #36
 1128              	.LCFI36:
 1129              		.cfi_def_cfa_offset 40
 1130 0004 00AF     		add	r7, sp, #0
 1131              	.LCFI37:
 1132              		.cfi_def_cfa_register 7
 1133 0006 F860     		str	r0, [r7, #12]
 1134 0008 B960     		str	r1, [r7, #8]
 1135 000a 7A60     		str	r2, [r7, #4]
 713:Drivers/STM32H7xx_HAL_Driver/Src/stm32h7xx_hal_mdma.c ****   MDMA_LinkNodeTypeDef *pNode;
 714:Drivers/STM32H7xx_HAL_Driver/Src/stm32h7xx_hal_mdma.c ****   uint32_t counter = 0, nodeInserted = 0;
 1136              		.loc 1 714 12
 1137 000c 0023     		movs	r3, #0
 1138 000e BB61     		str	r3, [r7, #24]
 1139              		.loc 1 714 25
 1140 0010 0023     		movs	r3, #0
 1141 0012 7B61     		str	r3, [r7, #20]
 715:Drivers/STM32H7xx_HAL_Driver/Src/stm32h7xx_hal_mdma.c ****   HAL_StatusTypeDef hal_status = HAL_OK;
 1142              		.loc 1 715 21
 1143 0014 0023     		movs	r3, #0
 1144 0016 FB74     		strb	r3, [r7, #19]
 716:Drivers/STM32H7xx_HAL_Driver/Src/stm32h7xx_hal_mdma.c **** 
 717:Drivers/STM32H7xx_HAL_Driver/Src/stm32h7xx_hal_mdma.c ****   /* Check the MDMA peripheral handle */
 718:Drivers/STM32H7xx_HAL_Driver/Src/stm32h7xx_hal_mdma.c ****   if((hmdma == NULL) || (pNewNode == NULL))
 1145              		.loc 1 718 5
 1146 0018 FB68     		ldr	r3, [r7, #12]
 1147 001a 002B     		cmp	r3, #0
 1148 001c 02D0     		beq	.L66
 1149              		.loc 1 718 22 discriminator 1
 1150 001e BB68     		ldr	r3, [r7, #8]
 1151 0020 002B     		cmp	r3, #0
 1152 0022 01D1     		bne	.L67
 1153              	.L66:
 719:Drivers/STM32H7xx_HAL_Driver/Src/stm32h7xx_hal_mdma.c ****   {
 720:Drivers/STM32H7xx_HAL_Driver/Src/stm32h7xx_hal_mdma.c ****     return HAL_ERROR;
 1154              		.loc 1 720 12
 1155 0024 0123     		movs	r3, #1
 1156 0026 A9E0     		b	.L68
 1157              	.L67:
 721:Drivers/STM32H7xx_HAL_Driver/Src/stm32h7xx_hal_mdma.c ****   }
 722:Drivers/STM32H7xx_HAL_Driver/Src/stm32h7xx_hal_mdma.c **** 
 723:Drivers/STM32H7xx_HAL_Driver/Src/stm32h7xx_hal_mdma.c ****   /* Process locked */
 724:Drivers/STM32H7xx_HAL_Driver/Src/stm32h7xx_hal_mdma.c ****   __HAL_LOCK(hmdma);
 1158              		.loc 1 724 3
 1159 0028 FB68     		ldr	r3, [r7, #12]
ARM GAS  C:\Users\Su\AppData\Local\Temp\ccdx3s9E.s 			page 34


 1160 002a 93F83C30 		ldrb	r3, [r3, #60]	@ zero_extendqisi2
 1161 002e 012B     		cmp	r3, #1
 1162 0030 01D1     		bne	.L69
 1163              		.loc 1 724 3 is_stmt 0 discriminator 1
 1164 0032 0223     		movs	r3, #2
 1165 0034 A2E0     		b	.L68
 1166              	.L69:
 1167              		.loc 1 724 3 discriminator 2
 1168 0036 FB68     		ldr	r3, [r7, #12]
 1169 0038 0122     		movs	r2, #1
 1170 003a 83F83C20 		strb	r2, [r3, #60]
 725:Drivers/STM32H7xx_HAL_Driver/Src/stm32h7xx_hal_mdma.c **** 
 726:Drivers/STM32H7xx_HAL_Driver/Src/stm32h7xx_hal_mdma.c ****   if(HAL_MDMA_STATE_READY == hmdma->State)
 1171              		.loc 1 726 35 is_stmt 1 discriminator 2
 1172 003e FB68     		ldr	r3, [r7, #12]
 1173 0040 93F83D30 		ldrb	r3, [r3, #61]
 1174 0044 DBB2     		uxtb	r3, r3
 1175              		.loc 1 726 5 discriminator 2
 1176 0046 012B     		cmp	r3, #1
 1177 0048 40F09380 		bne	.L70
 727:Drivers/STM32H7xx_HAL_Driver/Src/stm32h7xx_hal_mdma.c ****   {
 728:Drivers/STM32H7xx_HAL_Driver/Src/stm32h7xx_hal_mdma.c ****     /* Change MDMA peripheral state */
 729:Drivers/STM32H7xx_HAL_Driver/Src/stm32h7xx_hal_mdma.c ****     hmdma->State = HAL_MDMA_STATE_BUSY;
 1178              		.loc 1 729 18
 1179 004c FB68     		ldr	r3, [r7, #12]
 1180 004e 0222     		movs	r2, #2
 1181 0050 83F83D20 		strb	r2, [r3, #61]
 730:Drivers/STM32H7xx_HAL_Driver/Src/stm32h7xx_hal_mdma.c **** 
 731:Drivers/STM32H7xx_HAL_Driver/Src/stm32h7xx_hal_mdma.c ****     /* Check if this is the first node (after the Inititlization node) */
 732:Drivers/STM32H7xx_HAL_Driver/Src/stm32h7xx_hal_mdma.c ****     if((uint32_t)hmdma->FirstLinkedListNodeAddress == 0U)
 1182              		.loc 1 732 23
 1183 0054 FB68     		ldr	r3, [r7, #12]
 1184 0056 DB6D     		ldr	r3, [r3, #92]
 1185              		.loc 1 732 7
 1186 0058 002B     		cmp	r3, #0
 1187 005a 16D1     		bne	.L71
 733:Drivers/STM32H7xx_HAL_Driver/Src/stm32h7xx_hal_mdma.c ****     {
 734:Drivers/STM32H7xx_HAL_Driver/Src/stm32h7xx_hal_mdma.c ****       if(pPrevNode == NULL)
 1188              		.loc 1 734 9
 1189 005c 7B68     		ldr	r3, [r7, #4]
 1190 005e 002B     		cmp	r3, #0
 1191 0060 10D1     		bne	.L72
 735:Drivers/STM32H7xx_HAL_Driver/Src/stm32h7xx_hal_mdma.c ****       {
 736:Drivers/STM32H7xx_HAL_Driver/Src/stm32h7xx_hal_mdma.c ****         /* if this is the first node after the initialization
 737:Drivers/STM32H7xx_HAL_Driver/Src/stm32h7xx_hal_mdma.c ****         connect this node to the node 0 by updating
 738:Drivers/STM32H7xx_HAL_Driver/Src/stm32h7xx_hal_mdma.c ****         the MDMA channel CLAR register to this node address */
 739:Drivers/STM32H7xx_HAL_Driver/Src/stm32h7xx_hal_mdma.c ****         hmdma->Instance->CLAR = (uint32_t)pNewNode;
 1192              		.loc 1 739 14
 1193 0062 FB68     		ldr	r3, [r7, #12]
 1194 0064 1B68     		ldr	r3, [r3]
 1195              		.loc 1 739 33
 1196 0066 BA68     		ldr	r2, [r7, #8]
 1197              		.loc 1 739 31
 1198 0068 5A62     		str	r2, [r3, #36]
 740:Drivers/STM32H7xx_HAL_Driver/Src/stm32h7xx_hal_mdma.c ****         /* Set the MDMA handle First linked List node*/
 741:Drivers/STM32H7xx_HAL_Driver/Src/stm32h7xx_hal_mdma.c ****         hmdma->FirstLinkedListNodeAddress = pNewNode;
 1199              		.loc 1 741 43
ARM GAS  C:\Users\Su\AppData\Local\Temp\ccdx3s9E.s 			page 35


 1200 006a FB68     		ldr	r3, [r7, #12]
 1201 006c BA68     		ldr	r2, [r7, #8]
 1202 006e DA65     		str	r2, [r3, #92]
 742:Drivers/STM32H7xx_HAL_Driver/Src/stm32h7xx_hal_mdma.c **** 
 743:Drivers/STM32H7xx_HAL_Driver/Src/stm32h7xx_hal_mdma.c ****         /*reset New node link */
 744:Drivers/STM32H7xx_HAL_Driver/Src/stm32h7xx_hal_mdma.c ****         pNewNode->CLAR = 0;
 1203              		.loc 1 744 24
 1204 0070 BB68     		ldr	r3, [r7, #8]
 1205 0072 0022     		movs	r2, #0
 1206 0074 5A61     		str	r2, [r3, #20]
 745:Drivers/STM32H7xx_HAL_Driver/Src/stm32h7xx_hal_mdma.c **** 
 746:Drivers/STM32H7xx_HAL_Driver/Src/stm32h7xx_hal_mdma.c ****         /* Update the Handle last node address */
 747:Drivers/STM32H7xx_HAL_Driver/Src/stm32h7xx_hal_mdma.c ****         hmdma->LastLinkedListNodeAddress = pNewNode;
 1207              		.loc 1 747 42
 1208 0076 FB68     		ldr	r3, [r7, #12]
 1209 0078 BA68     		ldr	r2, [r7, #8]
 1210 007a 1A66     		str	r2, [r3, #96]
 748:Drivers/STM32H7xx_HAL_Driver/Src/stm32h7xx_hal_mdma.c **** 
 749:Drivers/STM32H7xx_HAL_Driver/Src/stm32h7xx_hal_mdma.c ****         hmdma->LinkedListNodeCounter = 1;
 1211              		.loc 1 749 38
 1212 007c FB68     		ldr	r3, [r7, #12]
 1213 007e 0122     		movs	r2, #1
 1214 0080 5A66     		str	r2, [r3, #100]
 1215 0082 6CE0     		b	.L73
 1216              	.L72:
 750:Drivers/STM32H7xx_HAL_Driver/Src/stm32h7xx_hal_mdma.c ****       }
 751:Drivers/STM32H7xx_HAL_Driver/Src/stm32h7xx_hal_mdma.c ****       else
 752:Drivers/STM32H7xx_HAL_Driver/Src/stm32h7xx_hal_mdma.c ****       {
 753:Drivers/STM32H7xx_HAL_Driver/Src/stm32h7xx_hal_mdma.c ****         hal_status = HAL_ERROR;
 1217              		.loc 1 753 20
 1218 0084 0123     		movs	r3, #1
 1219 0086 FB74     		strb	r3, [r7, #19]
 1220 0088 69E0     		b	.L73
 1221              	.L71:
 754:Drivers/STM32H7xx_HAL_Driver/Src/stm32h7xx_hal_mdma.c ****       }
 755:Drivers/STM32H7xx_HAL_Driver/Src/stm32h7xx_hal_mdma.c ****     }
 756:Drivers/STM32H7xx_HAL_Driver/Src/stm32h7xx_hal_mdma.c ****     else if(hmdma->FirstLinkedListNodeAddress != pNewNode)
 1222              		.loc 1 756 18
 1223 008a FB68     		ldr	r3, [r7, #12]
 1224 008c DB6D     		ldr	r3, [r3, #92]
 1225              		.loc 1 756 12
 1226 008e BA68     		ldr	r2, [r7, #8]
 1227 0090 9A42     		cmp	r2, r3
 1228 0092 62D0     		beq	.L74
 757:Drivers/STM32H7xx_HAL_Driver/Src/stm32h7xx_hal_mdma.c ****     {
 758:Drivers/STM32H7xx_HAL_Driver/Src/stm32h7xx_hal_mdma.c ****       /* Check if the node to insert already exists*/
 759:Drivers/STM32H7xx_HAL_Driver/Src/stm32h7xx_hal_mdma.c ****       pNode = hmdma->FirstLinkedListNodeAddress;
 1229              		.loc 1 759 13
 1230 0094 FB68     		ldr	r3, [r7, #12]
 1231 0096 DB6D     		ldr	r3, [r3, #92]
 1232 0098 FB61     		str	r3, [r7, #28]
 760:Drivers/STM32H7xx_HAL_Driver/Src/stm32h7xx_hal_mdma.c ****       while((counter < hmdma->LinkedListNodeCounter) && (hal_status == HAL_OK))
 1233              		.loc 1 760 12
 1234 009a 0CE0     		b	.L75
 1235              	.L78:
 761:Drivers/STM32H7xx_HAL_Driver/Src/stm32h7xx_hal_mdma.c ****       {
 762:Drivers/STM32H7xx_HAL_Driver/Src/stm32h7xx_hal_mdma.c ****         if(pNode->CLAR == (uint32_t)pNewNode)
ARM GAS  C:\Users\Su\AppData\Local\Temp\ccdx3s9E.s 			page 36


 1236              		.loc 1 762 17
 1237 009c FB69     		ldr	r3, [r7, #28]
 1238 009e 5A69     		ldr	r2, [r3, #20]
 1239              		.loc 1 762 24
 1240 00a0 BB68     		ldr	r3, [r7, #8]
 1241              		.loc 1 762 11
 1242 00a2 9A42     		cmp	r2, r3
 1243 00a4 01D1     		bne	.L76
 763:Drivers/STM32H7xx_HAL_Driver/Src/stm32h7xx_hal_mdma.c ****         {
 764:Drivers/STM32H7xx_HAL_Driver/Src/stm32h7xx_hal_mdma.c ****           hal_status = HAL_ERROR; /* error this node already exist in the linked list and it is not
 1244              		.loc 1 764 22
 1245 00a6 0123     		movs	r3, #1
 1246 00a8 FB74     		strb	r3, [r7, #19]
 1247              	.L76:
 765:Drivers/STM32H7xx_HAL_Driver/Src/stm32h7xx_hal_mdma.c ****         }
 766:Drivers/STM32H7xx_HAL_Driver/Src/stm32h7xx_hal_mdma.c ****         pNode = (MDMA_LinkNodeTypeDef *)pNode->CLAR;
 1248              		.loc 1 766 46
 1249 00aa FB69     		ldr	r3, [r7, #28]
 1250 00ac 5B69     		ldr	r3, [r3, #20]
 1251              		.loc 1 766 15
 1252 00ae FB61     		str	r3, [r7, #28]
 767:Drivers/STM32H7xx_HAL_Driver/Src/stm32h7xx_hal_mdma.c ****         counter++;
 1253              		.loc 1 767 16
 1254 00b0 BB69     		ldr	r3, [r7, #24]
 1255 00b2 0133     		adds	r3, r3, #1
 1256 00b4 BB61     		str	r3, [r7, #24]
 1257              	.L75:
 760:Drivers/STM32H7xx_HAL_Driver/Src/stm32h7xx_hal_mdma.c ****       {
 1258              		.loc 1 760 29
 1259 00b6 FB68     		ldr	r3, [r7, #12]
 1260 00b8 5B6E     		ldr	r3, [r3, #100]
 760:Drivers/STM32H7xx_HAL_Driver/Src/stm32h7xx_hal_mdma.c ****       {
 1261              		.loc 1 760 12
 1262 00ba BA69     		ldr	r2, [r7, #24]
 1263 00bc 9A42     		cmp	r2, r3
 1264 00be 02D2     		bcs	.L77
 760:Drivers/STM32H7xx_HAL_Driver/Src/stm32h7xx_hal_mdma.c ****       {
 1265              		.loc 1 760 54 discriminator 1
 1266 00c0 FB7C     		ldrb	r3, [r7, #19]	@ zero_extendqisi2
 1267 00c2 002B     		cmp	r3, #0
 1268 00c4 EAD0     		beq	.L78
 1269              	.L77:
 768:Drivers/STM32H7xx_HAL_Driver/Src/stm32h7xx_hal_mdma.c ****       }
 769:Drivers/STM32H7xx_HAL_Driver/Src/stm32h7xx_hal_mdma.c **** 
 770:Drivers/STM32H7xx_HAL_Driver/Src/stm32h7xx_hal_mdma.c ****       if(hal_status == HAL_OK)
 1270              		.loc 1 770 9
 1271 00c6 FB7C     		ldrb	r3, [r7, #19]	@ zero_extendqisi2
 1272 00c8 002B     		cmp	r3, #0
 1273 00ca 48D1     		bne	.L73
 771:Drivers/STM32H7xx_HAL_Driver/Src/stm32h7xx_hal_mdma.c ****       {
 772:Drivers/STM32H7xx_HAL_Driver/Src/stm32h7xx_hal_mdma.c ****         /* Check if the previous node is the last one in the current list or zero */
 773:Drivers/STM32H7xx_HAL_Driver/Src/stm32h7xx_hal_mdma.c ****         if((pPrevNode == hmdma->LastLinkedListNodeAddress) || (pPrevNode == NULL))
 1274              		.loc 1 773 31
 1275 00cc FB68     		ldr	r3, [r7, #12]
 1276 00ce 1B6E     		ldr	r3, [r3, #96]
 1277              		.loc 1 773 11
 1278 00d0 7A68     		ldr	r2, [r7, #4]
ARM GAS  C:\Users\Su\AppData\Local\Temp\ccdx3s9E.s 			page 37


 1279 00d2 9A42     		cmp	r2, r3
 1280 00d4 02D0     		beq	.L80
 1281              		.loc 1 773 60 discriminator 1
 1282 00d6 7B68     		ldr	r3, [r7, #4]
 1283 00d8 002B     		cmp	r3, #0
 1284 00da 11D1     		bne	.L81
 1285              	.L80:
 774:Drivers/STM32H7xx_HAL_Driver/Src/stm32h7xx_hal_mdma.c ****         {
 775:Drivers/STM32H7xx_HAL_Driver/Src/stm32h7xx_hal_mdma.c ****           /* insert the new node at the end of the list */
 776:Drivers/STM32H7xx_HAL_Driver/Src/stm32h7xx_hal_mdma.c ****           pNewNode->CLAR = hmdma->LastLinkedListNodeAddress->CLAR;
 1286              		.loc 1 776 33
 1287 00dc FB68     		ldr	r3, [r7, #12]
 1288 00de 1B6E     		ldr	r3, [r3, #96]
 1289              		.loc 1 776 60
 1290 00e0 5A69     		ldr	r2, [r3, #20]
 1291              		.loc 1 776 26
 1292 00e2 BB68     		ldr	r3, [r7, #8]
 1293 00e4 5A61     		str	r2, [r3, #20]
 777:Drivers/STM32H7xx_HAL_Driver/Src/stm32h7xx_hal_mdma.c ****           hmdma->LastLinkedListNodeAddress->CLAR = (uint32_t)pNewNode;
 1294              		.loc 1 777 16
 1295 00e6 FB68     		ldr	r3, [r7, #12]
 1296 00e8 1B6E     		ldr	r3, [r3, #96]
 1297              		.loc 1 777 52
 1298 00ea BA68     		ldr	r2, [r7, #8]
 1299              		.loc 1 777 50
 1300 00ec 5A61     		str	r2, [r3, #20]
 778:Drivers/STM32H7xx_HAL_Driver/Src/stm32h7xx_hal_mdma.c ****           /* Update the Handle last node address */
 779:Drivers/STM32H7xx_HAL_Driver/Src/stm32h7xx_hal_mdma.c ****           hmdma->LastLinkedListNodeAddress = pNewNode;
 1301              		.loc 1 779 44
 1302 00ee FB68     		ldr	r3, [r7, #12]
 1303 00f0 BA68     		ldr	r2, [r7, #8]
 1304 00f2 1A66     		str	r2, [r3, #96]
 780:Drivers/STM32H7xx_HAL_Driver/Src/stm32h7xx_hal_mdma.c ****           /* Increment the linked list node counter */
 781:Drivers/STM32H7xx_HAL_Driver/Src/stm32h7xx_hal_mdma.c ****           hmdma->LinkedListNodeCounter++;
 1305              		.loc 1 781 16
 1306 00f4 FB68     		ldr	r3, [r7, #12]
 1307 00f6 5B6E     		ldr	r3, [r3, #100]
 1308              		.loc 1 781 39
 1309 00f8 5A1C     		adds	r2, r3, #1
 1310 00fa FB68     		ldr	r3, [r7, #12]
 1311 00fc 5A66     		str	r2, [r3, #100]
 1312 00fe 2EE0     		b	.L73
 1313              	.L81:
 782:Drivers/STM32H7xx_HAL_Driver/Src/stm32h7xx_hal_mdma.c ****         }
 783:Drivers/STM32H7xx_HAL_Driver/Src/stm32h7xx_hal_mdma.c ****         else
 784:Drivers/STM32H7xx_HAL_Driver/Src/stm32h7xx_hal_mdma.c ****         {
 785:Drivers/STM32H7xx_HAL_Driver/Src/stm32h7xx_hal_mdma.c ****           /*insert the new node after the pPreviousNode node */
 786:Drivers/STM32H7xx_HAL_Driver/Src/stm32h7xx_hal_mdma.c ****           pNode = hmdma->FirstLinkedListNodeAddress;
 1314              		.loc 1 786 17
 1315 0100 FB68     		ldr	r3, [r7, #12]
 1316 0102 DB6D     		ldr	r3, [r3, #92]
 1317 0104 FB61     		str	r3, [r7, #28]
 787:Drivers/STM32H7xx_HAL_Driver/Src/stm32h7xx_hal_mdma.c ****           counter = 0;
 1318              		.loc 1 787 19
 1319 0106 0023     		movs	r3, #0
 1320 0108 BB61     		str	r3, [r7, #24]
 788:Drivers/STM32H7xx_HAL_Driver/Src/stm32h7xx_hal_mdma.c ****           while((counter < hmdma->LinkedListNodeCounter) && (nodeInserted == 0U))
ARM GAS  C:\Users\Su\AppData\Local\Temp\ccdx3s9E.s 			page 38


 1321              		.loc 1 788 16
 1322 010a 18E0     		b	.L82
 1323              	.L85:
 789:Drivers/STM32H7xx_HAL_Driver/Src/stm32h7xx_hal_mdma.c ****           {
 790:Drivers/STM32H7xx_HAL_Driver/Src/stm32h7xx_hal_mdma.c ****             counter++;
 1324              		.loc 1 790 20
 1325 010c BB69     		ldr	r3, [r7, #24]
 1326 010e 0133     		adds	r3, r3, #1
 1327 0110 BB61     		str	r3, [r7, #24]
 791:Drivers/STM32H7xx_HAL_Driver/Src/stm32h7xx_hal_mdma.c ****             if(pNode == pPrevNode)
 1328              		.loc 1 791 15
 1329 0112 FA69     		ldr	r2, [r7, #28]
 1330 0114 7B68     		ldr	r3, [r7, #4]
 1331 0116 9A42     		cmp	r2, r3
 1332 0118 0ED1     		bne	.L83
 792:Drivers/STM32H7xx_HAL_Driver/Src/stm32h7xx_hal_mdma.c ****             {
 793:Drivers/STM32H7xx_HAL_Driver/Src/stm32h7xx_hal_mdma.c ****               /*Insert the new node after the previous one */
 794:Drivers/STM32H7xx_HAL_Driver/Src/stm32h7xx_hal_mdma.c ****               pNewNode->CLAR = pNode->CLAR;
 1333              		.loc 1 794 37
 1334 011a FB69     		ldr	r3, [r7, #28]
 1335 011c 5A69     		ldr	r2, [r3, #20]
 1336              		.loc 1 794 30
 1337 011e BB68     		ldr	r3, [r7, #8]
 1338 0120 5A61     		str	r2, [r3, #20]
 795:Drivers/STM32H7xx_HAL_Driver/Src/stm32h7xx_hal_mdma.c ****               pNode->CLAR = (uint32_t)pNewNode;
 1339              		.loc 1 795 29
 1340 0122 BA68     		ldr	r2, [r7, #8]
 1341              		.loc 1 795 27
 1342 0124 FB69     		ldr	r3, [r7, #28]
 1343 0126 5A61     		str	r2, [r3, #20]
 796:Drivers/STM32H7xx_HAL_Driver/Src/stm32h7xx_hal_mdma.c ****               /* Increment the linked list node counter */
 797:Drivers/STM32H7xx_HAL_Driver/Src/stm32h7xx_hal_mdma.c ****               hmdma->LinkedListNodeCounter++;
 1344              		.loc 1 797 20
 1345 0128 FB68     		ldr	r3, [r7, #12]
 1346 012a 5B6E     		ldr	r3, [r3, #100]
 1347              		.loc 1 797 43
 1348 012c 5A1C     		adds	r2, r3, #1
 1349 012e FB68     		ldr	r3, [r7, #12]
 1350 0130 5A66     		str	r2, [r3, #100]
 798:Drivers/STM32H7xx_HAL_Driver/Src/stm32h7xx_hal_mdma.c ****               nodeInserted = 1;
 1351              		.loc 1 798 28
 1352 0132 0123     		movs	r3, #1
 1353 0134 7B61     		str	r3, [r7, #20]
 1354 0136 02E0     		b	.L82
 1355              	.L83:
 799:Drivers/STM32H7xx_HAL_Driver/Src/stm32h7xx_hal_mdma.c ****             }
 800:Drivers/STM32H7xx_HAL_Driver/Src/stm32h7xx_hal_mdma.c ****             else
 801:Drivers/STM32H7xx_HAL_Driver/Src/stm32h7xx_hal_mdma.c ****             {
 802:Drivers/STM32H7xx_HAL_Driver/Src/stm32h7xx_hal_mdma.c ****               pNode = (MDMA_LinkNodeTypeDef *)pNode->CLAR;
 1356              		.loc 1 802 52
 1357 0138 FB69     		ldr	r3, [r7, #28]
 1358 013a 5B69     		ldr	r3, [r3, #20]
 1359              		.loc 1 802 21
 1360 013c FB61     		str	r3, [r7, #28]
 1361              	.L82:
 788:Drivers/STM32H7xx_HAL_Driver/Src/stm32h7xx_hal_mdma.c ****           {
 1362              		.loc 1 788 33
ARM GAS  C:\Users\Su\AppData\Local\Temp\ccdx3s9E.s 			page 39


 1363 013e FB68     		ldr	r3, [r7, #12]
 1364 0140 5B6E     		ldr	r3, [r3, #100]
 788:Drivers/STM32H7xx_HAL_Driver/Src/stm32h7xx_hal_mdma.c ****           {
 1365              		.loc 1 788 16
 1366 0142 BA69     		ldr	r2, [r7, #24]
 1367 0144 9A42     		cmp	r2, r3
 1368 0146 02D2     		bcs	.L84
 788:Drivers/STM32H7xx_HAL_Driver/Src/stm32h7xx_hal_mdma.c ****           {
 1369              		.loc 1 788 58 discriminator 1
 1370 0148 7B69     		ldr	r3, [r7, #20]
 1371 014a 002B     		cmp	r3, #0
 1372 014c DED0     		beq	.L85
 1373              	.L84:
 803:Drivers/STM32H7xx_HAL_Driver/Src/stm32h7xx_hal_mdma.c ****             }
 804:Drivers/STM32H7xx_HAL_Driver/Src/stm32h7xx_hal_mdma.c ****           }
 805:Drivers/STM32H7xx_HAL_Driver/Src/stm32h7xx_hal_mdma.c **** 
 806:Drivers/STM32H7xx_HAL_Driver/Src/stm32h7xx_hal_mdma.c ****           if(nodeInserted == 0U)
 1374              		.loc 1 806 13
 1375 014e 7B69     		ldr	r3, [r7, #20]
 1376 0150 002B     		cmp	r3, #0
 1377 0152 04D1     		bne	.L73
 807:Drivers/STM32H7xx_HAL_Driver/Src/stm32h7xx_hal_mdma.c ****           {
 808:Drivers/STM32H7xx_HAL_Driver/Src/stm32h7xx_hal_mdma.c ****             hal_status = HAL_ERROR;
 1378              		.loc 1 808 24
 1379 0154 0123     		movs	r3, #1
 1380 0156 FB74     		strb	r3, [r7, #19]
 1381 0158 01E0     		b	.L73
 1382              	.L74:
 809:Drivers/STM32H7xx_HAL_Driver/Src/stm32h7xx_hal_mdma.c ****           }
 810:Drivers/STM32H7xx_HAL_Driver/Src/stm32h7xx_hal_mdma.c ****         }
 811:Drivers/STM32H7xx_HAL_Driver/Src/stm32h7xx_hal_mdma.c ****       }
 812:Drivers/STM32H7xx_HAL_Driver/Src/stm32h7xx_hal_mdma.c ****     }
 813:Drivers/STM32H7xx_HAL_Driver/Src/stm32h7xx_hal_mdma.c ****     else
 814:Drivers/STM32H7xx_HAL_Driver/Src/stm32h7xx_hal_mdma.c ****     {
 815:Drivers/STM32H7xx_HAL_Driver/Src/stm32h7xx_hal_mdma.c ****       hal_status = HAL_ERROR;
 1383              		.loc 1 815 18
 1384 015a 0123     		movs	r3, #1
 1385 015c FB74     		strb	r3, [r7, #19]
 1386              	.L73:
 816:Drivers/STM32H7xx_HAL_Driver/Src/stm32h7xx_hal_mdma.c ****     }
 817:Drivers/STM32H7xx_HAL_Driver/Src/stm32h7xx_hal_mdma.c **** 
 818:Drivers/STM32H7xx_HAL_Driver/Src/stm32h7xx_hal_mdma.c ****     /* Process unlocked */
 819:Drivers/STM32H7xx_HAL_Driver/Src/stm32h7xx_hal_mdma.c ****     __HAL_UNLOCK(hmdma);
 1387              		.loc 1 819 5
 1388 015e FB68     		ldr	r3, [r7, #12]
 1389 0160 0022     		movs	r2, #0
 1390 0162 83F83C20 		strb	r2, [r3, #60]
 820:Drivers/STM32H7xx_HAL_Driver/Src/stm32h7xx_hal_mdma.c **** 
 821:Drivers/STM32H7xx_HAL_Driver/Src/stm32h7xx_hal_mdma.c ****     hmdma->State = HAL_MDMA_STATE_READY;
 1391              		.loc 1 821 18
 1392 0166 FB68     		ldr	r3, [r7, #12]
 1393 0168 0122     		movs	r2, #1
 1394 016a 83F83D20 		strb	r2, [r3, #61]
 822:Drivers/STM32H7xx_HAL_Driver/Src/stm32h7xx_hal_mdma.c **** 
 823:Drivers/STM32H7xx_HAL_Driver/Src/stm32h7xx_hal_mdma.c ****     return hal_status;
 1395              		.loc 1 823 12
 1396 016e FB7C     		ldrb	r3, [r7, #19]	@ zero_extendqisi2
ARM GAS  C:\Users\Su\AppData\Local\Temp\ccdx3s9E.s 			page 40


 1397 0170 04E0     		b	.L68
 1398              	.L70:
 824:Drivers/STM32H7xx_HAL_Driver/Src/stm32h7xx_hal_mdma.c ****   }
 825:Drivers/STM32H7xx_HAL_Driver/Src/stm32h7xx_hal_mdma.c ****   else
 826:Drivers/STM32H7xx_HAL_Driver/Src/stm32h7xx_hal_mdma.c ****   {
 827:Drivers/STM32H7xx_HAL_Driver/Src/stm32h7xx_hal_mdma.c ****     /* Process unlocked */
 828:Drivers/STM32H7xx_HAL_Driver/Src/stm32h7xx_hal_mdma.c ****     __HAL_UNLOCK(hmdma);
 1399              		.loc 1 828 5
 1400 0172 FB68     		ldr	r3, [r7, #12]
 1401 0174 0022     		movs	r2, #0
 1402 0176 83F83C20 		strb	r2, [r3, #60]
 829:Drivers/STM32H7xx_HAL_Driver/Src/stm32h7xx_hal_mdma.c **** 
 830:Drivers/STM32H7xx_HAL_Driver/Src/stm32h7xx_hal_mdma.c ****     /* Return error status */
 831:Drivers/STM32H7xx_HAL_Driver/Src/stm32h7xx_hal_mdma.c ****     return HAL_BUSY;
 1403              		.loc 1 831 12
 1404 017a 0223     		movs	r3, #2
 1405              	.L68:
 832:Drivers/STM32H7xx_HAL_Driver/Src/stm32h7xx_hal_mdma.c ****   }
 833:Drivers/STM32H7xx_HAL_Driver/Src/stm32h7xx_hal_mdma.c **** }
 1406              		.loc 1 833 1
 1407 017c 1846     		mov	r0, r3
 1408 017e 2437     		adds	r7, r7, #36
 1409              	.LCFI38:
 1410              		.cfi_def_cfa_offset 4
 1411 0180 BD46     		mov	sp, r7
 1412              	.LCFI39:
 1413              		.cfi_def_cfa_register 13
 1414              		@ sp needed
 1415 0182 5DF8047B 		ldr	r7, [sp], #4
 1416              	.LCFI40:
 1417              		.cfi_restore 7
 1418              		.cfi_def_cfa_offset 0
 1419 0186 7047     		bx	lr
 1420              		.cfi_endproc
 1421              	.LFE150:
 1423              		.section	.text.HAL_MDMA_LinkedList_RemoveNode,"ax",%progbits
 1424              		.align	1
 1425              		.global	HAL_MDMA_LinkedList_RemoveNode
 1426              		.syntax unified
 1427              		.thumb
 1428              		.thumb_func
 1430              	HAL_MDMA_LinkedList_RemoveNode:
 1431              	.LFB151:
 834:Drivers/STM32H7xx_HAL_Driver/Src/stm32h7xx_hal_mdma.c **** 
 835:Drivers/STM32H7xx_HAL_Driver/Src/stm32h7xx_hal_mdma.c **** /**
 836:Drivers/STM32H7xx_HAL_Driver/Src/stm32h7xx_hal_mdma.c ****   * @brief  Disconnect/Remove a node from the transfer linked list.
 837:Drivers/STM32H7xx_HAL_Driver/Src/stm32h7xx_hal_mdma.c ****   * @param  hmdma : Pointer to a MDMA_HandleTypeDef structure that contains
 838:Drivers/STM32H7xx_HAL_Driver/Src/stm32h7xx_hal_mdma.c ****   *                 the configuration information for the specified MDMA Channel.
 839:Drivers/STM32H7xx_HAL_Driver/Src/stm32h7xx_hal_mdma.c ****   * @param  pNode : Pointer to a MDMA_LinkNodeTypeDef structure that contains Linked list node
 840:Drivers/STM32H7xx_HAL_Driver/Src/stm32h7xx_hal_mdma.c ****   *                 to be removed from the list.
 841:Drivers/STM32H7xx_HAL_Driver/Src/stm32h7xx_hal_mdma.c ****   *
 842:Drivers/STM32H7xx_HAL_Driver/Src/stm32h7xx_hal_mdma.c ****   * @retval HAL status
 843:Drivers/STM32H7xx_HAL_Driver/Src/stm32h7xx_hal_mdma.c ****   */
 844:Drivers/STM32H7xx_HAL_Driver/Src/stm32h7xx_hal_mdma.c **** HAL_StatusTypeDef HAL_MDMA_LinkedList_RemoveNode(MDMA_HandleTypeDef *hmdma, MDMA_LinkNodeTypeDef *p
 845:Drivers/STM32H7xx_HAL_Driver/Src/stm32h7xx_hal_mdma.c **** {
 1432              		.loc 1 845 1
 1433              		.cfi_startproc
ARM GAS  C:\Users\Su\AppData\Local\Temp\ccdx3s9E.s 			page 41


 1434              		@ args = 0, pretend = 0, frame = 24
 1435              		@ frame_needed = 1, uses_anonymous_args = 0
 1436              		@ link register save eliminated.
 1437 0000 80B4     		push	{r7}
 1438              	.LCFI41:
 1439              		.cfi_def_cfa_offset 4
 1440              		.cfi_offset 7, -4
 1441 0002 87B0     		sub	sp, sp, #28
 1442              	.LCFI42:
 1443              		.cfi_def_cfa_offset 32
 1444 0004 00AF     		add	r7, sp, #0
 1445              	.LCFI43:
 1446              		.cfi_def_cfa_register 7
 1447 0006 7860     		str	r0, [r7, #4]
 1448 0008 3960     		str	r1, [r7]
 846:Drivers/STM32H7xx_HAL_Driver/Src/stm32h7xx_hal_mdma.c ****   MDMA_LinkNodeTypeDef *ptmpNode;
 847:Drivers/STM32H7xx_HAL_Driver/Src/stm32h7xx_hal_mdma.c ****   uint32_t counter = 0, nodeDeleted = 0;
 1449              		.loc 1 847 12
 1450 000a 0023     		movs	r3, #0
 1451 000c 3B61     		str	r3, [r7, #16]
 1452              		.loc 1 847 25
 1453 000e 0023     		movs	r3, #0
 1454 0010 FB60     		str	r3, [r7, #12]
 848:Drivers/STM32H7xx_HAL_Driver/Src/stm32h7xx_hal_mdma.c ****   HAL_StatusTypeDef hal_status = HAL_OK;
 1455              		.loc 1 848 21
 1456 0012 0023     		movs	r3, #0
 1457 0014 FB72     		strb	r3, [r7, #11]
 849:Drivers/STM32H7xx_HAL_Driver/Src/stm32h7xx_hal_mdma.c **** 
 850:Drivers/STM32H7xx_HAL_Driver/Src/stm32h7xx_hal_mdma.c ****   /* Check the MDMA peripheral handle */
 851:Drivers/STM32H7xx_HAL_Driver/Src/stm32h7xx_hal_mdma.c ****   if((hmdma == NULL) || (pNode == NULL))
 1458              		.loc 1 851 5
 1459 0016 7B68     		ldr	r3, [r7, #4]
 1460 0018 002B     		cmp	r3, #0
 1461 001a 02D0     		beq	.L87
 1462              		.loc 1 851 22 discriminator 1
 1463 001c 3B68     		ldr	r3, [r7]
 1464 001e 002B     		cmp	r3, #0
 1465 0020 01D1     		bne	.L88
 1466              	.L87:
 852:Drivers/STM32H7xx_HAL_Driver/Src/stm32h7xx_hal_mdma.c ****   {
 853:Drivers/STM32H7xx_HAL_Driver/Src/stm32h7xx_hal_mdma.c ****     return HAL_ERROR;
 1467              		.loc 1 853 12
 1468 0022 0123     		movs	r3, #1
 1469 0024 99E0     		b	.L89
 1470              	.L88:
 854:Drivers/STM32H7xx_HAL_Driver/Src/stm32h7xx_hal_mdma.c ****   }
 855:Drivers/STM32H7xx_HAL_Driver/Src/stm32h7xx_hal_mdma.c **** 
 856:Drivers/STM32H7xx_HAL_Driver/Src/stm32h7xx_hal_mdma.c ****   /* Process locked */
 857:Drivers/STM32H7xx_HAL_Driver/Src/stm32h7xx_hal_mdma.c ****   __HAL_LOCK(hmdma);
 1471              		.loc 1 857 3
 1472 0026 7B68     		ldr	r3, [r7, #4]
 1473 0028 93F83C30 		ldrb	r3, [r3, #60]	@ zero_extendqisi2
 1474 002c 012B     		cmp	r3, #1
 1475 002e 01D1     		bne	.L90
 1476              		.loc 1 857 3 is_stmt 0 discriminator 1
 1477 0030 0223     		movs	r3, #2
 1478 0032 92E0     		b	.L89
ARM GAS  C:\Users\Su\AppData\Local\Temp\ccdx3s9E.s 			page 42


 1479              	.L90:
 1480              		.loc 1 857 3 discriminator 2
 1481 0034 7B68     		ldr	r3, [r7, #4]
 1482 0036 0122     		movs	r2, #1
 1483 0038 83F83C20 		strb	r2, [r3, #60]
 858:Drivers/STM32H7xx_HAL_Driver/Src/stm32h7xx_hal_mdma.c **** 
 859:Drivers/STM32H7xx_HAL_Driver/Src/stm32h7xx_hal_mdma.c ****   if(HAL_MDMA_STATE_READY == hmdma->State)
 1484              		.loc 1 859 35 is_stmt 1 discriminator 2
 1485 003c 7B68     		ldr	r3, [r7, #4]
 1486 003e 93F83D30 		ldrb	r3, [r3, #61]
 1487 0042 DBB2     		uxtb	r3, r3
 1488              		.loc 1 859 5 discriminator 2
 1489 0044 012B     		cmp	r3, #1
 1490 0046 40F08380 		bne	.L91
 860:Drivers/STM32H7xx_HAL_Driver/Src/stm32h7xx_hal_mdma.c ****   {
 861:Drivers/STM32H7xx_HAL_Driver/Src/stm32h7xx_hal_mdma.c ****     /* Change MDMA peripheral state */
 862:Drivers/STM32H7xx_HAL_Driver/Src/stm32h7xx_hal_mdma.c ****     hmdma->State = HAL_MDMA_STATE_BUSY;
 1491              		.loc 1 862 18
 1492 004a 7B68     		ldr	r3, [r7, #4]
 1493 004c 0222     		movs	r2, #2
 1494 004e 83F83D20 		strb	r2, [r3, #61]
 863:Drivers/STM32H7xx_HAL_Driver/Src/stm32h7xx_hal_mdma.c **** 
 864:Drivers/STM32H7xx_HAL_Driver/Src/stm32h7xx_hal_mdma.c ****     /* If first and last node are null (no nodes in the list) : return error*/
 865:Drivers/STM32H7xx_HAL_Driver/Src/stm32h7xx_hal_mdma.c ****     if(((uint32_t)hmdma->FirstLinkedListNodeAddress == 0U) || ((uint32_t)hmdma->LastLinkedListNodeA
 1495              		.loc 1 865 24
 1496 0052 7B68     		ldr	r3, [r7, #4]
 1497 0054 DB6D     		ldr	r3, [r3, #92]
 1498              		.loc 1 865 7
 1499 0056 002B     		cmp	r3, #0
 1500 0058 07D0     		beq	.L92
 1501              		.loc 1 865 79 discriminator 1
 1502 005a 7B68     		ldr	r3, [r7, #4]
 1503 005c 1B6E     		ldr	r3, [r3, #96]
 1504              		.loc 1 865 60 discriminator 1
 1505 005e 002B     		cmp	r3, #0
 1506 0060 03D0     		beq	.L92
 1507              		.loc 1 865 123 discriminator 2
 1508 0062 7B68     		ldr	r3, [r7, #4]
 1509 0064 5B6E     		ldr	r3, [r3, #100]
 1510              		.loc 1 865 114 discriminator 2
 1511 0066 002B     		cmp	r3, #0
 1512 0068 02D1     		bne	.L93
 1513              	.L92:
 866:Drivers/STM32H7xx_HAL_Driver/Src/stm32h7xx_hal_mdma.c ****     {
 867:Drivers/STM32H7xx_HAL_Driver/Src/stm32h7xx_hal_mdma.c ****       hal_status = HAL_ERROR;
 1514              		.loc 1 867 18
 1515 006a 0123     		movs	r3, #1
 1516 006c FB72     		strb	r3, [r7, #11]
 1517 006e 65E0     		b	.L94
 1518              	.L93:
 868:Drivers/STM32H7xx_HAL_Driver/Src/stm32h7xx_hal_mdma.c ****     }
 869:Drivers/STM32H7xx_HAL_Driver/Src/stm32h7xx_hal_mdma.c ****     else if(hmdma->FirstLinkedListNodeAddress == pNode) /* Deleting first node */
 1519              		.loc 1 869 18
 1520 0070 7B68     		ldr	r3, [r7, #4]
 1521 0072 DB6D     		ldr	r3, [r3, #92]
 1522              		.loc 1 869 12
 1523 0074 3A68     		ldr	r2, [r7]
ARM GAS  C:\Users\Su\AppData\Local\Temp\ccdx3s9E.s 			page 43


 1524 0076 9A42     		cmp	r2, r3
 1525 0078 30D1     		bne	.L95
 870:Drivers/STM32H7xx_HAL_Driver/Src/stm32h7xx_hal_mdma.c ****     {
 871:Drivers/STM32H7xx_HAL_Driver/Src/stm32h7xx_hal_mdma.c ****       /* Delete 1st node */
 872:Drivers/STM32H7xx_HAL_Driver/Src/stm32h7xx_hal_mdma.c ****       if(hmdma->LastLinkedListNodeAddress == pNode)
 1526              		.loc 1 872 15
 1527 007a 7B68     		ldr	r3, [r7, #4]
 1528 007c 1B6E     		ldr	r3, [r3, #96]
 1529              		.loc 1 872 9
 1530 007e 3A68     		ldr	r2, [r7]
 1531 0080 9A42     		cmp	r2, r3
 1532 0082 0DD1     		bne	.L96
 873:Drivers/STM32H7xx_HAL_Driver/Src/stm32h7xx_hal_mdma.c ****       {
 874:Drivers/STM32H7xx_HAL_Driver/Src/stm32h7xx_hal_mdma.c ****         /*if the last node is at the same time the first one (1 single node after the init node 0)
 875:Drivers/STM32H7xx_HAL_Driver/Src/stm32h7xx_hal_mdma.c ****         then update the last node too */
 876:Drivers/STM32H7xx_HAL_Driver/Src/stm32h7xx_hal_mdma.c **** 
 877:Drivers/STM32H7xx_HAL_Driver/Src/stm32h7xx_hal_mdma.c ****         hmdma->FirstLinkedListNodeAddress = 0;
 1533              		.loc 1 877 43
 1534 0084 7B68     		ldr	r3, [r7, #4]
 1535 0086 0022     		movs	r2, #0
 1536 0088 DA65     		str	r2, [r3, #92]
 878:Drivers/STM32H7xx_HAL_Driver/Src/stm32h7xx_hal_mdma.c ****         hmdma->LastLinkedListNodeAddress  = 0;
 1537              		.loc 1 878 43
 1538 008a 7B68     		ldr	r3, [r7, #4]
 1539 008c 0022     		movs	r2, #0
 1540 008e 1A66     		str	r2, [r3, #96]
 879:Drivers/STM32H7xx_HAL_Driver/Src/stm32h7xx_hal_mdma.c ****         hmdma->LinkedListNodeCounter = 0;
 1541              		.loc 1 879 38
 1542 0090 7B68     		ldr	r3, [r7, #4]
 1543 0092 0022     		movs	r2, #0
 1544 0094 5A66     		str	r2, [r3, #100]
 880:Drivers/STM32H7xx_HAL_Driver/Src/stm32h7xx_hal_mdma.c **** 
 881:Drivers/STM32H7xx_HAL_Driver/Src/stm32h7xx_hal_mdma.c ****         hmdma->Instance->CLAR = 0;
 1545              		.loc 1 881 14
 1546 0096 7B68     		ldr	r3, [r7, #4]
 1547 0098 1B68     		ldr	r3, [r3]
 1548              		.loc 1 881 31
 1549 009a 0022     		movs	r2, #0
 1550 009c 5A62     		str	r2, [r3, #36]
 1551 009e 4DE0     		b	.L94
 1552              	.L96:
 882:Drivers/STM32H7xx_HAL_Driver/Src/stm32h7xx_hal_mdma.c ****       }
 883:Drivers/STM32H7xx_HAL_Driver/Src/stm32h7xx_hal_mdma.c ****       else
 884:Drivers/STM32H7xx_HAL_Driver/Src/stm32h7xx_hal_mdma.c ****       {
 885:Drivers/STM32H7xx_HAL_Driver/Src/stm32h7xx_hal_mdma.c ****         if((uint32_t)hmdma->FirstLinkedListNodeAddress == hmdma->LastLinkedListNodeAddress->CLAR)
 1553              		.loc 1 885 27
 1554 00a0 7B68     		ldr	r3, [r7, #4]
 1555 00a2 DB6D     		ldr	r3, [r3, #92]
 1556              		.loc 1 885 12
 1557 00a4 1A46     		mov	r2, r3
 1558              		.loc 1 885 64
 1559 00a6 7B68     		ldr	r3, [r7, #4]
 1560 00a8 1B6E     		ldr	r3, [r3, #96]
 1561              		.loc 1 885 91
 1562 00aa 5B69     		ldr	r3, [r3, #20]
 1563              		.loc 1 885 11
 1564 00ac 9A42     		cmp	r2, r3
ARM GAS  C:\Users\Su\AppData\Local\Temp\ccdx3s9E.s 			page 44


 1565 00ae 04D1     		bne	.L97
 886:Drivers/STM32H7xx_HAL_Driver/Src/stm32h7xx_hal_mdma.c ****         {
 887:Drivers/STM32H7xx_HAL_Driver/Src/stm32h7xx_hal_mdma.c ****           /* if last node is looping to first (circular list) one update the last node connection *
 888:Drivers/STM32H7xx_HAL_Driver/Src/stm32h7xx_hal_mdma.c ****           hmdma->LastLinkedListNodeAddress->CLAR = pNode->CLAR;
 1566              		.loc 1 888 16
 1567 00b0 7B68     		ldr	r3, [r7, #4]
 1568 00b2 1B6E     		ldr	r3, [r3, #96]
 1569              		.loc 1 888 57
 1570 00b4 3A68     		ldr	r2, [r7]
 1571 00b6 5269     		ldr	r2, [r2, #20]
 1572              		.loc 1 888 50
 1573 00b8 5A61     		str	r2, [r3, #20]
 1574              	.L97:
 889:Drivers/STM32H7xx_HAL_Driver/Src/stm32h7xx_hal_mdma.c ****         }
 890:Drivers/STM32H7xx_HAL_Driver/Src/stm32h7xx_hal_mdma.c **** 
 891:Drivers/STM32H7xx_HAL_Driver/Src/stm32h7xx_hal_mdma.c ****         /* if deleting the first node after the initialization
 892:Drivers/STM32H7xx_HAL_Driver/Src/stm32h7xx_hal_mdma.c ****         connect the next node to the node 0 by updating
 893:Drivers/STM32H7xx_HAL_Driver/Src/stm32h7xx_hal_mdma.c ****         the MDMA channel CLAR register to this node address */
 894:Drivers/STM32H7xx_HAL_Driver/Src/stm32h7xx_hal_mdma.c ****         hmdma->Instance->CLAR = pNode->CLAR;
 1575              		.loc 1 894 14
 1576 00ba 7B68     		ldr	r3, [r7, #4]
 1577 00bc 1B68     		ldr	r3, [r3]
 1578              		.loc 1 894 38
 1579 00be 3A68     		ldr	r2, [r7]
 1580 00c0 5269     		ldr	r2, [r2, #20]
 1581              		.loc 1 894 31
 1582 00c2 5A62     		str	r2, [r3, #36]
 895:Drivers/STM32H7xx_HAL_Driver/Src/stm32h7xx_hal_mdma.c ****         hmdma->FirstLinkedListNodeAddress = (MDMA_LinkNodeTypeDef *)hmdma->Instance->CLAR;
 1583              		.loc 1 895 74
 1584 00c4 7B68     		ldr	r3, [r7, #4]
 1585 00c6 1B68     		ldr	r3, [r3]
 1586              		.loc 1 895 84
 1587 00c8 5B6A     		ldr	r3, [r3, #36]
 1588              		.loc 1 895 45
 1589 00ca 1A46     		mov	r2, r3
 1590              		.loc 1 895 43
 1591 00cc 7B68     		ldr	r3, [r7, #4]
 1592 00ce DA65     		str	r2, [r3, #92]
 896:Drivers/STM32H7xx_HAL_Driver/Src/stm32h7xx_hal_mdma.c ****         /* Update the Handle node counter */
 897:Drivers/STM32H7xx_HAL_Driver/Src/stm32h7xx_hal_mdma.c ****         hmdma->LinkedListNodeCounter--;
 1593              		.loc 1 897 14
 1594 00d0 7B68     		ldr	r3, [r7, #4]
 1595 00d2 5B6E     		ldr	r3, [r3, #100]
 1596              		.loc 1 897 37
 1597 00d4 5A1E     		subs	r2, r3, #1
 1598 00d6 7B68     		ldr	r3, [r7, #4]
 1599 00d8 5A66     		str	r2, [r3, #100]
 1600 00da 2FE0     		b	.L94
 1601              	.L95:
 898:Drivers/STM32H7xx_HAL_Driver/Src/stm32h7xx_hal_mdma.c ****       }
 899:Drivers/STM32H7xx_HAL_Driver/Src/stm32h7xx_hal_mdma.c ****     }
 900:Drivers/STM32H7xx_HAL_Driver/Src/stm32h7xx_hal_mdma.c ****     else /* Deleting any other node */
 901:Drivers/STM32H7xx_HAL_Driver/Src/stm32h7xx_hal_mdma.c ****     {
 902:Drivers/STM32H7xx_HAL_Driver/Src/stm32h7xx_hal_mdma.c ****       /*Deleted node is not the first one : find it  */
 903:Drivers/STM32H7xx_HAL_Driver/Src/stm32h7xx_hal_mdma.c ****       ptmpNode = hmdma->FirstLinkedListNodeAddress;
 1602              		.loc 1 903 16
 1603 00dc 7B68     		ldr	r3, [r7, #4]
ARM GAS  C:\Users\Su\AppData\Local\Temp\ccdx3s9E.s 			page 45


 1604 00de DB6D     		ldr	r3, [r3, #92]
 1605 00e0 7B61     		str	r3, [r7, #20]
 904:Drivers/STM32H7xx_HAL_Driver/Src/stm32h7xx_hal_mdma.c ****       while((counter < hmdma->LinkedListNodeCounter) && (nodeDeleted == 0U))
 1606              		.loc 1 904 12
 1607 00e2 1EE0     		b	.L98
 1608              	.L102:
 905:Drivers/STM32H7xx_HAL_Driver/Src/stm32h7xx_hal_mdma.c ****       {
 906:Drivers/STM32H7xx_HAL_Driver/Src/stm32h7xx_hal_mdma.c ****         counter++;
 1609              		.loc 1 906 16
 1610 00e4 3B69     		ldr	r3, [r7, #16]
 1611 00e6 0133     		adds	r3, r3, #1
 1612 00e8 3B61     		str	r3, [r7, #16]
 907:Drivers/STM32H7xx_HAL_Driver/Src/stm32h7xx_hal_mdma.c ****         if(ptmpNode->CLAR == ((uint32_t)pNode))
 1613              		.loc 1 907 20
 1614 00ea 7B69     		ldr	r3, [r7, #20]
 1615 00ec 5A69     		ldr	r2, [r3, #20]
 1616              		.loc 1 907 27
 1617 00ee 3B68     		ldr	r3, [r7]
 1618              		.loc 1 907 11
 1619 00f0 9A42     		cmp	r2, r3
 1620 00f2 13D1     		bne	.L99
 908:Drivers/STM32H7xx_HAL_Driver/Src/stm32h7xx_hal_mdma.c ****         {
 909:Drivers/STM32H7xx_HAL_Driver/Src/stm32h7xx_hal_mdma.c ****           /* if deleting the last node */
 910:Drivers/STM32H7xx_HAL_Driver/Src/stm32h7xx_hal_mdma.c ****           if(pNode == hmdma->LastLinkedListNodeAddress)
 1621              		.loc 1 910 28
 1622 00f4 7B68     		ldr	r3, [r7, #4]
 1623 00f6 1B6E     		ldr	r3, [r3, #96]
 1624              		.loc 1 910 13
 1625 00f8 3A68     		ldr	r2, [r7]
 1626 00fa 9A42     		cmp	r2, r3
 1627 00fc 02D1     		bne	.L100
 911:Drivers/STM32H7xx_HAL_Driver/Src/stm32h7xx_hal_mdma.c ****           {
 912:Drivers/STM32H7xx_HAL_Driver/Src/stm32h7xx_hal_mdma.c ****             /*Update the linked list last node address in the handle*/
 913:Drivers/STM32H7xx_HAL_Driver/Src/stm32h7xx_hal_mdma.c ****             hmdma->LastLinkedListNodeAddress = ptmpNode;
 1628              		.loc 1 913 46
 1629 00fe 7B68     		ldr	r3, [r7, #4]
 1630 0100 7A69     		ldr	r2, [r7, #20]
 1631 0102 1A66     		str	r2, [r3, #96]
 1632              	.L100:
 914:Drivers/STM32H7xx_HAL_Driver/Src/stm32h7xx_hal_mdma.c ****           }
 915:Drivers/STM32H7xx_HAL_Driver/Src/stm32h7xx_hal_mdma.c ****           /* update the next node link after deleting pMDMA_LinkedListNode */
 916:Drivers/STM32H7xx_HAL_Driver/Src/stm32h7xx_hal_mdma.c ****           ptmpNode->CLAR = pNode->CLAR;
 1633              		.loc 1 916 33
 1634 0104 3B68     		ldr	r3, [r7]
 1635 0106 5A69     		ldr	r2, [r3, #20]
 1636              		.loc 1 916 26
 1637 0108 7B69     		ldr	r3, [r7, #20]
 1638 010a 5A61     		str	r2, [r3, #20]
 917:Drivers/STM32H7xx_HAL_Driver/Src/stm32h7xx_hal_mdma.c ****           nodeDeleted = 1;
 1639              		.loc 1 917 23
 1640 010c 0123     		movs	r3, #1
 1641 010e FB60     		str	r3, [r7, #12]
 918:Drivers/STM32H7xx_HAL_Driver/Src/stm32h7xx_hal_mdma.c ****           /* Update the Handle node counter */
 919:Drivers/STM32H7xx_HAL_Driver/Src/stm32h7xx_hal_mdma.c ****           hmdma->LinkedListNodeCounter--;
 1642              		.loc 1 919 16
 1643 0110 7B68     		ldr	r3, [r7, #4]
 1644 0112 5B6E     		ldr	r3, [r3, #100]
ARM GAS  C:\Users\Su\AppData\Local\Temp\ccdx3s9E.s 			page 46


 1645              		.loc 1 919 39
 1646 0114 5A1E     		subs	r2, r3, #1
 1647 0116 7B68     		ldr	r3, [r7, #4]
 1648 0118 5A66     		str	r2, [r3, #100]
 1649 011a 02E0     		b	.L98
 1650              	.L99:
 920:Drivers/STM32H7xx_HAL_Driver/Src/stm32h7xx_hal_mdma.c ****         }
 921:Drivers/STM32H7xx_HAL_Driver/Src/stm32h7xx_hal_mdma.c ****         else
 922:Drivers/STM32H7xx_HAL_Driver/Src/stm32h7xx_hal_mdma.c ****         {
 923:Drivers/STM32H7xx_HAL_Driver/Src/stm32h7xx_hal_mdma.c ****           ptmpNode = (MDMA_LinkNodeTypeDef *)ptmpNode->CLAR;
 1651              		.loc 1 923 54
 1652 011c 7B69     		ldr	r3, [r7, #20]
 1653 011e 5B69     		ldr	r3, [r3, #20]
 1654              		.loc 1 923 20
 1655 0120 7B61     		str	r3, [r7, #20]
 1656              	.L98:
 904:Drivers/STM32H7xx_HAL_Driver/Src/stm32h7xx_hal_mdma.c ****       {
 1657              		.loc 1 904 29
 1658 0122 7B68     		ldr	r3, [r7, #4]
 1659 0124 5B6E     		ldr	r3, [r3, #100]
 904:Drivers/STM32H7xx_HAL_Driver/Src/stm32h7xx_hal_mdma.c ****       {
 1660              		.loc 1 904 12
 1661 0126 3A69     		ldr	r2, [r7, #16]
 1662 0128 9A42     		cmp	r2, r3
 1663 012a 02D2     		bcs	.L101
 904:Drivers/STM32H7xx_HAL_Driver/Src/stm32h7xx_hal_mdma.c ****       {
 1664              		.loc 1 904 54 discriminator 1
 1665 012c FB68     		ldr	r3, [r7, #12]
 1666 012e 002B     		cmp	r3, #0
 1667 0130 D8D0     		beq	.L102
 1668              	.L101:
 924:Drivers/STM32H7xx_HAL_Driver/Src/stm32h7xx_hal_mdma.c ****         }
 925:Drivers/STM32H7xx_HAL_Driver/Src/stm32h7xx_hal_mdma.c ****       }
 926:Drivers/STM32H7xx_HAL_Driver/Src/stm32h7xx_hal_mdma.c **** 
 927:Drivers/STM32H7xx_HAL_Driver/Src/stm32h7xx_hal_mdma.c ****       if(nodeDeleted == 0U)
 1669              		.loc 1 927 9
 1670 0132 FB68     		ldr	r3, [r7, #12]
 1671 0134 002B     		cmp	r3, #0
 1672 0136 01D1     		bne	.L94
 928:Drivers/STM32H7xx_HAL_Driver/Src/stm32h7xx_hal_mdma.c ****       {
 929:Drivers/STM32H7xx_HAL_Driver/Src/stm32h7xx_hal_mdma.c ****         /* last node reashed without finding the node to delete : return error */
 930:Drivers/STM32H7xx_HAL_Driver/Src/stm32h7xx_hal_mdma.c ****         hal_status = HAL_ERROR;
 1673              		.loc 1 930 20
 1674 0138 0123     		movs	r3, #1
 1675 013a FB72     		strb	r3, [r7, #11]
 1676              	.L94:
 931:Drivers/STM32H7xx_HAL_Driver/Src/stm32h7xx_hal_mdma.c ****       }
 932:Drivers/STM32H7xx_HAL_Driver/Src/stm32h7xx_hal_mdma.c ****     }
 933:Drivers/STM32H7xx_HAL_Driver/Src/stm32h7xx_hal_mdma.c **** 
 934:Drivers/STM32H7xx_HAL_Driver/Src/stm32h7xx_hal_mdma.c ****     /* Process unlocked */
 935:Drivers/STM32H7xx_HAL_Driver/Src/stm32h7xx_hal_mdma.c ****     __HAL_UNLOCK(hmdma);
 1677              		.loc 1 935 5
 1678 013c 7B68     		ldr	r3, [r7, #4]
 1679 013e 0022     		movs	r2, #0
 1680 0140 83F83C20 		strb	r2, [r3, #60]
 936:Drivers/STM32H7xx_HAL_Driver/Src/stm32h7xx_hal_mdma.c **** 
 937:Drivers/STM32H7xx_HAL_Driver/Src/stm32h7xx_hal_mdma.c ****     hmdma->State = HAL_MDMA_STATE_READY;
ARM GAS  C:\Users\Su\AppData\Local\Temp\ccdx3s9E.s 			page 47


 1681              		.loc 1 937 18
 1682 0144 7B68     		ldr	r3, [r7, #4]
 1683 0146 0122     		movs	r2, #1
 1684 0148 83F83D20 		strb	r2, [r3, #61]
 938:Drivers/STM32H7xx_HAL_Driver/Src/stm32h7xx_hal_mdma.c **** 
 939:Drivers/STM32H7xx_HAL_Driver/Src/stm32h7xx_hal_mdma.c ****     return hal_status;
 1685              		.loc 1 939 12
 1686 014c FB7A     		ldrb	r3, [r7, #11]	@ zero_extendqisi2
 1687 014e 04E0     		b	.L89
 1688              	.L91:
 940:Drivers/STM32H7xx_HAL_Driver/Src/stm32h7xx_hal_mdma.c ****   }
 941:Drivers/STM32H7xx_HAL_Driver/Src/stm32h7xx_hal_mdma.c ****   else
 942:Drivers/STM32H7xx_HAL_Driver/Src/stm32h7xx_hal_mdma.c ****   {
 943:Drivers/STM32H7xx_HAL_Driver/Src/stm32h7xx_hal_mdma.c ****     /* Process unlocked */
 944:Drivers/STM32H7xx_HAL_Driver/Src/stm32h7xx_hal_mdma.c ****     __HAL_UNLOCK(hmdma);
 1689              		.loc 1 944 5
 1690 0150 7B68     		ldr	r3, [r7, #4]
 1691 0152 0022     		movs	r2, #0
 1692 0154 83F83C20 		strb	r2, [r3, #60]
 945:Drivers/STM32H7xx_HAL_Driver/Src/stm32h7xx_hal_mdma.c **** 
 946:Drivers/STM32H7xx_HAL_Driver/Src/stm32h7xx_hal_mdma.c ****     /* Return error status */
 947:Drivers/STM32H7xx_HAL_Driver/Src/stm32h7xx_hal_mdma.c ****     return HAL_BUSY;
 1693              		.loc 1 947 12
 1694 0158 0223     		movs	r3, #2
 1695              	.L89:
 948:Drivers/STM32H7xx_HAL_Driver/Src/stm32h7xx_hal_mdma.c ****   }
 949:Drivers/STM32H7xx_HAL_Driver/Src/stm32h7xx_hal_mdma.c **** }
 1696              		.loc 1 949 1
 1697 015a 1846     		mov	r0, r3
 1698 015c 1C37     		adds	r7, r7, #28
 1699              	.LCFI44:
 1700              		.cfi_def_cfa_offset 4
 1701 015e BD46     		mov	sp, r7
 1702              	.LCFI45:
 1703              		.cfi_def_cfa_register 13
 1704              		@ sp needed
 1705 0160 5DF8047B 		ldr	r7, [sp], #4
 1706              	.LCFI46:
 1707              		.cfi_restore 7
 1708              		.cfi_def_cfa_offset 0
 1709 0164 7047     		bx	lr
 1710              		.cfi_endproc
 1711              	.LFE151:
 1713              		.section	.text.HAL_MDMA_LinkedList_EnableCircularMode,"ax",%progbits
 1714              		.align	1
 1715              		.global	HAL_MDMA_LinkedList_EnableCircularMode
 1716              		.syntax unified
 1717              		.thumb
 1718              		.thumb_func
 1720              	HAL_MDMA_LinkedList_EnableCircularMode:
 1721              	.LFB152:
 950:Drivers/STM32H7xx_HAL_Driver/Src/stm32h7xx_hal_mdma.c **** 
 951:Drivers/STM32H7xx_HAL_Driver/Src/stm32h7xx_hal_mdma.c **** /**
 952:Drivers/STM32H7xx_HAL_Driver/Src/stm32h7xx_hal_mdma.c ****   * @brief  Make the linked list circular by connecting the last node to the first.
 953:Drivers/STM32H7xx_HAL_Driver/Src/stm32h7xx_hal_mdma.c ****   * @param  hmdma : Pointer to a MDMA_HandleTypeDef structure that contains
 954:Drivers/STM32H7xx_HAL_Driver/Src/stm32h7xx_hal_mdma.c ****   *                 the configuration information for the specified MDMA Channel.
 955:Drivers/STM32H7xx_HAL_Driver/Src/stm32h7xx_hal_mdma.c ****   * @retval HAL status
ARM GAS  C:\Users\Su\AppData\Local\Temp\ccdx3s9E.s 			page 48


 956:Drivers/STM32H7xx_HAL_Driver/Src/stm32h7xx_hal_mdma.c ****   */
 957:Drivers/STM32H7xx_HAL_Driver/Src/stm32h7xx_hal_mdma.c **** HAL_StatusTypeDef HAL_MDMA_LinkedList_EnableCircularMode(MDMA_HandleTypeDef *hmdma)
 958:Drivers/STM32H7xx_HAL_Driver/Src/stm32h7xx_hal_mdma.c **** {
 1722              		.loc 1 958 1
 1723              		.cfi_startproc
 1724              		@ args = 0, pretend = 0, frame = 16
 1725              		@ frame_needed = 1, uses_anonymous_args = 0
 1726              		@ link register save eliminated.
 1727 0000 80B4     		push	{r7}
 1728              	.LCFI47:
 1729              		.cfi_def_cfa_offset 4
 1730              		.cfi_offset 7, -4
 1731 0002 85B0     		sub	sp, sp, #20
 1732              	.LCFI48:
 1733              		.cfi_def_cfa_offset 24
 1734 0004 00AF     		add	r7, sp, #0
 1735              	.LCFI49:
 1736              		.cfi_def_cfa_register 7
 1737 0006 7860     		str	r0, [r7, #4]
 959:Drivers/STM32H7xx_HAL_Driver/Src/stm32h7xx_hal_mdma.c ****   HAL_StatusTypeDef hal_status = HAL_OK;
 1738              		.loc 1 959 21
 1739 0008 0023     		movs	r3, #0
 1740 000a FB73     		strb	r3, [r7, #15]
 960:Drivers/STM32H7xx_HAL_Driver/Src/stm32h7xx_hal_mdma.c **** 
 961:Drivers/STM32H7xx_HAL_Driver/Src/stm32h7xx_hal_mdma.c ****   /* Check the MDMA peripheral handle */
 962:Drivers/STM32H7xx_HAL_Driver/Src/stm32h7xx_hal_mdma.c ****   if(hmdma == NULL)
 1741              		.loc 1 962 5
 1742 000c 7B68     		ldr	r3, [r7, #4]
 1743 000e 002B     		cmp	r3, #0
 1744 0010 01D1     		bne	.L104
 963:Drivers/STM32H7xx_HAL_Driver/Src/stm32h7xx_hal_mdma.c ****   {
 964:Drivers/STM32H7xx_HAL_Driver/Src/stm32h7xx_hal_mdma.c ****     return HAL_ERROR;
 1745              		.loc 1 964 12
 1746 0012 0123     		movs	r3, #1
 1747 0014 31E0     		b	.L105
 1748              	.L104:
 965:Drivers/STM32H7xx_HAL_Driver/Src/stm32h7xx_hal_mdma.c ****   }
 966:Drivers/STM32H7xx_HAL_Driver/Src/stm32h7xx_hal_mdma.c **** 
 967:Drivers/STM32H7xx_HAL_Driver/Src/stm32h7xx_hal_mdma.c ****   /* Process locked */
 968:Drivers/STM32H7xx_HAL_Driver/Src/stm32h7xx_hal_mdma.c ****   __HAL_LOCK(hmdma);
 1749              		.loc 1 968 3
 1750 0016 7B68     		ldr	r3, [r7, #4]
 1751 0018 93F83C30 		ldrb	r3, [r3, #60]	@ zero_extendqisi2
 1752 001c 012B     		cmp	r3, #1
 1753 001e 01D1     		bne	.L106
 1754              		.loc 1 968 3 is_stmt 0 discriminator 1
 1755 0020 0223     		movs	r3, #2
 1756 0022 2AE0     		b	.L105
 1757              	.L106:
 1758              		.loc 1 968 3 discriminator 2
 1759 0024 7B68     		ldr	r3, [r7, #4]
 1760 0026 0122     		movs	r2, #1
 1761 0028 83F83C20 		strb	r2, [r3, #60]
 969:Drivers/STM32H7xx_HAL_Driver/Src/stm32h7xx_hal_mdma.c **** 
 970:Drivers/STM32H7xx_HAL_Driver/Src/stm32h7xx_hal_mdma.c ****   if(HAL_MDMA_STATE_READY == hmdma->State)
 1762              		.loc 1 970 35 is_stmt 1 discriminator 2
 1763 002c 7B68     		ldr	r3, [r7, #4]
ARM GAS  C:\Users\Su\AppData\Local\Temp\ccdx3s9E.s 			page 49


 1764 002e 93F83D30 		ldrb	r3, [r3, #61]
 1765 0032 DBB2     		uxtb	r3, r3
 1766              		.loc 1 970 5 discriminator 2
 1767 0034 012B     		cmp	r3, #1
 1768 0036 17D1     		bne	.L107
 971:Drivers/STM32H7xx_HAL_Driver/Src/stm32h7xx_hal_mdma.c ****   {
 972:Drivers/STM32H7xx_HAL_Driver/Src/stm32h7xx_hal_mdma.c ****     /* Change MDMA peripheral state */
 973:Drivers/STM32H7xx_HAL_Driver/Src/stm32h7xx_hal_mdma.c ****     hmdma->State = HAL_MDMA_STATE_BUSY;
 1769              		.loc 1 973 18
 1770 0038 7B68     		ldr	r3, [r7, #4]
 1771 003a 0222     		movs	r2, #2
 1772 003c 83F83D20 		strb	r2, [r3, #61]
 974:Drivers/STM32H7xx_HAL_Driver/Src/stm32h7xx_hal_mdma.c **** 
 975:Drivers/STM32H7xx_HAL_Driver/Src/stm32h7xx_hal_mdma.c ****     /* If first and last node are null (no nodes in the list) : return error*/
 976:Drivers/STM32H7xx_HAL_Driver/Src/stm32h7xx_hal_mdma.c ****     if(((uint32_t)hmdma->FirstLinkedListNodeAddress == 0U) || ((uint32_t)hmdma->LastLinkedListNodeA
 1773              		.loc 1 976 24
 1774 0040 7B68     		ldr	r3, [r7, #4]
 1775 0042 DB6D     		ldr	r3, [r3, #92]
 1776              		.loc 1 976 7
 1777 0044 002B     		cmp	r3, #0
 1778 0046 07D0     		beq	.L108
 1779              		.loc 1 976 79 discriminator 1
 1780 0048 7B68     		ldr	r3, [r7, #4]
 1781 004a 1B6E     		ldr	r3, [r3, #96]
 1782              		.loc 1 976 60 discriminator 1
 1783 004c 002B     		cmp	r3, #0
 1784 004e 03D0     		beq	.L108
 1785              		.loc 1 976 123 discriminator 2
 1786 0050 7B68     		ldr	r3, [r7, #4]
 1787 0052 5B6E     		ldr	r3, [r3, #100]
 1788              		.loc 1 976 114 discriminator 2
 1789 0054 002B     		cmp	r3, #0
 1790 0056 02D1     		bne	.L109
 1791              	.L108:
 977:Drivers/STM32H7xx_HAL_Driver/Src/stm32h7xx_hal_mdma.c ****     {
 978:Drivers/STM32H7xx_HAL_Driver/Src/stm32h7xx_hal_mdma.c ****       hal_status = HAL_ERROR;
 1792              		.loc 1 978 18
 1793 0058 0123     		movs	r3, #1
 1794 005a FB73     		strb	r3, [r7, #15]
 1795 005c 04E0     		b	.L107
 1796              	.L109:
 979:Drivers/STM32H7xx_HAL_Driver/Src/stm32h7xx_hal_mdma.c ****     }
 980:Drivers/STM32H7xx_HAL_Driver/Src/stm32h7xx_hal_mdma.c ****     else
 981:Drivers/STM32H7xx_HAL_Driver/Src/stm32h7xx_hal_mdma.c ****     {
 982:Drivers/STM32H7xx_HAL_Driver/Src/stm32h7xx_hal_mdma.c ****       /* to enable circular mode Last Node should be connected to first node */
 983:Drivers/STM32H7xx_HAL_Driver/Src/stm32h7xx_hal_mdma.c ****       hmdma->LastLinkedListNodeAddress->CLAR = (uint32_t)hmdma->FirstLinkedListNodeAddress;
 1797              		.loc 1 983 63
 1798 005e 7B68     		ldr	r3, [r7, #4]
 1799 0060 DA6D     		ldr	r2, [r3, #92]
 1800              		.loc 1 983 12
 1801 0062 7B68     		ldr	r3, [r7, #4]
 1802 0064 1B6E     		ldr	r3, [r3, #96]
 1803              		.loc 1 983 46
 1804 0066 5A61     		str	r2, [r3, #20]
 1805              	.L107:
 984:Drivers/STM32H7xx_HAL_Driver/Src/stm32h7xx_hal_mdma.c ****     }
 985:Drivers/STM32H7xx_HAL_Driver/Src/stm32h7xx_hal_mdma.c **** 
ARM GAS  C:\Users\Su\AppData\Local\Temp\ccdx3s9E.s 			page 50


 986:Drivers/STM32H7xx_HAL_Driver/Src/stm32h7xx_hal_mdma.c ****   }
 987:Drivers/STM32H7xx_HAL_Driver/Src/stm32h7xx_hal_mdma.c ****   /* Process unlocked */
 988:Drivers/STM32H7xx_HAL_Driver/Src/stm32h7xx_hal_mdma.c ****   __HAL_UNLOCK(hmdma);
 1806              		.loc 1 988 3
 1807 0068 7B68     		ldr	r3, [r7, #4]
 1808 006a 0022     		movs	r2, #0
 1809 006c 83F83C20 		strb	r2, [r3, #60]
 989:Drivers/STM32H7xx_HAL_Driver/Src/stm32h7xx_hal_mdma.c **** 
 990:Drivers/STM32H7xx_HAL_Driver/Src/stm32h7xx_hal_mdma.c ****   hmdma->State = HAL_MDMA_STATE_READY;
 1810              		.loc 1 990 16
 1811 0070 7B68     		ldr	r3, [r7, #4]
 1812 0072 0122     		movs	r2, #1
 1813 0074 83F83D20 		strb	r2, [r3, #61]
 991:Drivers/STM32H7xx_HAL_Driver/Src/stm32h7xx_hal_mdma.c **** 
 992:Drivers/STM32H7xx_HAL_Driver/Src/stm32h7xx_hal_mdma.c ****   return hal_status;
 1814              		.loc 1 992 10
 1815 0078 FB7B     		ldrb	r3, [r7, #15]	@ zero_extendqisi2
 1816              	.L105:
 993:Drivers/STM32H7xx_HAL_Driver/Src/stm32h7xx_hal_mdma.c **** }
 1817              		.loc 1 993 1
 1818 007a 1846     		mov	r0, r3
 1819 007c 1437     		adds	r7, r7, #20
 1820              	.LCFI50:
 1821              		.cfi_def_cfa_offset 4
 1822 007e BD46     		mov	sp, r7
 1823              	.LCFI51:
 1824              		.cfi_def_cfa_register 13
 1825              		@ sp needed
 1826 0080 5DF8047B 		ldr	r7, [sp], #4
 1827              	.LCFI52:
 1828              		.cfi_restore 7
 1829              		.cfi_def_cfa_offset 0
 1830 0084 7047     		bx	lr
 1831              		.cfi_endproc
 1832              	.LFE152:
 1834              		.section	.text.HAL_MDMA_LinkedList_DisableCircularMode,"ax",%progbits
 1835              		.align	1
 1836              		.global	HAL_MDMA_LinkedList_DisableCircularMode
 1837              		.syntax unified
 1838              		.thumb
 1839              		.thumb_func
 1841              	HAL_MDMA_LinkedList_DisableCircularMode:
 1842              	.LFB153:
 994:Drivers/STM32H7xx_HAL_Driver/Src/stm32h7xx_hal_mdma.c **** 
 995:Drivers/STM32H7xx_HAL_Driver/Src/stm32h7xx_hal_mdma.c **** /**
 996:Drivers/STM32H7xx_HAL_Driver/Src/stm32h7xx_hal_mdma.c ****   * @brief  Disable the linked list circular mode by setting the last node connection to null
 997:Drivers/STM32H7xx_HAL_Driver/Src/stm32h7xx_hal_mdma.c ****   * @param  hmdma : Pointer to a MDMA_HandleTypeDef structure that contains
 998:Drivers/STM32H7xx_HAL_Driver/Src/stm32h7xx_hal_mdma.c ****   *                 the configuration information for the specified MDMA Channel.
 999:Drivers/STM32H7xx_HAL_Driver/Src/stm32h7xx_hal_mdma.c ****   * @retval HAL status
1000:Drivers/STM32H7xx_HAL_Driver/Src/stm32h7xx_hal_mdma.c ****   */
1001:Drivers/STM32H7xx_HAL_Driver/Src/stm32h7xx_hal_mdma.c **** HAL_StatusTypeDef HAL_MDMA_LinkedList_DisableCircularMode(MDMA_HandleTypeDef *hmdma)
1002:Drivers/STM32H7xx_HAL_Driver/Src/stm32h7xx_hal_mdma.c **** {
 1843              		.loc 1 1002 1
 1844              		.cfi_startproc
 1845              		@ args = 0, pretend = 0, frame = 16
 1846              		@ frame_needed = 1, uses_anonymous_args = 0
 1847              		@ link register save eliminated.
ARM GAS  C:\Users\Su\AppData\Local\Temp\ccdx3s9E.s 			page 51


 1848 0000 80B4     		push	{r7}
 1849              	.LCFI53:
 1850              		.cfi_def_cfa_offset 4
 1851              		.cfi_offset 7, -4
 1852 0002 85B0     		sub	sp, sp, #20
 1853              	.LCFI54:
 1854              		.cfi_def_cfa_offset 24
 1855 0004 00AF     		add	r7, sp, #0
 1856              	.LCFI55:
 1857              		.cfi_def_cfa_register 7
 1858 0006 7860     		str	r0, [r7, #4]
1003:Drivers/STM32H7xx_HAL_Driver/Src/stm32h7xx_hal_mdma.c ****   HAL_StatusTypeDef hal_status = HAL_OK;
 1859              		.loc 1 1003 21
 1860 0008 0023     		movs	r3, #0
 1861 000a FB73     		strb	r3, [r7, #15]
1004:Drivers/STM32H7xx_HAL_Driver/Src/stm32h7xx_hal_mdma.c **** 
1005:Drivers/STM32H7xx_HAL_Driver/Src/stm32h7xx_hal_mdma.c ****   /* Check the MDMA peripheral handle */
1006:Drivers/STM32H7xx_HAL_Driver/Src/stm32h7xx_hal_mdma.c ****   if(hmdma == NULL)
 1862              		.loc 1 1006 5
 1863 000c 7B68     		ldr	r3, [r7, #4]
 1864 000e 002B     		cmp	r3, #0
 1865 0010 01D1     		bne	.L111
1007:Drivers/STM32H7xx_HAL_Driver/Src/stm32h7xx_hal_mdma.c ****   {
1008:Drivers/STM32H7xx_HAL_Driver/Src/stm32h7xx_hal_mdma.c ****     return HAL_ERROR;
 1866              		.loc 1 1008 12
 1867 0012 0123     		movs	r3, #1
 1868 0014 30E0     		b	.L112
 1869              	.L111:
1009:Drivers/STM32H7xx_HAL_Driver/Src/stm32h7xx_hal_mdma.c ****   }
1010:Drivers/STM32H7xx_HAL_Driver/Src/stm32h7xx_hal_mdma.c **** 
1011:Drivers/STM32H7xx_HAL_Driver/Src/stm32h7xx_hal_mdma.c ****   /* Process locked */
1012:Drivers/STM32H7xx_HAL_Driver/Src/stm32h7xx_hal_mdma.c ****   __HAL_LOCK(hmdma);
 1870              		.loc 1 1012 3
 1871 0016 7B68     		ldr	r3, [r7, #4]
 1872 0018 93F83C30 		ldrb	r3, [r3, #60]	@ zero_extendqisi2
 1873 001c 012B     		cmp	r3, #1
 1874 001e 01D1     		bne	.L113
 1875              		.loc 1 1012 3 is_stmt 0 discriminator 1
 1876 0020 0223     		movs	r3, #2
 1877 0022 29E0     		b	.L112
 1878              	.L113:
 1879              		.loc 1 1012 3 discriminator 2
 1880 0024 7B68     		ldr	r3, [r7, #4]
 1881 0026 0122     		movs	r2, #1
 1882 0028 83F83C20 		strb	r2, [r3, #60]
1013:Drivers/STM32H7xx_HAL_Driver/Src/stm32h7xx_hal_mdma.c **** 
1014:Drivers/STM32H7xx_HAL_Driver/Src/stm32h7xx_hal_mdma.c ****   if(HAL_MDMA_STATE_READY == hmdma->State)
 1883              		.loc 1 1014 35 is_stmt 1 discriminator 2
 1884 002c 7B68     		ldr	r3, [r7, #4]
 1885 002e 93F83D30 		ldrb	r3, [r3, #61]
 1886 0032 DBB2     		uxtb	r3, r3
 1887              		.loc 1 1014 5 discriminator 2
 1888 0034 012B     		cmp	r3, #1
 1889 0036 16D1     		bne	.L114
1015:Drivers/STM32H7xx_HAL_Driver/Src/stm32h7xx_hal_mdma.c ****   {
1016:Drivers/STM32H7xx_HAL_Driver/Src/stm32h7xx_hal_mdma.c ****     /* Change MDMA peripheral state */
1017:Drivers/STM32H7xx_HAL_Driver/Src/stm32h7xx_hal_mdma.c ****     hmdma->State = HAL_MDMA_STATE_BUSY;
ARM GAS  C:\Users\Su\AppData\Local\Temp\ccdx3s9E.s 			page 52


 1890              		.loc 1 1017 18
 1891 0038 7B68     		ldr	r3, [r7, #4]
 1892 003a 0222     		movs	r2, #2
 1893 003c 83F83D20 		strb	r2, [r3, #61]
1018:Drivers/STM32H7xx_HAL_Driver/Src/stm32h7xx_hal_mdma.c **** 
1019:Drivers/STM32H7xx_HAL_Driver/Src/stm32h7xx_hal_mdma.c ****     /* If first and last node are null (no nodes in the list) : return error*/
1020:Drivers/STM32H7xx_HAL_Driver/Src/stm32h7xx_hal_mdma.c ****     if(((uint32_t)hmdma->FirstLinkedListNodeAddress == 0U) || ((uint32_t)hmdma->LastLinkedListNodeA
 1894              		.loc 1 1020 24
 1895 0040 7B68     		ldr	r3, [r7, #4]
 1896 0042 DB6D     		ldr	r3, [r3, #92]
 1897              		.loc 1 1020 7
 1898 0044 002B     		cmp	r3, #0
 1899 0046 07D0     		beq	.L115
 1900              		.loc 1 1020 79 discriminator 1
 1901 0048 7B68     		ldr	r3, [r7, #4]
 1902 004a 1B6E     		ldr	r3, [r3, #96]
 1903              		.loc 1 1020 60 discriminator 1
 1904 004c 002B     		cmp	r3, #0
 1905 004e 03D0     		beq	.L115
 1906              		.loc 1 1020 123 discriminator 2
 1907 0050 7B68     		ldr	r3, [r7, #4]
 1908 0052 5B6E     		ldr	r3, [r3, #100]
 1909              		.loc 1 1020 114 discriminator 2
 1910 0054 002B     		cmp	r3, #0
 1911 0056 02D1     		bne	.L116
 1912              	.L115:
1021:Drivers/STM32H7xx_HAL_Driver/Src/stm32h7xx_hal_mdma.c ****     {
1022:Drivers/STM32H7xx_HAL_Driver/Src/stm32h7xx_hal_mdma.c ****       hal_status = HAL_ERROR;
 1913              		.loc 1 1022 18
 1914 0058 0123     		movs	r3, #1
 1915 005a FB73     		strb	r3, [r7, #15]
 1916 005c 03E0     		b	.L114
 1917              	.L116:
1023:Drivers/STM32H7xx_HAL_Driver/Src/stm32h7xx_hal_mdma.c ****     }
1024:Drivers/STM32H7xx_HAL_Driver/Src/stm32h7xx_hal_mdma.c ****     else
1025:Drivers/STM32H7xx_HAL_Driver/Src/stm32h7xx_hal_mdma.c ****     {
1026:Drivers/STM32H7xx_HAL_Driver/Src/stm32h7xx_hal_mdma.c ****       /* to disable circular mode Last Node should be connected to NULL */
1027:Drivers/STM32H7xx_HAL_Driver/Src/stm32h7xx_hal_mdma.c ****       hmdma->LastLinkedListNodeAddress->CLAR = 0;
 1918              		.loc 1 1027 12
 1919 005e 7B68     		ldr	r3, [r7, #4]
 1920 0060 1B6E     		ldr	r3, [r3, #96]
 1921              		.loc 1 1027 46
 1922 0062 0022     		movs	r2, #0
 1923 0064 5A61     		str	r2, [r3, #20]
 1924              	.L114:
1028:Drivers/STM32H7xx_HAL_Driver/Src/stm32h7xx_hal_mdma.c ****     }
1029:Drivers/STM32H7xx_HAL_Driver/Src/stm32h7xx_hal_mdma.c **** 
1030:Drivers/STM32H7xx_HAL_Driver/Src/stm32h7xx_hal_mdma.c ****   }
1031:Drivers/STM32H7xx_HAL_Driver/Src/stm32h7xx_hal_mdma.c ****   /* Process unlocked */
1032:Drivers/STM32H7xx_HAL_Driver/Src/stm32h7xx_hal_mdma.c ****   __HAL_UNLOCK(hmdma);
 1925              		.loc 1 1032 3
 1926 0066 7B68     		ldr	r3, [r7, #4]
 1927 0068 0022     		movs	r2, #0
 1928 006a 83F83C20 		strb	r2, [r3, #60]
1033:Drivers/STM32H7xx_HAL_Driver/Src/stm32h7xx_hal_mdma.c **** 
1034:Drivers/STM32H7xx_HAL_Driver/Src/stm32h7xx_hal_mdma.c ****   hmdma->State = HAL_MDMA_STATE_READY;
 1929              		.loc 1 1034 16
ARM GAS  C:\Users\Su\AppData\Local\Temp\ccdx3s9E.s 			page 53


 1930 006e 7B68     		ldr	r3, [r7, #4]
 1931 0070 0122     		movs	r2, #1
 1932 0072 83F83D20 		strb	r2, [r3, #61]
1035:Drivers/STM32H7xx_HAL_Driver/Src/stm32h7xx_hal_mdma.c **** 
1036:Drivers/STM32H7xx_HAL_Driver/Src/stm32h7xx_hal_mdma.c ****   return hal_status;
 1933              		.loc 1 1036 10
 1934 0076 FB7B     		ldrb	r3, [r7, #15]	@ zero_extendqisi2
 1935              	.L112:
1037:Drivers/STM32H7xx_HAL_Driver/Src/stm32h7xx_hal_mdma.c **** }
 1936              		.loc 1 1037 1
 1937 0078 1846     		mov	r0, r3
 1938 007a 1437     		adds	r7, r7, #20
 1939              	.LCFI56:
 1940              		.cfi_def_cfa_offset 4
 1941 007c BD46     		mov	sp, r7
 1942              	.LCFI57:
 1943              		.cfi_def_cfa_register 13
 1944              		@ sp needed
 1945 007e 5DF8047B 		ldr	r7, [sp], #4
 1946              	.LCFI58:
 1947              		.cfi_restore 7
 1948              		.cfi_def_cfa_offset 0
 1949 0082 7047     		bx	lr
 1950              		.cfi_endproc
 1951              	.LFE153:
 1953              		.section	.text.HAL_MDMA_Start,"ax",%progbits
 1954              		.align	1
 1955              		.global	HAL_MDMA_Start
 1956              		.syntax unified
 1957              		.thumb
 1958              		.thumb_func
 1960              	HAL_MDMA_Start:
 1961              	.LFB154:
1038:Drivers/STM32H7xx_HAL_Driver/Src/stm32h7xx_hal_mdma.c **** 
1039:Drivers/STM32H7xx_HAL_Driver/Src/stm32h7xx_hal_mdma.c **** /**
1040:Drivers/STM32H7xx_HAL_Driver/Src/stm32h7xx_hal_mdma.c ****   * @}
1041:Drivers/STM32H7xx_HAL_Driver/Src/stm32h7xx_hal_mdma.c ****   */
1042:Drivers/STM32H7xx_HAL_Driver/Src/stm32h7xx_hal_mdma.c **** 
1043:Drivers/STM32H7xx_HAL_Driver/Src/stm32h7xx_hal_mdma.c **** /** @addtogroup MDMA_Exported_Functions_Group3
1044:Drivers/STM32H7xx_HAL_Driver/Src/stm32h7xx_hal_mdma.c ****  *
1045:Drivers/STM32H7xx_HAL_Driver/Src/stm32h7xx_hal_mdma.c **** @verbatim
1046:Drivers/STM32H7xx_HAL_Driver/Src/stm32h7xx_hal_mdma.c ****  ===============================================================================
1047:Drivers/STM32H7xx_HAL_Driver/Src/stm32h7xx_hal_mdma.c ****                       #####  IO operation functions  #####
1048:Drivers/STM32H7xx_HAL_Driver/Src/stm32h7xx_hal_mdma.c ****  ===============================================================================
1049:Drivers/STM32H7xx_HAL_Driver/Src/stm32h7xx_hal_mdma.c ****     [..]  This section provides functions allowing to:
1050:Drivers/STM32H7xx_HAL_Driver/Src/stm32h7xx_hal_mdma.c ****       (+) Configure the source, destination address and data length and Start MDMA transfer
1051:Drivers/STM32H7xx_HAL_Driver/Src/stm32h7xx_hal_mdma.c ****       (+) Configure the source, destination address and data length and
1052:Drivers/STM32H7xx_HAL_Driver/Src/stm32h7xx_hal_mdma.c ****           Start MDMA transfer with interrupt
1053:Drivers/STM32H7xx_HAL_Driver/Src/stm32h7xx_hal_mdma.c ****       (+) Abort MDMA transfer
1054:Drivers/STM32H7xx_HAL_Driver/Src/stm32h7xx_hal_mdma.c ****       (+) Poll for transfer complete
1055:Drivers/STM32H7xx_HAL_Driver/Src/stm32h7xx_hal_mdma.c ****       (+) Generate a SW request (when Request is set to MDMA_REQUEST_SW)
1056:Drivers/STM32H7xx_HAL_Driver/Src/stm32h7xx_hal_mdma.c ****       (+) Handle MDMA interrupt request
1057:Drivers/STM32H7xx_HAL_Driver/Src/stm32h7xx_hal_mdma.c **** 
1058:Drivers/STM32H7xx_HAL_Driver/Src/stm32h7xx_hal_mdma.c **** @endverbatim
1059:Drivers/STM32H7xx_HAL_Driver/Src/stm32h7xx_hal_mdma.c ****   * @{
1060:Drivers/STM32H7xx_HAL_Driver/Src/stm32h7xx_hal_mdma.c ****   */
1061:Drivers/STM32H7xx_HAL_Driver/Src/stm32h7xx_hal_mdma.c **** 
ARM GAS  C:\Users\Su\AppData\Local\Temp\ccdx3s9E.s 			page 54


1062:Drivers/STM32H7xx_HAL_Driver/Src/stm32h7xx_hal_mdma.c **** /**
1063:Drivers/STM32H7xx_HAL_Driver/Src/stm32h7xx_hal_mdma.c ****   * @brief  Starts the MDMA Transfer.
1064:Drivers/STM32H7xx_HAL_Driver/Src/stm32h7xx_hal_mdma.c ****   * @param  hmdma           : pointer to a MDMA_HandleTypeDef structure that contains
1065:Drivers/STM32H7xx_HAL_Driver/Src/stm32h7xx_hal_mdma.c ****   *                           the configuration information for the specified MDMA Channel.
1066:Drivers/STM32H7xx_HAL_Driver/Src/stm32h7xx_hal_mdma.c ****   * @param  SrcAddress      : The source memory Buffer address
1067:Drivers/STM32H7xx_HAL_Driver/Src/stm32h7xx_hal_mdma.c ****   * @param  DstAddress      : The destination memory Buffer address
1068:Drivers/STM32H7xx_HAL_Driver/Src/stm32h7xx_hal_mdma.c ****   * @param  BlockDataLength : The length of a block transfer in bytes
1069:Drivers/STM32H7xx_HAL_Driver/Src/stm32h7xx_hal_mdma.c ****   * @param  BlockCount      : The number of a blocks to be transfer
1070:Drivers/STM32H7xx_HAL_Driver/Src/stm32h7xx_hal_mdma.c ****   * @retval HAL status
1071:Drivers/STM32H7xx_HAL_Driver/Src/stm32h7xx_hal_mdma.c ****   */
1072:Drivers/STM32H7xx_HAL_Driver/Src/stm32h7xx_hal_mdma.c **** HAL_StatusTypeDef HAL_MDMA_Start(MDMA_HandleTypeDef *hmdma, uint32_t SrcAddress, uint32_t DstAddres
1073:Drivers/STM32H7xx_HAL_Driver/Src/stm32h7xx_hal_mdma.c **** {
 1962              		.loc 1 1073 1
 1963              		.cfi_startproc
 1964              		@ args = 4, pretend = 0, frame = 16
 1965              		@ frame_needed = 1, uses_anonymous_args = 0
 1966 0000 80B5     		push	{r7, lr}
 1967              	.LCFI59:
 1968              		.cfi_def_cfa_offset 8
 1969              		.cfi_offset 7, -8
 1970              		.cfi_offset 14, -4
 1971 0002 86B0     		sub	sp, sp, #24
 1972              	.LCFI60:
 1973              		.cfi_def_cfa_offset 32
 1974 0004 02AF     		add	r7, sp, #8
 1975              	.LCFI61:
 1976              		.cfi_def_cfa 7, 24
 1977 0006 F860     		str	r0, [r7, #12]
 1978 0008 B960     		str	r1, [r7, #8]
 1979 000a 7A60     		str	r2, [r7, #4]
 1980 000c 3B60     		str	r3, [r7]
1074:Drivers/STM32H7xx_HAL_Driver/Src/stm32h7xx_hal_mdma.c ****   /* Check the parameters */
1075:Drivers/STM32H7xx_HAL_Driver/Src/stm32h7xx_hal_mdma.c ****   assert_param(IS_MDMA_TRANSFER_LENGTH(BlockDataLength));
1076:Drivers/STM32H7xx_HAL_Driver/Src/stm32h7xx_hal_mdma.c ****   assert_param(IS_MDMA_BLOCK_COUNT(BlockCount));
1077:Drivers/STM32H7xx_HAL_Driver/Src/stm32h7xx_hal_mdma.c **** 
1078:Drivers/STM32H7xx_HAL_Driver/Src/stm32h7xx_hal_mdma.c ****   /* Check the MDMA peripheral handle */
1079:Drivers/STM32H7xx_HAL_Driver/Src/stm32h7xx_hal_mdma.c ****   if(hmdma == NULL)
 1981              		.loc 1 1079 5
 1982 000e FB68     		ldr	r3, [r7, #12]
 1983 0010 002B     		cmp	r3, #0
 1984 0012 01D1     		bne	.L118
1080:Drivers/STM32H7xx_HAL_Driver/Src/stm32h7xx_hal_mdma.c ****   {
1081:Drivers/STM32H7xx_HAL_Driver/Src/stm32h7xx_hal_mdma.c ****     return HAL_ERROR;
 1985              		.loc 1 1081 12
 1986 0014 0123     		movs	r3, #1
 1987 0016 44E0     		b	.L119
 1988              	.L118:
1082:Drivers/STM32H7xx_HAL_Driver/Src/stm32h7xx_hal_mdma.c ****   }
1083:Drivers/STM32H7xx_HAL_Driver/Src/stm32h7xx_hal_mdma.c **** 
1084:Drivers/STM32H7xx_HAL_Driver/Src/stm32h7xx_hal_mdma.c ****   /* Process locked */
1085:Drivers/STM32H7xx_HAL_Driver/Src/stm32h7xx_hal_mdma.c ****   __HAL_LOCK(hmdma);
 1989              		.loc 1 1085 3
 1990 0018 FB68     		ldr	r3, [r7, #12]
 1991 001a 93F83C30 		ldrb	r3, [r3, #60]	@ zero_extendqisi2
 1992 001e 012B     		cmp	r3, #1
 1993 0020 01D1     		bne	.L120
 1994              		.loc 1 1085 3 is_stmt 0 discriminator 1
ARM GAS  C:\Users\Su\AppData\Local\Temp\ccdx3s9E.s 			page 55


 1995 0022 0223     		movs	r3, #2
 1996 0024 3DE0     		b	.L119
 1997              	.L120:
 1998              		.loc 1 1085 3 discriminator 2
 1999 0026 FB68     		ldr	r3, [r7, #12]
 2000 0028 0122     		movs	r2, #1
 2001 002a 83F83C20 		strb	r2, [r3, #60]
1086:Drivers/STM32H7xx_HAL_Driver/Src/stm32h7xx_hal_mdma.c **** 
1087:Drivers/STM32H7xx_HAL_Driver/Src/stm32h7xx_hal_mdma.c ****   if(HAL_MDMA_STATE_READY == hmdma->State)
 2002              		.loc 1 1087 35 is_stmt 1 discriminator 2
 2003 002e FB68     		ldr	r3, [r7, #12]
 2004 0030 93F83D30 		ldrb	r3, [r3, #61]
 2005 0034 DBB2     		uxtb	r3, r3
 2006              		.loc 1 1087 5 discriminator 2
 2007 0036 012B     		cmp	r3, #1
 2008 0038 2CD1     		bne	.L121
1088:Drivers/STM32H7xx_HAL_Driver/Src/stm32h7xx_hal_mdma.c ****   {
1089:Drivers/STM32H7xx_HAL_Driver/Src/stm32h7xx_hal_mdma.c ****     /* Change MDMA peripheral state */
1090:Drivers/STM32H7xx_HAL_Driver/Src/stm32h7xx_hal_mdma.c ****     hmdma->State = HAL_MDMA_STATE_BUSY;
 2009              		.loc 1 1090 18
 2010 003a FB68     		ldr	r3, [r7, #12]
 2011 003c 0222     		movs	r2, #2
 2012 003e 83F83D20 		strb	r2, [r3, #61]
1091:Drivers/STM32H7xx_HAL_Driver/Src/stm32h7xx_hal_mdma.c **** 
1092:Drivers/STM32H7xx_HAL_Driver/Src/stm32h7xx_hal_mdma.c ****     /* Initialize the error code */
1093:Drivers/STM32H7xx_HAL_Driver/Src/stm32h7xx_hal_mdma.c ****     hmdma->ErrorCode = HAL_MDMA_ERROR_NONE;
 2013              		.loc 1 1093 22
 2014 0042 FB68     		ldr	r3, [r7, #12]
 2015 0044 0022     		movs	r2, #0
 2016 0046 9A66     		str	r2, [r3, #104]
1094:Drivers/STM32H7xx_HAL_Driver/Src/stm32h7xx_hal_mdma.c **** 
1095:Drivers/STM32H7xx_HAL_Driver/Src/stm32h7xx_hal_mdma.c ****     /* Disable the peripheral */
1096:Drivers/STM32H7xx_HAL_Driver/Src/stm32h7xx_hal_mdma.c ****     __HAL_MDMA_DISABLE(hmdma);
 2017              		.loc 1 1096 5
 2018 0048 FB68     		ldr	r3, [r7, #12]
 2019 004a 1B68     		ldr	r3, [r3]
 2020 004c DA68     		ldr	r2, [r3, #12]
 2021 004e FB68     		ldr	r3, [r7, #12]
 2022 0050 1B68     		ldr	r3, [r3]
 2023 0052 22F00102 		bic	r2, r2, #1
 2024 0056 DA60     		str	r2, [r3, #12]
1097:Drivers/STM32H7xx_HAL_Driver/Src/stm32h7xx_hal_mdma.c **** 
1098:Drivers/STM32H7xx_HAL_Driver/Src/stm32h7xx_hal_mdma.c ****     /* Configure the source, destination address and the data length */
1099:Drivers/STM32H7xx_HAL_Driver/Src/stm32h7xx_hal_mdma.c ****     MDMA_SetConfig(hmdma, SrcAddress, DstAddress, BlockDataLength, BlockCount);
 2025              		.loc 1 1099 5
 2026 0058 BB69     		ldr	r3, [r7, #24]
 2027 005a 0093     		str	r3, [sp]
 2028 005c 3B68     		ldr	r3, [r7]
 2029 005e 7A68     		ldr	r2, [r7, #4]
 2030 0060 B968     		ldr	r1, [r7, #8]
 2031 0062 F868     		ldr	r0, [r7, #12]
 2032 0064 FFF7FEFF 		bl	MDMA_SetConfig
1100:Drivers/STM32H7xx_HAL_Driver/Src/stm32h7xx_hal_mdma.c **** 
1101:Drivers/STM32H7xx_HAL_Driver/Src/stm32h7xx_hal_mdma.c ****     /* Enable the Peripheral */
1102:Drivers/STM32H7xx_HAL_Driver/Src/stm32h7xx_hal_mdma.c ****     __HAL_MDMA_ENABLE(hmdma);
 2033              		.loc 1 1102 5
 2034 0068 FB68     		ldr	r3, [r7, #12]
ARM GAS  C:\Users\Su\AppData\Local\Temp\ccdx3s9E.s 			page 56


 2035 006a 1B68     		ldr	r3, [r3]
 2036 006c DA68     		ldr	r2, [r3, #12]
 2037 006e FB68     		ldr	r3, [r7, #12]
 2038 0070 1B68     		ldr	r3, [r3]
 2039 0072 42F00102 		orr	r2, r2, #1
 2040 0076 DA60     		str	r2, [r3, #12]
1103:Drivers/STM32H7xx_HAL_Driver/Src/stm32h7xx_hal_mdma.c **** 
1104:Drivers/STM32H7xx_HAL_Driver/Src/stm32h7xx_hal_mdma.c ****     if(hmdma->Init.Request == MDMA_REQUEST_SW)
 2041              		.loc 1 1104 19
 2042 0078 FB68     		ldr	r3, [r7, #12]
 2043 007a 5B68     		ldr	r3, [r3, #4]
 2044              		.loc 1 1104 7
 2045 007c B3F1804F 		cmp	r3, #1073741824
 2046 0080 0ED1     		bne	.L122
1105:Drivers/STM32H7xx_HAL_Driver/Src/stm32h7xx_hal_mdma.c ****     {
1106:Drivers/STM32H7xx_HAL_Driver/Src/stm32h7xx_hal_mdma.c ****       /* activate If SW request mode*/
1107:Drivers/STM32H7xx_HAL_Driver/Src/stm32h7xx_hal_mdma.c ****       hmdma->Instance->CCR |=  MDMA_CCR_SWRQ;
 2047              		.loc 1 1107 12
 2048 0082 FB68     		ldr	r3, [r7, #12]
 2049 0084 1B68     		ldr	r3, [r3]
 2050              		.loc 1 1107 28
 2051 0086 DA68     		ldr	r2, [r3, #12]
 2052              		.loc 1 1107 12
 2053 0088 FB68     		ldr	r3, [r7, #12]
 2054 008a 1B68     		ldr	r3, [r3]
 2055              		.loc 1 1107 28
 2056 008c 42F48032 		orr	r2, r2, #65536
 2057 0090 DA60     		str	r2, [r3, #12]
 2058 0092 05E0     		b	.L122
 2059              	.L121:
1108:Drivers/STM32H7xx_HAL_Driver/Src/stm32h7xx_hal_mdma.c ****     }
1109:Drivers/STM32H7xx_HAL_Driver/Src/stm32h7xx_hal_mdma.c ****   }
1110:Drivers/STM32H7xx_HAL_Driver/Src/stm32h7xx_hal_mdma.c ****   else
1111:Drivers/STM32H7xx_HAL_Driver/Src/stm32h7xx_hal_mdma.c ****   {
1112:Drivers/STM32H7xx_HAL_Driver/Src/stm32h7xx_hal_mdma.c ****     /* Process unlocked */
1113:Drivers/STM32H7xx_HAL_Driver/Src/stm32h7xx_hal_mdma.c ****     __HAL_UNLOCK(hmdma);
 2060              		.loc 1 1113 5
 2061 0094 FB68     		ldr	r3, [r7, #12]
 2062 0096 0022     		movs	r2, #0
 2063 0098 83F83C20 		strb	r2, [r3, #60]
1114:Drivers/STM32H7xx_HAL_Driver/Src/stm32h7xx_hal_mdma.c **** 
1115:Drivers/STM32H7xx_HAL_Driver/Src/stm32h7xx_hal_mdma.c ****     /* Return error status */
1116:Drivers/STM32H7xx_HAL_Driver/Src/stm32h7xx_hal_mdma.c ****     return HAL_BUSY;
 2064              		.loc 1 1116 12
 2065 009c 0223     		movs	r3, #2
 2066 009e 00E0     		b	.L119
 2067              	.L122:
1117:Drivers/STM32H7xx_HAL_Driver/Src/stm32h7xx_hal_mdma.c ****   }
1118:Drivers/STM32H7xx_HAL_Driver/Src/stm32h7xx_hal_mdma.c **** 
1119:Drivers/STM32H7xx_HAL_Driver/Src/stm32h7xx_hal_mdma.c ****   return HAL_OK;
 2068              		.loc 1 1119 10
 2069 00a0 0023     		movs	r3, #0
 2070              	.L119:
1120:Drivers/STM32H7xx_HAL_Driver/Src/stm32h7xx_hal_mdma.c **** }
 2071              		.loc 1 1120 1
 2072 00a2 1846     		mov	r0, r3
 2073 00a4 1037     		adds	r7, r7, #16
ARM GAS  C:\Users\Su\AppData\Local\Temp\ccdx3s9E.s 			page 57


 2074              	.LCFI62:
 2075              		.cfi_def_cfa_offset 8
 2076 00a6 BD46     		mov	sp, r7
 2077              	.LCFI63:
 2078              		.cfi_def_cfa_register 13
 2079              		@ sp needed
 2080 00a8 80BD     		pop	{r7, pc}
 2081              		.cfi_endproc
 2082              	.LFE154:
 2084              		.section	.text.HAL_MDMA_Start_IT,"ax",%progbits
 2085              		.align	1
 2086              		.global	HAL_MDMA_Start_IT
 2087              		.syntax unified
 2088              		.thumb
 2089              		.thumb_func
 2091              	HAL_MDMA_Start_IT:
 2092              	.LFB155:
1121:Drivers/STM32H7xx_HAL_Driver/Src/stm32h7xx_hal_mdma.c **** 
1122:Drivers/STM32H7xx_HAL_Driver/Src/stm32h7xx_hal_mdma.c **** /**
1123:Drivers/STM32H7xx_HAL_Driver/Src/stm32h7xx_hal_mdma.c ****   * @brief  Starts the MDMA Transfer with interrupts enabled.
1124:Drivers/STM32H7xx_HAL_Driver/Src/stm32h7xx_hal_mdma.c ****   * @param  hmdma           : pointer to a MDMA_HandleTypeDef structure that contains
1125:Drivers/STM32H7xx_HAL_Driver/Src/stm32h7xx_hal_mdma.c ****   *                           the configuration information for the specified MDMA Channel.
1126:Drivers/STM32H7xx_HAL_Driver/Src/stm32h7xx_hal_mdma.c ****   * @param  SrcAddress      : The source memory Buffer address
1127:Drivers/STM32H7xx_HAL_Driver/Src/stm32h7xx_hal_mdma.c ****   * @param  DstAddress      : The destination memory Buffer address
1128:Drivers/STM32H7xx_HAL_Driver/Src/stm32h7xx_hal_mdma.c ****   * @param  BlockDataLength : The length of a block transfer in bytes
1129:Drivers/STM32H7xx_HAL_Driver/Src/stm32h7xx_hal_mdma.c ****   * @param  BlockCount      : The number of a blocks to be transfer
1130:Drivers/STM32H7xx_HAL_Driver/Src/stm32h7xx_hal_mdma.c ****   * @retval HAL status
1131:Drivers/STM32H7xx_HAL_Driver/Src/stm32h7xx_hal_mdma.c ****   */
1132:Drivers/STM32H7xx_HAL_Driver/Src/stm32h7xx_hal_mdma.c **** HAL_StatusTypeDef HAL_MDMA_Start_IT(MDMA_HandleTypeDef *hmdma, uint32_t SrcAddress, uint32_t DstAdd
1133:Drivers/STM32H7xx_HAL_Driver/Src/stm32h7xx_hal_mdma.c **** {
 2093              		.loc 1 1133 1
 2094              		.cfi_startproc
 2095              		@ args = 4, pretend = 0, frame = 16
 2096              		@ frame_needed = 1, uses_anonymous_args = 0
 2097 0000 80B5     		push	{r7, lr}
 2098              	.LCFI64:
 2099              		.cfi_def_cfa_offset 8
 2100              		.cfi_offset 7, -8
 2101              		.cfi_offset 14, -4
 2102 0002 86B0     		sub	sp, sp, #24
 2103              	.LCFI65:
 2104              		.cfi_def_cfa_offset 32
 2105 0004 02AF     		add	r7, sp, #8
 2106              	.LCFI66:
 2107              		.cfi_def_cfa 7, 24
 2108 0006 F860     		str	r0, [r7, #12]
 2109 0008 B960     		str	r1, [r7, #8]
 2110 000a 7A60     		str	r2, [r7, #4]
 2111 000c 3B60     		str	r3, [r7]
1134:Drivers/STM32H7xx_HAL_Driver/Src/stm32h7xx_hal_mdma.c ****   /* Check the parameters */
1135:Drivers/STM32H7xx_HAL_Driver/Src/stm32h7xx_hal_mdma.c ****   assert_param(IS_MDMA_TRANSFER_LENGTH(BlockDataLength));
1136:Drivers/STM32H7xx_HAL_Driver/Src/stm32h7xx_hal_mdma.c ****   assert_param(IS_MDMA_BLOCK_COUNT(BlockCount));
1137:Drivers/STM32H7xx_HAL_Driver/Src/stm32h7xx_hal_mdma.c **** 
1138:Drivers/STM32H7xx_HAL_Driver/Src/stm32h7xx_hal_mdma.c ****   /* Check the MDMA peripheral handle */
1139:Drivers/STM32H7xx_HAL_Driver/Src/stm32h7xx_hal_mdma.c ****   if(hmdma == NULL)
 2112              		.loc 1 1139 5
 2113 000e FB68     		ldr	r3, [r7, #12]
ARM GAS  C:\Users\Su\AppData\Local\Temp\ccdx3s9E.s 			page 58


 2114 0010 002B     		cmp	r3, #0
 2115 0012 01D1     		bne	.L124
1140:Drivers/STM32H7xx_HAL_Driver/Src/stm32h7xx_hal_mdma.c ****   {
1141:Drivers/STM32H7xx_HAL_Driver/Src/stm32h7xx_hal_mdma.c ****     return HAL_ERROR;
 2116              		.loc 1 1141 12
 2117 0014 0123     		movs	r3, #1
 2118 0016 70E0     		b	.L125
 2119              	.L124:
1142:Drivers/STM32H7xx_HAL_Driver/Src/stm32h7xx_hal_mdma.c ****   }
1143:Drivers/STM32H7xx_HAL_Driver/Src/stm32h7xx_hal_mdma.c **** 
1144:Drivers/STM32H7xx_HAL_Driver/Src/stm32h7xx_hal_mdma.c ****   /* Process locked */
1145:Drivers/STM32H7xx_HAL_Driver/Src/stm32h7xx_hal_mdma.c ****   __HAL_LOCK(hmdma);
 2120              		.loc 1 1145 3
 2121 0018 FB68     		ldr	r3, [r7, #12]
 2122 001a 93F83C30 		ldrb	r3, [r3, #60]	@ zero_extendqisi2
 2123 001e 012B     		cmp	r3, #1
 2124 0020 01D1     		bne	.L126
 2125              		.loc 1 1145 3 is_stmt 0 discriminator 1
 2126 0022 0223     		movs	r3, #2
 2127 0024 69E0     		b	.L125
 2128              	.L126:
 2129              		.loc 1 1145 3 discriminator 2
 2130 0026 FB68     		ldr	r3, [r7, #12]
 2131 0028 0122     		movs	r2, #1
 2132 002a 83F83C20 		strb	r2, [r3, #60]
1146:Drivers/STM32H7xx_HAL_Driver/Src/stm32h7xx_hal_mdma.c **** 
1147:Drivers/STM32H7xx_HAL_Driver/Src/stm32h7xx_hal_mdma.c ****   if(HAL_MDMA_STATE_READY == hmdma->State)
 2133              		.loc 1 1147 35 is_stmt 1 discriminator 2
 2134 002e FB68     		ldr	r3, [r7, #12]
 2135 0030 93F83D30 		ldrb	r3, [r3, #61]
 2136 0034 DBB2     		uxtb	r3, r3
 2137              		.loc 1 1147 5 discriminator 2
 2138 0036 012B     		cmp	r3, #1
 2139 0038 58D1     		bne	.L127
1148:Drivers/STM32H7xx_HAL_Driver/Src/stm32h7xx_hal_mdma.c ****   {
1149:Drivers/STM32H7xx_HAL_Driver/Src/stm32h7xx_hal_mdma.c ****     /* Change MDMA peripheral state */
1150:Drivers/STM32H7xx_HAL_Driver/Src/stm32h7xx_hal_mdma.c ****     hmdma->State = HAL_MDMA_STATE_BUSY;
 2140              		.loc 1 1150 18
 2141 003a FB68     		ldr	r3, [r7, #12]
 2142 003c 0222     		movs	r2, #2
 2143 003e 83F83D20 		strb	r2, [r3, #61]
1151:Drivers/STM32H7xx_HAL_Driver/Src/stm32h7xx_hal_mdma.c **** 
1152:Drivers/STM32H7xx_HAL_Driver/Src/stm32h7xx_hal_mdma.c ****     /* Initialize the error code */
1153:Drivers/STM32H7xx_HAL_Driver/Src/stm32h7xx_hal_mdma.c ****     hmdma->ErrorCode = HAL_MDMA_ERROR_NONE;
 2144              		.loc 1 1153 22
 2145 0042 FB68     		ldr	r3, [r7, #12]
 2146 0044 0022     		movs	r2, #0
 2147 0046 9A66     		str	r2, [r3, #104]
1154:Drivers/STM32H7xx_HAL_Driver/Src/stm32h7xx_hal_mdma.c **** 
1155:Drivers/STM32H7xx_HAL_Driver/Src/stm32h7xx_hal_mdma.c ****     /* Disable the peripheral */
1156:Drivers/STM32H7xx_HAL_Driver/Src/stm32h7xx_hal_mdma.c ****     __HAL_MDMA_DISABLE(hmdma);
 2148              		.loc 1 1156 5
 2149 0048 FB68     		ldr	r3, [r7, #12]
 2150 004a 1B68     		ldr	r3, [r3]
 2151 004c DA68     		ldr	r2, [r3, #12]
 2152 004e FB68     		ldr	r3, [r7, #12]
 2153 0050 1B68     		ldr	r3, [r3]
ARM GAS  C:\Users\Su\AppData\Local\Temp\ccdx3s9E.s 			page 59


 2154 0052 22F00102 		bic	r2, r2, #1
 2155 0056 DA60     		str	r2, [r3, #12]
1157:Drivers/STM32H7xx_HAL_Driver/Src/stm32h7xx_hal_mdma.c **** 
1158:Drivers/STM32H7xx_HAL_Driver/Src/stm32h7xx_hal_mdma.c ****     /* Configure the source, destination address and the data length */
1159:Drivers/STM32H7xx_HAL_Driver/Src/stm32h7xx_hal_mdma.c ****     MDMA_SetConfig(hmdma, SrcAddress, DstAddress, BlockDataLength, BlockCount);
 2156              		.loc 1 1159 5
 2157 0058 BB69     		ldr	r3, [r7, #24]
 2158 005a 0093     		str	r3, [sp]
 2159 005c 3B68     		ldr	r3, [r7]
 2160 005e 7A68     		ldr	r2, [r7, #4]
 2161 0060 B968     		ldr	r1, [r7, #8]
 2162 0062 F868     		ldr	r0, [r7, #12]
 2163 0064 FFF7FEFF 		bl	MDMA_SetConfig
1160:Drivers/STM32H7xx_HAL_Driver/Src/stm32h7xx_hal_mdma.c **** 
1161:Drivers/STM32H7xx_HAL_Driver/Src/stm32h7xx_hal_mdma.c ****     /* Enable Common interrupts i.e Transfer Error IT and Channel Transfer Complete IT*/
1162:Drivers/STM32H7xx_HAL_Driver/Src/stm32h7xx_hal_mdma.c ****     __HAL_MDMA_ENABLE_IT(hmdma, (MDMA_IT_TE | MDMA_IT_CTC));
 2164              		.loc 1 1162 5
 2165 0068 FB68     		ldr	r3, [r7, #12]
 2166 006a 1B68     		ldr	r3, [r3]
 2167 006c DA68     		ldr	r2, [r3, #12]
 2168 006e FB68     		ldr	r3, [r7, #12]
 2169 0070 1B68     		ldr	r3, [r3]
 2170 0072 42F00602 		orr	r2, r2, #6
 2171 0076 DA60     		str	r2, [r3, #12]
1163:Drivers/STM32H7xx_HAL_Driver/Src/stm32h7xx_hal_mdma.c **** 
1164:Drivers/STM32H7xx_HAL_Driver/Src/stm32h7xx_hal_mdma.c ****     if(hmdma->XferBlockCpltCallback != NULL)
 2172              		.loc 1 1164 13
 2173 0078 FB68     		ldr	r3, [r7, #12]
 2174 007a DB6C     		ldr	r3, [r3, #76]
 2175              		.loc 1 1164 7
 2176 007c 002B     		cmp	r3, #0
 2177 007e 07D0     		beq	.L128
1165:Drivers/STM32H7xx_HAL_Driver/Src/stm32h7xx_hal_mdma.c ****     {
1166:Drivers/STM32H7xx_HAL_Driver/Src/stm32h7xx_hal_mdma.c ****       /* if Block transfer complete Callback is set enable the corresponding IT*/
1167:Drivers/STM32H7xx_HAL_Driver/Src/stm32h7xx_hal_mdma.c ****       __HAL_MDMA_ENABLE_IT(hmdma, MDMA_IT_BT);
 2178              		.loc 1 1167 7
 2179 0080 FB68     		ldr	r3, [r7, #12]
 2180 0082 1B68     		ldr	r3, [r3]
 2181 0084 DA68     		ldr	r2, [r3, #12]
 2182 0086 FB68     		ldr	r3, [r7, #12]
 2183 0088 1B68     		ldr	r3, [r3]
 2184 008a 42F01002 		orr	r2, r2, #16
 2185 008e DA60     		str	r2, [r3, #12]
 2186              	.L128:
1168:Drivers/STM32H7xx_HAL_Driver/Src/stm32h7xx_hal_mdma.c ****     }
1169:Drivers/STM32H7xx_HAL_Driver/Src/stm32h7xx_hal_mdma.c **** 
1170:Drivers/STM32H7xx_HAL_Driver/Src/stm32h7xx_hal_mdma.c ****     if(hmdma->XferRepeatBlockCpltCallback != NULL)
 2187              		.loc 1 1170 13
 2188 0090 FB68     		ldr	r3, [r7, #12]
 2189 0092 1B6D     		ldr	r3, [r3, #80]
 2190              		.loc 1 1170 7
 2191 0094 002B     		cmp	r3, #0
 2192 0096 07D0     		beq	.L129
1171:Drivers/STM32H7xx_HAL_Driver/Src/stm32h7xx_hal_mdma.c ****     {
1172:Drivers/STM32H7xx_HAL_Driver/Src/stm32h7xx_hal_mdma.c ****       /* if Repeated Block transfer complete Callback is set enable the corresponding IT*/
1173:Drivers/STM32H7xx_HAL_Driver/Src/stm32h7xx_hal_mdma.c ****       __HAL_MDMA_ENABLE_IT(hmdma, MDMA_IT_BRT);
 2193              		.loc 1 1173 7
ARM GAS  C:\Users\Su\AppData\Local\Temp\ccdx3s9E.s 			page 60


 2194 0098 FB68     		ldr	r3, [r7, #12]
 2195 009a 1B68     		ldr	r3, [r3]
 2196 009c DA68     		ldr	r2, [r3, #12]
 2197 009e FB68     		ldr	r3, [r7, #12]
 2198 00a0 1B68     		ldr	r3, [r3]
 2199 00a2 42F00802 		orr	r2, r2, #8
 2200 00a6 DA60     		str	r2, [r3, #12]
 2201              	.L129:
1174:Drivers/STM32H7xx_HAL_Driver/Src/stm32h7xx_hal_mdma.c ****     }
1175:Drivers/STM32H7xx_HAL_Driver/Src/stm32h7xx_hal_mdma.c **** 
1176:Drivers/STM32H7xx_HAL_Driver/Src/stm32h7xx_hal_mdma.c ****     if(hmdma->XferBufferCpltCallback != NULL)
 2202              		.loc 1 1176 13
 2203 00a8 FB68     		ldr	r3, [r7, #12]
 2204 00aa 9B6C     		ldr	r3, [r3, #72]
 2205              		.loc 1 1176 7
 2206 00ac 002B     		cmp	r3, #0
 2207 00ae 07D0     		beq	.L130
1177:Drivers/STM32H7xx_HAL_Driver/Src/stm32h7xx_hal_mdma.c ****     {
1178:Drivers/STM32H7xx_HAL_Driver/Src/stm32h7xx_hal_mdma.c ****       /* if buffer transfer complete Callback is set enable the corresponding IT*/
1179:Drivers/STM32H7xx_HAL_Driver/Src/stm32h7xx_hal_mdma.c ****       __HAL_MDMA_ENABLE_IT(hmdma, MDMA_IT_BFTC);
 2208              		.loc 1 1179 7
 2209 00b0 FB68     		ldr	r3, [r7, #12]
 2210 00b2 1B68     		ldr	r3, [r3]
 2211 00b4 DA68     		ldr	r2, [r3, #12]
 2212 00b6 FB68     		ldr	r3, [r7, #12]
 2213 00b8 1B68     		ldr	r3, [r3]
 2214 00ba 42F02002 		orr	r2, r2, #32
 2215 00be DA60     		str	r2, [r3, #12]
 2216              	.L130:
1180:Drivers/STM32H7xx_HAL_Driver/Src/stm32h7xx_hal_mdma.c ****     }
1181:Drivers/STM32H7xx_HAL_Driver/Src/stm32h7xx_hal_mdma.c **** 
1182:Drivers/STM32H7xx_HAL_Driver/Src/stm32h7xx_hal_mdma.c ****     /* Enable the Peripheral */
1183:Drivers/STM32H7xx_HAL_Driver/Src/stm32h7xx_hal_mdma.c ****     __HAL_MDMA_ENABLE(hmdma);
 2217              		.loc 1 1183 5
 2218 00c0 FB68     		ldr	r3, [r7, #12]
 2219 00c2 1B68     		ldr	r3, [r3]
 2220 00c4 DA68     		ldr	r2, [r3, #12]
 2221 00c6 FB68     		ldr	r3, [r7, #12]
 2222 00c8 1B68     		ldr	r3, [r3]
 2223 00ca 42F00102 		orr	r2, r2, #1
 2224 00ce DA60     		str	r2, [r3, #12]
1184:Drivers/STM32H7xx_HAL_Driver/Src/stm32h7xx_hal_mdma.c **** 
1185:Drivers/STM32H7xx_HAL_Driver/Src/stm32h7xx_hal_mdma.c ****     if(hmdma->Init.Request == MDMA_REQUEST_SW)
 2225              		.loc 1 1185 19
 2226 00d0 FB68     		ldr	r3, [r7, #12]
 2227 00d2 5B68     		ldr	r3, [r3, #4]
 2228              		.loc 1 1185 7
 2229 00d4 B3F1804F 		cmp	r3, #1073741824
 2230 00d8 0ED1     		bne	.L131
1186:Drivers/STM32H7xx_HAL_Driver/Src/stm32h7xx_hal_mdma.c ****     {
1187:Drivers/STM32H7xx_HAL_Driver/Src/stm32h7xx_hal_mdma.c ****       /* activate If SW request mode*/
1188:Drivers/STM32H7xx_HAL_Driver/Src/stm32h7xx_hal_mdma.c ****       hmdma->Instance->CCR |=  MDMA_CCR_SWRQ;
 2231              		.loc 1 1188 12
 2232 00da FB68     		ldr	r3, [r7, #12]
 2233 00dc 1B68     		ldr	r3, [r3]
 2234              		.loc 1 1188 28
 2235 00de DA68     		ldr	r2, [r3, #12]
ARM GAS  C:\Users\Su\AppData\Local\Temp\ccdx3s9E.s 			page 61


 2236              		.loc 1 1188 12
 2237 00e0 FB68     		ldr	r3, [r7, #12]
 2238 00e2 1B68     		ldr	r3, [r3]
 2239              		.loc 1 1188 28
 2240 00e4 42F48032 		orr	r2, r2, #65536
 2241 00e8 DA60     		str	r2, [r3, #12]
 2242 00ea 05E0     		b	.L131
 2243              	.L127:
1189:Drivers/STM32H7xx_HAL_Driver/Src/stm32h7xx_hal_mdma.c ****     }
1190:Drivers/STM32H7xx_HAL_Driver/Src/stm32h7xx_hal_mdma.c ****   }
1191:Drivers/STM32H7xx_HAL_Driver/Src/stm32h7xx_hal_mdma.c ****   else
1192:Drivers/STM32H7xx_HAL_Driver/Src/stm32h7xx_hal_mdma.c ****   {
1193:Drivers/STM32H7xx_HAL_Driver/Src/stm32h7xx_hal_mdma.c ****     /* Process unlocked */
1194:Drivers/STM32H7xx_HAL_Driver/Src/stm32h7xx_hal_mdma.c ****     __HAL_UNLOCK(hmdma);
 2244              		.loc 1 1194 5
 2245 00ec FB68     		ldr	r3, [r7, #12]
 2246 00ee 0022     		movs	r2, #0
 2247 00f0 83F83C20 		strb	r2, [r3, #60]
1195:Drivers/STM32H7xx_HAL_Driver/Src/stm32h7xx_hal_mdma.c **** 
1196:Drivers/STM32H7xx_HAL_Driver/Src/stm32h7xx_hal_mdma.c ****     /* Return error status */
1197:Drivers/STM32H7xx_HAL_Driver/Src/stm32h7xx_hal_mdma.c ****     return HAL_BUSY;
 2248              		.loc 1 1197 12
 2249 00f4 0223     		movs	r3, #2
 2250 00f6 00E0     		b	.L125
 2251              	.L131:
1198:Drivers/STM32H7xx_HAL_Driver/Src/stm32h7xx_hal_mdma.c ****   }
1199:Drivers/STM32H7xx_HAL_Driver/Src/stm32h7xx_hal_mdma.c **** 
1200:Drivers/STM32H7xx_HAL_Driver/Src/stm32h7xx_hal_mdma.c ****   return HAL_OK;
 2252              		.loc 1 1200 10
 2253 00f8 0023     		movs	r3, #0
 2254              	.L125:
1201:Drivers/STM32H7xx_HAL_Driver/Src/stm32h7xx_hal_mdma.c **** }
 2255              		.loc 1 1201 1
 2256 00fa 1846     		mov	r0, r3
 2257 00fc 1037     		adds	r7, r7, #16
 2258              	.LCFI67:
 2259              		.cfi_def_cfa_offset 8
 2260 00fe BD46     		mov	sp, r7
 2261              	.LCFI68:
 2262              		.cfi_def_cfa_register 13
 2263              		@ sp needed
 2264 0100 80BD     		pop	{r7, pc}
 2265              		.cfi_endproc
 2266              	.LFE155:
 2268              		.section	.text.HAL_MDMA_Abort,"ax",%progbits
 2269              		.align	1
 2270              		.global	HAL_MDMA_Abort
 2271              		.syntax unified
 2272              		.thumb
 2273              		.thumb_func
 2275              	HAL_MDMA_Abort:
 2276              	.LFB156:
1202:Drivers/STM32H7xx_HAL_Driver/Src/stm32h7xx_hal_mdma.c **** 
1203:Drivers/STM32H7xx_HAL_Driver/Src/stm32h7xx_hal_mdma.c **** /**
1204:Drivers/STM32H7xx_HAL_Driver/Src/stm32h7xx_hal_mdma.c ****   * @brief  Aborts the MDMA Transfer.
1205:Drivers/STM32H7xx_HAL_Driver/Src/stm32h7xx_hal_mdma.c ****   * @param  hmdma  : pointer to a MDMA_HandleTypeDef structure that contains
1206:Drivers/STM32H7xx_HAL_Driver/Src/stm32h7xx_hal_mdma.c ****   *                 the configuration information for the specified MDMA Channel.
ARM GAS  C:\Users\Su\AppData\Local\Temp\ccdx3s9E.s 			page 62


1207:Drivers/STM32H7xx_HAL_Driver/Src/stm32h7xx_hal_mdma.c ****   *
1208:Drivers/STM32H7xx_HAL_Driver/Src/stm32h7xx_hal_mdma.c ****   * @note  After disabling a MDMA Channel, a check for wait until the MDMA Channel is
1209:Drivers/STM32H7xx_HAL_Driver/Src/stm32h7xx_hal_mdma.c ****   *        effectively disabled is added. If a Channel is disabled
1210:Drivers/STM32H7xx_HAL_Driver/Src/stm32h7xx_hal_mdma.c ****   *        while a data transfer is ongoing, the current data will be transferred
1211:Drivers/STM32H7xx_HAL_Driver/Src/stm32h7xx_hal_mdma.c ****   *        and the Channel will be effectively disabled only after the transfer of
1212:Drivers/STM32H7xx_HAL_Driver/Src/stm32h7xx_hal_mdma.c ****   *        this single data is finished.
1213:Drivers/STM32H7xx_HAL_Driver/Src/stm32h7xx_hal_mdma.c ****   * @retval HAL status
1214:Drivers/STM32H7xx_HAL_Driver/Src/stm32h7xx_hal_mdma.c ****   */
1215:Drivers/STM32H7xx_HAL_Driver/Src/stm32h7xx_hal_mdma.c **** HAL_StatusTypeDef HAL_MDMA_Abort(MDMA_HandleTypeDef *hmdma)
1216:Drivers/STM32H7xx_HAL_Driver/Src/stm32h7xx_hal_mdma.c **** {
 2277              		.loc 1 1216 1
 2278              		.cfi_startproc
 2279              		@ args = 0, pretend = 0, frame = 16
 2280              		@ frame_needed = 1, uses_anonymous_args = 0
 2281 0000 80B5     		push	{r7, lr}
 2282              	.LCFI69:
 2283              		.cfi_def_cfa_offset 8
 2284              		.cfi_offset 7, -8
 2285              		.cfi_offset 14, -4
 2286 0002 84B0     		sub	sp, sp, #16
 2287              	.LCFI70:
 2288              		.cfi_def_cfa_offset 24
 2289 0004 00AF     		add	r7, sp, #0
 2290              	.LCFI71:
 2291              		.cfi_def_cfa_register 7
 2292 0006 7860     		str	r0, [r7, #4]
1217:Drivers/STM32H7xx_HAL_Driver/Src/stm32h7xx_hal_mdma.c ****   uint32_t tickstart =  HAL_GetTick();
 2293              		.loc 1 1217 25
 2294 0008 FFF7FEFF 		bl	HAL_GetTick
 2295 000c F860     		str	r0, [r7, #12]
1218:Drivers/STM32H7xx_HAL_Driver/Src/stm32h7xx_hal_mdma.c **** 
1219:Drivers/STM32H7xx_HAL_Driver/Src/stm32h7xx_hal_mdma.c ****   /* Check the MDMA peripheral handle */
1220:Drivers/STM32H7xx_HAL_Driver/Src/stm32h7xx_hal_mdma.c ****   if(hmdma == NULL)
 2296              		.loc 1 1220 5
 2297 000e 7B68     		ldr	r3, [r7, #4]
 2298 0010 002B     		cmp	r3, #0
 2299 0012 01D1     		bne	.L133
1221:Drivers/STM32H7xx_HAL_Driver/Src/stm32h7xx_hal_mdma.c ****   {
1222:Drivers/STM32H7xx_HAL_Driver/Src/stm32h7xx_hal_mdma.c ****     return HAL_ERROR;
 2300              		.loc 1 1222 12
 2301 0014 0123     		movs	r3, #1
 2302 0016 4AE0     		b	.L134
 2303              	.L133:
1223:Drivers/STM32H7xx_HAL_Driver/Src/stm32h7xx_hal_mdma.c ****   }
1224:Drivers/STM32H7xx_HAL_Driver/Src/stm32h7xx_hal_mdma.c **** 
1225:Drivers/STM32H7xx_HAL_Driver/Src/stm32h7xx_hal_mdma.c ****   if(HAL_MDMA_STATE_BUSY != hmdma->State)
 2304              		.loc 1 1225 34
 2305 0018 7B68     		ldr	r3, [r7, #4]
 2306 001a 93F83D30 		ldrb	r3, [r3, #61]
 2307 001e DBB2     		uxtb	r3, r3
 2308              		.loc 1 1225 5
 2309 0020 022B     		cmp	r3, #2
 2310 0022 08D0     		beq	.L135
1226:Drivers/STM32H7xx_HAL_Driver/Src/stm32h7xx_hal_mdma.c ****   {
1227:Drivers/STM32H7xx_HAL_Driver/Src/stm32h7xx_hal_mdma.c ****     hmdma->ErrorCode = HAL_MDMA_ERROR_NO_XFER;
 2311              		.loc 1 1227 22
 2312 0024 7B68     		ldr	r3, [r7, #4]
ARM GAS  C:\Users\Su\AppData\Local\Temp\ccdx3s9E.s 			page 63


 2313 0026 8022     		movs	r2, #128
 2314 0028 9A66     		str	r2, [r3, #104]
1228:Drivers/STM32H7xx_HAL_Driver/Src/stm32h7xx_hal_mdma.c **** 
1229:Drivers/STM32H7xx_HAL_Driver/Src/stm32h7xx_hal_mdma.c ****     /* Process Unlocked */
1230:Drivers/STM32H7xx_HAL_Driver/Src/stm32h7xx_hal_mdma.c ****     __HAL_UNLOCK(hmdma);
 2315              		.loc 1 1230 5
 2316 002a 7B68     		ldr	r3, [r7, #4]
 2317 002c 0022     		movs	r2, #0
 2318 002e 83F83C20 		strb	r2, [r3, #60]
1231:Drivers/STM32H7xx_HAL_Driver/Src/stm32h7xx_hal_mdma.c **** 
1232:Drivers/STM32H7xx_HAL_Driver/Src/stm32h7xx_hal_mdma.c ****     return HAL_ERROR;
 2319              		.loc 1 1232 12
 2320 0032 0123     		movs	r3, #1
 2321 0034 3BE0     		b	.L134
 2322              	.L135:
1233:Drivers/STM32H7xx_HAL_Driver/Src/stm32h7xx_hal_mdma.c ****   }
1234:Drivers/STM32H7xx_HAL_Driver/Src/stm32h7xx_hal_mdma.c ****   else
1235:Drivers/STM32H7xx_HAL_Driver/Src/stm32h7xx_hal_mdma.c ****   {
1236:Drivers/STM32H7xx_HAL_Driver/Src/stm32h7xx_hal_mdma.c ****     /* Disable all the transfer interrupts */
1237:Drivers/STM32H7xx_HAL_Driver/Src/stm32h7xx_hal_mdma.c ****     __HAL_MDMA_DISABLE_IT(hmdma, (MDMA_IT_TE | MDMA_IT_CTC | MDMA_IT_BT | MDMA_IT_BRT | MDMA_IT_BFT
 2323              		.loc 1 1237 5
 2324 0036 7B68     		ldr	r3, [r7, #4]
 2325 0038 1B68     		ldr	r3, [r3]
 2326 003a DA68     		ldr	r2, [r3, #12]
 2327 003c 7B68     		ldr	r3, [r7, #4]
 2328 003e 1B68     		ldr	r3, [r3]
 2329 0040 22F03E02 		bic	r2, r2, #62
 2330 0044 DA60     		str	r2, [r3, #12]
1238:Drivers/STM32H7xx_HAL_Driver/Src/stm32h7xx_hal_mdma.c **** 
1239:Drivers/STM32H7xx_HAL_Driver/Src/stm32h7xx_hal_mdma.c ****     /* Disable the channel */
1240:Drivers/STM32H7xx_HAL_Driver/Src/stm32h7xx_hal_mdma.c ****     __HAL_MDMA_DISABLE(hmdma);
 2331              		.loc 1 1240 5
 2332 0046 7B68     		ldr	r3, [r7, #4]
 2333 0048 1B68     		ldr	r3, [r3]
 2334 004a DA68     		ldr	r2, [r3, #12]
 2335 004c 7B68     		ldr	r3, [r7, #4]
 2336 004e 1B68     		ldr	r3, [r3]
 2337 0050 22F00102 		bic	r2, r2, #1
 2338 0054 DA60     		str	r2, [r3, #12]
1241:Drivers/STM32H7xx_HAL_Driver/Src/stm32h7xx_hal_mdma.c **** 
1242:Drivers/STM32H7xx_HAL_Driver/Src/stm32h7xx_hal_mdma.c ****     /* Check if the MDMA Channel is effectively disabled */
1243:Drivers/STM32H7xx_HAL_Driver/Src/stm32h7xx_hal_mdma.c ****     while((hmdma->Instance->CCR & MDMA_CCR_EN) != 0U)
 2339              		.loc 1 1243 10
 2340 0056 16E0     		b	.L136
 2341              	.L137:
1244:Drivers/STM32H7xx_HAL_Driver/Src/stm32h7xx_hal_mdma.c ****     {
1245:Drivers/STM32H7xx_HAL_Driver/Src/stm32h7xx_hal_mdma.c ****       /* Check for the Timeout */
1246:Drivers/STM32H7xx_HAL_Driver/Src/stm32h7xx_hal_mdma.c ****       if( (HAL_GetTick()  - tickstart ) > HAL_TIMEOUT_MDMA_ABORT)
 2342              		.loc 1 1246 12
 2343 0058 FFF7FEFF 		bl	HAL_GetTick
 2344 005c 0246     		mov	r2, r0
 2345              		.loc 1 1246 27
 2346 005e FB68     		ldr	r3, [r7, #12]
 2347 0060 D31A     		subs	r3, r2, r3
 2348              		.loc 1 1246 9
 2349 0062 052B     		cmp	r3, #5
 2350 0064 0FD9     		bls	.L136
ARM GAS  C:\Users\Su\AppData\Local\Temp\ccdx3s9E.s 			page 64


1247:Drivers/STM32H7xx_HAL_Driver/Src/stm32h7xx_hal_mdma.c ****       {
1248:Drivers/STM32H7xx_HAL_Driver/Src/stm32h7xx_hal_mdma.c ****         /* Update error code */
1249:Drivers/STM32H7xx_HAL_Driver/Src/stm32h7xx_hal_mdma.c ****         hmdma->ErrorCode |= HAL_MDMA_ERROR_TIMEOUT;
 2351              		.loc 1 1249 26
 2352 0066 7B68     		ldr	r3, [r7, #4]
 2353 0068 9B6E     		ldr	r3, [r3, #104]
 2354 006a 43F04002 		orr	r2, r3, #64
 2355 006e 7B68     		ldr	r3, [r7, #4]
 2356 0070 9A66     		str	r2, [r3, #104]
1250:Drivers/STM32H7xx_HAL_Driver/Src/stm32h7xx_hal_mdma.c **** 
1251:Drivers/STM32H7xx_HAL_Driver/Src/stm32h7xx_hal_mdma.c ****         /* Process Unlocked */
1252:Drivers/STM32H7xx_HAL_Driver/Src/stm32h7xx_hal_mdma.c ****         __HAL_UNLOCK(hmdma);
 2357              		.loc 1 1252 9
 2358 0072 7B68     		ldr	r3, [r7, #4]
 2359 0074 0022     		movs	r2, #0
 2360 0076 83F83C20 		strb	r2, [r3, #60]
1253:Drivers/STM32H7xx_HAL_Driver/Src/stm32h7xx_hal_mdma.c **** 
1254:Drivers/STM32H7xx_HAL_Driver/Src/stm32h7xx_hal_mdma.c ****         /* Change the MDMA state */
1255:Drivers/STM32H7xx_HAL_Driver/Src/stm32h7xx_hal_mdma.c ****         hmdma->State = HAL_MDMA_STATE_ERROR;
 2361              		.loc 1 1255 22
 2362 007a 7B68     		ldr	r3, [r7, #4]
 2363 007c 0322     		movs	r2, #3
 2364 007e 83F83D20 		strb	r2, [r3, #61]
1256:Drivers/STM32H7xx_HAL_Driver/Src/stm32h7xx_hal_mdma.c **** 
1257:Drivers/STM32H7xx_HAL_Driver/Src/stm32h7xx_hal_mdma.c ****         return HAL_ERROR;
 2365              		.loc 1 1257 16
 2366 0082 0123     		movs	r3, #1
 2367 0084 13E0     		b	.L134
 2368              	.L136:
1243:Drivers/STM32H7xx_HAL_Driver/Src/stm32h7xx_hal_mdma.c ****     {
 2369              		.loc 1 1243 17
 2370 0086 7B68     		ldr	r3, [r7, #4]
 2371 0088 1B68     		ldr	r3, [r3]
1243:Drivers/STM32H7xx_HAL_Driver/Src/stm32h7xx_hal_mdma.c ****     {
 2372              		.loc 1 1243 27
 2373 008a DB68     		ldr	r3, [r3, #12]
1243:Drivers/STM32H7xx_HAL_Driver/Src/stm32h7xx_hal_mdma.c ****     {
 2374              		.loc 1 1243 33
 2375 008c 03F00103 		and	r3, r3, #1
1243:Drivers/STM32H7xx_HAL_Driver/Src/stm32h7xx_hal_mdma.c ****     {
 2376              		.loc 1 1243 10
 2377 0090 002B     		cmp	r3, #0
 2378 0092 E1D1     		bne	.L137
1258:Drivers/STM32H7xx_HAL_Driver/Src/stm32h7xx_hal_mdma.c ****       }
1259:Drivers/STM32H7xx_HAL_Driver/Src/stm32h7xx_hal_mdma.c ****     }
1260:Drivers/STM32H7xx_HAL_Driver/Src/stm32h7xx_hal_mdma.c **** 
1261:Drivers/STM32H7xx_HAL_Driver/Src/stm32h7xx_hal_mdma.c ****     /* Clear all interrupt flags */
1262:Drivers/STM32H7xx_HAL_Driver/Src/stm32h7xx_hal_mdma.c ****     __HAL_MDMA_CLEAR_FLAG(hmdma, (MDMA_FLAG_TE | MDMA_FLAG_CTC | MDMA_FLAG_BT | MDMA_FLAG_BRT | MDM
 2379              		.loc 1 1262 5
 2380 0094 7B68     		ldr	r3, [r7, #4]
 2381 0096 1B68     		ldr	r3, [r3]
 2382 0098 1F22     		movs	r2, #31
 2383 009a 5A60     		str	r2, [r3, #4]
1263:Drivers/STM32H7xx_HAL_Driver/Src/stm32h7xx_hal_mdma.c **** 
1264:Drivers/STM32H7xx_HAL_Driver/Src/stm32h7xx_hal_mdma.c ****     /* Process Unlocked */
1265:Drivers/STM32H7xx_HAL_Driver/Src/stm32h7xx_hal_mdma.c ****     __HAL_UNLOCK(hmdma);
 2384              		.loc 1 1265 5
ARM GAS  C:\Users\Su\AppData\Local\Temp\ccdx3s9E.s 			page 65


 2385 009c 7B68     		ldr	r3, [r7, #4]
 2386 009e 0022     		movs	r2, #0
 2387 00a0 83F83C20 		strb	r2, [r3, #60]
1266:Drivers/STM32H7xx_HAL_Driver/Src/stm32h7xx_hal_mdma.c **** 
1267:Drivers/STM32H7xx_HAL_Driver/Src/stm32h7xx_hal_mdma.c ****     /* Change the MDMA state*/
1268:Drivers/STM32H7xx_HAL_Driver/Src/stm32h7xx_hal_mdma.c ****     hmdma->State = HAL_MDMA_STATE_READY;
 2388              		.loc 1 1268 18
 2389 00a4 7B68     		ldr	r3, [r7, #4]
 2390 00a6 0122     		movs	r2, #1
 2391 00a8 83F83D20 		strb	r2, [r3, #61]
1269:Drivers/STM32H7xx_HAL_Driver/Src/stm32h7xx_hal_mdma.c ****   }
1270:Drivers/STM32H7xx_HAL_Driver/Src/stm32h7xx_hal_mdma.c **** 
1271:Drivers/STM32H7xx_HAL_Driver/Src/stm32h7xx_hal_mdma.c ****   return HAL_OK;
 2392              		.loc 1 1271 10
 2393 00ac 0023     		movs	r3, #0
 2394              	.L134:
1272:Drivers/STM32H7xx_HAL_Driver/Src/stm32h7xx_hal_mdma.c **** }
 2395              		.loc 1 1272 1
 2396 00ae 1846     		mov	r0, r3
 2397 00b0 1037     		adds	r7, r7, #16
 2398              	.LCFI72:
 2399              		.cfi_def_cfa_offset 8
 2400 00b2 BD46     		mov	sp, r7
 2401              	.LCFI73:
 2402              		.cfi_def_cfa_register 13
 2403              		@ sp needed
 2404 00b4 80BD     		pop	{r7, pc}
 2405              		.cfi_endproc
 2406              	.LFE156:
 2408              		.section	.text.HAL_MDMA_Abort_IT,"ax",%progbits
 2409              		.align	1
 2410              		.global	HAL_MDMA_Abort_IT
 2411              		.syntax unified
 2412              		.thumb
 2413              		.thumb_func
 2415              	HAL_MDMA_Abort_IT:
 2416              	.LFB157:
1273:Drivers/STM32H7xx_HAL_Driver/Src/stm32h7xx_hal_mdma.c **** 
1274:Drivers/STM32H7xx_HAL_Driver/Src/stm32h7xx_hal_mdma.c **** /**
1275:Drivers/STM32H7xx_HAL_Driver/Src/stm32h7xx_hal_mdma.c ****   * @brief  Aborts the MDMA Transfer in Interrupt mode.
1276:Drivers/STM32H7xx_HAL_Driver/Src/stm32h7xx_hal_mdma.c ****   * @param  hmdma  : pointer to a MDMA_HandleTypeDef structure that contains
1277:Drivers/STM32H7xx_HAL_Driver/Src/stm32h7xx_hal_mdma.c ****   *                 the configuration information for the specified MDMA Channel.
1278:Drivers/STM32H7xx_HAL_Driver/Src/stm32h7xx_hal_mdma.c ****   * @retval HAL status
1279:Drivers/STM32H7xx_HAL_Driver/Src/stm32h7xx_hal_mdma.c ****   */
1280:Drivers/STM32H7xx_HAL_Driver/Src/stm32h7xx_hal_mdma.c **** HAL_StatusTypeDef HAL_MDMA_Abort_IT(MDMA_HandleTypeDef *hmdma)
1281:Drivers/STM32H7xx_HAL_Driver/Src/stm32h7xx_hal_mdma.c **** {
 2417              		.loc 1 1281 1
 2418              		.cfi_startproc
 2419              		@ args = 0, pretend = 0, frame = 8
 2420              		@ frame_needed = 1, uses_anonymous_args = 0
 2421              		@ link register save eliminated.
 2422 0000 80B4     		push	{r7}
 2423              	.LCFI74:
 2424              		.cfi_def_cfa_offset 4
 2425              		.cfi_offset 7, -4
 2426 0002 83B0     		sub	sp, sp, #12
 2427              	.LCFI75:
ARM GAS  C:\Users\Su\AppData\Local\Temp\ccdx3s9E.s 			page 66


 2428              		.cfi_def_cfa_offset 16
 2429 0004 00AF     		add	r7, sp, #0
 2430              	.LCFI76:
 2431              		.cfi_def_cfa_register 7
 2432 0006 7860     		str	r0, [r7, #4]
1282:Drivers/STM32H7xx_HAL_Driver/Src/stm32h7xx_hal_mdma.c ****   /* Check the MDMA peripheral handle */
1283:Drivers/STM32H7xx_HAL_Driver/Src/stm32h7xx_hal_mdma.c ****   if(hmdma == NULL)
 2433              		.loc 1 1283 5
 2434 0008 7B68     		ldr	r3, [r7, #4]
 2435 000a 002B     		cmp	r3, #0
 2436 000c 01D1     		bne	.L139
1284:Drivers/STM32H7xx_HAL_Driver/Src/stm32h7xx_hal_mdma.c ****   {
1285:Drivers/STM32H7xx_HAL_Driver/Src/stm32h7xx_hal_mdma.c ****     return HAL_ERROR;
 2437              		.loc 1 1285 12
 2438 000e 0123     		movs	r3, #1
 2439 0010 17E0     		b	.L140
 2440              	.L139:
1286:Drivers/STM32H7xx_HAL_Driver/Src/stm32h7xx_hal_mdma.c ****   }
1287:Drivers/STM32H7xx_HAL_Driver/Src/stm32h7xx_hal_mdma.c **** 
1288:Drivers/STM32H7xx_HAL_Driver/Src/stm32h7xx_hal_mdma.c ****   if(HAL_MDMA_STATE_BUSY != hmdma->State)
 2441              		.loc 1 1288 34
 2442 0012 7B68     		ldr	r3, [r7, #4]
 2443 0014 93F83D30 		ldrb	r3, [r3, #61]
 2444 0018 DBB2     		uxtb	r3, r3
 2445              		.loc 1 1288 5
 2446 001a 022B     		cmp	r3, #2
 2447 001c 04D0     		beq	.L141
1289:Drivers/STM32H7xx_HAL_Driver/Src/stm32h7xx_hal_mdma.c ****   {
1290:Drivers/STM32H7xx_HAL_Driver/Src/stm32h7xx_hal_mdma.c ****     /* No transfer ongoing */
1291:Drivers/STM32H7xx_HAL_Driver/Src/stm32h7xx_hal_mdma.c ****     hmdma->ErrorCode = HAL_MDMA_ERROR_NO_XFER;
 2448              		.loc 1 1291 22
 2449 001e 7B68     		ldr	r3, [r7, #4]
 2450 0020 8022     		movs	r2, #128
 2451 0022 9A66     		str	r2, [r3, #104]
1292:Drivers/STM32H7xx_HAL_Driver/Src/stm32h7xx_hal_mdma.c **** 
1293:Drivers/STM32H7xx_HAL_Driver/Src/stm32h7xx_hal_mdma.c ****     return HAL_ERROR;
 2452              		.loc 1 1293 12
 2453 0024 0123     		movs	r3, #1
 2454 0026 0CE0     		b	.L140
 2455              	.L141:
1294:Drivers/STM32H7xx_HAL_Driver/Src/stm32h7xx_hal_mdma.c ****   }
1295:Drivers/STM32H7xx_HAL_Driver/Src/stm32h7xx_hal_mdma.c ****   else
1296:Drivers/STM32H7xx_HAL_Driver/Src/stm32h7xx_hal_mdma.c ****   {
1297:Drivers/STM32H7xx_HAL_Driver/Src/stm32h7xx_hal_mdma.c ****     /* Set Abort State  */
1298:Drivers/STM32H7xx_HAL_Driver/Src/stm32h7xx_hal_mdma.c ****     hmdma->State = HAL_MDMA_STATE_ABORT;
 2456              		.loc 1 1298 18
 2457 0028 7B68     		ldr	r3, [r7, #4]
 2458 002a 0422     		movs	r2, #4
 2459 002c 83F83D20 		strb	r2, [r3, #61]
1299:Drivers/STM32H7xx_HAL_Driver/Src/stm32h7xx_hal_mdma.c **** 
1300:Drivers/STM32H7xx_HAL_Driver/Src/stm32h7xx_hal_mdma.c ****     /* Disable the stream */
1301:Drivers/STM32H7xx_HAL_Driver/Src/stm32h7xx_hal_mdma.c ****     __HAL_MDMA_DISABLE(hmdma);
 2460              		.loc 1 1301 5
 2461 0030 7B68     		ldr	r3, [r7, #4]
 2462 0032 1B68     		ldr	r3, [r3]
 2463 0034 DA68     		ldr	r2, [r3, #12]
 2464 0036 7B68     		ldr	r3, [r7, #4]
ARM GAS  C:\Users\Su\AppData\Local\Temp\ccdx3s9E.s 			page 67


 2465 0038 1B68     		ldr	r3, [r3]
 2466 003a 22F00102 		bic	r2, r2, #1
 2467 003e DA60     		str	r2, [r3, #12]
1302:Drivers/STM32H7xx_HAL_Driver/Src/stm32h7xx_hal_mdma.c ****   }
1303:Drivers/STM32H7xx_HAL_Driver/Src/stm32h7xx_hal_mdma.c **** 
1304:Drivers/STM32H7xx_HAL_Driver/Src/stm32h7xx_hal_mdma.c ****   return HAL_OK;
 2468              		.loc 1 1304 10
 2469 0040 0023     		movs	r3, #0
 2470              	.L140:
1305:Drivers/STM32H7xx_HAL_Driver/Src/stm32h7xx_hal_mdma.c **** }
 2471              		.loc 1 1305 1
 2472 0042 1846     		mov	r0, r3
 2473 0044 0C37     		adds	r7, r7, #12
 2474              	.LCFI77:
 2475              		.cfi_def_cfa_offset 4
 2476 0046 BD46     		mov	sp, r7
 2477              	.LCFI78:
 2478              		.cfi_def_cfa_register 13
 2479              		@ sp needed
 2480 0048 5DF8047B 		ldr	r7, [sp], #4
 2481              	.LCFI79:
 2482              		.cfi_restore 7
 2483              		.cfi_def_cfa_offset 0
 2484 004c 7047     		bx	lr
 2485              		.cfi_endproc
 2486              	.LFE157:
 2488              		.section	.text.HAL_MDMA_PollForTransfer,"ax",%progbits
 2489              		.align	1
 2490              		.global	HAL_MDMA_PollForTransfer
 2491              		.syntax unified
 2492              		.thumb
 2493              		.thumb_func
 2495              	HAL_MDMA_PollForTransfer:
 2496              	.LFB158:
1306:Drivers/STM32H7xx_HAL_Driver/Src/stm32h7xx_hal_mdma.c **** 
1307:Drivers/STM32H7xx_HAL_Driver/Src/stm32h7xx_hal_mdma.c **** /**
1308:Drivers/STM32H7xx_HAL_Driver/Src/stm32h7xx_hal_mdma.c ****   * @brief  Polling for transfer complete.
1309:Drivers/STM32H7xx_HAL_Driver/Src/stm32h7xx_hal_mdma.c ****   * @param  hmdma:          pointer to a MDMA_HandleTypeDef structure that contains
1310:Drivers/STM32H7xx_HAL_Driver/Src/stm32h7xx_hal_mdma.c ****   *                        the configuration information for the specified MDMA Channel.
1311:Drivers/STM32H7xx_HAL_Driver/Src/stm32h7xx_hal_mdma.c ****   * @param  CompleteLevel: Specifies the MDMA level complete.
1312:Drivers/STM32H7xx_HAL_Driver/Src/stm32h7xx_hal_mdma.c ****   * @param  Timeout:       Timeout duration.
1313:Drivers/STM32H7xx_HAL_Driver/Src/stm32h7xx_hal_mdma.c ****   * @retval HAL status
1314:Drivers/STM32H7xx_HAL_Driver/Src/stm32h7xx_hal_mdma.c ****   */
1315:Drivers/STM32H7xx_HAL_Driver/Src/stm32h7xx_hal_mdma.c **** HAL_StatusTypeDef HAL_MDMA_PollForTransfer(MDMA_HandleTypeDef *hmdma, HAL_MDMA_LevelCompleteTypeDef
1316:Drivers/STM32H7xx_HAL_Driver/Src/stm32h7xx_hal_mdma.c **** {
 2497              		.loc 1 1316 1
 2498              		.cfi_startproc
 2499              		@ args = 0, pretend = 0, frame = 32
 2500              		@ frame_needed = 1, uses_anonymous_args = 0
 2501 0000 80B5     		push	{r7, lr}
 2502              	.LCFI80:
 2503              		.cfi_def_cfa_offset 8
 2504              		.cfi_offset 7, -8
 2505              		.cfi_offset 14, -4
 2506 0002 88B0     		sub	sp, sp, #32
 2507              	.LCFI81:
 2508              		.cfi_def_cfa_offset 40
ARM GAS  C:\Users\Su\AppData\Local\Temp\ccdx3s9E.s 			page 68


 2509 0004 00AF     		add	r7, sp, #0
 2510              	.LCFI82:
 2511              		.cfi_def_cfa_register 7
 2512 0006 F860     		str	r0, [r7, #12]
 2513 0008 0B46     		mov	r3, r1
 2514 000a 7A60     		str	r2, [r7, #4]
 2515 000c FB72     		strb	r3, [r7, #11]
1317:Drivers/STM32H7xx_HAL_Driver/Src/stm32h7xx_hal_mdma.c ****   uint32_t levelFlag, errorFlag;
1318:Drivers/STM32H7xx_HAL_Driver/Src/stm32h7xx_hal_mdma.c ****   uint32_t tickstart;
1319:Drivers/STM32H7xx_HAL_Driver/Src/stm32h7xx_hal_mdma.c **** 
1320:Drivers/STM32H7xx_HAL_Driver/Src/stm32h7xx_hal_mdma.c ****   /* Check the parameters */
1321:Drivers/STM32H7xx_HAL_Driver/Src/stm32h7xx_hal_mdma.c ****   assert_param(IS_MDMA_LEVEL_COMPLETE(CompleteLevel));
1322:Drivers/STM32H7xx_HAL_Driver/Src/stm32h7xx_hal_mdma.c **** 
1323:Drivers/STM32H7xx_HAL_Driver/Src/stm32h7xx_hal_mdma.c ****   /* Check the MDMA peripheral handle */
1324:Drivers/STM32H7xx_HAL_Driver/Src/stm32h7xx_hal_mdma.c ****   if(hmdma == NULL)
 2516              		.loc 1 1324 5
 2517 000e FB68     		ldr	r3, [r7, #12]
 2518 0010 002B     		cmp	r3, #0
 2519 0012 01D1     		bne	.L143
1325:Drivers/STM32H7xx_HAL_Driver/Src/stm32h7xx_hal_mdma.c ****   {
1326:Drivers/STM32H7xx_HAL_Driver/Src/stm32h7xx_hal_mdma.c ****     return HAL_ERROR;
 2520              		.loc 1 1326 12
 2521 0014 0123     		movs	r3, #1
 2522 0016 B9E0     		b	.L144
 2523              	.L143:
1327:Drivers/STM32H7xx_HAL_Driver/Src/stm32h7xx_hal_mdma.c ****   }
1328:Drivers/STM32H7xx_HAL_Driver/Src/stm32h7xx_hal_mdma.c **** 
1329:Drivers/STM32H7xx_HAL_Driver/Src/stm32h7xx_hal_mdma.c ****   if(HAL_MDMA_STATE_BUSY != hmdma->State)
 2524              		.loc 1 1329 34
 2525 0018 FB68     		ldr	r3, [r7, #12]
 2526 001a 93F83D30 		ldrb	r3, [r3, #61]
 2527 001e DBB2     		uxtb	r3, r3
 2528              		.loc 1 1329 5
 2529 0020 022B     		cmp	r3, #2
 2530 0022 04D0     		beq	.L145
1330:Drivers/STM32H7xx_HAL_Driver/Src/stm32h7xx_hal_mdma.c ****   {
1331:Drivers/STM32H7xx_HAL_Driver/Src/stm32h7xx_hal_mdma.c ****     /* No transfer ongoing */
1332:Drivers/STM32H7xx_HAL_Driver/Src/stm32h7xx_hal_mdma.c ****     hmdma->ErrorCode = HAL_MDMA_ERROR_NO_XFER;
 2531              		.loc 1 1332 22
 2532 0024 FB68     		ldr	r3, [r7, #12]
 2533 0026 8022     		movs	r2, #128
 2534 0028 9A66     		str	r2, [r3, #104]
1333:Drivers/STM32H7xx_HAL_Driver/Src/stm32h7xx_hal_mdma.c **** 
1334:Drivers/STM32H7xx_HAL_Driver/Src/stm32h7xx_hal_mdma.c ****     return HAL_ERROR;
 2535              		.loc 1 1334 12
 2536 002a 0123     		movs	r3, #1
 2537 002c AEE0     		b	.L144
 2538              	.L145:
1335:Drivers/STM32H7xx_HAL_Driver/Src/stm32h7xx_hal_mdma.c ****   }
1336:Drivers/STM32H7xx_HAL_Driver/Src/stm32h7xx_hal_mdma.c **** 
1337:Drivers/STM32H7xx_HAL_Driver/Src/stm32h7xx_hal_mdma.c ****   /* Get the level transfer complete flag */
1338:Drivers/STM32H7xx_HAL_Driver/Src/stm32h7xx_hal_mdma.c ****   levelFlag = ((CompleteLevel == HAL_MDMA_FULL_TRANSFER)  ? MDMA_FLAG_CTC  : \
 2539              		.loc 1 1338 76
 2540 002e FB7A     		ldrb	r3, [r7, #11]	@ zero_extendqisi2
 2541 0030 002B     		cmp	r3, #0
 2542 0032 0BD0     		beq	.L146
1339:Drivers/STM32H7xx_HAL_Driver/Src/stm32h7xx_hal_mdma.c ****                (CompleteLevel == HAL_MDMA_BUFFER_TRANSFER)? MDMA_FLAG_BFTC : \
ARM GAS  C:\Users\Su\AppData\Local\Temp\ccdx3s9E.s 			page 69


 2543              		.loc 1 1339 76
 2544 0034 FB7A     		ldrb	r3, [r7, #11]	@ zero_extendqisi2
 2545 0036 012B     		cmp	r3, #1
 2546 0038 06D0     		beq	.L147
1340:Drivers/STM32H7xx_HAL_Driver/Src/stm32h7xx_hal_mdma.c ****                (CompleteLevel == HAL_MDMA_BLOCK_TRANSFER) ? MDMA_FLAG_BT   : \
 2547              		.loc 1 1340 76
 2548 003a FB7A     		ldrb	r3, [r7, #11]	@ zero_extendqisi2
 2549 003c 022B     		cmp	r3, #2
 2550 003e 01D1     		bne	.L148
 2551              		.loc 1 1340 76 is_stmt 0 discriminator 1
 2552 0040 0823     		movs	r3, #8
 2553 0042 04E0     		b	.L151
 2554              	.L148:
 2555              		.loc 1 1340 76 discriminator 2
 2556 0044 0423     		movs	r3, #4
 2557 0046 02E0     		b	.L151
 2558              	.L147:
1339:Drivers/STM32H7xx_HAL_Driver/Src/stm32h7xx_hal_mdma.c ****                (CompleteLevel == HAL_MDMA_BUFFER_TRANSFER)? MDMA_FLAG_BFTC : \
 2559              		.loc 1 1339 76 is_stmt 1 discriminator 1
 2560 0048 1023     		movs	r3, #16
 2561 004a 00E0     		b	.L151
 2562              	.L146:
1338:Drivers/STM32H7xx_HAL_Driver/Src/stm32h7xx_hal_mdma.c ****                (CompleteLevel == HAL_MDMA_BUFFER_TRANSFER)? MDMA_FLAG_BFTC : \
 2563              		.loc 1 1338 76 discriminator 1
 2564 004c 0223     		movs	r3, #2
 2565              	.L151:
1338:Drivers/STM32H7xx_HAL_Driver/Src/stm32h7xx_hal_mdma.c ****                (CompleteLevel == HAL_MDMA_BUFFER_TRANSFER)? MDMA_FLAG_BFTC : \
 2566              		.loc 1 1338 13 discriminator 3
 2567 004e FB61     		str	r3, [r7, #28]
1341:Drivers/STM32H7xx_HAL_Driver/Src/stm32h7xx_hal_mdma.c ****                MDMA_FLAG_BRT);
1342:Drivers/STM32H7xx_HAL_Driver/Src/stm32h7xx_hal_mdma.c **** 
1343:Drivers/STM32H7xx_HAL_Driver/Src/stm32h7xx_hal_mdma.c **** 
1344:Drivers/STM32H7xx_HAL_Driver/Src/stm32h7xx_hal_mdma.c ****   /* Get timeout */
1345:Drivers/STM32H7xx_HAL_Driver/Src/stm32h7xx_hal_mdma.c ****   tickstart = HAL_GetTick();
 2568              		.loc 1 1345 15 discriminator 3
 2569 0050 FFF7FEFF 		bl	HAL_GetTick
 2570 0054 B861     		str	r0, [r7, #24]
1346:Drivers/STM32H7xx_HAL_Driver/Src/stm32h7xx_hal_mdma.c **** 
1347:Drivers/STM32H7xx_HAL_Driver/Src/stm32h7xx_hal_mdma.c ****   while(__HAL_MDMA_GET_FLAG(hmdma, levelFlag) == 0U)
 2571              		.loc 1 1347 8 discriminator 3
 2572 0056 67E0     		b	.L152
 2573              	.L161:
1348:Drivers/STM32H7xx_HAL_Driver/Src/stm32h7xx_hal_mdma.c ****   {
1349:Drivers/STM32H7xx_HAL_Driver/Src/stm32h7xx_hal_mdma.c ****     if((__HAL_MDMA_GET_FLAG(hmdma, MDMA_FLAG_TE) != 0U))
 2574              		.loc 1 1349 9
 2575 0058 FB68     		ldr	r3, [r7, #12]
 2576 005a 1B68     		ldr	r3, [r3]
 2577 005c 1B68     		ldr	r3, [r3]
 2578 005e 03F00103 		and	r3, r3, #1
 2579              		.loc 1 1349 7
 2580 0062 002B     		cmp	r3, #0
 2581 0064 46D0     		beq	.L153
1350:Drivers/STM32H7xx_HAL_Driver/Src/stm32h7xx_hal_mdma.c ****     {
1351:Drivers/STM32H7xx_HAL_Driver/Src/stm32h7xx_hal_mdma.c ****       /* Get the transfer error source flag */
1352:Drivers/STM32H7xx_HAL_Driver/Src/stm32h7xx_hal_mdma.c ****       errorFlag = hmdma->Instance->CESR;
 2582              		.loc 1 1352 24
 2583 0066 FB68     		ldr	r3, [r7, #12]
ARM GAS  C:\Users\Su\AppData\Local\Temp\ccdx3s9E.s 			page 70


 2584 0068 1B68     		ldr	r3, [r3]
 2585              		.loc 1 1352 17
 2586 006a 9B68     		ldr	r3, [r3, #8]
 2587 006c 7B61     		str	r3, [r7, #20]
1353:Drivers/STM32H7xx_HAL_Driver/Src/stm32h7xx_hal_mdma.c **** 
1354:Drivers/STM32H7xx_HAL_Driver/Src/stm32h7xx_hal_mdma.c ****       if((errorFlag & MDMA_CESR_TED) == 0U)
 2588              		.loc 1 1354 21
 2589 006e 7B69     		ldr	r3, [r7, #20]
 2590 0070 03F08003 		and	r3, r3, #128
 2591              		.loc 1 1354 9
 2592 0074 002B     		cmp	r3, #0
 2593 0076 06D1     		bne	.L154
1355:Drivers/STM32H7xx_HAL_Driver/Src/stm32h7xx_hal_mdma.c ****       {
1356:Drivers/STM32H7xx_HAL_Driver/Src/stm32h7xx_hal_mdma.c ****         /* Update error code : Read Transfer error  */
1357:Drivers/STM32H7xx_HAL_Driver/Src/stm32h7xx_hal_mdma.c ****         hmdma->ErrorCode |= HAL_MDMA_ERROR_READ_XFER;
 2594              		.loc 1 1357 26
 2595 0078 FB68     		ldr	r3, [r7, #12]
 2596 007a 9B6E     		ldr	r3, [r3, #104]
 2597 007c 43F00102 		orr	r2, r3, #1
 2598 0080 FB68     		ldr	r3, [r7, #12]
 2599 0082 9A66     		str	r2, [r3, #104]
 2600 0084 05E0     		b	.L155
 2601              	.L154:
1358:Drivers/STM32H7xx_HAL_Driver/Src/stm32h7xx_hal_mdma.c ****       }
1359:Drivers/STM32H7xx_HAL_Driver/Src/stm32h7xx_hal_mdma.c ****       else
1360:Drivers/STM32H7xx_HAL_Driver/Src/stm32h7xx_hal_mdma.c ****       {
1361:Drivers/STM32H7xx_HAL_Driver/Src/stm32h7xx_hal_mdma.c ****         /* Update error code : Write Transfer error */
1362:Drivers/STM32H7xx_HAL_Driver/Src/stm32h7xx_hal_mdma.c ****         hmdma->ErrorCode |= HAL_MDMA_ERROR_WRITE_XFER;
 2602              		.loc 1 1362 26
 2603 0086 FB68     		ldr	r3, [r7, #12]
 2604 0088 9B6E     		ldr	r3, [r3, #104]
 2605 008a 43F00202 		orr	r2, r3, #2
 2606 008e FB68     		ldr	r3, [r7, #12]
 2607 0090 9A66     		str	r2, [r3, #104]
 2608              	.L155:
1363:Drivers/STM32H7xx_HAL_Driver/Src/stm32h7xx_hal_mdma.c ****       }
1364:Drivers/STM32H7xx_HAL_Driver/Src/stm32h7xx_hal_mdma.c **** 
1365:Drivers/STM32H7xx_HAL_Driver/Src/stm32h7xx_hal_mdma.c ****       if((errorFlag & MDMA_CESR_TEMD) != 0U)
 2609              		.loc 1 1365 21
 2610 0092 7B69     		ldr	r3, [r7, #20]
 2611 0094 03F40073 		and	r3, r3, #512
 2612              		.loc 1 1365 9
 2613 0098 002B     		cmp	r3, #0
 2614 009a 05D0     		beq	.L156
1366:Drivers/STM32H7xx_HAL_Driver/Src/stm32h7xx_hal_mdma.c ****       {
1367:Drivers/STM32H7xx_HAL_Driver/Src/stm32h7xx_hal_mdma.c ****         /* Update error code : Error Mask Data */
1368:Drivers/STM32H7xx_HAL_Driver/Src/stm32h7xx_hal_mdma.c ****         hmdma->ErrorCode |= HAL_MDMA_ERROR_MASK_DATA;
 2615              		.loc 1 1368 26
 2616 009c FB68     		ldr	r3, [r7, #12]
 2617 009e 9B6E     		ldr	r3, [r3, #104]
 2618 00a0 43F00402 		orr	r2, r3, #4
 2619 00a4 FB68     		ldr	r3, [r7, #12]
 2620 00a6 9A66     		str	r2, [r3, #104]
 2621              	.L156:
1369:Drivers/STM32H7xx_HAL_Driver/Src/stm32h7xx_hal_mdma.c ****       }
1370:Drivers/STM32H7xx_HAL_Driver/Src/stm32h7xx_hal_mdma.c **** 
1371:Drivers/STM32H7xx_HAL_Driver/Src/stm32h7xx_hal_mdma.c ****       if((errorFlag & MDMA_CESR_TELD) != 0U)
ARM GAS  C:\Users\Su\AppData\Local\Temp\ccdx3s9E.s 			page 71


 2622              		.loc 1 1371 21
 2623 00a8 7B69     		ldr	r3, [r7, #20]
 2624 00aa 03F48073 		and	r3, r3, #256
 2625              		.loc 1 1371 9
 2626 00ae 002B     		cmp	r3, #0
 2627 00b0 05D0     		beq	.L157
1372:Drivers/STM32H7xx_HAL_Driver/Src/stm32h7xx_hal_mdma.c ****       {
1373:Drivers/STM32H7xx_HAL_Driver/Src/stm32h7xx_hal_mdma.c ****         /* Update error code : Error Linked list */
1374:Drivers/STM32H7xx_HAL_Driver/Src/stm32h7xx_hal_mdma.c ****         hmdma->ErrorCode |= HAL_MDMA_ERROR_LINKED_LIST;
 2628              		.loc 1 1374 26
 2629 00b2 FB68     		ldr	r3, [r7, #12]
 2630 00b4 9B6E     		ldr	r3, [r3, #104]
 2631 00b6 43F00802 		orr	r2, r3, #8
 2632 00ba FB68     		ldr	r3, [r7, #12]
 2633 00bc 9A66     		str	r2, [r3, #104]
 2634              	.L157:
1375:Drivers/STM32H7xx_HAL_Driver/Src/stm32h7xx_hal_mdma.c ****       }
1376:Drivers/STM32H7xx_HAL_Driver/Src/stm32h7xx_hal_mdma.c **** 
1377:Drivers/STM32H7xx_HAL_Driver/Src/stm32h7xx_hal_mdma.c ****       if((errorFlag & MDMA_CESR_ASE) != 0U)
 2635              		.loc 1 1377 21
 2636 00be 7B69     		ldr	r3, [r7, #20]
 2637 00c0 03F48063 		and	r3, r3, #1024
 2638              		.loc 1 1377 9
 2639 00c4 002B     		cmp	r3, #0
 2640 00c6 05D0     		beq	.L158
1378:Drivers/STM32H7xx_HAL_Driver/Src/stm32h7xx_hal_mdma.c ****       {
1379:Drivers/STM32H7xx_HAL_Driver/Src/stm32h7xx_hal_mdma.c ****         /* Update error code : Address/Size alignment error */
1380:Drivers/STM32H7xx_HAL_Driver/Src/stm32h7xx_hal_mdma.c ****         hmdma->ErrorCode |= HAL_MDMA_ERROR_ALIGNMENT;
 2641              		.loc 1 1380 26
 2642 00c8 FB68     		ldr	r3, [r7, #12]
 2643 00ca 9B6E     		ldr	r3, [r3, #104]
 2644 00cc 43F01002 		orr	r2, r3, #16
 2645 00d0 FB68     		ldr	r3, [r7, #12]
 2646 00d2 9A66     		str	r2, [r3, #104]
 2647              	.L158:
1381:Drivers/STM32H7xx_HAL_Driver/Src/stm32h7xx_hal_mdma.c ****       }
1382:Drivers/STM32H7xx_HAL_Driver/Src/stm32h7xx_hal_mdma.c **** 
1383:Drivers/STM32H7xx_HAL_Driver/Src/stm32h7xx_hal_mdma.c ****       if((errorFlag & MDMA_CESR_BSE) != 0U)
 2648              		.loc 1 1383 21
 2649 00d4 7B69     		ldr	r3, [r7, #20]
 2650 00d6 03F40063 		and	r3, r3, #2048
 2651              		.loc 1 1383 9
 2652 00da 002B     		cmp	r3, #0
 2653 00dc 05D0     		beq	.L159
1384:Drivers/STM32H7xx_HAL_Driver/Src/stm32h7xx_hal_mdma.c ****       {
1385:Drivers/STM32H7xx_HAL_Driver/Src/stm32h7xx_hal_mdma.c ****         /* Update error code : Block Size error */
1386:Drivers/STM32H7xx_HAL_Driver/Src/stm32h7xx_hal_mdma.c ****         hmdma->ErrorCode |= HAL_MDMA_ERROR_BLOCK_SIZE;
 2654              		.loc 1 1386 26
 2655 00de FB68     		ldr	r3, [r7, #12]
 2656 00e0 9B6E     		ldr	r3, [r3, #104]
 2657 00e2 43F02002 		orr	r2, r3, #32
 2658 00e6 FB68     		ldr	r3, [r7, #12]
 2659 00e8 9A66     		str	r2, [r3, #104]
 2660              	.L159:
1387:Drivers/STM32H7xx_HAL_Driver/Src/stm32h7xx_hal_mdma.c ****       }
1388:Drivers/STM32H7xx_HAL_Driver/Src/stm32h7xx_hal_mdma.c **** 
1389:Drivers/STM32H7xx_HAL_Driver/Src/stm32h7xx_hal_mdma.c ****       (void) HAL_MDMA_Abort(hmdma); /* if error then abort the current transfer */
ARM GAS  C:\Users\Su\AppData\Local\Temp\ccdx3s9E.s 			page 72


 2661              		.loc 1 1389 14
 2662 00ea F868     		ldr	r0, [r7, #12]
 2663 00ec FFF7FEFF 		bl	HAL_MDMA_Abort
1390:Drivers/STM32H7xx_HAL_Driver/Src/stm32h7xx_hal_mdma.c **** 
1391:Drivers/STM32H7xx_HAL_Driver/Src/stm32h7xx_hal_mdma.c ****       /*
1392:Drivers/STM32H7xx_HAL_Driver/Src/stm32h7xx_hal_mdma.c ****         Note that the Abort function will
1393:Drivers/STM32H7xx_HAL_Driver/Src/stm32h7xx_hal_mdma.c ****           - Clear all transfer flags
1394:Drivers/STM32H7xx_HAL_Driver/Src/stm32h7xx_hal_mdma.c ****           - Unlock
1395:Drivers/STM32H7xx_HAL_Driver/Src/stm32h7xx_hal_mdma.c ****           - Set the State
1396:Drivers/STM32H7xx_HAL_Driver/Src/stm32h7xx_hal_mdma.c ****       */
1397:Drivers/STM32H7xx_HAL_Driver/Src/stm32h7xx_hal_mdma.c **** 
1398:Drivers/STM32H7xx_HAL_Driver/Src/stm32h7xx_hal_mdma.c ****       return HAL_ERROR;
 2664              		.loc 1 1398 14
 2665 00f0 0123     		movs	r3, #1
 2666 00f2 4BE0     		b	.L144
 2667              	.L153:
1399:Drivers/STM32H7xx_HAL_Driver/Src/stm32h7xx_hal_mdma.c **** 
1400:Drivers/STM32H7xx_HAL_Driver/Src/stm32h7xx_hal_mdma.c ****     }
1401:Drivers/STM32H7xx_HAL_Driver/Src/stm32h7xx_hal_mdma.c **** 
1402:Drivers/STM32H7xx_HAL_Driver/Src/stm32h7xx_hal_mdma.c ****     /* Check for the Timeout */
1403:Drivers/STM32H7xx_HAL_Driver/Src/stm32h7xx_hal_mdma.c ****     if(Timeout != HAL_MAX_DELAY)
 2668              		.loc 1 1403 7
 2669 00f4 7B68     		ldr	r3, [r7, #4]
 2670 00f6 B3F1FF3F 		cmp	r3, #-1
 2671 00fa 15D0     		beq	.L152
1404:Drivers/STM32H7xx_HAL_Driver/Src/stm32h7xx_hal_mdma.c ****     {
1405:Drivers/STM32H7xx_HAL_Driver/Src/stm32h7xx_hal_mdma.c ****       if(((HAL_GetTick() - tickstart ) > Timeout) || (Timeout == 0U))
 2672              		.loc 1 1405 12
 2673 00fc FFF7FEFF 		bl	HAL_GetTick
 2674 0100 0246     		mov	r2, r0
 2675              		.loc 1 1405 26
 2676 0102 BB69     		ldr	r3, [r7, #24]
 2677 0104 D31A     		subs	r3, r2, r3
 2678              		.loc 1 1405 9
 2679 0106 7A68     		ldr	r2, [r7, #4]
 2680 0108 9A42     		cmp	r2, r3
 2681 010a 02D3     		bcc	.L160
 2682              		.loc 1 1405 51 discriminator 1
 2683 010c 7B68     		ldr	r3, [r7, #4]
 2684 010e 002B     		cmp	r3, #0
 2685 0110 0AD1     		bne	.L152
 2686              	.L160:
1406:Drivers/STM32H7xx_HAL_Driver/Src/stm32h7xx_hal_mdma.c ****       {
1407:Drivers/STM32H7xx_HAL_Driver/Src/stm32h7xx_hal_mdma.c ****         /* Update error code */
1408:Drivers/STM32H7xx_HAL_Driver/Src/stm32h7xx_hal_mdma.c ****         hmdma->ErrorCode |= HAL_MDMA_ERROR_TIMEOUT;
 2687              		.loc 1 1408 26
 2688 0112 FB68     		ldr	r3, [r7, #12]
 2689 0114 9B6E     		ldr	r3, [r3, #104]
 2690 0116 43F04002 		orr	r2, r3, #64
 2691 011a FB68     		ldr	r3, [r7, #12]
 2692 011c 9A66     		str	r2, [r3, #104]
1409:Drivers/STM32H7xx_HAL_Driver/Src/stm32h7xx_hal_mdma.c **** 
1410:Drivers/STM32H7xx_HAL_Driver/Src/stm32h7xx_hal_mdma.c ****         (void) HAL_MDMA_Abort(hmdma); /* if timeout then abort the current transfer */
 2693              		.loc 1 1410 16
 2694 011e F868     		ldr	r0, [r7, #12]
 2695 0120 FFF7FEFF 		bl	HAL_MDMA_Abort
1411:Drivers/STM32H7xx_HAL_Driver/Src/stm32h7xx_hal_mdma.c **** 
ARM GAS  C:\Users\Su\AppData\Local\Temp\ccdx3s9E.s 			page 73


1412:Drivers/STM32H7xx_HAL_Driver/Src/stm32h7xx_hal_mdma.c ****         /*
1413:Drivers/STM32H7xx_HAL_Driver/Src/stm32h7xx_hal_mdma.c ****           Note that the Abort function will
1414:Drivers/STM32H7xx_HAL_Driver/Src/stm32h7xx_hal_mdma.c ****             - Clear all transfer flags
1415:Drivers/STM32H7xx_HAL_Driver/Src/stm32h7xx_hal_mdma.c ****             - Unlock
1416:Drivers/STM32H7xx_HAL_Driver/Src/stm32h7xx_hal_mdma.c ****             - Set the State
1417:Drivers/STM32H7xx_HAL_Driver/Src/stm32h7xx_hal_mdma.c ****         */
1418:Drivers/STM32H7xx_HAL_Driver/Src/stm32h7xx_hal_mdma.c **** 
1419:Drivers/STM32H7xx_HAL_Driver/Src/stm32h7xx_hal_mdma.c ****         return HAL_ERROR;
 2696              		.loc 1 1419 16
 2697 0124 0123     		movs	r3, #1
 2698 0126 31E0     		b	.L144
 2699              	.L152:
1347:Drivers/STM32H7xx_HAL_Driver/Src/stm32h7xx_hal_mdma.c ****   {
 2700              		.loc 1 1347 9
 2701 0128 FB68     		ldr	r3, [r7, #12]
 2702 012a 1B68     		ldr	r3, [r3]
 2703 012c 1A68     		ldr	r2, [r3]
 2704 012e FB69     		ldr	r3, [r7, #28]
 2705 0130 1340     		ands	r3, r3, r2
1347:Drivers/STM32H7xx_HAL_Driver/Src/stm32h7xx_hal_mdma.c ****   {
 2706              		.loc 1 1347 8
 2707 0132 002B     		cmp	r3, #0
 2708 0134 90D0     		beq	.L161
1420:Drivers/STM32H7xx_HAL_Driver/Src/stm32h7xx_hal_mdma.c ****       }
1421:Drivers/STM32H7xx_HAL_Driver/Src/stm32h7xx_hal_mdma.c ****     }
1422:Drivers/STM32H7xx_HAL_Driver/Src/stm32h7xx_hal_mdma.c ****   }
1423:Drivers/STM32H7xx_HAL_Driver/Src/stm32h7xx_hal_mdma.c **** 
1424:Drivers/STM32H7xx_HAL_Driver/Src/stm32h7xx_hal_mdma.c ****   /* Clear the transfer level flag */
1425:Drivers/STM32H7xx_HAL_Driver/Src/stm32h7xx_hal_mdma.c ****   if(CompleteLevel == HAL_MDMA_BUFFER_TRANSFER)
 2709              		.loc 1 1425 5
 2710 0136 FB7A     		ldrb	r3, [r7, #11]	@ zero_extendqisi2
 2711 0138 012B     		cmp	r3, #1
 2712 013a 04D1     		bne	.L162
1426:Drivers/STM32H7xx_HAL_Driver/Src/stm32h7xx_hal_mdma.c ****   {
1427:Drivers/STM32H7xx_HAL_Driver/Src/stm32h7xx_hal_mdma.c ****     __HAL_MDMA_CLEAR_FLAG(hmdma, MDMA_FLAG_BFTC);
 2713              		.loc 1 1427 5
 2714 013c FB68     		ldr	r3, [r7, #12]
 2715 013e 1B68     		ldr	r3, [r3]
 2716 0140 1022     		movs	r2, #16
 2717 0142 5A60     		str	r2, [r3, #4]
 2718 0144 21E0     		b	.L163
 2719              	.L162:
1428:Drivers/STM32H7xx_HAL_Driver/Src/stm32h7xx_hal_mdma.c **** 
1429:Drivers/STM32H7xx_HAL_Driver/Src/stm32h7xx_hal_mdma.c ****   }
1430:Drivers/STM32H7xx_HAL_Driver/Src/stm32h7xx_hal_mdma.c ****   else if(CompleteLevel == HAL_MDMA_BLOCK_TRANSFER)
 2720              		.loc 1 1430 10
 2721 0146 FB7A     		ldrb	r3, [r7, #11]	@ zero_extendqisi2
 2722 0148 022B     		cmp	r3, #2
 2723 014a 04D1     		bne	.L164
1431:Drivers/STM32H7xx_HAL_Driver/Src/stm32h7xx_hal_mdma.c ****   {
1432:Drivers/STM32H7xx_HAL_Driver/Src/stm32h7xx_hal_mdma.c ****     __HAL_MDMA_CLEAR_FLAG(hmdma, (MDMA_FLAG_BFTC | MDMA_FLAG_BT));
 2724              		.loc 1 1432 5
 2725 014c FB68     		ldr	r3, [r7, #12]
 2726 014e 1B68     		ldr	r3, [r3]
 2727 0150 1822     		movs	r2, #24
 2728 0152 5A60     		str	r2, [r3, #4]
 2729 0154 19E0     		b	.L163
ARM GAS  C:\Users\Su\AppData\Local\Temp\ccdx3s9E.s 			page 74


 2730              	.L164:
1433:Drivers/STM32H7xx_HAL_Driver/Src/stm32h7xx_hal_mdma.c **** 
1434:Drivers/STM32H7xx_HAL_Driver/Src/stm32h7xx_hal_mdma.c ****   }
1435:Drivers/STM32H7xx_HAL_Driver/Src/stm32h7xx_hal_mdma.c ****   else if(CompleteLevel == HAL_MDMA_REPEAT_BLOCK_TRANSFER)
 2731              		.loc 1 1435 10
 2732 0156 FB7A     		ldrb	r3, [r7, #11]	@ zero_extendqisi2
 2733 0158 032B     		cmp	r3, #3
 2734 015a 04D1     		bne	.L165
1436:Drivers/STM32H7xx_HAL_Driver/Src/stm32h7xx_hal_mdma.c ****   {
1437:Drivers/STM32H7xx_HAL_Driver/Src/stm32h7xx_hal_mdma.c ****     __HAL_MDMA_CLEAR_FLAG(hmdma, (MDMA_FLAG_BFTC | MDMA_FLAG_BT | MDMA_FLAG_BRT));
 2735              		.loc 1 1437 5
 2736 015c FB68     		ldr	r3, [r7, #12]
 2737 015e 1B68     		ldr	r3, [r3]
 2738 0160 1C22     		movs	r2, #28
 2739 0162 5A60     		str	r2, [r3, #4]
 2740 0164 11E0     		b	.L163
 2741              	.L165:
1438:Drivers/STM32H7xx_HAL_Driver/Src/stm32h7xx_hal_mdma.c ****   }
1439:Drivers/STM32H7xx_HAL_Driver/Src/stm32h7xx_hal_mdma.c ****   else if(CompleteLevel == HAL_MDMA_FULL_TRANSFER)
 2742              		.loc 1 1439 10
 2743 0166 FB7A     		ldrb	r3, [r7, #11]	@ zero_extendqisi2
 2744 0168 002B     		cmp	r3, #0
 2745 016a 0CD1     		bne	.L166
1440:Drivers/STM32H7xx_HAL_Driver/Src/stm32h7xx_hal_mdma.c ****   {
1441:Drivers/STM32H7xx_HAL_Driver/Src/stm32h7xx_hal_mdma.c ****     __HAL_MDMA_CLEAR_FLAG(hmdma, (MDMA_FLAG_BRT | MDMA_FLAG_BT | MDMA_FLAG_BFTC | MDMA_FLAG_CTC));
 2746              		.loc 1 1441 5
 2747 016c FB68     		ldr	r3, [r7, #12]
 2748 016e 1B68     		ldr	r3, [r3]
 2749 0170 1E22     		movs	r2, #30
 2750 0172 5A60     		str	r2, [r3, #4]
1442:Drivers/STM32H7xx_HAL_Driver/Src/stm32h7xx_hal_mdma.c **** 
1443:Drivers/STM32H7xx_HAL_Driver/Src/stm32h7xx_hal_mdma.c ****     /* Process unlocked */
1444:Drivers/STM32H7xx_HAL_Driver/Src/stm32h7xx_hal_mdma.c ****     __HAL_UNLOCK(hmdma);
 2751              		.loc 1 1444 5
 2752 0174 FB68     		ldr	r3, [r7, #12]
 2753 0176 0022     		movs	r2, #0
 2754 0178 83F83C20 		strb	r2, [r3, #60]
1445:Drivers/STM32H7xx_HAL_Driver/Src/stm32h7xx_hal_mdma.c **** 
1446:Drivers/STM32H7xx_HAL_Driver/Src/stm32h7xx_hal_mdma.c ****     hmdma->State = HAL_MDMA_STATE_READY;
 2755              		.loc 1 1446 18
 2756 017c FB68     		ldr	r3, [r7, #12]
 2757 017e 0122     		movs	r2, #1
 2758 0180 83F83D20 		strb	r2, [r3, #61]
 2759 0184 01E0     		b	.L163
 2760              	.L166:
1447:Drivers/STM32H7xx_HAL_Driver/Src/stm32h7xx_hal_mdma.c ****   }
1448:Drivers/STM32H7xx_HAL_Driver/Src/stm32h7xx_hal_mdma.c ****   else
1449:Drivers/STM32H7xx_HAL_Driver/Src/stm32h7xx_hal_mdma.c ****   {
1450:Drivers/STM32H7xx_HAL_Driver/Src/stm32h7xx_hal_mdma.c ****     return HAL_ERROR;
 2761              		.loc 1 1450 12
 2762 0186 0123     		movs	r3, #1
 2763 0188 00E0     		b	.L144
 2764              	.L163:
1451:Drivers/STM32H7xx_HAL_Driver/Src/stm32h7xx_hal_mdma.c ****   }
1452:Drivers/STM32H7xx_HAL_Driver/Src/stm32h7xx_hal_mdma.c **** 
1453:Drivers/STM32H7xx_HAL_Driver/Src/stm32h7xx_hal_mdma.c ****   return HAL_OK;
 2765              		.loc 1 1453 10
ARM GAS  C:\Users\Su\AppData\Local\Temp\ccdx3s9E.s 			page 75


 2766 018a 0023     		movs	r3, #0
 2767              	.L144:
1454:Drivers/STM32H7xx_HAL_Driver/Src/stm32h7xx_hal_mdma.c **** }
 2768              		.loc 1 1454 1
 2769 018c 1846     		mov	r0, r3
 2770 018e 2037     		adds	r7, r7, #32
 2771              	.LCFI83:
 2772              		.cfi_def_cfa_offset 8
 2773 0190 BD46     		mov	sp, r7
 2774              	.LCFI84:
 2775              		.cfi_def_cfa_register 13
 2776              		@ sp needed
 2777 0192 80BD     		pop	{r7, pc}
 2778              		.cfi_endproc
 2779              	.LFE158:
 2781              		.section	.text.HAL_MDMA_GenerateSWRequest,"ax",%progbits
 2782              		.align	1
 2783              		.global	HAL_MDMA_GenerateSWRequest
 2784              		.syntax unified
 2785              		.thumb
 2786              		.thumb_func
 2788              	HAL_MDMA_GenerateSWRequest:
 2789              	.LFB159:
1455:Drivers/STM32H7xx_HAL_Driver/Src/stm32h7xx_hal_mdma.c **** 
1456:Drivers/STM32H7xx_HAL_Driver/Src/stm32h7xx_hal_mdma.c **** /**
1457:Drivers/STM32H7xx_HAL_Driver/Src/stm32h7xx_hal_mdma.c ****   * @brief  Generate an MDMA SW request trigger to activate the request on the given Channel.
1458:Drivers/STM32H7xx_HAL_Driver/Src/stm32h7xx_hal_mdma.c ****   * @param  hmdma:       pointer to a MDMA_HandleTypeDef structure that contains
1459:Drivers/STM32H7xx_HAL_Driver/Src/stm32h7xx_hal_mdma.c ****   *                     the configuration information for the specified MDMA Stream.
1460:Drivers/STM32H7xx_HAL_Driver/Src/stm32h7xx_hal_mdma.c ****   * @retval HAL status
1461:Drivers/STM32H7xx_HAL_Driver/Src/stm32h7xx_hal_mdma.c ****   */
1462:Drivers/STM32H7xx_HAL_Driver/Src/stm32h7xx_hal_mdma.c **** HAL_StatusTypeDef HAL_MDMA_GenerateSWRequest(MDMA_HandleTypeDef *hmdma)
1463:Drivers/STM32H7xx_HAL_Driver/Src/stm32h7xx_hal_mdma.c **** {
 2790              		.loc 1 1463 1
 2791              		.cfi_startproc
 2792              		@ args = 0, pretend = 0, frame = 16
 2793              		@ frame_needed = 1, uses_anonymous_args = 0
 2794              		@ link register save eliminated.
 2795 0000 80B4     		push	{r7}
 2796              	.LCFI85:
 2797              		.cfi_def_cfa_offset 4
 2798              		.cfi_offset 7, -4
 2799 0002 85B0     		sub	sp, sp, #20
 2800              	.LCFI86:
 2801              		.cfi_def_cfa_offset 24
 2802 0004 00AF     		add	r7, sp, #0
 2803              	.LCFI87:
 2804              		.cfi_def_cfa_register 7
 2805 0006 7860     		str	r0, [r7, #4]
1464:Drivers/STM32H7xx_HAL_Driver/Src/stm32h7xx_hal_mdma.c ****   uint32_t request_mode;
1465:Drivers/STM32H7xx_HAL_Driver/Src/stm32h7xx_hal_mdma.c **** 
1466:Drivers/STM32H7xx_HAL_Driver/Src/stm32h7xx_hal_mdma.c ****   /* Check the MDMA peripheral handle */
1467:Drivers/STM32H7xx_HAL_Driver/Src/stm32h7xx_hal_mdma.c ****   if(hmdma == NULL)
 2806              		.loc 1 1467 5
 2807 0008 7B68     		ldr	r3, [r7, #4]
 2808 000a 002B     		cmp	r3, #0
 2809 000c 01D1     		bne	.L168
1468:Drivers/STM32H7xx_HAL_Driver/Src/stm32h7xx_hal_mdma.c ****   {
ARM GAS  C:\Users\Su\AppData\Local\Temp\ccdx3s9E.s 			page 76


1469:Drivers/STM32H7xx_HAL_Driver/Src/stm32h7xx_hal_mdma.c ****     return HAL_ERROR;
 2810              		.loc 1 1469 12
 2811 000e 0123     		movs	r3, #1
 2812 0010 2AE0     		b	.L169
 2813              	.L168:
1470:Drivers/STM32H7xx_HAL_Driver/Src/stm32h7xx_hal_mdma.c ****   }
1471:Drivers/STM32H7xx_HAL_Driver/Src/stm32h7xx_hal_mdma.c **** 
1472:Drivers/STM32H7xx_HAL_Driver/Src/stm32h7xx_hal_mdma.c ****   /* Get the softawre request mode */
1473:Drivers/STM32H7xx_HAL_Driver/Src/stm32h7xx_hal_mdma.c ****   request_mode = hmdma->Instance->CTCR & MDMA_CTCR_SWRM;
 2814              		.loc 1 1473 23
 2815 0012 7B68     		ldr	r3, [r7, #4]
 2816 0014 1B68     		ldr	r3, [r3]
 2817              		.loc 1 1473 33
 2818 0016 1B69     		ldr	r3, [r3, #16]
 2819              		.loc 1 1473 16
 2820 0018 03F08043 		and	r3, r3, #1073741824
 2821 001c FB60     		str	r3, [r7, #12]
1474:Drivers/STM32H7xx_HAL_Driver/Src/stm32h7xx_hal_mdma.c **** 
1475:Drivers/STM32H7xx_HAL_Driver/Src/stm32h7xx_hal_mdma.c ****   if((hmdma->Instance->CCR &  MDMA_CCR_EN) == 0U)
 2822              		.loc 1 1475 12
 2823 001e 7B68     		ldr	r3, [r7, #4]
 2824 0020 1B68     		ldr	r3, [r3]
 2825              		.loc 1 1475 22
 2826 0022 DB68     		ldr	r3, [r3, #12]
 2827              		.loc 1 1475 28
 2828 0024 03F00103 		and	r3, r3, #1
 2829              		.loc 1 1475 5
 2830 0028 002B     		cmp	r3, #0
 2831 002a 04D1     		bne	.L170
1476:Drivers/STM32H7xx_HAL_Driver/Src/stm32h7xx_hal_mdma.c ****   {
1477:Drivers/STM32H7xx_HAL_Driver/Src/stm32h7xx_hal_mdma.c ****     /* if no Transfer on going (MDMA enable bit not set) return error */
1478:Drivers/STM32H7xx_HAL_Driver/Src/stm32h7xx_hal_mdma.c ****     hmdma->ErrorCode = HAL_MDMA_ERROR_NO_XFER;
 2832              		.loc 1 1478 22
 2833 002c 7B68     		ldr	r3, [r7, #4]
 2834 002e 8022     		movs	r2, #128
 2835 0030 9A66     		str	r2, [r3, #104]
1479:Drivers/STM32H7xx_HAL_Driver/Src/stm32h7xx_hal_mdma.c **** 
1480:Drivers/STM32H7xx_HAL_Driver/Src/stm32h7xx_hal_mdma.c ****     return HAL_ERROR;
 2836              		.loc 1 1480 12
 2837 0032 0123     		movs	r3, #1
 2838 0034 18E0     		b	.L169
 2839              	.L170:
1481:Drivers/STM32H7xx_HAL_Driver/Src/stm32h7xx_hal_mdma.c ****   }
1482:Drivers/STM32H7xx_HAL_Driver/Src/stm32h7xx_hal_mdma.c ****   else if(((hmdma->Instance->CISR &  MDMA_CISR_CRQA) != 0U) || (request_mode == 0U))
 2840              		.loc 1 1482 18
 2841 0036 7B68     		ldr	r3, [r7, #4]
 2842 0038 1B68     		ldr	r3, [r3]
 2843              		.loc 1 1482 28
 2844 003a 1B68     		ldr	r3, [r3]
 2845              		.loc 1 1482 35
 2846 003c 03F48033 		and	r3, r3, #65536
 2847              		.loc 1 1482 10
 2848 0040 002B     		cmp	r3, #0
 2849 0042 02D1     		bne	.L171
 2850              		.loc 1 1482 61 discriminator 1
 2851 0044 FB68     		ldr	r3, [r7, #12]
 2852 0046 002B     		cmp	r3, #0
ARM GAS  C:\Users\Su\AppData\Local\Temp\ccdx3s9E.s 			page 77


 2853 0048 05D1     		bne	.L172
 2854              	.L171:
1483:Drivers/STM32H7xx_HAL_Driver/Src/stm32h7xx_hal_mdma.c ****   {
1484:Drivers/STM32H7xx_HAL_Driver/Src/stm32h7xx_hal_mdma.c ****     /* if an MDMA ongoing request has not yet end or if request mode is not SW request return error
1485:Drivers/STM32H7xx_HAL_Driver/Src/stm32h7xx_hal_mdma.c ****     hmdma->ErrorCode = HAL_MDMA_ERROR_BUSY;
 2855              		.loc 1 1485 22
 2856 004a 7B68     		ldr	r3, [r7, #4]
 2857 004c 4FF48072 		mov	r2, #256
 2858 0050 9A66     		str	r2, [r3, #104]
1486:Drivers/STM32H7xx_HAL_Driver/Src/stm32h7xx_hal_mdma.c **** 
1487:Drivers/STM32H7xx_HAL_Driver/Src/stm32h7xx_hal_mdma.c ****     return HAL_ERROR;
 2859              		.loc 1 1487 12
 2860 0052 0123     		movs	r3, #1
 2861 0054 08E0     		b	.L169
 2862              	.L172:
1488:Drivers/STM32H7xx_HAL_Driver/Src/stm32h7xx_hal_mdma.c ****   }
1489:Drivers/STM32H7xx_HAL_Driver/Src/stm32h7xx_hal_mdma.c ****   else
1490:Drivers/STM32H7xx_HAL_Driver/Src/stm32h7xx_hal_mdma.c ****   {
1491:Drivers/STM32H7xx_HAL_Driver/Src/stm32h7xx_hal_mdma.c ****     /* Set the SW request bit to activate the request on the Channel */
1492:Drivers/STM32H7xx_HAL_Driver/Src/stm32h7xx_hal_mdma.c ****     hmdma->Instance->CCR |= MDMA_CCR_SWRQ;
 2863              		.loc 1 1492 10
 2864 0056 7B68     		ldr	r3, [r7, #4]
 2865 0058 1B68     		ldr	r3, [r3]
 2866              		.loc 1 1492 26
 2867 005a DA68     		ldr	r2, [r3, #12]
 2868              		.loc 1 1492 10
 2869 005c 7B68     		ldr	r3, [r7, #4]
 2870 005e 1B68     		ldr	r3, [r3]
 2871              		.loc 1 1492 26
 2872 0060 42F48032 		orr	r2, r2, #65536
 2873 0064 DA60     		str	r2, [r3, #12]
1493:Drivers/STM32H7xx_HAL_Driver/Src/stm32h7xx_hal_mdma.c **** 
1494:Drivers/STM32H7xx_HAL_Driver/Src/stm32h7xx_hal_mdma.c ****     return HAL_OK;
 2874              		.loc 1 1494 12
 2875 0066 0023     		movs	r3, #0
 2876              	.L169:
1495:Drivers/STM32H7xx_HAL_Driver/Src/stm32h7xx_hal_mdma.c ****   }
1496:Drivers/STM32H7xx_HAL_Driver/Src/stm32h7xx_hal_mdma.c **** }
 2877              		.loc 1 1496 1
 2878 0068 1846     		mov	r0, r3
 2879 006a 1437     		adds	r7, r7, #20
 2880              	.LCFI88:
 2881              		.cfi_def_cfa_offset 4
 2882 006c BD46     		mov	sp, r7
 2883              	.LCFI89:
 2884              		.cfi_def_cfa_register 13
 2885              		@ sp needed
 2886 006e 5DF8047B 		ldr	r7, [sp], #4
 2887              	.LCFI90:
 2888              		.cfi_restore 7
 2889              		.cfi_def_cfa_offset 0
 2890 0072 7047     		bx	lr
 2891              		.cfi_endproc
 2892              	.LFE159:
 2894              		.section	.text.HAL_MDMA_IRQHandler,"ax",%progbits
 2895              		.align	1
 2896              		.global	HAL_MDMA_IRQHandler
ARM GAS  C:\Users\Su\AppData\Local\Temp\ccdx3s9E.s 			page 78


 2897              		.syntax unified
 2898              		.thumb
 2899              		.thumb_func
 2901              	HAL_MDMA_IRQHandler:
 2902              	.LFB160:
1497:Drivers/STM32H7xx_HAL_Driver/Src/stm32h7xx_hal_mdma.c **** 
1498:Drivers/STM32H7xx_HAL_Driver/Src/stm32h7xx_hal_mdma.c **** /**
1499:Drivers/STM32H7xx_HAL_Driver/Src/stm32h7xx_hal_mdma.c ****   * @brief  Handles MDMA interrupt request.
1500:Drivers/STM32H7xx_HAL_Driver/Src/stm32h7xx_hal_mdma.c ****   * @param  hmdma: pointer to a MDMA_HandleTypeDef structure that contains
1501:Drivers/STM32H7xx_HAL_Driver/Src/stm32h7xx_hal_mdma.c ****   *               the configuration information for the specified MDMA Channel.
1502:Drivers/STM32H7xx_HAL_Driver/Src/stm32h7xx_hal_mdma.c ****   * @retval None
1503:Drivers/STM32H7xx_HAL_Driver/Src/stm32h7xx_hal_mdma.c ****   */
1504:Drivers/STM32H7xx_HAL_Driver/Src/stm32h7xx_hal_mdma.c **** void HAL_MDMA_IRQHandler(MDMA_HandleTypeDef *hmdma)
1505:Drivers/STM32H7xx_HAL_Driver/Src/stm32h7xx_hal_mdma.c **** {
 2903              		.loc 1 1505 1
 2904              		.cfi_startproc
 2905              		@ args = 0, pretend = 0, frame = 24
 2906              		@ frame_needed = 1, uses_anonymous_args = 0
 2907 0000 80B5     		push	{r7, lr}
 2908              	.LCFI91:
 2909              		.cfi_def_cfa_offset 8
 2910              		.cfi_offset 7, -8
 2911              		.cfi_offset 14, -4
 2912 0002 86B0     		sub	sp, sp, #24
 2913              	.LCFI92:
 2914              		.cfi_def_cfa_offset 32
 2915 0004 00AF     		add	r7, sp, #0
 2916              	.LCFI93:
 2917              		.cfi_def_cfa_register 7
 2918 0006 7860     		str	r0, [r7, #4]
1506:Drivers/STM32H7xx_HAL_Driver/Src/stm32h7xx_hal_mdma.c ****   __IO uint32_t count = 0;
 2919              		.loc 1 1506 17
 2920 0008 0023     		movs	r3, #0
 2921 000a BB60     		str	r3, [r7, #8]
1507:Drivers/STM32H7xx_HAL_Driver/Src/stm32h7xx_hal_mdma.c ****   uint32_t timeout = SystemCoreClock / 9600U;
 2922              		.loc 1 1507 38
 2923 000c 914B     		ldr	r3, .L197
 2924 000e 1B68     		ldr	r3, [r3]
 2925              		.loc 1 1507 12
 2926 0010 914A     		ldr	r2, .L197+4
 2927 0012 A2FB0323 		umull	r2, r3, r2, r3
 2928 0016 9B0A     		lsrs	r3, r3, #10
 2929 0018 7B61     		str	r3, [r7, #20]
1508:Drivers/STM32H7xx_HAL_Driver/Src/stm32h7xx_hal_mdma.c **** 
1509:Drivers/STM32H7xx_HAL_Driver/Src/stm32h7xx_hal_mdma.c ****   uint32_t generalIntFlag, errorFlag;
1510:Drivers/STM32H7xx_HAL_Driver/Src/stm32h7xx_hal_mdma.c **** 
1511:Drivers/STM32H7xx_HAL_Driver/Src/stm32h7xx_hal_mdma.c ****   /* General Interrupt Flag management ****************************************/
1512:Drivers/STM32H7xx_HAL_Driver/Src/stm32h7xx_hal_mdma.c ****   generalIntFlag =  1UL << ((((uint32_t)hmdma->Instance - (uint32_t)(MDMA_Channel0))/HAL_MDMA_CHANN
 2930              		.loc 1 1512 46
 2931 001a 7B68     		ldr	r3, [r7, #4]
 2932 001c 1B68     		ldr	r3, [r3]
 2933              		.loc 1 1512 31
 2934 001e 1A46     		mov	r2, r3
 2935              		.loc 1 1512 57
 2936 0020 8E4B     		ldr	r3, .L197+8
 2937 0022 1344     		add	r3, r3, r2
 2938              		.loc 1 1512 85
ARM GAS  C:\Users\Su\AppData\Local\Temp\ccdx3s9E.s 			page 79


 2939 0024 9B09     		lsrs	r3, r3, #6
 2940              		.loc 1 1512 109
 2941 0026 03F01F03 		and	r3, r3, #31
 2942              		.loc 1 1512 18
 2943 002a 0122     		movs	r2, #1
 2944 002c 02FA03F3 		lsl	r3, r2, r3
 2945 0030 3B61     		str	r3, [r7, #16]
1513:Drivers/STM32H7xx_HAL_Driver/Src/stm32h7xx_hal_mdma.c ****   if((MDMA->GISR0 & generalIntFlag) == 0U)
 2946              		.loc 1 1513 11
 2947 0032 4FF0A443 		mov	r3, #1375731712
 2948 0036 1A68     		ldr	r2, [r3]
 2949              		.loc 1 1513 19
 2950 0038 3B69     		ldr	r3, [r7, #16]
 2951 003a 1340     		ands	r3, r3, r2
 2952              		.loc 1 1513 5
 2953 003c 002B     		cmp	r3, #0
 2954 003e 00F02D81 		beq	.L194
1514:Drivers/STM32H7xx_HAL_Driver/Src/stm32h7xx_hal_mdma.c ****   {
1515:Drivers/STM32H7xx_HAL_Driver/Src/stm32h7xx_hal_mdma.c ****     return; /* the  General interrupt flag for the current channel is down , nothing to do */
1516:Drivers/STM32H7xx_HAL_Driver/Src/stm32h7xx_hal_mdma.c ****   }
1517:Drivers/STM32H7xx_HAL_Driver/Src/stm32h7xx_hal_mdma.c **** 
1518:Drivers/STM32H7xx_HAL_Driver/Src/stm32h7xx_hal_mdma.c ****   /* Transfer Error Interrupt management ***************************************/
1519:Drivers/STM32H7xx_HAL_Driver/Src/stm32h7xx_hal_mdma.c ****   if((__HAL_MDMA_GET_FLAG(hmdma, MDMA_FLAG_TE) != 0U))
 2955              		.loc 1 1519 7
 2956 0042 7B68     		ldr	r3, [r7, #4]
 2957 0044 1B68     		ldr	r3, [r3]
 2958 0046 1B68     		ldr	r3, [r3]
 2959 0048 03F00103 		and	r3, r3, #1
 2960              		.loc 1 1519 5
 2961 004c 002B     		cmp	r3, #0
 2962 004e 54D0     		beq	.L176
1520:Drivers/STM32H7xx_HAL_Driver/Src/stm32h7xx_hal_mdma.c ****   {
1521:Drivers/STM32H7xx_HAL_Driver/Src/stm32h7xx_hal_mdma.c ****     if(__HAL_MDMA_GET_IT_SOURCE(hmdma, MDMA_IT_TE) != 0U)
 2963              		.loc 1 1521 8
 2964 0050 7B68     		ldr	r3, [r7, #4]
 2965 0052 1B68     		ldr	r3, [r3]
 2966 0054 DB68     		ldr	r3, [r3, #12]
 2967 0056 03F00203 		and	r3, r3, #2
 2968              		.loc 1 1521 7
 2969 005a 002B     		cmp	r3, #0
 2970 005c 4DD0     		beq	.L176
1522:Drivers/STM32H7xx_HAL_Driver/Src/stm32h7xx_hal_mdma.c ****     {
1523:Drivers/STM32H7xx_HAL_Driver/Src/stm32h7xx_hal_mdma.c ****       /* Disable the transfer error interrupt */
1524:Drivers/STM32H7xx_HAL_Driver/Src/stm32h7xx_hal_mdma.c ****       __HAL_MDMA_DISABLE_IT(hmdma, MDMA_IT_TE);
 2971              		.loc 1 1524 7
 2972 005e 7B68     		ldr	r3, [r7, #4]
 2973 0060 1B68     		ldr	r3, [r3]
 2974 0062 DA68     		ldr	r2, [r3, #12]
 2975 0064 7B68     		ldr	r3, [r7, #4]
 2976 0066 1B68     		ldr	r3, [r3]
 2977 0068 22F00202 		bic	r2, r2, #2
 2978 006c DA60     		str	r2, [r3, #12]
1525:Drivers/STM32H7xx_HAL_Driver/Src/stm32h7xx_hal_mdma.c **** 
1526:Drivers/STM32H7xx_HAL_Driver/Src/stm32h7xx_hal_mdma.c ****       /* Get the transfer error source flag */
1527:Drivers/STM32H7xx_HAL_Driver/Src/stm32h7xx_hal_mdma.c ****       errorFlag = hmdma->Instance->CESR;
 2979              		.loc 1 1527 24
 2980 006e 7B68     		ldr	r3, [r7, #4]
ARM GAS  C:\Users\Su\AppData\Local\Temp\ccdx3s9E.s 			page 80


 2981 0070 1B68     		ldr	r3, [r3]
 2982              		.loc 1 1527 17
 2983 0072 9B68     		ldr	r3, [r3, #8]
 2984 0074 FB60     		str	r3, [r7, #12]
1528:Drivers/STM32H7xx_HAL_Driver/Src/stm32h7xx_hal_mdma.c **** 
1529:Drivers/STM32H7xx_HAL_Driver/Src/stm32h7xx_hal_mdma.c ****       if((errorFlag & MDMA_CESR_TED) == 0U)
 2985              		.loc 1 1529 21
 2986 0076 FB68     		ldr	r3, [r7, #12]
 2987 0078 03F08003 		and	r3, r3, #128
 2988              		.loc 1 1529 9
 2989 007c 002B     		cmp	r3, #0
 2990 007e 06D1     		bne	.L177
1530:Drivers/STM32H7xx_HAL_Driver/Src/stm32h7xx_hal_mdma.c ****       {
1531:Drivers/STM32H7xx_HAL_Driver/Src/stm32h7xx_hal_mdma.c ****         /* Update error code : Read Transfer error  */
1532:Drivers/STM32H7xx_HAL_Driver/Src/stm32h7xx_hal_mdma.c ****         hmdma->ErrorCode |= HAL_MDMA_ERROR_READ_XFER;
 2991              		.loc 1 1532 26
 2992 0080 7B68     		ldr	r3, [r7, #4]
 2993 0082 9B6E     		ldr	r3, [r3, #104]
 2994 0084 43F00102 		orr	r2, r3, #1
 2995 0088 7B68     		ldr	r3, [r7, #4]
 2996 008a 9A66     		str	r2, [r3, #104]
 2997 008c 05E0     		b	.L178
 2998              	.L177:
1533:Drivers/STM32H7xx_HAL_Driver/Src/stm32h7xx_hal_mdma.c ****       }
1534:Drivers/STM32H7xx_HAL_Driver/Src/stm32h7xx_hal_mdma.c ****       else
1535:Drivers/STM32H7xx_HAL_Driver/Src/stm32h7xx_hal_mdma.c ****       {
1536:Drivers/STM32H7xx_HAL_Driver/Src/stm32h7xx_hal_mdma.c ****         /* Update error code : Write Transfer error */
1537:Drivers/STM32H7xx_HAL_Driver/Src/stm32h7xx_hal_mdma.c ****         hmdma->ErrorCode |= HAL_MDMA_ERROR_WRITE_XFER;
 2999              		.loc 1 1537 26
 3000 008e 7B68     		ldr	r3, [r7, #4]
 3001 0090 9B6E     		ldr	r3, [r3, #104]
 3002 0092 43F00202 		orr	r2, r3, #2
 3003 0096 7B68     		ldr	r3, [r7, #4]
 3004 0098 9A66     		str	r2, [r3, #104]
 3005              	.L178:
1538:Drivers/STM32H7xx_HAL_Driver/Src/stm32h7xx_hal_mdma.c ****       }
1539:Drivers/STM32H7xx_HAL_Driver/Src/stm32h7xx_hal_mdma.c **** 
1540:Drivers/STM32H7xx_HAL_Driver/Src/stm32h7xx_hal_mdma.c ****       if((errorFlag & MDMA_CESR_TEMD) != 0U)
 3006              		.loc 1 1540 21
 3007 009a FB68     		ldr	r3, [r7, #12]
 3008 009c 03F40073 		and	r3, r3, #512
 3009              		.loc 1 1540 9
 3010 00a0 002B     		cmp	r3, #0
 3011 00a2 05D0     		beq	.L179
1541:Drivers/STM32H7xx_HAL_Driver/Src/stm32h7xx_hal_mdma.c ****       {
1542:Drivers/STM32H7xx_HAL_Driver/Src/stm32h7xx_hal_mdma.c ****         /* Update error code : Error Mask Data */
1543:Drivers/STM32H7xx_HAL_Driver/Src/stm32h7xx_hal_mdma.c ****         hmdma->ErrorCode |= HAL_MDMA_ERROR_MASK_DATA;
 3012              		.loc 1 1543 26
 3013 00a4 7B68     		ldr	r3, [r7, #4]
 3014 00a6 9B6E     		ldr	r3, [r3, #104]
 3015 00a8 43F00402 		orr	r2, r3, #4
 3016 00ac 7B68     		ldr	r3, [r7, #4]
 3017 00ae 9A66     		str	r2, [r3, #104]
 3018              	.L179:
1544:Drivers/STM32H7xx_HAL_Driver/Src/stm32h7xx_hal_mdma.c ****       }
1545:Drivers/STM32H7xx_HAL_Driver/Src/stm32h7xx_hal_mdma.c **** 
1546:Drivers/STM32H7xx_HAL_Driver/Src/stm32h7xx_hal_mdma.c ****       if((errorFlag & MDMA_CESR_TELD) != 0U)
ARM GAS  C:\Users\Su\AppData\Local\Temp\ccdx3s9E.s 			page 81


 3019              		.loc 1 1546 21
 3020 00b0 FB68     		ldr	r3, [r7, #12]
 3021 00b2 03F48073 		and	r3, r3, #256
 3022              		.loc 1 1546 9
 3023 00b6 002B     		cmp	r3, #0
 3024 00b8 05D0     		beq	.L180
1547:Drivers/STM32H7xx_HAL_Driver/Src/stm32h7xx_hal_mdma.c ****       {
1548:Drivers/STM32H7xx_HAL_Driver/Src/stm32h7xx_hal_mdma.c ****         /* Update error code : Error Linked list */
1549:Drivers/STM32H7xx_HAL_Driver/Src/stm32h7xx_hal_mdma.c ****         hmdma->ErrorCode |= HAL_MDMA_ERROR_LINKED_LIST;
 3025              		.loc 1 1549 26
 3026 00ba 7B68     		ldr	r3, [r7, #4]
 3027 00bc 9B6E     		ldr	r3, [r3, #104]
 3028 00be 43F00802 		orr	r2, r3, #8
 3029 00c2 7B68     		ldr	r3, [r7, #4]
 3030 00c4 9A66     		str	r2, [r3, #104]
 3031              	.L180:
1550:Drivers/STM32H7xx_HAL_Driver/Src/stm32h7xx_hal_mdma.c ****       }
1551:Drivers/STM32H7xx_HAL_Driver/Src/stm32h7xx_hal_mdma.c **** 
1552:Drivers/STM32H7xx_HAL_Driver/Src/stm32h7xx_hal_mdma.c ****       if((errorFlag & MDMA_CESR_ASE) != 0U)
 3032              		.loc 1 1552 21
 3033 00c6 FB68     		ldr	r3, [r7, #12]
 3034 00c8 03F48063 		and	r3, r3, #1024
 3035              		.loc 1 1552 9
 3036 00cc 002B     		cmp	r3, #0
 3037 00ce 05D0     		beq	.L181
1553:Drivers/STM32H7xx_HAL_Driver/Src/stm32h7xx_hal_mdma.c ****       {
1554:Drivers/STM32H7xx_HAL_Driver/Src/stm32h7xx_hal_mdma.c ****         /* Update error code : Address/Size alignment error */
1555:Drivers/STM32H7xx_HAL_Driver/Src/stm32h7xx_hal_mdma.c ****         hmdma->ErrorCode |= HAL_MDMA_ERROR_ALIGNMENT;
 3038              		.loc 1 1555 26
 3039 00d0 7B68     		ldr	r3, [r7, #4]
 3040 00d2 9B6E     		ldr	r3, [r3, #104]
 3041 00d4 43F01002 		orr	r2, r3, #16
 3042 00d8 7B68     		ldr	r3, [r7, #4]
 3043 00da 9A66     		str	r2, [r3, #104]
 3044              	.L181:
1556:Drivers/STM32H7xx_HAL_Driver/Src/stm32h7xx_hal_mdma.c ****       }
1557:Drivers/STM32H7xx_HAL_Driver/Src/stm32h7xx_hal_mdma.c **** 
1558:Drivers/STM32H7xx_HAL_Driver/Src/stm32h7xx_hal_mdma.c ****       if((errorFlag & MDMA_CESR_BSE) != 0U)
 3045              		.loc 1 1558 21
 3046 00dc FB68     		ldr	r3, [r7, #12]
 3047 00de 03F40063 		and	r3, r3, #2048
 3048              		.loc 1 1558 9
 3049 00e2 002B     		cmp	r3, #0
 3050 00e4 05D0     		beq	.L182
1559:Drivers/STM32H7xx_HAL_Driver/Src/stm32h7xx_hal_mdma.c ****       {
1560:Drivers/STM32H7xx_HAL_Driver/Src/stm32h7xx_hal_mdma.c ****         /* Update error code : Block Size error error */
1561:Drivers/STM32H7xx_HAL_Driver/Src/stm32h7xx_hal_mdma.c ****         hmdma->ErrorCode |= HAL_MDMA_ERROR_BLOCK_SIZE;
 3051              		.loc 1 1561 26
 3052 00e6 7B68     		ldr	r3, [r7, #4]
 3053 00e8 9B6E     		ldr	r3, [r3, #104]
 3054 00ea 43F02002 		orr	r2, r3, #32
 3055 00ee 7B68     		ldr	r3, [r7, #4]
 3056 00f0 9A66     		str	r2, [r3, #104]
 3057              	.L182:
1562:Drivers/STM32H7xx_HAL_Driver/Src/stm32h7xx_hal_mdma.c ****       }
1563:Drivers/STM32H7xx_HAL_Driver/Src/stm32h7xx_hal_mdma.c **** 
1564:Drivers/STM32H7xx_HAL_Driver/Src/stm32h7xx_hal_mdma.c ****       /* Clear the transfer error flags */
ARM GAS  C:\Users\Su\AppData\Local\Temp\ccdx3s9E.s 			page 82


1565:Drivers/STM32H7xx_HAL_Driver/Src/stm32h7xx_hal_mdma.c ****       __HAL_MDMA_CLEAR_FLAG(hmdma, MDMA_FLAG_TE);
 3058              		.loc 1 1565 7
 3059 00f2 7B68     		ldr	r3, [r7, #4]
 3060 00f4 1B68     		ldr	r3, [r3]
 3061 00f6 0122     		movs	r2, #1
 3062 00f8 5A60     		str	r2, [r3, #4]
 3063              	.L176:
1566:Drivers/STM32H7xx_HAL_Driver/Src/stm32h7xx_hal_mdma.c ****     }
1567:Drivers/STM32H7xx_HAL_Driver/Src/stm32h7xx_hal_mdma.c ****   }
1568:Drivers/STM32H7xx_HAL_Driver/Src/stm32h7xx_hal_mdma.c **** 
1569:Drivers/STM32H7xx_HAL_Driver/Src/stm32h7xx_hal_mdma.c ****   /* Buffer Transfer Complete Interrupt management ******************************/
1570:Drivers/STM32H7xx_HAL_Driver/Src/stm32h7xx_hal_mdma.c ****   if((__HAL_MDMA_GET_FLAG(hmdma, MDMA_FLAG_BFTC) != 0U))
 3064              		.loc 1 1570 7
 3065 00fa 7B68     		ldr	r3, [r7, #4]
 3066 00fc 1B68     		ldr	r3, [r3]
 3067 00fe 1B68     		ldr	r3, [r3]
 3068 0100 03F01003 		and	r3, r3, #16
 3069              		.loc 1 1570 5
 3070 0104 002B     		cmp	r3, #0
 3071 0106 12D0     		beq	.L183
1571:Drivers/STM32H7xx_HAL_Driver/Src/stm32h7xx_hal_mdma.c ****   {
1572:Drivers/STM32H7xx_HAL_Driver/Src/stm32h7xx_hal_mdma.c ****     if(__HAL_MDMA_GET_IT_SOURCE(hmdma, MDMA_IT_BFTC) != 0U)
 3072              		.loc 1 1572 8
 3073 0108 7B68     		ldr	r3, [r7, #4]
 3074 010a 1B68     		ldr	r3, [r3]
 3075 010c DB68     		ldr	r3, [r3, #12]
 3076 010e 03F02003 		and	r3, r3, #32
 3077              		.loc 1 1572 7
 3078 0112 002B     		cmp	r3, #0
 3079 0114 0BD0     		beq	.L183
1573:Drivers/STM32H7xx_HAL_Driver/Src/stm32h7xx_hal_mdma.c ****     {
1574:Drivers/STM32H7xx_HAL_Driver/Src/stm32h7xx_hal_mdma.c ****       /* Clear the buffer transfer complete flag */
1575:Drivers/STM32H7xx_HAL_Driver/Src/stm32h7xx_hal_mdma.c ****       __HAL_MDMA_CLEAR_FLAG(hmdma, MDMA_FLAG_BFTC);
 3080              		.loc 1 1575 7
 3081 0116 7B68     		ldr	r3, [r7, #4]
 3082 0118 1B68     		ldr	r3, [r3]
 3083 011a 1022     		movs	r2, #16
 3084 011c 5A60     		str	r2, [r3, #4]
1576:Drivers/STM32H7xx_HAL_Driver/Src/stm32h7xx_hal_mdma.c **** 
1577:Drivers/STM32H7xx_HAL_Driver/Src/stm32h7xx_hal_mdma.c ****       if(hmdma->XferBufferCpltCallback != NULL)
 3085              		.loc 1 1577 15
 3086 011e 7B68     		ldr	r3, [r7, #4]
 3087 0120 9B6C     		ldr	r3, [r3, #72]
 3088              		.loc 1 1577 9
 3089 0122 002B     		cmp	r3, #0
 3090 0124 03D0     		beq	.L183
1578:Drivers/STM32H7xx_HAL_Driver/Src/stm32h7xx_hal_mdma.c ****       {
1579:Drivers/STM32H7xx_HAL_Driver/Src/stm32h7xx_hal_mdma.c ****         /* Buffer transfer callback */
1580:Drivers/STM32H7xx_HAL_Driver/Src/stm32h7xx_hal_mdma.c ****         hmdma->XferBufferCpltCallback(hmdma);
 3091              		.loc 1 1580 14
 3092 0126 7B68     		ldr	r3, [r7, #4]
 3093 0128 9B6C     		ldr	r3, [r3, #72]
 3094              		.loc 1 1580 9
 3095 012a 7868     		ldr	r0, [r7, #4]
 3096 012c 9847     		blx	r3
 3097              	.LVL0:
 3098              	.L183:
ARM GAS  C:\Users\Su\AppData\Local\Temp\ccdx3s9E.s 			page 83


1581:Drivers/STM32H7xx_HAL_Driver/Src/stm32h7xx_hal_mdma.c ****       }
1582:Drivers/STM32H7xx_HAL_Driver/Src/stm32h7xx_hal_mdma.c ****     }
1583:Drivers/STM32H7xx_HAL_Driver/Src/stm32h7xx_hal_mdma.c ****   }
1584:Drivers/STM32H7xx_HAL_Driver/Src/stm32h7xx_hal_mdma.c **** 
1585:Drivers/STM32H7xx_HAL_Driver/Src/stm32h7xx_hal_mdma.c ****   /* Block Transfer Complete Interrupt management ******************************/
1586:Drivers/STM32H7xx_HAL_Driver/Src/stm32h7xx_hal_mdma.c ****   if((__HAL_MDMA_GET_FLAG(hmdma, MDMA_FLAG_BT) != 0U))
 3099              		.loc 1 1586 7
 3100 012e 7B68     		ldr	r3, [r7, #4]
 3101 0130 1B68     		ldr	r3, [r3]
 3102 0132 1B68     		ldr	r3, [r3]
 3103 0134 03F00803 		and	r3, r3, #8
 3104              		.loc 1 1586 5
 3105 0138 002B     		cmp	r3, #0
 3106 013a 12D0     		beq	.L184
1587:Drivers/STM32H7xx_HAL_Driver/Src/stm32h7xx_hal_mdma.c ****   {
1588:Drivers/STM32H7xx_HAL_Driver/Src/stm32h7xx_hal_mdma.c ****     if(__HAL_MDMA_GET_IT_SOURCE(hmdma, MDMA_IT_BT) != 0U)
 3107              		.loc 1 1588 8
 3108 013c 7B68     		ldr	r3, [r7, #4]
 3109 013e 1B68     		ldr	r3, [r3]
 3110 0140 DB68     		ldr	r3, [r3, #12]
 3111 0142 03F01003 		and	r3, r3, #16
 3112              		.loc 1 1588 7
 3113 0146 002B     		cmp	r3, #0
 3114 0148 0BD0     		beq	.L184
1589:Drivers/STM32H7xx_HAL_Driver/Src/stm32h7xx_hal_mdma.c ****     {
1590:Drivers/STM32H7xx_HAL_Driver/Src/stm32h7xx_hal_mdma.c ****       /* Clear the block transfer complete flag */
1591:Drivers/STM32H7xx_HAL_Driver/Src/stm32h7xx_hal_mdma.c ****       __HAL_MDMA_CLEAR_FLAG(hmdma, MDMA_FLAG_BT);
 3115              		.loc 1 1591 7
 3116 014a 7B68     		ldr	r3, [r7, #4]
 3117 014c 1B68     		ldr	r3, [r3]
 3118 014e 0822     		movs	r2, #8
 3119 0150 5A60     		str	r2, [r3, #4]
1592:Drivers/STM32H7xx_HAL_Driver/Src/stm32h7xx_hal_mdma.c **** 
1593:Drivers/STM32H7xx_HAL_Driver/Src/stm32h7xx_hal_mdma.c ****       if(hmdma->XferBlockCpltCallback != NULL)
 3120              		.loc 1 1593 15
 3121 0152 7B68     		ldr	r3, [r7, #4]
 3122 0154 DB6C     		ldr	r3, [r3, #76]
 3123              		.loc 1 1593 9
 3124 0156 002B     		cmp	r3, #0
 3125 0158 03D0     		beq	.L184
1594:Drivers/STM32H7xx_HAL_Driver/Src/stm32h7xx_hal_mdma.c ****       {
1595:Drivers/STM32H7xx_HAL_Driver/Src/stm32h7xx_hal_mdma.c ****         /* Block transfer callback */
1596:Drivers/STM32H7xx_HAL_Driver/Src/stm32h7xx_hal_mdma.c ****         hmdma->XferBlockCpltCallback(hmdma);
 3126              		.loc 1 1596 14
 3127 015a 7B68     		ldr	r3, [r7, #4]
 3128 015c DB6C     		ldr	r3, [r3, #76]
 3129              		.loc 1 1596 9
 3130 015e 7868     		ldr	r0, [r7, #4]
 3131 0160 9847     		blx	r3
 3132              	.LVL1:
 3133              	.L184:
1597:Drivers/STM32H7xx_HAL_Driver/Src/stm32h7xx_hal_mdma.c ****       }
1598:Drivers/STM32H7xx_HAL_Driver/Src/stm32h7xx_hal_mdma.c ****     }
1599:Drivers/STM32H7xx_HAL_Driver/Src/stm32h7xx_hal_mdma.c ****   }
1600:Drivers/STM32H7xx_HAL_Driver/Src/stm32h7xx_hal_mdma.c **** 
1601:Drivers/STM32H7xx_HAL_Driver/Src/stm32h7xx_hal_mdma.c ****   /* Repeated Block Transfer Complete Interrupt management ******************************/
1602:Drivers/STM32H7xx_HAL_Driver/Src/stm32h7xx_hal_mdma.c ****   if((__HAL_MDMA_GET_FLAG(hmdma, MDMA_FLAG_BRT) != 0U))
ARM GAS  C:\Users\Su\AppData\Local\Temp\ccdx3s9E.s 			page 84


 3134              		.loc 1 1602 7
 3135 0162 7B68     		ldr	r3, [r7, #4]
 3136 0164 1B68     		ldr	r3, [r3]
 3137 0166 1B68     		ldr	r3, [r3]
 3138 0168 03F00403 		and	r3, r3, #4
 3139              		.loc 1 1602 5
 3140 016c 002B     		cmp	r3, #0
 3141 016e 12D0     		beq	.L185
1603:Drivers/STM32H7xx_HAL_Driver/Src/stm32h7xx_hal_mdma.c ****   {
1604:Drivers/STM32H7xx_HAL_Driver/Src/stm32h7xx_hal_mdma.c ****     if(__HAL_MDMA_GET_IT_SOURCE(hmdma, MDMA_IT_BRT) != 0U)
 3142              		.loc 1 1604 8
 3143 0170 7B68     		ldr	r3, [r7, #4]
 3144 0172 1B68     		ldr	r3, [r3]
 3145 0174 DB68     		ldr	r3, [r3, #12]
 3146 0176 03F00803 		and	r3, r3, #8
 3147              		.loc 1 1604 7
 3148 017a 002B     		cmp	r3, #0
 3149 017c 0BD0     		beq	.L185
1605:Drivers/STM32H7xx_HAL_Driver/Src/stm32h7xx_hal_mdma.c ****     {
1606:Drivers/STM32H7xx_HAL_Driver/Src/stm32h7xx_hal_mdma.c ****       /* Clear the repeat block transfer complete flag */
1607:Drivers/STM32H7xx_HAL_Driver/Src/stm32h7xx_hal_mdma.c ****       __HAL_MDMA_CLEAR_FLAG(hmdma, MDMA_FLAG_BRT);
 3150              		.loc 1 1607 7
 3151 017e 7B68     		ldr	r3, [r7, #4]
 3152 0180 1B68     		ldr	r3, [r3]
 3153 0182 0422     		movs	r2, #4
 3154 0184 5A60     		str	r2, [r3, #4]
1608:Drivers/STM32H7xx_HAL_Driver/Src/stm32h7xx_hal_mdma.c **** 
1609:Drivers/STM32H7xx_HAL_Driver/Src/stm32h7xx_hal_mdma.c ****       if(hmdma->XferRepeatBlockCpltCallback != NULL)
 3155              		.loc 1 1609 15
 3156 0186 7B68     		ldr	r3, [r7, #4]
 3157 0188 1B6D     		ldr	r3, [r3, #80]
 3158              		.loc 1 1609 9
 3159 018a 002B     		cmp	r3, #0
 3160 018c 03D0     		beq	.L185
1610:Drivers/STM32H7xx_HAL_Driver/Src/stm32h7xx_hal_mdma.c ****       {
1611:Drivers/STM32H7xx_HAL_Driver/Src/stm32h7xx_hal_mdma.c ****         /* Repeated Block transfer callback */
1612:Drivers/STM32H7xx_HAL_Driver/Src/stm32h7xx_hal_mdma.c ****         hmdma->XferRepeatBlockCpltCallback(hmdma);
 3161              		.loc 1 1612 14
 3162 018e 7B68     		ldr	r3, [r7, #4]
 3163 0190 1B6D     		ldr	r3, [r3, #80]
 3164              		.loc 1 1612 9
 3165 0192 7868     		ldr	r0, [r7, #4]
 3166 0194 9847     		blx	r3
 3167              	.LVL2:
 3168              	.L185:
1613:Drivers/STM32H7xx_HAL_Driver/Src/stm32h7xx_hal_mdma.c ****       }
1614:Drivers/STM32H7xx_HAL_Driver/Src/stm32h7xx_hal_mdma.c ****     }
1615:Drivers/STM32H7xx_HAL_Driver/Src/stm32h7xx_hal_mdma.c ****   }
1616:Drivers/STM32H7xx_HAL_Driver/Src/stm32h7xx_hal_mdma.c **** 
1617:Drivers/STM32H7xx_HAL_Driver/Src/stm32h7xx_hal_mdma.c ****   /* Channel Transfer Complete Interrupt management ***********************************/
1618:Drivers/STM32H7xx_HAL_Driver/Src/stm32h7xx_hal_mdma.c ****   if((__HAL_MDMA_GET_FLAG(hmdma, MDMA_FLAG_CTC) != 0U))
 3169              		.loc 1 1618 7
 3170 0196 7B68     		ldr	r3, [r7, #4]
 3171 0198 1B68     		ldr	r3, [r3]
 3172 019a 1B68     		ldr	r3, [r3]
 3173 019c 03F00203 		and	r3, r3, #2
 3174              		.loc 1 1618 5
ARM GAS  C:\Users\Su\AppData\Local\Temp\ccdx3s9E.s 			page 85


 3175 01a0 002B     		cmp	r3, #0
 3176 01a2 39D0     		beq	.L186
1619:Drivers/STM32H7xx_HAL_Driver/Src/stm32h7xx_hal_mdma.c ****   {
1620:Drivers/STM32H7xx_HAL_Driver/Src/stm32h7xx_hal_mdma.c ****     if(__HAL_MDMA_GET_IT_SOURCE(hmdma, MDMA_IT_CTC) != 0U)
 3177              		.loc 1 1620 8
 3178 01a4 7B68     		ldr	r3, [r7, #4]
 3179 01a6 1B68     		ldr	r3, [r3]
 3180 01a8 DB68     		ldr	r3, [r3, #12]
 3181 01aa 03F00403 		and	r3, r3, #4
 3182              		.loc 1 1620 7
 3183 01ae 002B     		cmp	r3, #0
 3184 01b0 32D0     		beq	.L186
1621:Drivers/STM32H7xx_HAL_Driver/Src/stm32h7xx_hal_mdma.c ****     {
1622:Drivers/STM32H7xx_HAL_Driver/Src/stm32h7xx_hal_mdma.c ****       /* Disable all the transfer interrupts */
1623:Drivers/STM32H7xx_HAL_Driver/Src/stm32h7xx_hal_mdma.c ****       __HAL_MDMA_DISABLE_IT(hmdma, (MDMA_IT_TE | MDMA_IT_CTC | MDMA_IT_BT | MDMA_IT_BRT | MDMA_IT_B
 3185              		.loc 1 1623 7
 3186 01b2 7B68     		ldr	r3, [r7, #4]
 3187 01b4 1B68     		ldr	r3, [r3]
 3188 01b6 DA68     		ldr	r2, [r3, #12]
 3189 01b8 7B68     		ldr	r3, [r7, #4]
 3190 01ba 1B68     		ldr	r3, [r3]
 3191 01bc 22F03E02 		bic	r2, r2, #62
 3192 01c0 DA60     		str	r2, [r3, #12]
1624:Drivers/STM32H7xx_HAL_Driver/Src/stm32h7xx_hal_mdma.c **** 
1625:Drivers/STM32H7xx_HAL_Driver/Src/stm32h7xx_hal_mdma.c ****       if(HAL_MDMA_STATE_ABORT == hmdma->State)
 3193              		.loc 1 1625 39
 3194 01c2 7B68     		ldr	r3, [r7, #4]
 3195 01c4 93F83D30 		ldrb	r3, [r3, #61]
 3196 01c8 DBB2     		uxtb	r3, r3
 3197              		.loc 1 1625 9
 3198 01ca 042B     		cmp	r3, #4
 3199 01cc 10D1     		bne	.L187
1626:Drivers/STM32H7xx_HAL_Driver/Src/stm32h7xx_hal_mdma.c ****       {
1627:Drivers/STM32H7xx_HAL_Driver/Src/stm32h7xx_hal_mdma.c ****         /* Process Unlocked */
1628:Drivers/STM32H7xx_HAL_Driver/Src/stm32h7xx_hal_mdma.c ****         __HAL_UNLOCK(hmdma);
 3200              		.loc 1 1628 9
 3201 01ce 7B68     		ldr	r3, [r7, #4]
 3202 01d0 0022     		movs	r2, #0
 3203 01d2 83F83C20 		strb	r2, [r3, #60]
1629:Drivers/STM32H7xx_HAL_Driver/Src/stm32h7xx_hal_mdma.c **** 
1630:Drivers/STM32H7xx_HAL_Driver/Src/stm32h7xx_hal_mdma.c ****         /* Change the DMA state */
1631:Drivers/STM32H7xx_HAL_Driver/Src/stm32h7xx_hal_mdma.c ****         hmdma->State = HAL_MDMA_STATE_READY;
 3204              		.loc 1 1631 22
 3205 01d6 7B68     		ldr	r3, [r7, #4]
 3206 01d8 0122     		movs	r2, #1
 3207 01da 83F83D20 		strb	r2, [r3, #61]
1632:Drivers/STM32H7xx_HAL_Driver/Src/stm32h7xx_hal_mdma.c **** 
1633:Drivers/STM32H7xx_HAL_Driver/Src/stm32h7xx_hal_mdma.c ****         if(hmdma->XferAbortCallback != NULL)
 3208              		.loc 1 1633 17
 3209 01de 7B68     		ldr	r3, [r7, #4]
 3210 01e0 9B6D     		ldr	r3, [r3, #88]
 3211              		.loc 1 1633 11
 3212 01e2 002B     		cmp	r3, #0
 3213 01e4 5CD0     		beq	.L195
1634:Drivers/STM32H7xx_HAL_Driver/Src/stm32h7xx_hal_mdma.c ****         {
1635:Drivers/STM32H7xx_HAL_Driver/Src/stm32h7xx_hal_mdma.c ****           hmdma->XferAbortCallback(hmdma);
 3214              		.loc 1 1635 16
ARM GAS  C:\Users\Su\AppData\Local\Temp\ccdx3s9E.s 			page 86


 3215 01e6 7B68     		ldr	r3, [r7, #4]
 3216 01e8 9B6D     		ldr	r3, [r3, #88]
 3217              		.loc 1 1635 11
 3218 01ea 7868     		ldr	r0, [r7, #4]
 3219 01ec 9847     		blx	r3
 3220              	.LVL3:
1636:Drivers/STM32H7xx_HAL_Driver/Src/stm32h7xx_hal_mdma.c ****         }
1637:Drivers/STM32H7xx_HAL_Driver/Src/stm32h7xx_hal_mdma.c ****         return;
 3221              		.loc 1 1637 9
 3222 01ee 57E0     		b	.L195
 3223              	.L187:
1638:Drivers/STM32H7xx_HAL_Driver/Src/stm32h7xx_hal_mdma.c ****       }
1639:Drivers/STM32H7xx_HAL_Driver/Src/stm32h7xx_hal_mdma.c **** 
1640:Drivers/STM32H7xx_HAL_Driver/Src/stm32h7xx_hal_mdma.c ****       /* Clear the Channel Transfer Complete flag */
1641:Drivers/STM32H7xx_HAL_Driver/Src/stm32h7xx_hal_mdma.c ****       __HAL_MDMA_CLEAR_FLAG(hmdma, MDMA_FLAG_CTC);
 3224              		.loc 1 1641 7
 3225 01f0 7B68     		ldr	r3, [r7, #4]
 3226 01f2 1B68     		ldr	r3, [r3]
 3227 01f4 0222     		movs	r2, #2
 3228 01f6 5A60     		str	r2, [r3, #4]
1642:Drivers/STM32H7xx_HAL_Driver/Src/stm32h7xx_hal_mdma.c **** 
1643:Drivers/STM32H7xx_HAL_Driver/Src/stm32h7xx_hal_mdma.c ****       /* Process Unlocked */
1644:Drivers/STM32H7xx_HAL_Driver/Src/stm32h7xx_hal_mdma.c ****       __HAL_UNLOCK(hmdma);
 3229              		.loc 1 1644 7
 3230 01f8 7B68     		ldr	r3, [r7, #4]
 3231 01fa 0022     		movs	r2, #0
 3232 01fc 83F83C20 		strb	r2, [r3, #60]
1645:Drivers/STM32H7xx_HAL_Driver/Src/stm32h7xx_hal_mdma.c **** 
1646:Drivers/STM32H7xx_HAL_Driver/Src/stm32h7xx_hal_mdma.c ****       /* Change MDMA peripheral state */
1647:Drivers/STM32H7xx_HAL_Driver/Src/stm32h7xx_hal_mdma.c ****       hmdma->State = HAL_MDMA_STATE_READY;
 3233              		.loc 1 1647 20
 3234 0200 7B68     		ldr	r3, [r7, #4]
 3235 0202 0122     		movs	r2, #1
 3236 0204 83F83D20 		strb	r2, [r3, #61]
1648:Drivers/STM32H7xx_HAL_Driver/Src/stm32h7xx_hal_mdma.c **** 
1649:Drivers/STM32H7xx_HAL_Driver/Src/stm32h7xx_hal_mdma.c ****       if(hmdma->XferCpltCallback != NULL)
 3237              		.loc 1 1649 15
 3238 0208 7B68     		ldr	r3, [r7, #4]
 3239 020a 5B6C     		ldr	r3, [r3, #68]
 3240              		.loc 1 1649 9
 3241 020c 002B     		cmp	r3, #0
 3242 020e 03D0     		beq	.L186
1650:Drivers/STM32H7xx_HAL_Driver/Src/stm32h7xx_hal_mdma.c ****       {
1651:Drivers/STM32H7xx_HAL_Driver/Src/stm32h7xx_hal_mdma.c ****         /* Channel Transfer Complete callback */
1652:Drivers/STM32H7xx_HAL_Driver/Src/stm32h7xx_hal_mdma.c ****         hmdma->XferCpltCallback(hmdma);
 3243              		.loc 1 1652 14
 3244 0210 7B68     		ldr	r3, [r7, #4]
 3245 0212 5B6C     		ldr	r3, [r3, #68]
 3246              		.loc 1 1652 9
 3247 0214 7868     		ldr	r0, [r7, #4]
 3248 0216 9847     		blx	r3
 3249              	.LVL4:
 3250              	.L186:
1653:Drivers/STM32H7xx_HAL_Driver/Src/stm32h7xx_hal_mdma.c ****       }
1654:Drivers/STM32H7xx_HAL_Driver/Src/stm32h7xx_hal_mdma.c ****     }
1655:Drivers/STM32H7xx_HAL_Driver/Src/stm32h7xx_hal_mdma.c ****   }
1656:Drivers/STM32H7xx_HAL_Driver/Src/stm32h7xx_hal_mdma.c **** 
ARM GAS  C:\Users\Su\AppData\Local\Temp\ccdx3s9E.s 			page 87


1657:Drivers/STM32H7xx_HAL_Driver/Src/stm32h7xx_hal_mdma.c ****   /* manage error case */
1658:Drivers/STM32H7xx_HAL_Driver/Src/stm32h7xx_hal_mdma.c ****   if(hmdma->ErrorCode != HAL_MDMA_ERROR_NONE)
 3251              		.loc 1 1658 11
 3252 0218 7B68     		ldr	r3, [r7, #4]
 3253 021a 9B6E     		ldr	r3, [r3, #104]
 3254              		.loc 1 1658 5
 3255 021c 002B     		cmp	r3, #0
 3256 021e 40D0     		beq	.L173
1659:Drivers/STM32H7xx_HAL_Driver/Src/stm32h7xx_hal_mdma.c ****   {
1660:Drivers/STM32H7xx_HAL_Driver/Src/stm32h7xx_hal_mdma.c ****     hmdma->State = HAL_MDMA_STATE_ABORT;
 3257              		.loc 1 1660 18
 3258 0220 7B68     		ldr	r3, [r7, #4]
 3259 0222 0422     		movs	r2, #4
 3260 0224 83F83D20 		strb	r2, [r3, #61]
1661:Drivers/STM32H7xx_HAL_Driver/Src/stm32h7xx_hal_mdma.c **** 
1662:Drivers/STM32H7xx_HAL_Driver/Src/stm32h7xx_hal_mdma.c ****     /* Disable the channel */
1663:Drivers/STM32H7xx_HAL_Driver/Src/stm32h7xx_hal_mdma.c ****     __HAL_MDMA_DISABLE(hmdma);
 3261              		.loc 1 1663 5
 3262 0228 7B68     		ldr	r3, [r7, #4]
 3263 022a 1B68     		ldr	r3, [r3]
 3264 022c DA68     		ldr	r2, [r3, #12]
 3265 022e 7B68     		ldr	r3, [r7, #4]
 3266 0230 1B68     		ldr	r3, [r3]
 3267 0232 22F00102 		bic	r2, r2, #1
 3268 0236 DA60     		str	r2, [r3, #12]
 3269              	.L191:
1664:Drivers/STM32H7xx_HAL_Driver/Src/stm32h7xx_hal_mdma.c **** 
1665:Drivers/STM32H7xx_HAL_Driver/Src/stm32h7xx_hal_mdma.c ****     do
1666:Drivers/STM32H7xx_HAL_Driver/Src/stm32h7xx_hal_mdma.c ****     {
1667:Drivers/STM32H7xx_HAL_Driver/Src/stm32h7xx_hal_mdma.c ****       if (++count > timeout)
 3270              		.loc 1 1667 11
 3271 0238 BB68     		ldr	r3, [r7, #8]
 3272 023a 0133     		adds	r3, r3, #1
 3273              		.loc 1 1667 10
 3274 023c BB60     		str	r3, [r7, #8]
 3275 023e 7A69     		ldr	r2, [r7, #20]
 3276 0240 9A42     		cmp	r2, r3
 3277 0242 0DD3     		bcc	.L196
1668:Drivers/STM32H7xx_HAL_Driver/Src/stm32h7xx_hal_mdma.c ****       {
1669:Drivers/STM32H7xx_HAL_Driver/Src/stm32h7xx_hal_mdma.c ****         break;
1670:Drivers/STM32H7xx_HAL_Driver/Src/stm32h7xx_hal_mdma.c ****       }
1671:Drivers/STM32H7xx_HAL_Driver/Src/stm32h7xx_hal_mdma.c ****     }
1672:Drivers/STM32H7xx_HAL_Driver/Src/stm32h7xx_hal_mdma.c ****     while((hmdma->Instance->CCR & MDMA_CCR_EN) != 0U);
 3278              		.loc 1 1672 17
 3279 0244 7B68     		ldr	r3, [r7, #4]
 3280 0246 1B68     		ldr	r3, [r3]
 3281              		.loc 1 1672 27
 3282 0248 DB68     		ldr	r3, [r3, #12]
 3283              		.loc 1 1672 33
 3284 024a 03F00103 		and	r3, r3, #1
 3285              		.loc 1 1672 5
 3286 024e 002B     		cmp	r3, #0
 3287 0250 F2D1     		bne	.L191
 3288 0252 06E0     		b	.L190
 3289              	.L198:
 3290              		.align	2
 3291              	.L197:
ARM GAS  C:\Users\Su\AppData\Local\Temp\ccdx3s9E.s 			page 88


 3292 0254 00000000 		.word	SystemCoreClock
 3293 0258 B5814E1B 		.word	458129845
 3294 025c C0FFFFAD 		.word	-1375731776
 3295              	.L196:
1669:Drivers/STM32H7xx_HAL_Driver/Src/stm32h7xx_hal_mdma.c ****       }
 3296              		.loc 1 1669 9
 3297 0260 00BF     		nop
 3298              	.L190:
1673:Drivers/STM32H7xx_HAL_Driver/Src/stm32h7xx_hal_mdma.c **** 
1674:Drivers/STM32H7xx_HAL_Driver/Src/stm32h7xx_hal_mdma.c ****     /* Process Unlocked */
1675:Drivers/STM32H7xx_HAL_Driver/Src/stm32h7xx_hal_mdma.c ****     __HAL_UNLOCK(hmdma);
 3299              		.loc 1 1675 5
 3300 0262 7B68     		ldr	r3, [r7, #4]
 3301 0264 0022     		movs	r2, #0
 3302 0266 83F83C20 		strb	r2, [r3, #60]
1676:Drivers/STM32H7xx_HAL_Driver/Src/stm32h7xx_hal_mdma.c **** 
1677:Drivers/STM32H7xx_HAL_Driver/Src/stm32h7xx_hal_mdma.c ****     if((hmdma->Instance->CCR & MDMA_CCR_EN) != 0U)
 3303              		.loc 1 1677 14
 3304 026a 7B68     		ldr	r3, [r7, #4]
 3305 026c 1B68     		ldr	r3, [r3]
 3306              		.loc 1 1677 24
 3307 026e DB68     		ldr	r3, [r3, #12]
 3308              		.loc 1 1677 30
 3309 0270 03F00103 		and	r3, r3, #1
 3310              		.loc 1 1677 7
 3311 0274 002B     		cmp	r3, #0
 3312 0276 04D0     		beq	.L192
1678:Drivers/STM32H7xx_HAL_Driver/Src/stm32h7xx_hal_mdma.c ****     {
1679:Drivers/STM32H7xx_HAL_Driver/Src/stm32h7xx_hal_mdma.c ****       /* Change the MDMA state to error if MDMA disable fails */
1680:Drivers/STM32H7xx_HAL_Driver/Src/stm32h7xx_hal_mdma.c ****       hmdma->State = HAL_MDMA_STATE_ERROR;
 3313              		.loc 1 1680 20
 3314 0278 7B68     		ldr	r3, [r7, #4]
 3315 027a 0322     		movs	r2, #3
 3316 027c 83F83D20 		strb	r2, [r3, #61]
 3317 0280 03E0     		b	.L193
 3318              	.L192:
1681:Drivers/STM32H7xx_HAL_Driver/Src/stm32h7xx_hal_mdma.c ****     }
1682:Drivers/STM32H7xx_HAL_Driver/Src/stm32h7xx_hal_mdma.c ****     else
1683:Drivers/STM32H7xx_HAL_Driver/Src/stm32h7xx_hal_mdma.c ****     {
1684:Drivers/STM32H7xx_HAL_Driver/Src/stm32h7xx_hal_mdma.c ****       /* Change the MDMA state to Ready if MDMA disable success */
1685:Drivers/STM32H7xx_HAL_Driver/Src/stm32h7xx_hal_mdma.c ****       hmdma->State = HAL_MDMA_STATE_READY;
 3319              		.loc 1 1685 20
 3320 0282 7B68     		ldr	r3, [r7, #4]
 3321 0284 0122     		movs	r2, #1
 3322 0286 83F83D20 		strb	r2, [r3, #61]
 3323              	.L193:
1686:Drivers/STM32H7xx_HAL_Driver/Src/stm32h7xx_hal_mdma.c ****     }
1687:Drivers/STM32H7xx_HAL_Driver/Src/stm32h7xx_hal_mdma.c **** 
1688:Drivers/STM32H7xx_HAL_Driver/Src/stm32h7xx_hal_mdma.c **** 
1689:Drivers/STM32H7xx_HAL_Driver/Src/stm32h7xx_hal_mdma.c ****     if (hmdma->XferErrorCallback != NULL)
 3324              		.loc 1 1689 14
 3325 028a 7B68     		ldr	r3, [r7, #4]
 3326 028c 5B6D     		ldr	r3, [r3, #84]
 3327              		.loc 1 1689 8
 3328 028e 002B     		cmp	r3, #0
 3329 0290 07D0     		beq	.L173
1690:Drivers/STM32H7xx_HAL_Driver/Src/stm32h7xx_hal_mdma.c ****     {
ARM GAS  C:\Users\Su\AppData\Local\Temp\ccdx3s9E.s 			page 89


1691:Drivers/STM32H7xx_HAL_Driver/Src/stm32h7xx_hal_mdma.c ****       /* Transfer error callback */
1692:Drivers/STM32H7xx_HAL_Driver/Src/stm32h7xx_hal_mdma.c ****       hmdma->XferErrorCallback(hmdma);
 3330              		.loc 1 1692 12
 3331 0292 7B68     		ldr	r3, [r7, #4]
 3332 0294 5B6D     		ldr	r3, [r3, #84]
 3333              		.loc 1 1692 7
 3334 0296 7868     		ldr	r0, [r7, #4]
 3335 0298 9847     		blx	r3
 3336              	.LVL5:
 3337 029a 02E0     		b	.L173
 3338              	.L194:
1515:Drivers/STM32H7xx_HAL_Driver/Src/stm32h7xx_hal_mdma.c ****   }
 3339              		.loc 1 1515 5
 3340 029c 00BF     		nop
 3341 029e 00E0     		b	.L173
 3342              	.L195:
1637:Drivers/STM32H7xx_HAL_Driver/Src/stm32h7xx_hal_mdma.c ****       }
 3343              		.loc 1 1637 9
 3344 02a0 00BF     		nop
 3345              	.L173:
1693:Drivers/STM32H7xx_HAL_Driver/Src/stm32h7xx_hal_mdma.c ****     }
1694:Drivers/STM32H7xx_HAL_Driver/Src/stm32h7xx_hal_mdma.c ****   }
1695:Drivers/STM32H7xx_HAL_Driver/Src/stm32h7xx_hal_mdma.c **** }
 3346              		.loc 1 1695 1
 3347 02a2 1837     		adds	r7, r7, #24
 3348              	.LCFI94:
 3349              		.cfi_def_cfa_offset 8
 3350 02a4 BD46     		mov	sp, r7
 3351              	.LCFI95:
 3352              		.cfi_def_cfa_register 13
 3353              		@ sp needed
 3354 02a6 80BD     		pop	{r7, pc}
 3355              		.cfi_endproc
 3356              	.LFE160:
 3358              		.section	.text.HAL_MDMA_GetState,"ax",%progbits
 3359              		.align	1
 3360              		.global	HAL_MDMA_GetState
 3361              		.syntax unified
 3362              		.thumb
 3363              		.thumb_func
 3365              	HAL_MDMA_GetState:
 3366              	.LFB161:
1696:Drivers/STM32H7xx_HAL_Driver/Src/stm32h7xx_hal_mdma.c **** 
1697:Drivers/STM32H7xx_HAL_Driver/Src/stm32h7xx_hal_mdma.c **** /**
1698:Drivers/STM32H7xx_HAL_Driver/Src/stm32h7xx_hal_mdma.c ****   * @}
1699:Drivers/STM32H7xx_HAL_Driver/Src/stm32h7xx_hal_mdma.c ****   */
1700:Drivers/STM32H7xx_HAL_Driver/Src/stm32h7xx_hal_mdma.c **** 
1701:Drivers/STM32H7xx_HAL_Driver/Src/stm32h7xx_hal_mdma.c **** /** @addtogroup MDMA_Exported_Functions_Group4
1702:Drivers/STM32H7xx_HAL_Driver/Src/stm32h7xx_hal_mdma.c ****  *
1703:Drivers/STM32H7xx_HAL_Driver/Src/stm32h7xx_hal_mdma.c **** @verbatim
1704:Drivers/STM32H7xx_HAL_Driver/Src/stm32h7xx_hal_mdma.c ****  ===============================================================================
1705:Drivers/STM32H7xx_HAL_Driver/Src/stm32h7xx_hal_mdma.c ****                     ##### State and Errors functions #####
1706:Drivers/STM32H7xx_HAL_Driver/Src/stm32h7xx_hal_mdma.c ****  ===============================================================================
1707:Drivers/STM32H7xx_HAL_Driver/Src/stm32h7xx_hal_mdma.c ****     [..]
1708:Drivers/STM32H7xx_HAL_Driver/Src/stm32h7xx_hal_mdma.c ****     This subsection provides functions allowing to
1709:Drivers/STM32H7xx_HAL_Driver/Src/stm32h7xx_hal_mdma.c ****       (+) Check the MDMA state
1710:Drivers/STM32H7xx_HAL_Driver/Src/stm32h7xx_hal_mdma.c ****       (+) Get error code
ARM GAS  C:\Users\Su\AppData\Local\Temp\ccdx3s9E.s 			page 90


1711:Drivers/STM32H7xx_HAL_Driver/Src/stm32h7xx_hal_mdma.c **** 
1712:Drivers/STM32H7xx_HAL_Driver/Src/stm32h7xx_hal_mdma.c **** @endverbatim
1713:Drivers/STM32H7xx_HAL_Driver/Src/stm32h7xx_hal_mdma.c ****   * @{
1714:Drivers/STM32H7xx_HAL_Driver/Src/stm32h7xx_hal_mdma.c ****   */
1715:Drivers/STM32H7xx_HAL_Driver/Src/stm32h7xx_hal_mdma.c **** 
1716:Drivers/STM32H7xx_HAL_Driver/Src/stm32h7xx_hal_mdma.c **** /**
1717:Drivers/STM32H7xx_HAL_Driver/Src/stm32h7xx_hal_mdma.c ****   * @brief  Returns the MDMA state.
1718:Drivers/STM32H7xx_HAL_Driver/Src/stm32h7xx_hal_mdma.c ****   * @param  hmdma: pointer to a MDMA_HandleTypeDef structure that contains
1719:Drivers/STM32H7xx_HAL_Driver/Src/stm32h7xx_hal_mdma.c ****   *               the configuration information for the specified MDMA Channel.
1720:Drivers/STM32H7xx_HAL_Driver/Src/stm32h7xx_hal_mdma.c ****   * @retval HAL state
1721:Drivers/STM32H7xx_HAL_Driver/Src/stm32h7xx_hal_mdma.c ****   */
1722:Drivers/STM32H7xx_HAL_Driver/Src/stm32h7xx_hal_mdma.c **** HAL_MDMA_StateTypeDef HAL_MDMA_GetState(MDMA_HandleTypeDef *hmdma)
1723:Drivers/STM32H7xx_HAL_Driver/Src/stm32h7xx_hal_mdma.c **** {
 3367              		.loc 1 1723 1
 3368              		.cfi_startproc
 3369              		@ args = 0, pretend = 0, frame = 8
 3370              		@ frame_needed = 1, uses_anonymous_args = 0
 3371              		@ link register save eliminated.
 3372 0000 80B4     		push	{r7}
 3373              	.LCFI96:
 3374              		.cfi_def_cfa_offset 4
 3375              		.cfi_offset 7, -4
 3376 0002 83B0     		sub	sp, sp, #12
 3377              	.LCFI97:
 3378              		.cfi_def_cfa_offset 16
 3379 0004 00AF     		add	r7, sp, #0
 3380              	.LCFI98:
 3381              		.cfi_def_cfa_register 7
 3382 0006 7860     		str	r0, [r7, #4]
1724:Drivers/STM32H7xx_HAL_Driver/Src/stm32h7xx_hal_mdma.c ****   return hmdma->State;
 3383              		.loc 1 1724 15
 3384 0008 7B68     		ldr	r3, [r7, #4]
 3385 000a 93F83D30 		ldrb	r3, [r3, #61]
 3386 000e DBB2     		uxtb	r3, r3
1725:Drivers/STM32H7xx_HAL_Driver/Src/stm32h7xx_hal_mdma.c **** }
 3387              		.loc 1 1725 1
 3388 0010 1846     		mov	r0, r3
 3389 0012 0C37     		adds	r7, r7, #12
 3390              	.LCFI99:
 3391              		.cfi_def_cfa_offset 4
 3392 0014 BD46     		mov	sp, r7
 3393              	.LCFI100:
 3394              		.cfi_def_cfa_register 13
 3395              		@ sp needed
 3396 0016 5DF8047B 		ldr	r7, [sp], #4
 3397              	.LCFI101:
 3398              		.cfi_restore 7
 3399              		.cfi_def_cfa_offset 0
 3400 001a 7047     		bx	lr
 3401              		.cfi_endproc
 3402              	.LFE161:
 3404              		.section	.text.HAL_MDMA_GetError,"ax",%progbits
 3405              		.align	1
 3406              		.global	HAL_MDMA_GetError
 3407              		.syntax unified
 3408              		.thumb
 3409              		.thumb_func
ARM GAS  C:\Users\Su\AppData\Local\Temp\ccdx3s9E.s 			page 91


 3411              	HAL_MDMA_GetError:
 3412              	.LFB162:
1726:Drivers/STM32H7xx_HAL_Driver/Src/stm32h7xx_hal_mdma.c **** 
1727:Drivers/STM32H7xx_HAL_Driver/Src/stm32h7xx_hal_mdma.c **** /**
1728:Drivers/STM32H7xx_HAL_Driver/Src/stm32h7xx_hal_mdma.c ****   * @brief  Return the MDMA error code
1729:Drivers/STM32H7xx_HAL_Driver/Src/stm32h7xx_hal_mdma.c ****   * @param  hmdma : pointer to a MDMA_HandleTypeDef structure that contains
1730:Drivers/STM32H7xx_HAL_Driver/Src/stm32h7xx_hal_mdma.c ****   *              the configuration information for the specified MDMA Channel.
1731:Drivers/STM32H7xx_HAL_Driver/Src/stm32h7xx_hal_mdma.c ****   * @retval MDMA Error Code
1732:Drivers/STM32H7xx_HAL_Driver/Src/stm32h7xx_hal_mdma.c ****   */
1733:Drivers/STM32H7xx_HAL_Driver/Src/stm32h7xx_hal_mdma.c **** uint32_t HAL_MDMA_GetError(MDMA_HandleTypeDef *hmdma)
1734:Drivers/STM32H7xx_HAL_Driver/Src/stm32h7xx_hal_mdma.c **** {
 3413              		.loc 1 1734 1
 3414              		.cfi_startproc
 3415              		@ args = 0, pretend = 0, frame = 8
 3416              		@ frame_needed = 1, uses_anonymous_args = 0
 3417              		@ link register save eliminated.
 3418 0000 80B4     		push	{r7}
 3419              	.LCFI102:
 3420              		.cfi_def_cfa_offset 4
 3421              		.cfi_offset 7, -4
 3422 0002 83B0     		sub	sp, sp, #12
 3423              	.LCFI103:
 3424              		.cfi_def_cfa_offset 16
 3425 0004 00AF     		add	r7, sp, #0
 3426              	.LCFI104:
 3427              		.cfi_def_cfa_register 7
 3428 0006 7860     		str	r0, [r7, #4]
1735:Drivers/STM32H7xx_HAL_Driver/Src/stm32h7xx_hal_mdma.c ****   return hmdma->ErrorCode;
 3429              		.loc 1 1735 15
 3430 0008 7B68     		ldr	r3, [r7, #4]
 3431 000a 9B6E     		ldr	r3, [r3, #104]
1736:Drivers/STM32H7xx_HAL_Driver/Src/stm32h7xx_hal_mdma.c **** }
 3432              		.loc 1 1736 1
 3433 000c 1846     		mov	r0, r3
 3434 000e 0C37     		adds	r7, r7, #12
 3435              	.LCFI105:
 3436              		.cfi_def_cfa_offset 4
 3437 0010 BD46     		mov	sp, r7
 3438              	.LCFI106:
 3439              		.cfi_def_cfa_register 13
 3440              		@ sp needed
 3441 0012 5DF8047B 		ldr	r7, [sp], #4
 3442              	.LCFI107:
 3443              		.cfi_restore 7
 3444              		.cfi_def_cfa_offset 0
 3445 0016 7047     		bx	lr
 3446              		.cfi_endproc
 3447              	.LFE162:
 3449              		.section	.text.MDMA_SetConfig,"ax",%progbits
 3450              		.align	1
 3451              		.syntax unified
 3452              		.thumb
 3453              		.thumb_func
 3455              	MDMA_SetConfig:
 3456              	.LFB163:
1737:Drivers/STM32H7xx_HAL_Driver/Src/stm32h7xx_hal_mdma.c **** 
1738:Drivers/STM32H7xx_HAL_Driver/Src/stm32h7xx_hal_mdma.c **** /**
ARM GAS  C:\Users\Su\AppData\Local\Temp\ccdx3s9E.s 			page 92


1739:Drivers/STM32H7xx_HAL_Driver/Src/stm32h7xx_hal_mdma.c ****   * @}
1740:Drivers/STM32H7xx_HAL_Driver/Src/stm32h7xx_hal_mdma.c ****   */
1741:Drivers/STM32H7xx_HAL_Driver/Src/stm32h7xx_hal_mdma.c **** 
1742:Drivers/STM32H7xx_HAL_Driver/Src/stm32h7xx_hal_mdma.c **** /**
1743:Drivers/STM32H7xx_HAL_Driver/Src/stm32h7xx_hal_mdma.c ****   * @}
1744:Drivers/STM32H7xx_HAL_Driver/Src/stm32h7xx_hal_mdma.c ****   */
1745:Drivers/STM32H7xx_HAL_Driver/Src/stm32h7xx_hal_mdma.c **** 
1746:Drivers/STM32H7xx_HAL_Driver/Src/stm32h7xx_hal_mdma.c **** /** @addtogroup MDMA_Private_Functions
1747:Drivers/STM32H7xx_HAL_Driver/Src/stm32h7xx_hal_mdma.c ****   * @{
1748:Drivers/STM32H7xx_HAL_Driver/Src/stm32h7xx_hal_mdma.c ****   */
1749:Drivers/STM32H7xx_HAL_Driver/Src/stm32h7xx_hal_mdma.c **** 
1750:Drivers/STM32H7xx_HAL_Driver/Src/stm32h7xx_hal_mdma.c **** /**
1751:Drivers/STM32H7xx_HAL_Driver/Src/stm32h7xx_hal_mdma.c ****   * @brief  Sets the MDMA Transfer parameter.
1752:Drivers/STM32H7xx_HAL_Driver/Src/stm32h7xx_hal_mdma.c ****   * @param  hmdma:       pointer to a MDMA_HandleTypeDef structure that contains
1753:Drivers/STM32H7xx_HAL_Driver/Src/stm32h7xx_hal_mdma.c ****   *                     the configuration information for the specified MDMA Channel.
1754:Drivers/STM32H7xx_HAL_Driver/Src/stm32h7xx_hal_mdma.c ****   * @param  SrcAddress: The source memory Buffer address
1755:Drivers/STM32H7xx_HAL_Driver/Src/stm32h7xx_hal_mdma.c ****   * @param  DstAddress: The destination memory Buffer address
1756:Drivers/STM32H7xx_HAL_Driver/Src/stm32h7xx_hal_mdma.c ****   * @param  BlockDataLength : The length of a block transfer in bytes
1757:Drivers/STM32H7xx_HAL_Driver/Src/stm32h7xx_hal_mdma.c ****   * @param  BlockCount: The number of blocks to be transferred
1758:Drivers/STM32H7xx_HAL_Driver/Src/stm32h7xx_hal_mdma.c ****   * @retval HAL status
1759:Drivers/STM32H7xx_HAL_Driver/Src/stm32h7xx_hal_mdma.c ****   */
1760:Drivers/STM32H7xx_HAL_Driver/Src/stm32h7xx_hal_mdma.c **** static void MDMA_SetConfig(MDMA_HandleTypeDef *hmdma, uint32_t SrcAddress, uint32_t DstAddress, uin
1761:Drivers/STM32H7xx_HAL_Driver/Src/stm32h7xx_hal_mdma.c **** {
 3457              		.loc 1 1761 1
 3458              		.cfi_startproc
 3459              		@ args = 4, pretend = 0, frame = 24
 3460              		@ frame_needed = 1, uses_anonymous_args = 0
 3461              		@ link register save eliminated.
 3462 0000 80B4     		push	{r7}
 3463              	.LCFI108:
 3464              		.cfi_def_cfa_offset 4
 3465              		.cfi_offset 7, -4
 3466 0002 87B0     		sub	sp, sp, #28
 3467              	.LCFI109:
 3468              		.cfi_def_cfa_offset 32
 3469 0004 00AF     		add	r7, sp, #0
 3470              	.LCFI110:
 3471              		.cfi_def_cfa_register 7
 3472 0006 F860     		str	r0, [r7, #12]
 3473 0008 B960     		str	r1, [r7, #8]
 3474 000a 7A60     		str	r2, [r7, #4]
 3475 000c 3B60     		str	r3, [r7]
1762:Drivers/STM32H7xx_HAL_Driver/Src/stm32h7xx_hal_mdma.c ****   uint32_t addressMask;
1763:Drivers/STM32H7xx_HAL_Driver/Src/stm32h7xx_hal_mdma.c **** 
1764:Drivers/STM32H7xx_HAL_Driver/Src/stm32h7xx_hal_mdma.c ****   /* Configure the MDMA Channel data length */
1765:Drivers/STM32H7xx_HAL_Driver/Src/stm32h7xx_hal_mdma.c ****   MODIFY_REG(hmdma->Instance->CBNDTR ,MDMA_CBNDTR_BNDT, (BlockDataLength & MDMA_CBNDTR_BNDT));
 3476              		.loc 1 1765 3
 3477 000e FB68     		ldr	r3, [r7, #12]
 3478 0010 1B68     		ldr	r3, [r3]
 3479 0012 5A69     		ldr	r2, [r3, #20]
 3480 0014 314B     		ldr	r3, .L210
 3481 0016 1340     		ands	r3, r3, r2
 3482 0018 3A68     		ldr	r2, [r7]
 3483 001a C2F31001 		ubfx	r1, r2, #0, #17
 3484 001e FA68     		ldr	r2, [r7, #12]
 3485 0020 1268     		ldr	r2, [r2]
 3486 0022 0B43     		orrs	r3, r3, r1
ARM GAS  C:\Users\Su\AppData\Local\Temp\ccdx3s9E.s 			page 93


 3487 0024 5361     		str	r3, [r2, #20]
1766:Drivers/STM32H7xx_HAL_Driver/Src/stm32h7xx_hal_mdma.c **** 
1767:Drivers/STM32H7xx_HAL_Driver/Src/stm32h7xx_hal_mdma.c ****   /* Configure the MDMA block repeat count */
1768:Drivers/STM32H7xx_HAL_Driver/Src/stm32h7xx_hal_mdma.c ****   MODIFY_REG(hmdma->Instance->CBNDTR , MDMA_CBNDTR_BRC , ((BlockCount - 1U) << MDMA_CBNDTR_BRC_Pos)
 3488              		.loc 1 1768 3
 3489 0026 FB68     		ldr	r3, [r7, #12]
 3490 0028 1B68     		ldr	r3, [r3]
 3491 002a 5B69     		ldr	r3, [r3, #20]
 3492 002c C3F31301 		ubfx	r1, r3, #0, #20
 3493 0030 3B6A     		ldr	r3, [r7, #32]
 3494 0032 013B     		subs	r3, r3, #1
 3495 0034 1A05     		lsls	r2, r3, #20
 3496 0036 FB68     		ldr	r3, [r7, #12]
 3497 0038 1B68     		ldr	r3, [r3]
 3498 003a 0A43     		orrs	r2, r2, r1
 3499 003c 5A61     		str	r2, [r3, #20]
1769:Drivers/STM32H7xx_HAL_Driver/Src/stm32h7xx_hal_mdma.c **** 
1770:Drivers/STM32H7xx_HAL_Driver/Src/stm32h7xx_hal_mdma.c ****   /* Clear all interrupt flags */
1771:Drivers/STM32H7xx_HAL_Driver/Src/stm32h7xx_hal_mdma.c ****   __HAL_MDMA_CLEAR_FLAG(hmdma, MDMA_FLAG_TE | MDMA_FLAG_CTC | MDMA_CISR_BRTIF | MDMA_CISR_BTIF | MD
 3500              		.loc 1 1771 3
 3501 003e FB68     		ldr	r3, [r7, #12]
 3502 0040 1B68     		ldr	r3, [r3]
 3503 0042 1F22     		movs	r2, #31
 3504 0044 5A60     		str	r2, [r3, #4]
1772:Drivers/STM32H7xx_HAL_Driver/Src/stm32h7xx_hal_mdma.c **** 
1773:Drivers/STM32H7xx_HAL_Driver/Src/stm32h7xx_hal_mdma.c ****   /* Configure MDMA Channel destination address */
1774:Drivers/STM32H7xx_HAL_Driver/Src/stm32h7xx_hal_mdma.c ****   hmdma->Instance->CDAR = DstAddress;
 3505              		.loc 1 1774 8
 3506 0046 FB68     		ldr	r3, [r7, #12]
 3507 0048 1B68     		ldr	r3, [r3]
 3508              		.loc 1 1774 25
 3509 004a 7A68     		ldr	r2, [r7, #4]
 3510 004c DA61     		str	r2, [r3, #28]
1775:Drivers/STM32H7xx_HAL_Driver/Src/stm32h7xx_hal_mdma.c **** 
1776:Drivers/STM32H7xx_HAL_Driver/Src/stm32h7xx_hal_mdma.c ****   /* Configure MDMA Channel Source address */
1777:Drivers/STM32H7xx_HAL_Driver/Src/stm32h7xx_hal_mdma.c ****   hmdma->Instance->CSAR = SrcAddress;
 3511              		.loc 1 1777 8
 3512 004e FB68     		ldr	r3, [r7, #12]
 3513 0050 1B68     		ldr	r3, [r3]
 3514              		.loc 1 1777 25
 3515 0052 BA68     		ldr	r2, [r7, #8]
 3516 0054 9A61     		str	r2, [r3, #24]
1778:Drivers/STM32H7xx_HAL_Driver/Src/stm32h7xx_hal_mdma.c **** 
1779:Drivers/STM32H7xx_HAL_Driver/Src/stm32h7xx_hal_mdma.c ****   addressMask = SrcAddress & 0xFF000000U;
 3517              		.loc 1 1779 15
 3518 0056 BB68     		ldr	r3, [r7, #8]
 3519 0058 03F07F43 		and	r3, r3, #-16777216
 3520 005c 7B61     		str	r3, [r7, #20]
1780:Drivers/STM32H7xx_HAL_Driver/Src/stm32h7xx_hal_mdma.c ****   if((addressMask == 0x20000000U) || (addressMask == 0x00000000U))
 3521              		.loc 1 1780 5
 3522 005e 7B69     		ldr	r3, [r7, #20]
 3523 0060 B3F1005F 		cmp	r3, #536870912
 3524 0064 02D0     		beq	.L204
 3525              		.loc 1 1780 35 discriminator 1
 3526 0066 7B69     		ldr	r3, [r7, #20]
 3527 0068 002B     		cmp	r3, #0
 3528 006a 08D1     		bne	.L205
ARM GAS  C:\Users\Su\AppData\Local\Temp\ccdx3s9E.s 			page 94


 3529              	.L204:
1781:Drivers/STM32H7xx_HAL_Driver/Src/stm32h7xx_hal_mdma.c ****   {
1782:Drivers/STM32H7xx_HAL_Driver/Src/stm32h7xx_hal_mdma.c ****     /*The AHBSbus is used as source (read operation) on channel x */
1783:Drivers/STM32H7xx_HAL_Driver/Src/stm32h7xx_hal_mdma.c ****     hmdma->Instance->CTBR |= MDMA_CTBR_SBUS;
 3530              		.loc 1 1783 10
 3531 006c FB68     		ldr	r3, [r7, #12]
 3532 006e 1B68     		ldr	r3, [r3]
 3533              		.loc 1 1783 27
 3534 0070 9A6A     		ldr	r2, [r3, #40]
 3535              		.loc 1 1783 10
 3536 0072 FB68     		ldr	r3, [r7, #12]
 3537 0074 1B68     		ldr	r3, [r3]
 3538              		.loc 1 1783 27
 3539 0076 42F48032 		orr	r2, r2, #65536
 3540 007a 9A62     		str	r2, [r3, #40]
 3541 007c 07E0     		b	.L206
 3542              	.L205:
1784:Drivers/STM32H7xx_HAL_Driver/Src/stm32h7xx_hal_mdma.c ****   }
1785:Drivers/STM32H7xx_HAL_Driver/Src/stm32h7xx_hal_mdma.c ****   else
1786:Drivers/STM32H7xx_HAL_Driver/Src/stm32h7xx_hal_mdma.c ****   {
1787:Drivers/STM32H7xx_HAL_Driver/Src/stm32h7xx_hal_mdma.c ****     /*The AXI bus is used as source (read operation) on channel x */
1788:Drivers/STM32H7xx_HAL_Driver/Src/stm32h7xx_hal_mdma.c ****     hmdma->Instance->CTBR &= (~MDMA_CTBR_SBUS);
 3543              		.loc 1 1788 10
 3544 007e FB68     		ldr	r3, [r7, #12]
 3545 0080 1B68     		ldr	r3, [r3]
 3546              		.loc 1 1788 27
 3547 0082 9A6A     		ldr	r2, [r3, #40]
 3548              		.loc 1 1788 10
 3549 0084 FB68     		ldr	r3, [r7, #12]
 3550 0086 1B68     		ldr	r3, [r3]
 3551              		.loc 1 1788 27
 3552 0088 22F48032 		bic	r2, r2, #65536
 3553 008c 9A62     		str	r2, [r3, #40]
 3554              	.L206:
1789:Drivers/STM32H7xx_HAL_Driver/Src/stm32h7xx_hal_mdma.c ****   }
1790:Drivers/STM32H7xx_HAL_Driver/Src/stm32h7xx_hal_mdma.c **** 
1791:Drivers/STM32H7xx_HAL_Driver/Src/stm32h7xx_hal_mdma.c ****   addressMask = DstAddress & 0xFF000000U;
 3555              		.loc 1 1791 15
 3556 008e 7B68     		ldr	r3, [r7, #4]
 3557 0090 03F07F43 		and	r3, r3, #-16777216
 3558 0094 7B61     		str	r3, [r7, #20]
1792:Drivers/STM32H7xx_HAL_Driver/Src/stm32h7xx_hal_mdma.c ****   if((addressMask == 0x20000000U) || (addressMask == 0x00000000U))
 3559              		.loc 1 1792 5
 3560 0096 7B69     		ldr	r3, [r7, #20]
 3561 0098 B3F1005F 		cmp	r3, #536870912
 3562 009c 02D0     		beq	.L207
 3563              		.loc 1 1792 35 discriminator 1
 3564 009e 7B69     		ldr	r3, [r7, #20]
 3565 00a0 002B     		cmp	r3, #0
 3566 00a2 08D1     		bne	.L208
 3567              	.L207:
1793:Drivers/STM32H7xx_HAL_Driver/Src/stm32h7xx_hal_mdma.c ****   {
1794:Drivers/STM32H7xx_HAL_Driver/Src/stm32h7xx_hal_mdma.c ****     /*The AHB bus is used as destination (write operation) on channel x */
1795:Drivers/STM32H7xx_HAL_Driver/Src/stm32h7xx_hal_mdma.c ****     hmdma->Instance->CTBR |= MDMA_CTBR_DBUS;
 3568              		.loc 1 1795 10
 3569 00a4 FB68     		ldr	r3, [r7, #12]
 3570 00a6 1B68     		ldr	r3, [r3]
ARM GAS  C:\Users\Su\AppData\Local\Temp\ccdx3s9E.s 			page 95


 3571              		.loc 1 1795 27
 3572 00a8 9A6A     		ldr	r2, [r3, #40]
 3573              		.loc 1 1795 10
 3574 00aa FB68     		ldr	r3, [r7, #12]
 3575 00ac 1B68     		ldr	r3, [r3]
 3576              		.loc 1 1795 27
 3577 00ae 42F40032 		orr	r2, r2, #131072
 3578 00b2 9A62     		str	r2, [r3, #40]
 3579 00b4 07E0     		b	.L209
 3580              	.L208:
1796:Drivers/STM32H7xx_HAL_Driver/Src/stm32h7xx_hal_mdma.c ****   }
1797:Drivers/STM32H7xx_HAL_Driver/Src/stm32h7xx_hal_mdma.c ****   else
1798:Drivers/STM32H7xx_HAL_Driver/Src/stm32h7xx_hal_mdma.c ****   {
1799:Drivers/STM32H7xx_HAL_Driver/Src/stm32h7xx_hal_mdma.c ****     /*The AXI bus is used as destination (write operation) on channel x */
1800:Drivers/STM32H7xx_HAL_Driver/Src/stm32h7xx_hal_mdma.c ****     hmdma->Instance->CTBR &= (~MDMA_CTBR_DBUS);
 3581              		.loc 1 1800 10
 3582 00b6 FB68     		ldr	r3, [r7, #12]
 3583 00b8 1B68     		ldr	r3, [r3]
 3584              		.loc 1 1800 27
 3585 00ba 9A6A     		ldr	r2, [r3, #40]
 3586              		.loc 1 1800 10
 3587 00bc FB68     		ldr	r3, [r7, #12]
 3588 00be 1B68     		ldr	r3, [r3]
 3589              		.loc 1 1800 27
 3590 00c0 22F40032 		bic	r2, r2, #131072
 3591 00c4 9A62     		str	r2, [r3, #40]
 3592              	.L209:
1801:Drivers/STM32H7xx_HAL_Driver/Src/stm32h7xx_hal_mdma.c ****   }
1802:Drivers/STM32H7xx_HAL_Driver/Src/stm32h7xx_hal_mdma.c **** 
1803:Drivers/STM32H7xx_HAL_Driver/Src/stm32h7xx_hal_mdma.c ****   /* Set the linked list register to the first node of the list */
1804:Drivers/STM32H7xx_HAL_Driver/Src/stm32h7xx_hal_mdma.c ****   hmdma->Instance->CLAR = (uint32_t)hmdma->FirstLinkedListNodeAddress;
 3593              		.loc 1 1804 42
 3594 00c6 FB68     		ldr	r3, [r7, #12]
 3595 00c8 DA6D     		ldr	r2, [r3, #92]
 3596              		.loc 1 1804 8
 3597 00ca FB68     		ldr	r3, [r7, #12]
 3598 00cc 1B68     		ldr	r3, [r3]
 3599              		.loc 1 1804 25
 3600 00ce 5A62     		str	r2, [r3, #36]
1805:Drivers/STM32H7xx_HAL_Driver/Src/stm32h7xx_hal_mdma.c **** }
 3601              		.loc 1 1805 1
 3602 00d0 00BF     		nop
 3603 00d2 1C37     		adds	r7, r7, #28
 3604              	.LCFI111:
 3605              		.cfi_def_cfa_offset 4
 3606 00d4 BD46     		mov	sp, r7
 3607              	.LCFI112:
 3608              		.cfi_def_cfa_register 13
 3609              		@ sp needed
 3610 00d6 5DF8047B 		ldr	r7, [sp], #4
 3611              	.LCFI113:
 3612              		.cfi_restore 7
 3613              		.cfi_def_cfa_offset 0
 3614 00da 7047     		bx	lr
 3615              	.L211:
 3616              		.align	2
 3617              	.L210:
ARM GAS  C:\Users\Su\AppData\Local\Temp\ccdx3s9E.s 			page 96


 3618 00dc 0000FEFF 		.word	-131072
 3619              		.cfi_endproc
 3620              	.LFE163:
 3622              		.section	.text.MDMA_Init,"ax",%progbits
 3623              		.align	1
 3624              		.syntax unified
 3625              		.thumb
 3626              		.thumb_func
 3628              	MDMA_Init:
 3629              	.LFB164:
1806:Drivers/STM32H7xx_HAL_Driver/Src/stm32h7xx_hal_mdma.c **** 
1807:Drivers/STM32H7xx_HAL_Driver/Src/stm32h7xx_hal_mdma.c **** /**
1808:Drivers/STM32H7xx_HAL_Driver/Src/stm32h7xx_hal_mdma.c ****   * @brief  Initializes the MDMA handle according to the specified
1809:Drivers/STM32H7xx_HAL_Driver/Src/stm32h7xx_hal_mdma.c ****   *         parameters in the MDMA_InitTypeDef
1810:Drivers/STM32H7xx_HAL_Driver/Src/stm32h7xx_hal_mdma.c ****   * @param  hmdma:       pointer to a MDMA_HandleTypeDef structure that contains
1811:Drivers/STM32H7xx_HAL_Driver/Src/stm32h7xx_hal_mdma.c ****   *                     the configuration information for the specified MDMA Channel.
1812:Drivers/STM32H7xx_HAL_Driver/Src/stm32h7xx_hal_mdma.c ****   * @retval None
1813:Drivers/STM32H7xx_HAL_Driver/Src/stm32h7xx_hal_mdma.c ****   */
1814:Drivers/STM32H7xx_HAL_Driver/Src/stm32h7xx_hal_mdma.c **** static void MDMA_Init(MDMA_HandleTypeDef *hmdma)
1815:Drivers/STM32H7xx_HAL_Driver/Src/stm32h7xx_hal_mdma.c **** {
 3630              		.loc 1 1815 1
 3631              		.cfi_startproc
 3632              		@ args = 0, pretend = 0, frame = 16
 3633              		@ frame_needed = 1, uses_anonymous_args = 0
 3634              		@ link register save eliminated.
 3635 0000 80B4     		push	{r7}
 3636              	.LCFI114:
 3637              		.cfi_def_cfa_offset 4
 3638              		.cfi_offset 7, -4
 3639 0002 85B0     		sub	sp, sp, #20
 3640              	.LCFI115:
 3641              		.cfi_def_cfa_offset 24
 3642 0004 00AF     		add	r7, sp, #0
 3643              	.LCFI116:
 3644              		.cfi_def_cfa_register 7
 3645 0006 7860     		str	r0, [r7, #4]
1816:Drivers/STM32H7xx_HAL_Driver/Src/stm32h7xx_hal_mdma.c ****   uint32_t blockoffset;
1817:Drivers/STM32H7xx_HAL_Driver/Src/stm32h7xx_hal_mdma.c **** 
1818:Drivers/STM32H7xx_HAL_Driver/Src/stm32h7xx_hal_mdma.c ****   /* Prepare the MDMA Channel configuration */
1819:Drivers/STM32H7xx_HAL_Driver/Src/stm32h7xx_hal_mdma.c ****   hmdma->Instance->CCR = hmdma->Init.Priority  | hmdma->Init.Endianness;
 3646              		.loc 1 1819 37
 3647 0008 7B68     		ldr	r3, [r7, #4]
 3648 000a D968     		ldr	r1, [r3, #12]
 3649              		.loc 1 1819 61
 3650 000c 7B68     		ldr	r3, [r7, #4]
 3651 000e 1A69     		ldr	r2, [r3, #16]
 3652              		.loc 1 1819 8
 3653 0010 7B68     		ldr	r3, [r7, #4]
 3654 0012 1B68     		ldr	r3, [r3]
 3655              		.loc 1 1819 48
 3656 0014 0A43     		orrs	r2, r2, r1
 3657              		.loc 1 1819 24
 3658 0016 DA60     		str	r2, [r3, #12]
1820:Drivers/STM32H7xx_HAL_Driver/Src/stm32h7xx_hal_mdma.c **** 
1821:Drivers/STM32H7xx_HAL_Driver/Src/stm32h7xx_hal_mdma.c ****   /* Write new CTCR Register value */
1822:Drivers/STM32H7xx_HAL_Driver/Src/stm32h7xx_hal_mdma.c ****   hmdma->Instance->CTCR =  hmdma->Init.SourceInc      | hmdma->Init.DestinationInc | \
 3659              		.loc 1 1822 39
ARM GAS  C:\Users\Su\AppData\Local\Temp\ccdx3s9E.s 			page 97


 3660 0018 7B68     		ldr	r3, [r7, #4]
 3661 001a 5A69     		ldr	r2, [r3, #20]
 3662              		.loc 1 1822 68
 3663 001c 7B68     		ldr	r3, [r7, #4]
 3664 001e 9B69     		ldr	r3, [r3, #24]
 3665              		.loc 1 1822 55
 3666 0020 1A43     		orrs	r2, r2, r3
1823:Drivers/STM32H7xx_HAL_Driver/Src/stm32h7xx_hal_mdma.c ****                            hmdma->Init.SourceDataSize | hmdma->Init.DestDataSize   | \
 3667              		.loc 1 1823 39
 3668 0022 7B68     		ldr	r3, [r7, #4]
 3669 0024 DB69     		ldr	r3, [r3, #28]
1822:Drivers/STM32H7xx_HAL_Driver/Src/stm32h7xx_hal_mdma.c ****                            hmdma->Init.SourceDataSize | hmdma->Init.DestDataSize   | \
 3670              		.loc 1 1822 84
 3671 0026 1A43     		orrs	r2, r2, r3
 3672              		.loc 1 1823 68
 3673 0028 7B68     		ldr	r3, [r7, #4]
 3674 002a 1B6A     		ldr	r3, [r3, #32]
 3675              		.loc 1 1823 55
 3676 002c 1A43     		orrs	r2, r2, r3
1824:Drivers/STM32H7xx_HAL_Driver/Src/stm32h7xx_hal_mdma.c ****                            hmdma->Init.DataAlignment  | hmdma->Init.SourceBurst    | \
 3677              		.loc 1 1824 39
 3678 002e 7B68     		ldr	r3, [r7, #4]
 3679 0030 5B6A     		ldr	r3, [r3, #36]
1823:Drivers/STM32H7xx_HAL_Driver/Src/stm32h7xx_hal_mdma.c ****                            hmdma->Init.SourceDataSize | hmdma->Init.DestDataSize   | \
 3680              		.loc 1 1823 84
 3681 0032 1A43     		orrs	r2, r2, r3
 3682              		.loc 1 1824 68
 3683 0034 7B68     		ldr	r3, [r7, #4]
 3684 0036 DB6A     		ldr	r3, [r3, #44]
 3685              		.loc 1 1824 55
 3686 0038 1A43     		orrs	r2, r2, r3
1825:Drivers/STM32H7xx_HAL_Driver/Src/stm32h7xx_hal_mdma.c ****                            hmdma->Init.DestBurst                                   | \
 3687              		.loc 1 1825 39
 3688 003a 7B68     		ldr	r3, [r7, #4]
 3689 003c 1B6B     		ldr	r3, [r3, #48]
1824:Drivers/STM32H7xx_HAL_Driver/Src/stm32h7xx_hal_mdma.c ****                            hmdma->Init.DataAlignment  | hmdma->Init.SourceBurst    | \
 3690              		.loc 1 1824 84
 3691 003e 1A43     		orrs	r2, r2, r3
1826:Drivers/STM32H7xx_HAL_Driver/Src/stm32h7xx_hal_mdma.c ****                            ((hmdma->Init.BufferTransferLength - 1U) << MDMA_CTCR_TLEN_Pos) | \
 3692              		.loc 1 1826 41
 3693 0040 7B68     		ldr	r3, [r7, #4]
 3694 0042 9B6A     		ldr	r3, [r3, #40]
 3695              		.loc 1 1826 63
 3696 0044 013B     		subs	r3, r3, #1
 3697              		.loc 1 1826 69
 3698 0046 9B04     		lsls	r3, r3, #18
1825:Drivers/STM32H7xx_HAL_Driver/Src/stm32h7xx_hal_mdma.c ****                            hmdma->Init.DestBurst                                   | \
 3699              		.loc 1 1825 84
 3700 0048 42EA0301 		orr	r1, r2, r3
1827:Drivers/STM32H7xx_HAL_Driver/Src/stm32h7xx_hal_mdma.c ****                            hmdma->Init.TransferTriggerMode;
 3701              		.loc 1 1827 39
 3702 004c 7B68     		ldr	r3, [r7, #4]
 3703 004e 9A68     		ldr	r2, [r3, #8]
1822:Drivers/STM32H7xx_HAL_Driver/Src/stm32h7xx_hal_mdma.c ****                            hmdma->Init.SourceDataSize | hmdma->Init.DestDataSize   | \
 3704              		.loc 1 1822 8
 3705 0050 7B68     		ldr	r3, [r7, #4]
 3706 0052 1B68     		ldr	r3, [r3]
ARM GAS  C:\Users\Su\AppData\Local\Temp\ccdx3s9E.s 			page 98


1826:Drivers/STM32H7xx_HAL_Driver/Src/stm32h7xx_hal_mdma.c ****                            ((hmdma->Init.BufferTransferLength - 1U) << MDMA_CTCR_TLEN_Pos) | \
 3707              		.loc 1 1826 92
 3708 0054 0A43     		orrs	r2, r2, r1
1822:Drivers/STM32H7xx_HAL_Driver/Src/stm32h7xx_hal_mdma.c ****                            hmdma->Init.SourceDataSize | hmdma->Init.DestDataSize   | \
 3709              		.loc 1 1822 25
 3710 0056 1A61     		str	r2, [r3, #16]
1828:Drivers/STM32H7xx_HAL_Driver/Src/stm32h7xx_hal_mdma.c **** 
1829:Drivers/STM32H7xx_HAL_Driver/Src/stm32h7xx_hal_mdma.c ****   /* If SW request set the CTCR register to SW Request Mode */
1830:Drivers/STM32H7xx_HAL_Driver/Src/stm32h7xx_hal_mdma.c ****   if(hmdma->Init.Request == MDMA_REQUEST_SW)
 3711              		.loc 1 1830 17
 3712 0058 7B68     		ldr	r3, [r7, #4]
 3713 005a 5B68     		ldr	r3, [r3, #4]
 3714              		.loc 1 1830 5
 3715 005c B3F1804F 		cmp	r3, #1073741824
 3716 0060 07D1     		bne	.L213
1831:Drivers/STM32H7xx_HAL_Driver/Src/stm32h7xx_hal_mdma.c ****   {
1832:Drivers/STM32H7xx_HAL_Driver/Src/stm32h7xx_hal_mdma.c ****     /*
1833:Drivers/STM32H7xx_HAL_Driver/Src/stm32h7xx_hal_mdma.c ****     -If the request is done by SW : BWM could be set to 1 or 0.
1834:Drivers/STM32H7xx_HAL_Driver/Src/stm32h7xx_hal_mdma.c ****     -If the request is done by a peripheral :
1835:Drivers/STM32H7xx_HAL_Driver/Src/stm32h7xx_hal_mdma.c ****     If mask address not set (0) => BWM must be set to 0
1836:Drivers/STM32H7xx_HAL_Driver/Src/stm32h7xx_hal_mdma.c ****     If mask address set (different than 0) => BWM could be set to 1 or 0
1837:Drivers/STM32H7xx_HAL_Driver/Src/stm32h7xx_hal_mdma.c ****     */
1838:Drivers/STM32H7xx_HAL_Driver/Src/stm32h7xx_hal_mdma.c ****     hmdma->Instance->CTCR |= (MDMA_CTCR_SWRM | MDMA_CTCR_BWM);
 3717              		.loc 1 1838 10
 3718 0062 7B68     		ldr	r3, [r7, #4]
 3719 0064 1B68     		ldr	r3, [r3]
 3720              		.loc 1 1838 27
 3721 0066 1A69     		ldr	r2, [r3, #16]
 3722              		.loc 1 1838 10
 3723 0068 7B68     		ldr	r3, [r7, #4]
 3724 006a 1B68     		ldr	r3, [r3]
 3725              		.loc 1 1838 27
 3726 006c 42F04042 		orr	r2, r2, #-1073741824
 3727 0070 1A61     		str	r2, [r3, #16]
 3728              	.L213:
1839:Drivers/STM32H7xx_HAL_Driver/Src/stm32h7xx_hal_mdma.c ****   }
1840:Drivers/STM32H7xx_HAL_Driver/Src/stm32h7xx_hal_mdma.c **** 
1841:Drivers/STM32H7xx_HAL_Driver/Src/stm32h7xx_hal_mdma.c ****   /* Reset CBNDTR Register */
1842:Drivers/STM32H7xx_HAL_Driver/Src/stm32h7xx_hal_mdma.c ****   hmdma->Instance->CBNDTR = 0;
 3729              		.loc 1 1842 8
 3730 0072 7B68     		ldr	r3, [r7, #4]
 3731 0074 1B68     		ldr	r3, [r3]
 3732              		.loc 1 1842 27
 3733 0076 0022     		movs	r2, #0
 3734 0078 5A61     		str	r2, [r3, #20]
1843:Drivers/STM32H7xx_HAL_Driver/Src/stm32h7xx_hal_mdma.c **** 
1844:Drivers/STM32H7xx_HAL_Driver/Src/stm32h7xx_hal_mdma.c ****   /* if block source address offset is negative set the Block Repeat Source address Update Mode to 
1845:Drivers/STM32H7xx_HAL_Driver/Src/stm32h7xx_hal_mdma.c ****   if(hmdma->Init.SourceBlockAddressOffset < 0)
 3735              		.loc 1 1845 17
 3736 007a 7B68     		ldr	r3, [r7, #4]
 3737 007c 5B6B     		ldr	r3, [r3, #52]
 3738              		.loc 1 1845 5
 3739 007e 002B     		cmp	r3, #0
 3740 0080 11DA     		bge	.L214
1846:Drivers/STM32H7xx_HAL_Driver/Src/stm32h7xx_hal_mdma.c ****   {
1847:Drivers/STM32H7xx_HAL_Driver/Src/stm32h7xx_hal_mdma.c ****     hmdma->Instance->CBNDTR |= MDMA_CBNDTR_BRSUM;
 3741              		.loc 1 1847 10
ARM GAS  C:\Users\Su\AppData\Local\Temp\ccdx3s9E.s 			page 99


 3742 0082 7B68     		ldr	r3, [r7, #4]
 3743 0084 1B68     		ldr	r3, [r3]
 3744              		.loc 1 1847 29
 3745 0086 5A69     		ldr	r2, [r3, #20]
 3746              		.loc 1 1847 10
 3747 0088 7B68     		ldr	r3, [r7, #4]
 3748 008a 1B68     		ldr	r3, [r3]
 3749              		.loc 1 1847 29
 3750 008c 42F48022 		orr	r2, r2, #262144
 3751 0090 5A61     		str	r2, [r3, #20]
1848:Drivers/STM32H7xx_HAL_Driver/Src/stm32h7xx_hal_mdma.c ****     /* Write new CBRUR Register value : source repeat block offset */
1849:Drivers/STM32H7xx_HAL_Driver/Src/stm32h7xx_hal_mdma.c ****     blockoffset = (uint32_t)(- hmdma->Init.SourceBlockAddressOffset);
 3752              		.loc 1 1849 43
 3753 0092 7B68     		ldr	r3, [r7, #4]
 3754 0094 5B6B     		ldr	r3, [r3, #52]
 3755              		.loc 1 1849 30
 3756 0096 5B42     		rsbs	r3, r3, #0
 3757              		.loc 1 1849 17
 3758 0098 FB60     		str	r3, [r7, #12]
1850:Drivers/STM32H7xx_HAL_Driver/Src/stm32h7xx_hal_mdma.c ****     hmdma->Instance->CBRUR = (blockoffset & 0x0000FFFFU);
 3759              		.loc 1 1850 10
 3760 009a 7B68     		ldr	r3, [r7, #4]
 3761 009c 1B68     		ldr	r3, [r3]
 3762              		.loc 1 1850 43
 3763 009e FA68     		ldr	r2, [r7, #12]
 3764 00a0 92B2     		uxth	r2, r2
 3765              		.loc 1 1850 28
 3766 00a2 1A62     		str	r2, [r3, #32]
 3767 00a4 06E0     		b	.L215
 3768              	.L214:
1851:Drivers/STM32H7xx_HAL_Driver/Src/stm32h7xx_hal_mdma.c ****   }
1852:Drivers/STM32H7xx_HAL_Driver/Src/stm32h7xx_hal_mdma.c ****   else
1853:Drivers/STM32H7xx_HAL_Driver/Src/stm32h7xx_hal_mdma.c ****   {
1854:Drivers/STM32H7xx_HAL_Driver/Src/stm32h7xx_hal_mdma.c ****     /* Write new CBRUR Register value : source repeat block offset */
1855:Drivers/STM32H7xx_HAL_Driver/Src/stm32h7xx_hal_mdma.c ****     hmdma->Instance->CBRUR = (((uint32_t)hmdma->Init.SourceBlockAddressOffset) & 0x0000FFFFU);
 3769              		.loc 1 1855 53
 3770 00a6 7B68     		ldr	r3, [r7, #4]
 3771 00a8 5B6B     		ldr	r3, [r3, #52]
 3772              		.loc 1 1855 32
 3773 00aa 1A46     		mov	r2, r3
 3774              		.loc 1 1855 10
 3775 00ac 7B68     		ldr	r3, [r7, #4]
 3776 00ae 1B68     		ldr	r3, [r3]
 3777              		.loc 1 1855 80
 3778 00b0 92B2     		uxth	r2, r2
 3779              		.loc 1 1855 28
 3780 00b2 1A62     		str	r2, [r3, #32]
 3781              	.L215:
1856:Drivers/STM32H7xx_HAL_Driver/Src/stm32h7xx_hal_mdma.c ****   }
1857:Drivers/STM32H7xx_HAL_Driver/Src/stm32h7xx_hal_mdma.c **** 
1858:Drivers/STM32H7xx_HAL_Driver/Src/stm32h7xx_hal_mdma.c ****   /* If block destination address offset is negative set the Block Repeat destination address Updat
1859:Drivers/STM32H7xx_HAL_Driver/Src/stm32h7xx_hal_mdma.c ****   if(hmdma->Init.DestBlockAddressOffset < 0)
 3782              		.loc 1 1859 17
 3783 00b4 7B68     		ldr	r3, [r7, #4]
 3784 00b6 9B6B     		ldr	r3, [r3, #56]
 3785              		.loc 1 1859 5
 3786 00b8 002B     		cmp	r3, #0
ARM GAS  C:\Users\Su\AppData\Local\Temp\ccdx3s9E.s 			page 100


 3787 00ba 15DA     		bge	.L216
1860:Drivers/STM32H7xx_HAL_Driver/Src/stm32h7xx_hal_mdma.c ****   {
1861:Drivers/STM32H7xx_HAL_Driver/Src/stm32h7xx_hal_mdma.c ****     hmdma->Instance->CBNDTR |= MDMA_CBNDTR_BRDUM;
 3788              		.loc 1 1861 10
 3789 00bc 7B68     		ldr	r3, [r7, #4]
 3790 00be 1B68     		ldr	r3, [r3]
 3791              		.loc 1 1861 29
 3792 00c0 5A69     		ldr	r2, [r3, #20]
 3793              		.loc 1 1861 10
 3794 00c2 7B68     		ldr	r3, [r7, #4]
 3795 00c4 1B68     		ldr	r3, [r3]
 3796              		.loc 1 1861 29
 3797 00c6 42F40022 		orr	r2, r2, #524288
 3798 00ca 5A61     		str	r2, [r3, #20]
1862:Drivers/STM32H7xx_HAL_Driver/Src/stm32h7xx_hal_mdma.c ****     /* Write new CBRUR Register value : destination repeat block offset */
1863:Drivers/STM32H7xx_HAL_Driver/Src/stm32h7xx_hal_mdma.c ****     blockoffset = (uint32_t)(- hmdma->Init.DestBlockAddressOffset);
 3799              		.loc 1 1863 43
 3800 00cc 7B68     		ldr	r3, [r7, #4]
 3801 00ce 9B6B     		ldr	r3, [r3, #56]
 3802              		.loc 1 1863 30
 3803 00d0 5B42     		rsbs	r3, r3, #0
 3804              		.loc 1 1863 17
 3805 00d2 FB60     		str	r3, [r7, #12]
1864:Drivers/STM32H7xx_HAL_Driver/Src/stm32h7xx_hal_mdma.c ****     hmdma->Instance->CBRUR |= ((blockoffset & 0x0000FFFFU) << MDMA_CBRUR_DUV_Pos);
 3806              		.loc 1 1864 10
 3807 00d4 7B68     		ldr	r3, [r7, #4]
 3808 00d6 1B68     		ldr	r3, [r3]
 3809              		.loc 1 1864 28
 3810 00d8 196A     		ldr	r1, [r3, #32]
 3811              		.loc 1 1864 60
 3812 00da FB68     		ldr	r3, [r7, #12]
 3813 00dc 1A04     		lsls	r2, r3, #16
 3814              		.loc 1 1864 10
 3815 00de 7B68     		ldr	r3, [r7, #4]
 3816 00e0 1B68     		ldr	r3, [r3]
 3817              		.loc 1 1864 28
 3818 00e2 0A43     		orrs	r2, r2, r1
 3819 00e4 1A62     		str	r2, [r3, #32]
 3820 00e6 09E0     		b	.L217
 3821              	.L216:
1865:Drivers/STM32H7xx_HAL_Driver/Src/stm32h7xx_hal_mdma.c ****   }
1866:Drivers/STM32H7xx_HAL_Driver/Src/stm32h7xx_hal_mdma.c ****   else
1867:Drivers/STM32H7xx_HAL_Driver/Src/stm32h7xx_hal_mdma.c ****   {
1868:Drivers/STM32H7xx_HAL_Driver/Src/stm32h7xx_hal_mdma.c ****     /*write new CBRUR Register value : destination repeat block offset */
1869:Drivers/STM32H7xx_HAL_Driver/Src/stm32h7xx_hal_mdma.c ****     hmdma->Instance->CBRUR |= ((((uint32_t)hmdma->Init.DestBlockAddressOffset) & 0x0000FFFFU) << MD
 3822              		.loc 1 1869 10
 3823 00e8 7B68     		ldr	r3, [r7, #4]
 3824 00ea 1B68     		ldr	r3, [r3]
 3825              		.loc 1 1869 28
 3826 00ec 196A     		ldr	r1, [r3, #32]
 3827              		.loc 1 1869 55
 3828 00ee 7B68     		ldr	r3, [r7, #4]
 3829 00f0 9B6B     		ldr	r3, [r3, #56]
 3830              		.loc 1 1869 95
 3831 00f2 1A04     		lsls	r2, r3, #16
 3832              		.loc 1 1869 10
 3833 00f4 7B68     		ldr	r3, [r7, #4]
ARM GAS  C:\Users\Su\AppData\Local\Temp\ccdx3s9E.s 			page 101


 3834 00f6 1B68     		ldr	r3, [r3]
 3835              		.loc 1 1869 28
 3836 00f8 0A43     		orrs	r2, r2, r1
 3837 00fa 1A62     		str	r2, [r3, #32]
 3838              	.L217:
1870:Drivers/STM32H7xx_HAL_Driver/Src/stm32h7xx_hal_mdma.c ****   }
1871:Drivers/STM32H7xx_HAL_Driver/Src/stm32h7xx_hal_mdma.c **** 
1872:Drivers/STM32H7xx_HAL_Driver/Src/stm32h7xx_hal_mdma.c ****   /* if HW request set the HW request and the requet CleraMask and ClearData MaskData, */
1873:Drivers/STM32H7xx_HAL_Driver/Src/stm32h7xx_hal_mdma.c ****   if(hmdma->Init.Request != MDMA_REQUEST_SW)
 3839              		.loc 1 1873 17
 3840 00fc 7B68     		ldr	r3, [r7, #4]
 3841 00fe 5B68     		ldr	r3, [r3, #4]
 3842              		.loc 1 1873 5
 3843 0100 B3F1804F 		cmp	r3, #1073741824
 3844 0104 06D0     		beq	.L218
1874:Drivers/STM32H7xx_HAL_Driver/Src/stm32h7xx_hal_mdma.c ****   {
1875:Drivers/STM32H7xx_HAL_Driver/Src/stm32h7xx_hal_mdma.c ****     /* Set the HW request in CTRB register  */
1876:Drivers/STM32H7xx_HAL_Driver/Src/stm32h7xx_hal_mdma.c ****     hmdma->Instance->CTBR = hmdma->Init.Request & MDMA_CTBR_TSEL;
 3845              		.loc 1 1876 40
 3846 0106 7B68     		ldr	r3, [r7, #4]
 3847 0108 5A68     		ldr	r2, [r3, #4]
 3848              		.loc 1 1876 10
 3849 010a 7B68     		ldr	r3, [r7, #4]
 3850 010c 1B68     		ldr	r3, [r3]
 3851              		.loc 1 1876 49
 3852 010e D2B2     		uxtb	r2, r2
 3853              		.loc 1 1876 27
 3854 0110 9A62     		str	r2, [r3, #40]
 3855 0112 03E0     		b	.L219
 3856              	.L218:
1877:Drivers/STM32H7xx_HAL_Driver/Src/stm32h7xx_hal_mdma.c ****   }
1878:Drivers/STM32H7xx_HAL_Driver/Src/stm32h7xx_hal_mdma.c ****   else /* SW request : reset the CTBR register */
1879:Drivers/STM32H7xx_HAL_Driver/Src/stm32h7xx_hal_mdma.c ****   {
1880:Drivers/STM32H7xx_HAL_Driver/Src/stm32h7xx_hal_mdma.c ****     hmdma->Instance->CTBR = 0;
 3857              		.loc 1 1880 10
 3858 0114 7B68     		ldr	r3, [r7, #4]
 3859 0116 1B68     		ldr	r3, [r3]
 3860              		.loc 1 1880 27
 3861 0118 0022     		movs	r2, #0
 3862 011a 9A62     		str	r2, [r3, #40]
 3863              	.L219:
1881:Drivers/STM32H7xx_HAL_Driver/Src/stm32h7xx_hal_mdma.c ****   }
1882:Drivers/STM32H7xx_HAL_Driver/Src/stm32h7xx_hal_mdma.c **** 
1883:Drivers/STM32H7xx_HAL_Driver/Src/stm32h7xx_hal_mdma.c ****   /* Write Link Address Register */
1884:Drivers/STM32H7xx_HAL_Driver/Src/stm32h7xx_hal_mdma.c ****   hmdma->Instance->CLAR =  0;
 3864              		.loc 1 1884 8
 3865 011c 7B68     		ldr	r3, [r7, #4]
 3866 011e 1B68     		ldr	r3, [r3]
 3867              		.loc 1 1884 25
 3868 0120 0022     		movs	r2, #0
 3869 0122 5A62     		str	r2, [r3, #36]
1885:Drivers/STM32H7xx_HAL_Driver/Src/stm32h7xx_hal_mdma.c **** }
 3870              		.loc 1 1885 1
 3871 0124 00BF     		nop
 3872 0126 1437     		adds	r7, r7, #20
 3873              	.LCFI117:
 3874              		.cfi_def_cfa_offset 4
ARM GAS  C:\Users\Su\AppData\Local\Temp\ccdx3s9E.s 			page 102


 3875 0128 BD46     		mov	sp, r7
 3876              	.LCFI118:
 3877              		.cfi_def_cfa_register 13
 3878              		@ sp needed
 3879 012a 5DF8047B 		ldr	r7, [sp], #4
 3880              	.LCFI119:
 3881              		.cfi_restore 7
 3882              		.cfi_def_cfa_offset 0
 3883 012e 7047     		bx	lr
 3884              		.cfi_endproc
 3885              	.LFE164:
 3887              		.text
 3888              	.Letext0:
 3889              		.file 2 "e:\\user\\bigai\\gcc_arm_none_eabi\\arm-none-eabi\\include\\machine\\_default_types.h"
 3890              		.file 3 "e:\\user\\bigai\\gcc_arm_none_eabi\\arm-none-eabi\\include\\sys\\_stdint.h"
 3891              		.file 4 "Drivers/CMSIS/Device/ST/STM32H7xx/Include/stm32h723xx.h"
 3892              		.file 5 "Drivers/STM32H7xx_HAL_Driver/Inc/stm32h7xx_hal_def.h"
 3893              		.file 6 "Drivers/STM32H7xx_HAL_Driver/Inc/stm32h7xx_hal_mdma.h"
 3894              		.file 7 "Drivers/CMSIS/Device/ST/STM32H7xx/Include/system_stm32h7xx.h"
ARM GAS  C:\Users\Su\AppData\Local\Temp\ccdx3s9E.s 			page 103


DEFINED SYMBOLS
                            *ABS*:00000000 stm32h7xx_hal_mdma.c
C:\Users\Su\AppData\Local\Temp\ccdx3s9E.s:19     .text.HAL_MDMA_Init:00000000 $t
C:\Users\Su\AppData\Local\Temp\ccdx3s9E.s:25     .text.HAL_MDMA_Init:00000000 HAL_MDMA_Init
C:\Users\Su\AppData\Local\Temp\ccdx3s9E.s:3628   .text.MDMA_Init:00000000 MDMA_Init
C:\Users\Su\AppData\Local\Temp\ccdx3s9E.s:145    .text.HAL_MDMA_DeInit:00000000 $t
C:\Users\Su\AppData\Local\Temp\ccdx3s9E.s:151    .text.HAL_MDMA_DeInit:00000000 HAL_MDMA_DeInit
C:\Users\Su\AppData\Local\Temp\ccdx3s9E.s:295    .text.HAL_MDMA_ConfigPostRequestMask:00000000 $t
C:\Users\Su\AppData\Local\Temp\ccdx3s9E.s:301    .text.HAL_MDMA_ConfigPostRequestMask:00000000 HAL_MDMA_ConfigPostRequestMask
C:\Users\Su\AppData\Local\Temp\ccdx3s9E.s:438    .text.HAL_MDMA_RegisterCallback:00000000 $t
C:\Users\Su\AppData\Local\Temp\ccdx3s9E.s:444    .text.HAL_MDMA_RegisterCallback:00000000 HAL_MDMA_RegisterCallback
C:\Users\Su\AppData\Local\Temp\ccdx3s9E.s:504    .text.HAL_MDMA_RegisterCallback:0000004c $d
C:\Users\Su\AppData\Local\Temp\ccdx3s9E.s:510    .text.HAL_MDMA_RegisterCallback:00000064 $t
C:\Users\Su\AppData\Local\Temp\ccdx3s9E.s:587    .text.HAL_MDMA_UnRegisterCallback:00000000 $t
C:\Users\Su\AppData\Local\Temp\ccdx3s9E.s:593    .text.HAL_MDMA_UnRegisterCallback:00000000 HAL_MDMA_UnRegisterCallback
C:\Users\Su\AppData\Local\Temp\ccdx3s9E.s:652    .text.HAL_MDMA_UnRegisterCallback:00000048 $d
C:\Users\Su\AppData\Local\Temp\ccdx3s9E.s:659    .text.HAL_MDMA_UnRegisterCallback:00000064 $t
C:\Users\Su\AppData\Local\Temp\ccdx3s9E.s:765    .text.HAL_MDMA_LinkedList_CreateNode:00000000 $t
C:\Users\Su\AppData\Local\Temp\ccdx3s9E.s:771    .text.HAL_MDMA_LinkedList_CreateNode:00000000 HAL_MDMA_LinkedList_CreateNode
C:\Users\Su\AppData\Local\Temp\ccdx3s9E.s:1110   .text.HAL_MDMA_LinkedList_AddNode:00000000 $t
C:\Users\Su\AppData\Local\Temp\ccdx3s9E.s:1116   .text.HAL_MDMA_LinkedList_AddNode:00000000 HAL_MDMA_LinkedList_AddNode
C:\Users\Su\AppData\Local\Temp\ccdx3s9E.s:1424   .text.HAL_MDMA_LinkedList_RemoveNode:00000000 $t
C:\Users\Su\AppData\Local\Temp\ccdx3s9E.s:1430   .text.HAL_MDMA_LinkedList_RemoveNode:00000000 HAL_MDMA_LinkedList_RemoveNode
C:\Users\Su\AppData\Local\Temp\ccdx3s9E.s:1714   .text.HAL_MDMA_LinkedList_EnableCircularMode:00000000 $t
C:\Users\Su\AppData\Local\Temp\ccdx3s9E.s:1720   .text.HAL_MDMA_LinkedList_EnableCircularMode:00000000 HAL_MDMA_LinkedList_EnableCircularMode
C:\Users\Su\AppData\Local\Temp\ccdx3s9E.s:1835   .text.HAL_MDMA_LinkedList_DisableCircularMode:00000000 $t
C:\Users\Su\AppData\Local\Temp\ccdx3s9E.s:1841   .text.HAL_MDMA_LinkedList_DisableCircularMode:00000000 HAL_MDMA_LinkedList_DisableCircularMode
C:\Users\Su\AppData\Local\Temp\ccdx3s9E.s:1954   .text.HAL_MDMA_Start:00000000 $t
C:\Users\Su\AppData\Local\Temp\ccdx3s9E.s:1960   .text.HAL_MDMA_Start:00000000 HAL_MDMA_Start
C:\Users\Su\AppData\Local\Temp\ccdx3s9E.s:3455   .text.MDMA_SetConfig:00000000 MDMA_SetConfig
C:\Users\Su\AppData\Local\Temp\ccdx3s9E.s:2085   .text.HAL_MDMA_Start_IT:00000000 $t
C:\Users\Su\AppData\Local\Temp\ccdx3s9E.s:2091   .text.HAL_MDMA_Start_IT:00000000 HAL_MDMA_Start_IT
C:\Users\Su\AppData\Local\Temp\ccdx3s9E.s:2269   .text.HAL_MDMA_Abort:00000000 $t
C:\Users\Su\AppData\Local\Temp\ccdx3s9E.s:2275   .text.HAL_MDMA_Abort:00000000 HAL_MDMA_Abort
C:\Users\Su\AppData\Local\Temp\ccdx3s9E.s:2409   .text.HAL_MDMA_Abort_IT:00000000 $t
C:\Users\Su\AppData\Local\Temp\ccdx3s9E.s:2415   .text.HAL_MDMA_Abort_IT:00000000 HAL_MDMA_Abort_IT
C:\Users\Su\AppData\Local\Temp\ccdx3s9E.s:2489   .text.HAL_MDMA_PollForTransfer:00000000 $t
C:\Users\Su\AppData\Local\Temp\ccdx3s9E.s:2495   .text.HAL_MDMA_PollForTransfer:00000000 HAL_MDMA_PollForTransfer
C:\Users\Su\AppData\Local\Temp\ccdx3s9E.s:2782   .text.HAL_MDMA_GenerateSWRequest:00000000 $t
C:\Users\Su\AppData\Local\Temp\ccdx3s9E.s:2788   .text.HAL_MDMA_GenerateSWRequest:00000000 HAL_MDMA_GenerateSWRequest
C:\Users\Su\AppData\Local\Temp\ccdx3s9E.s:2895   .text.HAL_MDMA_IRQHandler:00000000 $t
C:\Users\Su\AppData\Local\Temp\ccdx3s9E.s:2901   .text.HAL_MDMA_IRQHandler:00000000 HAL_MDMA_IRQHandler
C:\Users\Su\AppData\Local\Temp\ccdx3s9E.s:3292   .text.HAL_MDMA_IRQHandler:00000254 $d
C:\Users\Su\AppData\Local\Temp\ccdx3s9E.s:3297   .text.HAL_MDMA_IRQHandler:00000260 $t
C:\Users\Su\AppData\Local\Temp\ccdx3s9E.s:3359   .text.HAL_MDMA_GetState:00000000 $t
C:\Users\Su\AppData\Local\Temp\ccdx3s9E.s:3365   .text.HAL_MDMA_GetState:00000000 HAL_MDMA_GetState
C:\Users\Su\AppData\Local\Temp\ccdx3s9E.s:3405   .text.HAL_MDMA_GetError:00000000 $t
C:\Users\Su\AppData\Local\Temp\ccdx3s9E.s:3411   .text.HAL_MDMA_GetError:00000000 HAL_MDMA_GetError
C:\Users\Su\AppData\Local\Temp\ccdx3s9E.s:3450   .text.MDMA_SetConfig:00000000 $t
C:\Users\Su\AppData\Local\Temp\ccdx3s9E.s:3618   .text.MDMA_SetConfig:000000dc $d
C:\Users\Su\AppData\Local\Temp\ccdx3s9E.s:3623   .text.MDMA_Init:00000000 $t

UNDEFINED SYMBOLS
HAL_GetTick
SystemCoreClock
