ARM GAS  C:\Users\Su\AppData\Local\Temp\cc9h93iY.s 			page 1


   1              		.cpu cortex-m7
   2              		.arch armv7e-m
   3              		.fpu fpv5-d16
   4              		.eabi_attribute 28, 1
   5              		.eabi_attribute 20, 1
   6              		.eabi_attribute 21, 1
   7              		.eabi_attribute 23, 3
   8              		.eabi_attribute 24, 1
   9              		.eabi_attribute 25, 1
  10              		.eabi_attribute 26, 1
  11              		.eabi_attribute 30, 6
  12              		.eabi_attribute 34, 1
  13              		.eabi_attribute 18, 4
  14              		.file	"stm32h7xx_hal_tim.c"
  15              		.text
  16              	.Ltext0:
  17              		.cfi_sections	.debug_frame
  18              		.section	.text.HAL_TIM_Base_Init,"ax",%progbits
  19              		.align	1
  20              		.global	HAL_TIM_Base_Init
  21              		.syntax unified
  22              		.thumb
  23              		.thumb_func
  25              	HAL_TIM_Base_Init:
  26              	.LFB144:
  27              		.file 1 "Drivers/STM32H7xx_HAL_Driver/Src/stm32h7xx_hal_tim.c"
   1:Drivers/STM32H7xx_HAL_Driver/Src/stm32h7xx_hal_tim.c **** /**
   2:Drivers/STM32H7xx_HAL_Driver/Src/stm32h7xx_hal_tim.c ****   ******************************************************************************
   3:Drivers/STM32H7xx_HAL_Driver/Src/stm32h7xx_hal_tim.c ****   * @file    stm32h7xx_hal_tim.c
   4:Drivers/STM32H7xx_HAL_Driver/Src/stm32h7xx_hal_tim.c ****   * @author  MCD Application Team
   5:Drivers/STM32H7xx_HAL_Driver/Src/stm32h7xx_hal_tim.c ****   * @brief   TIM HAL module driver.
   6:Drivers/STM32H7xx_HAL_Driver/Src/stm32h7xx_hal_tim.c ****   *          This file provides firmware functions to manage the following
   7:Drivers/STM32H7xx_HAL_Driver/Src/stm32h7xx_hal_tim.c ****   *          functionalities of the Timer (TIM) peripheral:
   8:Drivers/STM32H7xx_HAL_Driver/Src/stm32h7xx_hal_tim.c ****   *           + TIM Time Base Initialization
   9:Drivers/STM32H7xx_HAL_Driver/Src/stm32h7xx_hal_tim.c ****   *           + TIM Time Base Start
  10:Drivers/STM32H7xx_HAL_Driver/Src/stm32h7xx_hal_tim.c ****   *           + TIM Time Base Start Interruption
  11:Drivers/STM32H7xx_HAL_Driver/Src/stm32h7xx_hal_tim.c ****   *           + TIM Time Base Start DMA
  12:Drivers/STM32H7xx_HAL_Driver/Src/stm32h7xx_hal_tim.c ****   *           + TIM Output Compare/PWM Initialization
  13:Drivers/STM32H7xx_HAL_Driver/Src/stm32h7xx_hal_tim.c ****   *           + TIM Output Compare/PWM Channel Configuration
  14:Drivers/STM32H7xx_HAL_Driver/Src/stm32h7xx_hal_tim.c ****   *           + TIM Output Compare/PWM  Start
  15:Drivers/STM32H7xx_HAL_Driver/Src/stm32h7xx_hal_tim.c ****   *           + TIM Output Compare/PWM  Start Interruption
  16:Drivers/STM32H7xx_HAL_Driver/Src/stm32h7xx_hal_tim.c ****   *           + TIM Output Compare/PWM Start DMA
  17:Drivers/STM32H7xx_HAL_Driver/Src/stm32h7xx_hal_tim.c ****   *           + TIM Input Capture Initialization
  18:Drivers/STM32H7xx_HAL_Driver/Src/stm32h7xx_hal_tim.c ****   *           + TIM Input Capture Channel Configuration
  19:Drivers/STM32H7xx_HAL_Driver/Src/stm32h7xx_hal_tim.c ****   *           + TIM Input Capture Start
  20:Drivers/STM32H7xx_HAL_Driver/Src/stm32h7xx_hal_tim.c ****   *           + TIM Input Capture Start Interruption
  21:Drivers/STM32H7xx_HAL_Driver/Src/stm32h7xx_hal_tim.c ****   *           + TIM Input Capture Start DMA
  22:Drivers/STM32H7xx_HAL_Driver/Src/stm32h7xx_hal_tim.c ****   *           + TIM One Pulse Initialization
  23:Drivers/STM32H7xx_HAL_Driver/Src/stm32h7xx_hal_tim.c ****   *           + TIM One Pulse Channel Configuration
  24:Drivers/STM32H7xx_HAL_Driver/Src/stm32h7xx_hal_tim.c ****   *           + TIM One Pulse Start
  25:Drivers/STM32H7xx_HAL_Driver/Src/stm32h7xx_hal_tim.c ****   *           + TIM Encoder Interface Initialization
  26:Drivers/STM32H7xx_HAL_Driver/Src/stm32h7xx_hal_tim.c ****   *           + TIM Encoder Interface Start
  27:Drivers/STM32H7xx_HAL_Driver/Src/stm32h7xx_hal_tim.c ****   *           + TIM Encoder Interface Start Interruption
  28:Drivers/STM32H7xx_HAL_Driver/Src/stm32h7xx_hal_tim.c ****   *           + TIM Encoder Interface Start DMA
  29:Drivers/STM32H7xx_HAL_Driver/Src/stm32h7xx_hal_tim.c ****   *           + Commutation Event configuration with Interruption and DMA
  30:Drivers/STM32H7xx_HAL_Driver/Src/stm32h7xx_hal_tim.c ****   *           + TIM OCRef clear configuration
  31:Drivers/STM32H7xx_HAL_Driver/Src/stm32h7xx_hal_tim.c ****   *           + TIM External Clock configuration
ARM GAS  C:\Users\Su\AppData\Local\Temp\cc9h93iY.s 			page 2


  32:Drivers/STM32H7xx_HAL_Driver/Src/stm32h7xx_hal_tim.c ****   ******************************************************************************
  33:Drivers/STM32H7xx_HAL_Driver/Src/stm32h7xx_hal_tim.c ****   * @attention
  34:Drivers/STM32H7xx_HAL_Driver/Src/stm32h7xx_hal_tim.c ****   *
  35:Drivers/STM32H7xx_HAL_Driver/Src/stm32h7xx_hal_tim.c ****   * Copyright (c) 2017 STMicroelectronics.
  36:Drivers/STM32H7xx_HAL_Driver/Src/stm32h7xx_hal_tim.c ****   * All rights reserved.
  37:Drivers/STM32H7xx_HAL_Driver/Src/stm32h7xx_hal_tim.c ****   *
  38:Drivers/STM32H7xx_HAL_Driver/Src/stm32h7xx_hal_tim.c ****   * This software is licensed under terms that can be found in the LICENSE file
  39:Drivers/STM32H7xx_HAL_Driver/Src/stm32h7xx_hal_tim.c ****   * in the root directory of this software component.
  40:Drivers/STM32H7xx_HAL_Driver/Src/stm32h7xx_hal_tim.c ****   * If no LICENSE file comes with this software, it is provided AS-IS.
  41:Drivers/STM32H7xx_HAL_Driver/Src/stm32h7xx_hal_tim.c ****   *
  42:Drivers/STM32H7xx_HAL_Driver/Src/stm32h7xx_hal_tim.c ****   ******************************************************************************
  43:Drivers/STM32H7xx_HAL_Driver/Src/stm32h7xx_hal_tim.c ****   @verbatim
  44:Drivers/STM32H7xx_HAL_Driver/Src/stm32h7xx_hal_tim.c ****   ==============================================================================
  45:Drivers/STM32H7xx_HAL_Driver/Src/stm32h7xx_hal_tim.c ****                       ##### TIMER Generic features #####
  46:Drivers/STM32H7xx_HAL_Driver/Src/stm32h7xx_hal_tim.c ****   ==============================================================================
  47:Drivers/STM32H7xx_HAL_Driver/Src/stm32h7xx_hal_tim.c ****   [..] The Timer features include:
  48:Drivers/STM32H7xx_HAL_Driver/Src/stm32h7xx_hal_tim.c ****        (#) 16-bit up, down, up/down auto-reload counter.
  49:Drivers/STM32H7xx_HAL_Driver/Src/stm32h7xx_hal_tim.c ****        (#) 16-bit programmable prescaler allowing dividing (also on the fly) the
  50:Drivers/STM32H7xx_HAL_Driver/Src/stm32h7xx_hal_tim.c ****            counter clock frequency either by any factor between 1 and 65536.
  51:Drivers/STM32H7xx_HAL_Driver/Src/stm32h7xx_hal_tim.c ****        (#) Up to 4 independent channels for:
  52:Drivers/STM32H7xx_HAL_Driver/Src/stm32h7xx_hal_tim.c ****            (++) Input Capture
  53:Drivers/STM32H7xx_HAL_Driver/Src/stm32h7xx_hal_tim.c ****            (++) Output Compare
  54:Drivers/STM32H7xx_HAL_Driver/Src/stm32h7xx_hal_tim.c ****            (++) PWM generation (Edge and Center-aligned Mode)
  55:Drivers/STM32H7xx_HAL_Driver/Src/stm32h7xx_hal_tim.c ****            (++) One-pulse mode output
  56:Drivers/STM32H7xx_HAL_Driver/Src/stm32h7xx_hal_tim.c ****        (#) Synchronization circuit to control the timer with external signals and to interconnect
  57:Drivers/STM32H7xx_HAL_Driver/Src/stm32h7xx_hal_tim.c ****             several timers together.
  58:Drivers/STM32H7xx_HAL_Driver/Src/stm32h7xx_hal_tim.c ****        (#) Supports incremental encoder for positioning purposes
  59:Drivers/STM32H7xx_HAL_Driver/Src/stm32h7xx_hal_tim.c **** 
  60:Drivers/STM32H7xx_HAL_Driver/Src/stm32h7xx_hal_tim.c ****             ##### How to use this driver #####
  61:Drivers/STM32H7xx_HAL_Driver/Src/stm32h7xx_hal_tim.c ****   ==============================================================================
  62:Drivers/STM32H7xx_HAL_Driver/Src/stm32h7xx_hal_tim.c ****     [..]
  63:Drivers/STM32H7xx_HAL_Driver/Src/stm32h7xx_hal_tim.c ****      (#) Initialize the TIM low level resources by implementing the following functions
  64:Drivers/STM32H7xx_HAL_Driver/Src/stm32h7xx_hal_tim.c ****          depending on the selected feature:
  65:Drivers/STM32H7xx_HAL_Driver/Src/stm32h7xx_hal_tim.c ****            (++) Time Base : HAL_TIM_Base_MspInit()
  66:Drivers/STM32H7xx_HAL_Driver/Src/stm32h7xx_hal_tim.c ****            (++) Input Capture : HAL_TIM_IC_MspInit()
  67:Drivers/STM32H7xx_HAL_Driver/Src/stm32h7xx_hal_tim.c ****            (++) Output Compare : HAL_TIM_OC_MspInit()
  68:Drivers/STM32H7xx_HAL_Driver/Src/stm32h7xx_hal_tim.c ****            (++) PWM generation : HAL_TIM_PWM_MspInit()
  69:Drivers/STM32H7xx_HAL_Driver/Src/stm32h7xx_hal_tim.c ****            (++) One-pulse mode output : HAL_TIM_OnePulse_MspInit()
  70:Drivers/STM32H7xx_HAL_Driver/Src/stm32h7xx_hal_tim.c ****            (++) Encoder mode output : HAL_TIM_Encoder_MspInit()
  71:Drivers/STM32H7xx_HAL_Driver/Src/stm32h7xx_hal_tim.c **** 
  72:Drivers/STM32H7xx_HAL_Driver/Src/stm32h7xx_hal_tim.c ****      (#) Initialize the TIM low level resources :
  73:Drivers/STM32H7xx_HAL_Driver/Src/stm32h7xx_hal_tim.c ****         (##) Enable the TIM interface clock using __HAL_RCC_TIMx_CLK_ENABLE();
  74:Drivers/STM32H7xx_HAL_Driver/Src/stm32h7xx_hal_tim.c ****         (##) TIM pins configuration
  75:Drivers/STM32H7xx_HAL_Driver/Src/stm32h7xx_hal_tim.c ****             (+++) Enable the clock for the TIM GPIOs using the following function:
  76:Drivers/STM32H7xx_HAL_Driver/Src/stm32h7xx_hal_tim.c ****              __HAL_RCC_GPIOx_CLK_ENABLE();
  77:Drivers/STM32H7xx_HAL_Driver/Src/stm32h7xx_hal_tim.c ****             (+++) Configure these TIM pins in Alternate function mode using HAL_GPIO_Init();
  78:Drivers/STM32H7xx_HAL_Driver/Src/stm32h7xx_hal_tim.c **** 
  79:Drivers/STM32H7xx_HAL_Driver/Src/stm32h7xx_hal_tim.c ****      (#) The external Clock can be configured, if needed (the default clock is the
  80:Drivers/STM32H7xx_HAL_Driver/Src/stm32h7xx_hal_tim.c ****          internal clock from the APBx), using the following function:
  81:Drivers/STM32H7xx_HAL_Driver/Src/stm32h7xx_hal_tim.c ****          HAL_TIM_ConfigClockSource, the clock configuration should be done before
  82:Drivers/STM32H7xx_HAL_Driver/Src/stm32h7xx_hal_tim.c ****          any start function.
  83:Drivers/STM32H7xx_HAL_Driver/Src/stm32h7xx_hal_tim.c **** 
  84:Drivers/STM32H7xx_HAL_Driver/Src/stm32h7xx_hal_tim.c ****      (#) Configure the TIM in the desired functioning mode using one of the
  85:Drivers/STM32H7xx_HAL_Driver/Src/stm32h7xx_hal_tim.c ****        Initialization function of this driver:
  86:Drivers/STM32H7xx_HAL_Driver/Src/stm32h7xx_hal_tim.c ****        (++) HAL_TIM_Base_Init: to use the Timer to generate a simple time base
  87:Drivers/STM32H7xx_HAL_Driver/Src/stm32h7xx_hal_tim.c ****        (++) HAL_TIM_OC_Init and HAL_TIM_OC_ConfigChannel: to use the Timer to generate an
  88:Drivers/STM32H7xx_HAL_Driver/Src/stm32h7xx_hal_tim.c ****             Output Compare signal.
ARM GAS  C:\Users\Su\AppData\Local\Temp\cc9h93iY.s 			page 3


  89:Drivers/STM32H7xx_HAL_Driver/Src/stm32h7xx_hal_tim.c ****        (++) HAL_TIM_PWM_Init and HAL_TIM_PWM_ConfigChannel: to use the Timer to generate a
  90:Drivers/STM32H7xx_HAL_Driver/Src/stm32h7xx_hal_tim.c ****             PWM signal.
  91:Drivers/STM32H7xx_HAL_Driver/Src/stm32h7xx_hal_tim.c ****        (++) HAL_TIM_IC_Init and HAL_TIM_IC_ConfigChannel: to use the Timer to measure an
  92:Drivers/STM32H7xx_HAL_Driver/Src/stm32h7xx_hal_tim.c ****             external signal.
  93:Drivers/STM32H7xx_HAL_Driver/Src/stm32h7xx_hal_tim.c ****        (++) HAL_TIM_OnePulse_Init and HAL_TIM_OnePulse_ConfigChannel: to use the Timer
  94:Drivers/STM32H7xx_HAL_Driver/Src/stm32h7xx_hal_tim.c ****             in One Pulse Mode.
  95:Drivers/STM32H7xx_HAL_Driver/Src/stm32h7xx_hal_tim.c ****        (++) HAL_TIM_Encoder_Init: to use the Timer Encoder Interface.
  96:Drivers/STM32H7xx_HAL_Driver/Src/stm32h7xx_hal_tim.c **** 
  97:Drivers/STM32H7xx_HAL_Driver/Src/stm32h7xx_hal_tim.c ****      (#) Activate the TIM peripheral using one of the start functions depending from the feature us
  98:Drivers/STM32H7xx_HAL_Driver/Src/stm32h7xx_hal_tim.c ****            (++) Time Base : HAL_TIM_Base_Start(), HAL_TIM_Base_Start_DMA(), HAL_TIM_Base_Start_IT()
  99:Drivers/STM32H7xx_HAL_Driver/Src/stm32h7xx_hal_tim.c ****            (++) Input Capture :  HAL_TIM_IC_Start(), HAL_TIM_IC_Start_DMA(), HAL_TIM_IC_Start_IT()
 100:Drivers/STM32H7xx_HAL_Driver/Src/stm32h7xx_hal_tim.c ****            (++) Output Compare : HAL_TIM_OC_Start(), HAL_TIM_OC_Start_DMA(), HAL_TIM_OC_Start_IT()
 101:Drivers/STM32H7xx_HAL_Driver/Src/stm32h7xx_hal_tim.c ****            (++) PWM generation : HAL_TIM_PWM_Start(), HAL_TIM_PWM_Start_DMA(), HAL_TIM_PWM_Start_IT
 102:Drivers/STM32H7xx_HAL_Driver/Src/stm32h7xx_hal_tim.c ****            (++) One-pulse mode output : HAL_TIM_OnePulse_Start(), HAL_TIM_OnePulse_Start_IT()
 103:Drivers/STM32H7xx_HAL_Driver/Src/stm32h7xx_hal_tim.c ****            (++) Encoder mode output : HAL_TIM_Encoder_Start(), HAL_TIM_Encoder_Start_DMA(), HAL_TIM
 104:Drivers/STM32H7xx_HAL_Driver/Src/stm32h7xx_hal_tim.c **** 
 105:Drivers/STM32H7xx_HAL_Driver/Src/stm32h7xx_hal_tim.c ****      (#) The DMA Burst is managed with the two following functions:
 106:Drivers/STM32H7xx_HAL_Driver/Src/stm32h7xx_hal_tim.c ****          HAL_TIM_DMABurst_WriteStart()
 107:Drivers/STM32H7xx_HAL_Driver/Src/stm32h7xx_hal_tim.c ****          HAL_TIM_DMABurst_ReadStart()
 108:Drivers/STM32H7xx_HAL_Driver/Src/stm32h7xx_hal_tim.c **** 
 109:Drivers/STM32H7xx_HAL_Driver/Src/stm32h7xx_hal_tim.c ****     *** Callback registration ***
 110:Drivers/STM32H7xx_HAL_Driver/Src/stm32h7xx_hal_tim.c ****   =============================================
 111:Drivers/STM32H7xx_HAL_Driver/Src/stm32h7xx_hal_tim.c **** 
 112:Drivers/STM32H7xx_HAL_Driver/Src/stm32h7xx_hal_tim.c ****   [..]
 113:Drivers/STM32H7xx_HAL_Driver/Src/stm32h7xx_hal_tim.c ****   The compilation define  USE_HAL_TIM_REGISTER_CALLBACKS when set to 1
 114:Drivers/STM32H7xx_HAL_Driver/Src/stm32h7xx_hal_tim.c ****   allows the user to configure dynamically the driver callbacks.
 115:Drivers/STM32H7xx_HAL_Driver/Src/stm32h7xx_hal_tim.c **** 
 116:Drivers/STM32H7xx_HAL_Driver/Src/stm32h7xx_hal_tim.c ****   [..]
 117:Drivers/STM32H7xx_HAL_Driver/Src/stm32h7xx_hal_tim.c ****   Use Function HAL_TIM_RegisterCallback() to register a callback.
 118:Drivers/STM32H7xx_HAL_Driver/Src/stm32h7xx_hal_tim.c ****   HAL_TIM_RegisterCallback() takes as parameters the HAL peripheral handle,
 119:Drivers/STM32H7xx_HAL_Driver/Src/stm32h7xx_hal_tim.c ****   the Callback ID and a pointer to the user callback function.
 120:Drivers/STM32H7xx_HAL_Driver/Src/stm32h7xx_hal_tim.c **** 
 121:Drivers/STM32H7xx_HAL_Driver/Src/stm32h7xx_hal_tim.c ****   [..]
 122:Drivers/STM32H7xx_HAL_Driver/Src/stm32h7xx_hal_tim.c ****   Use function HAL_TIM_UnRegisterCallback() to reset a callback to the default
 123:Drivers/STM32H7xx_HAL_Driver/Src/stm32h7xx_hal_tim.c ****   weak function.
 124:Drivers/STM32H7xx_HAL_Driver/Src/stm32h7xx_hal_tim.c ****   HAL_TIM_UnRegisterCallback takes as parameters the HAL peripheral handle,
 125:Drivers/STM32H7xx_HAL_Driver/Src/stm32h7xx_hal_tim.c ****   and the Callback ID.
 126:Drivers/STM32H7xx_HAL_Driver/Src/stm32h7xx_hal_tim.c **** 
 127:Drivers/STM32H7xx_HAL_Driver/Src/stm32h7xx_hal_tim.c ****   [..]
 128:Drivers/STM32H7xx_HAL_Driver/Src/stm32h7xx_hal_tim.c ****   These functions allow to register/unregister following callbacks:
 129:Drivers/STM32H7xx_HAL_Driver/Src/stm32h7xx_hal_tim.c ****     (+) Base_MspInitCallback              : TIM Base Msp Init Callback.
 130:Drivers/STM32H7xx_HAL_Driver/Src/stm32h7xx_hal_tim.c ****     (+) Base_MspDeInitCallback            : TIM Base Msp DeInit Callback.
 131:Drivers/STM32H7xx_HAL_Driver/Src/stm32h7xx_hal_tim.c ****     (+) IC_MspInitCallback                : TIM IC Msp Init Callback.
 132:Drivers/STM32H7xx_HAL_Driver/Src/stm32h7xx_hal_tim.c ****     (+) IC_MspDeInitCallback              : TIM IC Msp DeInit Callback.
 133:Drivers/STM32H7xx_HAL_Driver/Src/stm32h7xx_hal_tim.c ****     (+) OC_MspInitCallback                : TIM OC Msp Init Callback.
 134:Drivers/STM32H7xx_HAL_Driver/Src/stm32h7xx_hal_tim.c ****     (+) OC_MspDeInitCallback              : TIM OC Msp DeInit Callback.
 135:Drivers/STM32H7xx_HAL_Driver/Src/stm32h7xx_hal_tim.c ****     (+) PWM_MspInitCallback               : TIM PWM Msp Init Callback.
 136:Drivers/STM32H7xx_HAL_Driver/Src/stm32h7xx_hal_tim.c ****     (+) PWM_MspDeInitCallback             : TIM PWM Msp DeInit Callback.
 137:Drivers/STM32H7xx_HAL_Driver/Src/stm32h7xx_hal_tim.c ****     (+) OnePulse_MspInitCallback          : TIM One Pulse Msp Init Callback.
 138:Drivers/STM32H7xx_HAL_Driver/Src/stm32h7xx_hal_tim.c ****     (+) OnePulse_MspDeInitCallback        : TIM One Pulse Msp DeInit Callback.
 139:Drivers/STM32H7xx_HAL_Driver/Src/stm32h7xx_hal_tim.c ****     (+) Encoder_MspInitCallback           : TIM Encoder Msp Init Callback.
 140:Drivers/STM32H7xx_HAL_Driver/Src/stm32h7xx_hal_tim.c ****     (+) Encoder_MspDeInitCallback         : TIM Encoder Msp DeInit Callback.
 141:Drivers/STM32H7xx_HAL_Driver/Src/stm32h7xx_hal_tim.c ****     (+) HallSensor_MspInitCallback        : TIM Hall Sensor Msp Init Callback.
 142:Drivers/STM32H7xx_HAL_Driver/Src/stm32h7xx_hal_tim.c ****     (+) HallSensor_MspDeInitCallback      : TIM Hall Sensor Msp DeInit Callback.
 143:Drivers/STM32H7xx_HAL_Driver/Src/stm32h7xx_hal_tim.c ****     (+) PeriodElapsedCallback             : TIM Period Elapsed Callback.
 144:Drivers/STM32H7xx_HAL_Driver/Src/stm32h7xx_hal_tim.c ****     (+) PeriodElapsedHalfCpltCallback     : TIM Period Elapsed half complete Callback.
 145:Drivers/STM32H7xx_HAL_Driver/Src/stm32h7xx_hal_tim.c ****     (+) TriggerCallback                   : TIM Trigger Callback.
ARM GAS  C:\Users\Su\AppData\Local\Temp\cc9h93iY.s 			page 4


 146:Drivers/STM32H7xx_HAL_Driver/Src/stm32h7xx_hal_tim.c ****     (+) TriggerHalfCpltCallback           : TIM Trigger half complete Callback.
 147:Drivers/STM32H7xx_HAL_Driver/Src/stm32h7xx_hal_tim.c ****     (+) IC_CaptureCallback                : TIM Input Capture Callback.
 148:Drivers/STM32H7xx_HAL_Driver/Src/stm32h7xx_hal_tim.c ****     (+) IC_CaptureHalfCpltCallback        : TIM Input Capture half complete Callback.
 149:Drivers/STM32H7xx_HAL_Driver/Src/stm32h7xx_hal_tim.c ****     (+) OC_DelayElapsedCallback           : TIM Output Compare Delay Elapsed Callback.
 150:Drivers/STM32H7xx_HAL_Driver/Src/stm32h7xx_hal_tim.c ****     (+) PWM_PulseFinishedCallback         : TIM PWM Pulse Finished Callback.
 151:Drivers/STM32H7xx_HAL_Driver/Src/stm32h7xx_hal_tim.c ****     (+) PWM_PulseFinishedHalfCpltCallback : TIM PWM Pulse Finished half complete Callback.
 152:Drivers/STM32H7xx_HAL_Driver/Src/stm32h7xx_hal_tim.c ****     (+) ErrorCallback                     : TIM Error Callback.
 153:Drivers/STM32H7xx_HAL_Driver/Src/stm32h7xx_hal_tim.c ****     (+) CommutationCallback               : TIM Commutation Callback.
 154:Drivers/STM32H7xx_HAL_Driver/Src/stm32h7xx_hal_tim.c ****     (+) CommutationHalfCpltCallback       : TIM Commutation half complete Callback.
 155:Drivers/STM32H7xx_HAL_Driver/Src/stm32h7xx_hal_tim.c ****     (+) BreakCallback                     : TIM Break Callback.
 156:Drivers/STM32H7xx_HAL_Driver/Src/stm32h7xx_hal_tim.c ****     (+) Break2Callback                    : TIM Break2 Callback.
 157:Drivers/STM32H7xx_HAL_Driver/Src/stm32h7xx_hal_tim.c **** 
 158:Drivers/STM32H7xx_HAL_Driver/Src/stm32h7xx_hal_tim.c ****   [..]
 159:Drivers/STM32H7xx_HAL_Driver/Src/stm32h7xx_hal_tim.c **** By default, after the Init and when the state is HAL_TIM_STATE_RESET
 160:Drivers/STM32H7xx_HAL_Driver/Src/stm32h7xx_hal_tim.c **** all interrupt callbacks are set to the corresponding weak functions:
 161:Drivers/STM32H7xx_HAL_Driver/Src/stm32h7xx_hal_tim.c ****   examples HAL_TIM_TriggerCallback(), HAL_TIM_ErrorCallback().
 162:Drivers/STM32H7xx_HAL_Driver/Src/stm32h7xx_hal_tim.c **** 
 163:Drivers/STM32H7xx_HAL_Driver/Src/stm32h7xx_hal_tim.c ****   [..]
 164:Drivers/STM32H7xx_HAL_Driver/Src/stm32h7xx_hal_tim.c ****   Exception done for MspInit and MspDeInit functions that are reset to the legacy weak
 165:Drivers/STM32H7xx_HAL_Driver/Src/stm32h7xx_hal_tim.c ****   functionalities in the Init / DeInit only when these callbacks are null
 166:Drivers/STM32H7xx_HAL_Driver/Src/stm32h7xx_hal_tim.c ****   (not registered beforehand). If not, MspInit or MspDeInit are not null, the Init / DeInit
 167:Drivers/STM32H7xx_HAL_Driver/Src/stm32h7xx_hal_tim.c ****     keep and use the user MspInit / MspDeInit callbacks(registered beforehand)
 168:Drivers/STM32H7xx_HAL_Driver/Src/stm32h7xx_hal_tim.c **** 
 169:Drivers/STM32H7xx_HAL_Driver/Src/stm32h7xx_hal_tim.c ****   [..]
 170:Drivers/STM32H7xx_HAL_Driver/Src/stm32h7xx_hal_tim.c ****     Callbacks can be registered / unregistered in HAL_TIM_STATE_READY state only.
 171:Drivers/STM32H7xx_HAL_Driver/Src/stm32h7xx_hal_tim.c ****     Exception done MspInit / MspDeInit that can be registered / unregistered
 172:Drivers/STM32H7xx_HAL_Driver/Src/stm32h7xx_hal_tim.c ****     in HAL_TIM_STATE_READY or HAL_TIM_STATE_RESET state,
 173:Drivers/STM32H7xx_HAL_Driver/Src/stm32h7xx_hal_tim.c ****     thus registered(user) MspInit / DeInit callbacks can be used during the Init / DeInit.
 174:Drivers/STM32H7xx_HAL_Driver/Src/stm32h7xx_hal_tim.c ****   In that case first register the MspInit/MspDeInit user callbacks
 175:Drivers/STM32H7xx_HAL_Driver/Src/stm32h7xx_hal_tim.c ****       using HAL_TIM_RegisterCallback() before calling DeInit or Init function.
 176:Drivers/STM32H7xx_HAL_Driver/Src/stm32h7xx_hal_tim.c **** 
 177:Drivers/STM32H7xx_HAL_Driver/Src/stm32h7xx_hal_tim.c ****   [..]
 178:Drivers/STM32H7xx_HAL_Driver/Src/stm32h7xx_hal_tim.c ****       When The compilation define USE_HAL_TIM_REGISTER_CALLBACKS is set to 0 or
 179:Drivers/STM32H7xx_HAL_Driver/Src/stm32h7xx_hal_tim.c ****       not defined, the callback registration feature is not available and all callbacks
 180:Drivers/STM32H7xx_HAL_Driver/Src/stm32h7xx_hal_tim.c ****       are set to the corresponding weak functions.
 181:Drivers/STM32H7xx_HAL_Driver/Src/stm32h7xx_hal_tim.c **** 
 182:Drivers/STM32H7xx_HAL_Driver/Src/stm32h7xx_hal_tim.c ****   @endverbatim
 183:Drivers/STM32H7xx_HAL_Driver/Src/stm32h7xx_hal_tim.c ****   ******************************************************************************
 184:Drivers/STM32H7xx_HAL_Driver/Src/stm32h7xx_hal_tim.c ****   */
 185:Drivers/STM32H7xx_HAL_Driver/Src/stm32h7xx_hal_tim.c **** 
 186:Drivers/STM32H7xx_HAL_Driver/Src/stm32h7xx_hal_tim.c **** /* Includes ------------------------------------------------------------------*/
 187:Drivers/STM32H7xx_HAL_Driver/Src/stm32h7xx_hal_tim.c **** #include "stm32h7xx_hal.h"
 188:Drivers/STM32H7xx_HAL_Driver/Src/stm32h7xx_hal_tim.c **** 
 189:Drivers/STM32H7xx_HAL_Driver/Src/stm32h7xx_hal_tim.c **** /** @addtogroup STM32H7xx_HAL_Driver
 190:Drivers/STM32H7xx_HAL_Driver/Src/stm32h7xx_hal_tim.c ****   * @{
 191:Drivers/STM32H7xx_HAL_Driver/Src/stm32h7xx_hal_tim.c ****   */
 192:Drivers/STM32H7xx_HAL_Driver/Src/stm32h7xx_hal_tim.c **** 
 193:Drivers/STM32H7xx_HAL_Driver/Src/stm32h7xx_hal_tim.c **** /** @defgroup TIM TIM
 194:Drivers/STM32H7xx_HAL_Driver/Src/stm32h7xx_hal_tim.c ****   * @brief TIM HAL module driver
 195:Drivers/STM32H7xx_HAL_Driver/Src/stm32h7xx_hal_tim.c ****   * @{
 196:Drivers/STM32H7xx_HAL_Driver/Src/stm32h7xx_hal_tim.c ****   */
 197:Drivers/STM32H7xx_HAL_Driver/Src/stm32h7xx_hal_tim.c **** 
 198:Drivers/STM32H7xx_HAL_Driver/Src/stm32h7xx_hal_tim.c **** #ifdef HAL_TIM_MODULE_ENABLED
 199:Drivers/STM32H7xx_HAL_Driver/Src/stm32h7xx_hal_tim.c **** 
 200:Drivers/STM32H7xx_HAL_Driver/Src/stm32h7xx_hal_tim.c **** /* Private typedef -----------------------------------------------------------*/
 201:Drivers/STM32H7xx_HAL_Driver/Src/stm32h7xx_hal_tim.c **** /* Private define ------------------------------------------------------------*/
 202:Drivers/STM32H7xx_HAL_Driver/Src/stm32h7xx_hal_tim.c **** /* Private macros ------------------------------------------------------------*/
ARM GAS  C:\Users\Su\AppData\Local\Temp\cc9h93iY.s 			page 5


 203:Drivers/STM32H7xx_HAL_Driver/Src/stm32h7xx_hal_tim.c **** /* Private variables ---------------------------------------------------------*/
 204:Drivers/STM32H7xx_HAL_Driver/Src/stm32h7xx_hal_tim.c **** /* Private function prototypes -----------------------------------------------*/
 205:Drivers/STM32H7xx_HAL_Driver/Src/stm32h7xx_hal_tim.c **** /** @addtogroup TIM_Private_Functions
 206:Drivers/STM32H7xx_HAL_Driver/Src/stm32h7xx_hal_tim.c ****   * @{
 207:Drivers/STM32H7xx_HAL_Driver/Src/stm32h7xx_hal_tim.c ****   */
 208:Drivers/STM32H7xx_HAL_Driver/Src/stm32h7xx_hal_tim.c **** static void TIM_OC1_SetConfig(TIM_TypeDef *TIMx, TIM_OC_InitTypeDef *OC_Config);
 209:Drivers/STM32H7xx_HAL_Driver/Src/stm32h7xx_hal_tim.c **** static void TIM_OC3_SetConfig(TIM_TypeDef *TIMx, TIM_OC_InitTypeDef *OC_Config);
 210:Drivers/STM32H7xx_HAL_Driver/Src/stm32h7xx_hal_tim.c **** static void TIM_OC4_SetConfig(TIM_TypeDef *TIMx, TIM_OC_InitTypeDef *OC_Config);
 211:Drivers/STM32H7xx_HAL_Driver/Src/stm32h7xx_hal_tim.c **** static void TIM_OC5_SetConfig(TIM_TypeDef *TIMx, TIM_OC_InitTypeDef *OC_Config);
 212:Drivers/STM32H7xx_HAL_Driver/Src/stm32h7xx_hal_tim.c **** static void TIM_OC6_SetConfig(TIM_TypeDef *TIMx, TIM_OC_InitTypeDef *OC_Config);
 213:Drivers/STM32H7xx_HAL_Driver/Src/stm32h7xx_hal_tim.c **** static void TIM_TI1_ConfigInputStage(TIM_TypeDef *TIMx, uint32_t TIM_ICPolarity, uint32_t TIM_ICFil
 214:Drivers/STM32H7xx_HAL_Driver/Src/stm32h7xx_hal_tim.c **** static void TIM_TI2_SetConfig(TIM_TypeDef *TIMx, uint32_t TIM_ICPolarity, uint32_t TIM_ICSelection,
 215:Drivers/STM32H7xx_HAL_Driver/Src/stm32h7xx_hal_tim.c ****                               uint32_t TIM_ICFilter);
 216:Drivers/STM32H7xx_HAL_Driver/Src/stm32h7xx_hal_tim.c **** static void TIM_TI2_ConfigInputStage(TIM_TypeDef *TIMx, uint32_t TIM_ICPolarity, uint32_t TIM_ICFil
 217:Drivers/STM32H7xx_HAL_Driver/Src/stm32h7xx_hal_tim.c **** static void TIM_TI3_SetConfig(TIM_TypeDef *TIMx, uint32_t TIM_ICPolarity, uint32_t TIM_ICSelection,
 218:Drivers/STM32H7xx_HAL_Driver/Src/stm32h7xx_hal_tim.c ****                               uint32_t TIM_ICFilter);
 219:Drivers/STM32H7xx_HAL_Driver/Src/stm32h7xx_hal_tim.c **** static void TIM_TI4_SetConfig(TIM_TypeDef *TIMx, uint32_t TIM_ICPolarity, uint32_t TIM_ICSelection,
 220:Drivers/STM32H7xx_HAL_Driver/Src/stm32h7xx_hal_tim.c ****                               uint32_t TIM_ICFilter);
 221:Drivers/STM32H7xx_HAL_Driver/Src/stm32h7xx_hal_tim.c **** static void TIM_ITRx_SetConfig(TIM_TypeDef *TIMx, uint32_t InputTriggerSource);
 222:Drivers/STM32H7xx_HAL_Driver/Src/stm32h7xx_hal_tim.c **** static void TIM_DMAPeriodElapsedCplt(DMA_HandleTypeDef *hdma);
 223:Drivers/STM32H7xx_HAL_Driver/Src/stm32h7xx_hal_tim.c **** static void TIM_DMAPeriodElapsedHalfCplt(DMA_HandleTypeDef *hdma);
 224:Drivers/STM32H7xx_HAL_Driver/Src/stm32h7xx_hal_tim.c **** static void TIM_DMADelayPulseCplt(DMA_HandleTypeDef *hdma);
 225:Drivers/STM32H7xx_HAL_Driver/Src/stm32h7xx_hal_tim.c **** static void TIM_DMATriggerCplt(DMA_HandleTypeDef *hdma);
 226:Drivers/STM32H7xx_HAL_Driver/Src/stm32h7xx_hal_tim.c **** static void TIM_DMATriggerHalfCplt(DMA_HandleTypeDef *hdma);
 227:Drivers/STM32H7xx_HAL_Driver/Src/stm32h7xx_hal_tim.c **** static HAL_StatusTypeDef TIM_SlaveTimer_SetConfig(TIM_HandleTypeDef *htim,
 228:Drivers/STM32H7xx_HAL_Driver/Src/stm32h7xx_hal_tim.c ****                                                   TIM_SlaveConfigTypeDef *sSlaveConfig);
 229:Drivers/STM32H7xx_HAL_Driver/Src/stm32h7xx_hal_tim.c **** /**
 230:Drivers/STM32H7xx_HAL_Driver/Src/stm32h7xx_hal_tim.c ****   * @}
 231:Drivers/STM32H7xx_HAL_Driver/Src/stm32h7xx_hal_tim.c ****   */
 232:Drivers/STM32H7xx_HAL_Driver/Src/stm32h7xx_hal_tim.c **** /* Exported functions --------------------------------------------------------*/
 233:Drivers/STM32H7xx_HAL_Driver/Src/stm32h7xx_hal_tim.c **** 
 234:Drivers/STM32H7xx_HAL_Driver/Src/stm32h7xx_hal_tim.c **** /** @defgroup TIM_Exported_Functions TIM Exported Functions
 235:Drivers/STM32H7xx_HAL_Driver/Src/stm32h7xx_hal_tim.c ****   * @{
 236:Drivers/STM32H7xx_HAL_Driver/Src/stm32h7xx_hal_tim.c ****   */
 237:Drivers/STM32H7xx_HAL_Driver/Src/stm32h7xx_hal_tim.c **** 
 238:Drivers/STM32H7xx_HAL_Driver/Src/stm32h7xx_hal_tim.c **** /** @defgroup TIM_Exported_Functions_Group1 TIM Time Base functions
 239:Drivers/STM32H7xx_HAL_Driver/Src/stm32h7xx_hal_tim.c ****   *  @brief    Time Base functions
 240:Drivers/STM32H7xx_HAL_Driver/Src/stm32h7xx_hal_tim.c ****   *
 241:Drivers/STM32H7xx_HAL_Driver/Src/stm32h7xx_hal_tim.c **** @verbatim
 242:Drivers/STM32H7xx_HAL_Driver/Src/stm32h7xx_hal_tim.c ****   ==============================================================================
 243:Drivers/STM32H7xx_HAL_Driver/Src/stm32h7xx_hal_tim.c ****               ##### Time Base functions #####
 244:Drivers/STM32H7xx_HAL_Driver/Src/stm32h7xx_hal_tim.c ****   ==============================================================================
 245:Drivers/STM32H7xx_HAL_Driver/Src/stm32h7xx_hal_tim.c ****   [..]
 246:Drivers/STM32H7xx_HAL_Driver/Src/stm32h7xx_hal_tim.c ****     This section provides functions allowing to:
 247:Drivers/STM32H7xx_HAL_Driver/Src/stm32h7xx_hal_tim.c ****     (+) Initialize and configure the TIM base.
 248:Drivers/STM32H7xx_HAL_Driver/Src/stm32h7xx_hal_tim.c ****     (+) De-initialize the TIM base.
 249:Drivers/STM32H7xx_HAL_Driver/Src/stm32h7xx_hal_tim.c ****     (+) Start the Time Base.
 250:Drivers/STM32H7xx_HAL_Driver/Src/stm32h7xx_hal_tim.c ****     (+) Stop the Time Base.
 251:Drivers/STM32H7xx_HAL_Driver/Src/stm32h7xx_hal_tim.c ****     (+) Start the Time Base and enable interrupt.
 252:Drivers/STM32H7xx_HAL_Driver/Src/stm32h7xx_hal_tim.c ****     (+) Stop the Time Base and disable interrupt.
 253:Drivers/STM32H7xx_HAL_Driver/Src/stm32h7xx_hal_tim.c ****     (+) Start the Time Base and enable DMA transfer.
 254:Drivers/STM32H7xx_HAL_Driver/Src/stm32h7xx_hal_tim.c ****     (+) Stop the Time Base and disable DMA transfer.
 255:Drivers/STM32H7xx_HAL_Driver/Src/stm32h7xx_hal_tim.c **** 
 256:Drivers/STM32H7xx_HAL_Driver/Src/stm32h7xx_hal_tim.c **** @endverbatim
 257:Drivers/STM32H7xx_HAL_Driver/Src/stm32h7xx_hal_tim.c ****   * @{
 258:Drivers/STM32H7xx_HAL_Driver/Src/stm32h7xx_hal_tim.c ****   */
 259:Drivers/STM32H7xx_HAL_Driver/Src/stm32h7xx_hal_tim.c **** /**
ARM GAS  C:\Users\Su\AppData\Local\Temp\cc9h93iY.s 			page 6


 260:Drivers/STM32H7xx_HAL_Driver/Src/stm32h7xx_hal_tim.c ****   * @brief  Initializes the TIM Time base Unit according to the specified
 261:Drivers/STM32H7xx_HAL_Driver/Src/stm32h7xx_hal_tim.c ****   *         parameters in the TIM_HandleTypeDef and initialize the associated handle.
 262:Drivers/STM32H7xx_HAL_Driver/Src/stm32h7xx_hal_tim.c ****   * @note   Switching from Center Aligned counter mode to Edge counter mode (or reverse)
 263:Drivers/STM32H7xx_HAL_Driver/Src/stm32h7xx_hal_tim.c ****   *         requires a timer reset to avoid unexpected direction
 264:Drivers/STM32H7xx_HAL_Driver/Src/stm32h7xx_hal_tim.c ****   *         due to DIR bit readonly in center aligned mode.
 265:Drivers/STM32H7xx_HAL_Driver/Src/stm32h7xx_hal_tim.c ****   *         Ex: call @ref HAL_TIM_Base_DeInit() before HAL_TIM_Base_Init()
 266:Drivers/STM32H7xx_HAL_Driver/Src/stm32h7xx_hal_tim.c ****   * @param  htim TIM Base handle
 267:Drivers/STM32H7xx_HAL_Driver/Src/stm32h7xx_hal_tim.c ****   * @retval HAL status
 268:Drivers/STM32H7xx_HAL_Driver/Src/stm32h7xx_hal_tim.c ****   */
 269:Drivers/STM32H7xx_HAL_Driver/Src/stm32h7xx_hal_tim.c **** HAL_StatusTypeDef HAL_TIM_Base_Init(TIM_HandleTypeDef *htim)
 270:Drivers/STM32H7xx_HAL_Driver/Src/stm32h7xx_hal_tim.c **** {
  28              		.loc 1 270 1
  29              		.cfi_startproc
  30              		@ args = 0, pretend = 0, frame = 8
  31              		@ frame_needed = 1, uses_anonymous_args = 0
  32 0000 80B5     		push	{r7, lr}
  33              	.LCFI0:
  34              		.cfi_def_cfa_offset 8
  35              		.cfi_offset 7, -8
  36              		.cfi_offset 14, -4
  37 0002 82B0     		sub	sp, sp, #8
  38              	.LCFI1:
  39              		.cfi_def_cfa_offset 16
  40 0004 00AF     		add	r7, sp, #0
  41              	.LCFI2:
  42              		.cfi_def_cfa_register 7
  43 0006 7860     		str	r0, [r7, #4]
 271:Drivers/STM32H7xx_HAL_Driver/Src/stm32h7xx_hal_tim.c ****   /* Check the TIM handle allocation */
 272:Drivers/STM32H7xx_HAL_Driver/Src/stm32h7xx_hal_tim.c ****   if (htim == NULL)
  44              		.loc 1 272 6
  45 0008 7B68     		ldr	r3, [r7, #4]
  46 000a 002B     		cmp	r3, #0
  47 000c 01D1     		bne	.L2
 273:Drivers/STM32H7xx_HAL_Driver/Src/stm32h7xx_hal_tim.c ****   {
 274:Drivers/STM32H7xx_HAL_Driver/Src/stm32h7xx_hal_tim.c ****     return HAL_ERROR;
  48              		.loc 1 274 12
  49 000e 0123     		movs	r3, #1
  50 0010 49E0     		b	.L3
  51              	.L2:
 275:Drivers/STM32H7xx_HAL_Driver/Src/stm32h7xx_hal_tim.c ****   }
 276:Drivers/STM32H7xx_HAL_Driver/Src/stm32h7xx_hal_tim.c **** 
 277:Drivers/STM32H7xx_HAL_Driver/Src/stm32h7xx_hal_tim.c ****   /* Check the parameters */
 278:Drivers/STM32H7xx_HAL_Driver/Src/stm32h7xx_hal_tim.c ****   assert_param(IS_TIM_INSTANCE(htim->Instance));
 279:Drivers/STM32H7xx_HAL_Driver/Src/stm32h7xx_hal_tim.c ****   assert_param(IS_TIM_COUNTER_MODE(htim->Init.CounterMode));
 280:Drivers/STM32H7xx_HAL_Driver/Src/stm32h7xx_hal_tim.c ****   assert_param(IS_TIM_CLOCKDIVISION_DIV(htim->Init.ClockDivision));
 281:Drivers/STM32H7xx_HAL_Driver/Src/stm32h7xx_hal_tim.c ****   assert_param(IS_TIM_AUTORELOAD_PRELOAD(htim->Init.AutoReloadPreload));
 282:Drivers/STM32H7xx_HAL_Driver/Src/stm32h7xx_hal_tim.c **** 
 283:Drivers/STM32H7xx_HAL_Driver/Src/stm32h7xx_hal_tim.c ****   if (htim->State == HAL_TIM_STATE_RESET)
  52              		.loc 1 283 11
  53 0012 7B68     		ldr	r3, [r7, #4]
  54 0014 93F83D30 		ldrb	r3, [r3, #61]
  55 0018 DBB2     		uxtb	r3, r3
  56              		.loc 1 283 6
  57 001a 002B     		cmp	r3, #0
  58 001c 06D1     		bne	.L4
 284:Drivers/STM32H7xx_HAL_Driver/Src/stm32h7xx_hal_tim.c ****   {
 285:Drivers/STM32H7xx_HAL_Driver/Src/stm32h7xx_hal_tim.c ****     /* Allocate lock resource and initialize it */
ARM GAS  C:\Users\Su\AppData\Local\Temp\cc9h93iY.s 			page 7


 286:Drivers/STM32H7xx_HAL_Driver/Src/stm32h7xx_hal_tim.c ****     htim->Lock = HAL_UNLOCKED;
  59              		.loc 1 286 16
  60 001e 7B68     		ldr	r3, [r7, #4]
  61 0020 0022     		movs	r2, #0
  62 0022 83F83C20 		strb	r2, [r3, #60]
 287:Drivers/STM32H7xx_HAL_Driver/Src/stm32h7xx_hal_tim.c **** 
 288:Drivers/STM32H7xx_HAL_Driver/Src/stm32h7xx_hal_tim.c **** #if (USE_HAL_TIM_REGISTER_CALLBACKS == 1)
 289:Drivers/STM32H7xx_HAL_Driver/Src/stm32h7xx_hal_tim.c ****     /* Reset interrupt callbacks to legacy weak callbacks */
 290:Drivers/STM32H7xx_HAL_Driver/Src/stm32h7xx_hal_tim.c ****     TIM_ResetCallback(htim);
 291:Drivers/STM32H7xx_HAL_Driver/Src/stm32h7xx_hal_tim.c **** 
 292:Drivers/STM32H7xx_HAL_Driver/Src/stm32h7xx_hal_tim.c ****     if (htim->Base_MspInitCallback == NULL)
 293:Drivers/STM32H7xx_HAL_Driver/Src/stm32h7xx_hal_tim.c ****     {
 294:Drivers/STM32H7xx_HAL_Driver/Src/stm32h7xx_hal_tim.c ****       htim->Base_MspInitCallback = HAL_TIM_Base_MspInit;
 295:Drivers/STM32H7xx_HAL_Driver/Src/stm32h7xx_hal_tim.c ****     }
 296:Drivers/STM32H7xx_HAL_Driver/Src/stm32h7xx_hal_tim.c ****     /* Init the low level hardware : GPIO, CLOCK, NVIC */
 297:Drivers/STM32H7xx_HAL_Driver/Src/stm32h7xx_hal_tim.c ****     htim->Base_MspInitCallback(htim);
 298:Drivers/STM32H7xx_HAL_Driver/Src/stm32h7xx_hal_tim.c **** #else
 299:Drivers/STM32H7xx_HAL_Driver/Src/stm32h7xx_hal_tim.c ****     /* Init the low level hardware : GPIO, CLOCK, NVIC */
 300:Drivers/STM32H7xx_HAL_Driver/Src/stm32h7xx_hal_tim.c ****     HAL_TIM_Base_MspInit(htim);
  63              		.loc 1 300 5
  64 0026 7868     		ldr	r0, [r7, #4]
  65 0028 FFF7FEFF 		bl	HAL_TIM_Base_MspInit
  66              	.L4:
 301:Drivers/STM32H7xx_HAL_Driver/Src/stm32h7xx_hal_tim.c **** #endif /* USE_HAL_TIM_REGISTER_CALLBACKS */
 302:Drivers/STM32H7xx_HAL_Driver/Src/stm32h7xx_hal_tim.c ****   }
 303:Drivers/STM32H7xx_HAL_Driver/Src/stm32h7xx_hal_tim.c **** 
 304:Drivers/STM32H7xx_HAL_Driver/Src/stm32h7xx_hal_tim.c ****   /* Set the TIM state */
 305:Drivers/STM32H7xx_HAL_Driver/Src/stm32h7xx_hal_tim.c ****   htim->State = HAL_TIM_STATE_BUSY;
  67              		.loc 1 305 15
  68 002c 7B68     		ldr	r3, [r7, #4]
  69 002e 0222     		movs	r2, #2
  70 0030 83F83D20 		strb	r2, [r3, #61]
 306:Drivers/STM32H7xx_HAL_Driver/Src/stm32h7xx_hal_tim.c **** 
 307:Drivers/STM32H7xx_HAL_Driver/Src/stm32h7xx_hal_tim.c ****   /* Set the Time Base configuration */
 308:Drivers/STM32H7xx_HAL_Driver/Src/stm32h7xx_hal_tim.c ****   TIM_Base_SetConfig(htim->Instance, &htim->Init);
  71              		.loc 1 308 3
  72 0034 7B68     		ldr	r3, [r7, #4]
  73 0036 1A68     		ldr	r2, [r3]
  74 0038 7B68     		ldr	r3, [r7, #4]
  75 003a 0433     		adds	r3, r3, #4
  76 003c 1946     		mov	r1, r3
  77 003e 1046     		mov	r0, r2
  78 0040 FFF7FEFF 		bl	TIM_Base_SetConfig
 309:Drivers/STM32H7xx_HAL_Driver/Src/stm32h7xx_hal_tim.c **** 
 310:Drivers/STM32H7xx_HAL_Driver/Src/stm32h7xx_hal_tim.c ****   /* Initialize the DMA burst operation state */
 311:Drivers/STM32H7xx_HAL_Driver/Src/stm32h7xx_hal_tim.c ****   htim->DMABurstState = HAL_DMA_BURST_STATE_READY;
  79              		.loc 1 311 23
  80 0044 7B68     		ldr	r3, [r7, #4]
  81 0046 0122     		movs	r2, #1
  82 0048 83F84820 		strb	r2, [r3, #72]
 312:Drivers/STM32H7xx_HAL_Driver/Src/stm32h7xx_hal_tim.c **** 
 313:Drivers/STM32H7xx_HAL_Driver/Src/stm32h7xx_hal_tim.c ****   /* Initialize the TIM channels state */
 314:Drivers/STM32H7xx_HAL_Driver/Src/stm32h7xx_hal_tim.c ****   TIM_CHANNEL_STATE_SET_ALL(htim, HAL_TIM_CHANNEL_STATE_READY);
  83              		.loc 1 314 3
  84 004c 7B68     		ldr	r3, [r7, #4]
  85 004e 0122     		movs	r2, #1
  86 0050 83F83E20 		strb	r2, [r3, #62]
ARM GAS  C:\Users\Su\AppData\Local\Temp\cc9h93iY.s 			page 8


  87 0054 7B68     		ldr	r3, [r7, #4]
  88 0056 0122     		movs	r2, #1
  89 0058 83F83F20 		strb	r2, [r3, #63]
  90 005c 7B68     		ldr	r3, [r7, #4]
  91 005e 0122     		movs	r2, #1
  92 0060 83F84020 		strb	r2, [r3, #64]
  93 0064 7B68     		ldr	r3, [r7, #4]
  94 0066 0122     		movs	r2, #1
  95 0068 83F84120 		strb	r2, [r3, #65]
  96 006c 7B68     		ldr	r3, [r7, #4]
  97 006e 0122     		movs	r2, #1
  98 0070 83F84220 		strb	r2, [r3, #66]
  99 0074 7B68     		ldr	r3, [r7, #4]
 100 0076 0122     		movs	r2, #1
 101 0078 83F84320 		strb	r2, [r3, #67]
 315:Drivers/STM32H7xx_HAL_Driver/Src/stm32h7xx_hal_tim.c ****   TIM_CHANNEL_N_STATE_SET_ALL(htim, HAL_TIM_CHANNEL_STATE_READY);
 102              		.loc 1 315 3
 103 007c 7B68     		ldr	r3, [r7, #4]
 104 007e 0122     		movs	r2, #1
 105 0080 83F84420 		strb	r2, [r3, #68]
 106 0084 7B68     		ldr	r3, [r7, #4]
 107 0086 0122     		movs	r2, #1
 108 0088 83F84520 		strb	r2, [r3, #69]
 109 008c 7B68     		ldr	r3, [r7, #4]
 110 008e 0122     		movs	r2, #1
 111 0090 83F84620 		strb	r2, [r3, #70]
 112 0094 7B68     		ldr	r3, [r7, #4]
 113 0096 0122     		movs	r2, #1
 114 0098 83F84720 		strb	r2, [r3, #71]
 316:Drivers/STM32H7xx_HAL_Driver/Src/stm32h7xx_hal_tim.c **** 
 317:Drivers/STM32H7xx_HAL_Driver/Src/stm32h7xx_hal_tim.c ****   /* Initialize the TIM state*/
 318:Drivers/STM32H7xx_HAL_Driver/Src/stm32h7xx_hal_tim.c ****   htim->State = HAL_TIM_STATE_READY;
 115              		.loc 1 318 15
 116 009c 7B68     		ldr	r3, [r7, #4]
 117 009e 0122     		movs	r2, #1
 118 00a0 83F83D20 		strb	r2, [r3, #61]
 319:Drivers/STM32H7xx_HAL_Driver/Src/stm32h7xx_hal_tim.c **** 
 320:Drivers/STM32H7xx_HAL_Driver/Src/stm32h7xx_hal_tim.c ****   return HAL_OK;
 119              		.loc 1 320 10
 120 00a4 0023     		movs	r3, #0
 121              	.L3:
 321:Drivers/STM32H7xx_HAL_Driver/Src/stm32h7xx_hal_tim.c **** }
 122              		.loc 1 321 1
 123 00a6 1846     		mov	r0, r3
 124 00a8 0837     		adds	r7, r7, #8
 125              	.LCFI3:
 126              		.cfi_def_cfa_offset 8
 127 00aa BD46     		mov	sp, r7
 128              	.LCFI4:
 129              		.cfi_def_cfa_register 13
 130              		@ sp needed
 131 00ac 80BD     		pop	{r7, pc}
 132              		.cfi_endproc
 133              	.LFE144:
 135              		.section	.text.HAL_TIM_Base_DeInit,"ax",%progbits
 136              		.align	1
 137              		.global	HAL_TIM_Base_DeInit
ARM GAS  C:\Users\Su\AppData\Local\Temp\cc9h93iY.s 			page 9


 138              		.syntax unified
 139              		.thumb
 140              		.thumb_func
 142              	HAL_TIM_Base_DeInit:
 143              	.LFB145:
 322:Drivers/STM32H7xx_HAL_Driver/Src/stm32h7xx_hal_tim.c **** 
 323:Drivers/STM32H7xx_HAL_Driver/Src/stm32h7xx_hal_tim.c **** /**
 324:Drivers/STM32H7xx_HAL_Driver/Src/stm32h7xx_hal_tim.c ****   * @brief  DeInitializes the TIM Base peripheral
 325:Drivers/STM32H7xx_HAL_Driver/Src/stm32h7xx_hal_tim.c ****   * @param  htim TIM Base handle
 326:Drivers/STM32H7xx_HAL_Driver/Src/stm32h7xx_hal_tim.c ****   * @retval HAL status
 327:Drivers/STM32H7xx_HAL_Driver/Src/stm32h7xx_hal_tim.c ****   */
 328:Drivers/STM32H7xx_HAL_Driver/Src/stm32h7xx_hal_tim.c **** HAL_StatusTypeDef HAL_TIM_Base_DeInit(TIM_HandleTypeDef *htim)
 329:Drivers/STM32H7xx_HAL_Driver/Src/stm32h7xx_hal_tim.c **** {
 144              		.loc 1 329 1
 145              		.cfi_startproc
 146              		@ args = 0, pretend = 0, frame = 8
 147              		@ frame_needed = 1, uses_anonymous_args = 0
 148 0000 80B5     		push	{r7, lr}
 149              	.LCFI5:
 150              		.cfi_def_cfa_offset 8
 151              		.cfi_offset 7, -8
 152              		.cfi_offset 14, -4
 153 0002 82B0     		sub	sp, sp, #8
 154              	.LCFI6:
 155              		.cfi_def_cfa_offset 16
 156 0004 00AF     		add	r7, sp, #0
 157              	.LCFI7:
 158              		.cfi_def_cfa_register 7
 159 0006 7860     		str	r0, [r7, #4]
 330:Drivers/STM32H7xx_HAL_Driver/Src/stm32h7xx_hal_tim.c ****   /* Check the parameters */
 331:Drivers/STM32H7xx_HAL_Driver/Src/stm32h7xx_hal_tim.c ****   assert_param(IS_TIM_INSTANCE(htim->Instance));
 332:Drivers/STM32H7xx_HAL_Driver/Src/stm32h7xx_hal_tim.c **** 
 333:Drivers/STM32H7xx_HAL_Driver/Src/stm32h7xx_hal_tim.c ****   htim->State = HAL_TIM_STATE_BUSY;
 160              		.loc 1 333 15
 161 0008 7B68     		ldr	r3, [r7, #4]
 162 000a 0222     		movs	r2, #2
 163 000c 83F83D20 		strb	r2, [r3, #61]
 334:Drivers/STM32H7xx_HAL_Driver/Src/stm32h7xx_hal_tim.c **** 
 335:Drivers/STM32H7xx_HAL_Driver/Src/stm32h7xx_hal_tim.c ****   /* Disable the TIM Peripheral Clock */
 336:Drivers/STM32H7xx_HAL_Driver/Src/stm32h7xx_hal_tim.c ****   __HAL_TIM_DISABLE(htim);
 164              		.loc 1 336 3
 165 0010 7B68     		ldr	r3, [r7, #4]
 166 0012 1B68     		ldr	r3, [r3]
 167 0014 1A6A     		ldr	r2, [r3, #32]
 168 0016 41F21113 		movw	r3, #4369
 169 001a 1340     		ands	r3, r3, r2
 170 001c 002B     		cmp	r3, #0
 171 001e 0FD1     		bne	.L6
 172              		.loc 1 336 3 is_stmt 0 discriminator 1
 173 0020 7B68     		ldr	r3, [r7, #4]
 174 0022 1B68     		ldr	r3, [r3]
 175 0024 1A6A     		ldr	r2, [r3, #32]
 176 0026 40F24443 		movw	r3, #1092
 177 002a 1340     		ands	r3, r3, r2
 178 002c 002B     		cmp	r3, #0
 179 002e 07D1     		bne	.L6
 180              		.loc 1 336 3 discriminator 2
ARM GAS  C:\Users\Su\AppData\Local\Temp\cc9h93iY.s 			page 10


 181 0030 7B68     		ldr	r3, [r7, #4]
 182 0032 1B68     		ldr	r3, [r3]
 183 0034 1A68     		ldr	r2, [r3]
 184 0036 7B68     		ldr	r3, [r7, #4]
 185 0038 1B68     		ldr	r3, [r3]
 186 003a 22F00102 		bic	r2, r2, #1
 187 003e 1A60     		str	r2, [r3]
 188              	.L6:
 337:Drivers/STM32H7xx_HAL_Driver/Src/stm32h7xx_hal_tim.c **** 
 338:Drivers/STM32H7xx_HAL_Driver/Src/stm32h7xx_hal_tim.c **** #if (USE_HAL_TIM_REGISTER_CALLBACKS == 1)
 339:Drivers/STM32H7xx_HAL_Driver/Src/stm32h7xx_hal_tim.c ****   if (htim->Base_MspDeInitCallback == NULL)
 340:Drivers/STM32H7xx_HAL_Driver/Src/stm32h7xx_hal_tim.c ****   {
 341:Drivers/STM32H7xx_HAL_Driver/Src/stm32h7xx_hal_tim.c ****     htim->Base_MspDeInitCallback = HAL_TIM_Base_MspDeInit;
 342:Drivers/STM32H7xx_HAL_Driver/Src/stm32h7xx_hal_tim.c ****   }
 343:Drivers/STM32H7xx_HAL_Driver/Src/stm32h7xx_hal_tim.c ****   /* DeInit the low level hardware */
 344:Drivers/STM32H7xx_HAL_Driver/Src/stm32h7xx_hal_tim.c ****   htim->Base_MspDeInitCallback(htim);
 345:Drivers/STM32H7xx_HAL_Driver/Src/stm32h7xx_hal_tim.c **** #else
 346:Drivers/STM32H7xx_HAL_Driver/Src/stm32h7xx_hal_tim.c ****   /* DeInit the low level hardware: GPIO, CLOCK, NVIC */
 347:Drivers/STM32H7xx_HAL_Driver/Src/stm32h7xx_hal_tim.c ****   HAL_TIM_Base_MspDeInit(htim);
 189              		.loc 1 347 3 is_stmt 1
 190 0040 7868     		ldr	r0, [r7, #4]
 191 0042 FFF7FEFF 		bl	HAL_TIM_Base_MspDeInit
 348:Drivers/STM32H7xx_HAL_Driver/Src/stm32h7xx_hal_tim.c **** #endif /* USE_HAL_TIM_REGISTER_CALLBACKS */
 349:Drivers/STM32H7xx_HAL_Driver/Src/stm32h7xx_hal_tim.c **** 
 350:Drivers/STM32H7xx_HAL_Driver/Src/stm32h7xx_hal_tim.c ****   /* Change the DMA burst operation state */
 351:Drivers/STM32H7xx_HAL_Driver/Src/stm32h7xx_hal_tim.c ****   htim->DMABurstState = HAL_DMA_BURST_STATE_RESET;
 192              		.loc 1 351 23
 193 0046 7B68     		ldr	r3, [r7, #4]
 194 0048 0022     		movs	r2, #0
 195 004a 83F84820 		strb	r2, [r3, #72]
 352:Drivers/STM32H7xx_HAL_Driver/Src/stm32h7xx_hal_tim.c **** 
 353:Drivers/STM32H7xx_HAL_Driver/Src/stm32h7xx_hal_tim.c ****   /* Change the TIM channels state */
 354:Drivers/STM32H7xx_HAL_Driver/Src/stm32h7xx_hal_tim.c ****   TIM_CHANNEL_STATE_SET_ALL(htim, HAL_TIM_CHANNEL_STATE_RESET);
 196              		.loc 1 354 3
 197 004e 7B68     		ldr	r3, [r7, #4]
 198 0050 0022     		movs	r2, #0
 199 0052 83F83E20 		strb	r2, [r3, #62]
 200 0056 7B68     		ldr	r3, [r7, #4]
 201 0058 0022     		movs	r2, #0
 202 005a 83F83F20 		strb	r2, [r3, #63]
 203 005e 7B68     		ldr	r3, [r7, #4]
 204 0060 0022     		movs	r2, #0
 205 0062 83F84020 		strb	r2, [r3, #64]
 206 0066 7B68     		ldr	r3, [r7, #4]
 207 0068 0022     		movs	r2, #0
 208 006a 83F84120 		strb	r2, [r3, #65]
 209 006e 7B68     		ldr	r3, [r7, #4]
 210 0070 0022     		movs	r2, #0
 211 0072 83F84220 		strb	r2, [r3, #66]
 212 0076 7B68     		ldr	r3, [r7, #4]
 213 0078 0022     		movs	r2, #0
 214 007a 83F84320 		strb	r2, [r3, #67]
 355:Drivers/STM32H7xx_HAL_Driver/Src/stm32h7xx_hal_tim.c ****   TIM_CHANNEL_N_STATE_SET_ALL(htim, HAL_TIM_CHANNEL_STATE_RESET);
 215              		.loc 1 355 3
 216 007e 7B68     		ldr	r3, [r7, #4]
 217 0080 0022     		movs	r2, #0
 218 0082 83F84420 		strb	r2, [r3, #68]
ARM GAS  C:\Users\Su\AppData\Local\Temp\cc9h93iY.s 			page 11


 219 0086 7B68     		ldr	r3, [r7, #4]
 220 0088 0022     		movs	r2, #0
 221 008a 83F84520 		strb	r2, [r3, #69]
 222 008e 7B68     		ldr	r3, [r7, #4]
 223 0090 0022     		movs	r2, #0
 224 0092 83F84620 		strb	r2, [r3, #70]
 225 0096 7B68     		ldr	r3, [r7, #4]
 226 0098 0022     		movs	r2, #0
 227 009a 83F84720 		strb	r2, [r3, #71]
 356:Drivers/STM32H7xx_HAL_Driver/Src/stm32h7xx_hal_tim.c **** 
 357:Drivers/STM32H7xx_HAL_Driver/Src/stm32h7xx_hal_tim.c ****   /* Change TIM state */
 358:Drivers/STM32H7xx_HAL_Driver/Src/stm32h7xx_hal_tim.c ****   htim->State = HAL_TIM_STATE_RESET;
 228              		.loc 1 358 15
 229 009e 7B68     		ldr	r3, [r7, #4]
 230 00a0 0022     		movs	r2, #0
 231 00a2 83F83D20 		strb	r2, [r3, #61]
 359:Drivers/STM32H7xx_HAL_Driver/Src/stm32h7xx_hal_tim.c **** 
 360:Drivers/STM32H7xx_HAL_Driver/Src/stm32h7xx_hal_tim.c ****   /* Release Lock */
 361:Drivers/STM32H7xx_HAL_Driver/Src/stm32h7xx_hal_tim.c ****   __HAL_UNLOCK(htim);
 232              		.loc 1 361 3
 233 00a6 7B68     		ldr	r3, [r7, #4]
 234 00a8 0022     		movs	r2, #0
 235 00aa 83F83C20 		strb	r2, [r3, #60]
 362:Drivers/STM32H7xx_HAL_Driver/Src/stm32h7xx_hal_tim.c **** 
 363:Drivers/STM32H7xx_HAL_Driver/Src/stm32h7xx_hal_tim.c ****   return HAL_OK;
 236              		.loc 1 363 10
 237 00ae 0023     		movs	r3, #0
 364:Drivers/STM32H7xx_HAL_Driver/Src/stm32h7xx_hal_tim.c **** }
 238              		.loc 1 364 1
 239 00b0 1846     		mov	r0, r3
 240 00b2 0837     		adds	r7, r7, #8
 241              	.LCFI8:
 242              		.cfi_def_cfa_offset 8
 243 00b4 BD46     		mov	sp, r7
 244              	.LCFI9:
 245              		.cfi_def_cfa_register 13
 246              		@ sp needed
 247 00b6 80BD     		pop	{r7, pc}
 248              		.cfi_endproc
 249              	.LFE145:
 251              		.section	.text.HAL_TIM_Base_MspInit,"ax",%progbits
 252              		.align	1
 253              		.weak	HAL_TIM_Base_MspInit
 254              		.syntax unified
 255              		.thumb
 256              		.thumb_func
 258              	HAL_TIM_Base_MspInit:
 259              	.LFB146:
 365:Drivers/STM32H7xx_HAL_Driver/Src/stm32h7xx_hal_tim.c **** 
 366:Drivers/STM32H7xx_HAL_Driver/Src/stm32h7xx_hal_tim.c **** /**
 367:Drivers/STM32H7xx_HAL_Driver/Src/stm32h7xx_hal_tim.c ****   * @brief  Initializes the TIM Base MSP.
 368:Drivers/STM32H7xx_HAL_Driver/Src/stm32h7xx_hal_tim.c ****   * @param  htim TIM Base handle
 369:Drivers/STM32H7xx_HAL_Driver/Src/stm32h7xx_hal_tim.c ****   * @retval None
 370:Drivers/STM32H7xx_HAL_Driver/Src/stm32h7xx_hal_tim.c ****   */
 371:Drivers/STM32H7xx_HAL_Driver/Src/stm32h7xx_hal_tim.c **** __weak void HAL_TIM_Base_MspInit(TIM_HandleTypeDef *htim)
 372:Drivers/STM32H7xx_HAL_Driver/Src/stm32h7xx_hal_tim.c **** {
 260              		.loc 1 372 1
ARM GAS  C:\Users\Su\AppData\Local\Temp\cc9h93iY.s 			page 12


 261              		.cfi_startproc
 262              		@ args = 0, pretend = 0, frame = 8
 263              		@ frame_needed = 1, uses_anonymous_args = 0
 264              		@ link register save eliminated.
 265 0000 80B4     		push	{r7}
 266              	.LCFI10:
 267              		.cfi_def_cfa_offset 4
 268              		.cfi_offset 7, -4
 269 0002 83B0     		sub	sp, sp, #12
 270              	.LCFI11:
 271              		.cfi_def_cfa_offset 16
 272 0004 00AF     		add	r7, sp, #0
 273              	.LCFI12:
 274              		.cfi_def_cfa_register 7
 275 0006 7860     		str	r0, [r7, #4]
 373:Drivers/STM32H7xx_HAL_Driver/Src/stm32h7xx_hal_tim.c ****   /* Prevent unused argument(s) compilation warning */
 374:Drivers/STM32H7xx_HAL_Driver/Src/stm32h7xx_hal_tim.c ****   UNUSED(htim);
 375:Drivers/STM32H7xx_HAL_Driver/Src/stm32h7xx_hal_tim.c **** 
 376:Drivers/STM32H7xx_HAL_Driver/Src/stm32h7xx_hal_tim.c ****   /* NOTE : This function should not be modified, when the callback is needed,
 377:Drivers/STM32H7xx_HAL_Driver/Src/stm32h7xx_hal_tim.c ****             the HAL_TIM_Base_MspInit could be implemented in the user file
 378:Drivers/STM32H7xx_HAL_Driver/Src/stm32h7xx_hal_tim.c ****    */
 379:Drivers/STM32H7xx_HAL_Driver/Src/stm32h7xx_hal_tim.c **** }
 276              		.loc 1 379 1
 277 0008 00BF     		nop
 278 000a 0C37     		adds	r7, r7, #12
 279              	.LCFI13:
 280              		.cfi_def_cfa_offset 4
 281 000c BD46     		mov	sp, r7
 282              	.LCFI14:
 283              		.cfi_def_cfa_register 13
 284              		@ sp needed
 285 000e 5DF8047B 		ldr	r7, [sp], #4
 286              	.LCFI15:
 287              		.cfi_restore 7
 288              		.cfi_def_cfa_offset 0
 289 0012 7047     		bx	lr
 290              		.cfi_endproc
 291              	.LFE146:
 293              		.section	.text.HAL_TIM_Base_MspDeInit,"ax",%progbits
 294              		.align	1
 295              		.weak	HAL_TIM_Base_MspDeInit
 296              		.syntax unified
 297              		.thumb
 298              		.thumb_func
 300              	HAL_TIM_Base_MspDeInit:
 301              	.LFB147:
 380:Drivers/STM32H7xx_HAL_Driver/Src/stm32h7xx_hal_tim.c **** 
 381:Drivers/STM32H7xx_HAL_Driver/Src/stm32h7xx_hal_tim.c **** /**
 382:Drivers/STM32H7xx_HAL_Driver/Src/stm32h7xx_hal_tim.c ****   * @brief  DeInitializes TIM Base MSP.
 383:Drivers/STM32H7xx_HAL_Driver/Src/stm32h7xx_hal_tim.c ****   * @param  htim TIM Base handle
 384:Drivers/STM32H7xx_HAL_Driver/Src/stm32h7xx_hal_tim.c ****   * @retval None
 385:Drivers/STM32H7xx_HAL_Driver/Src/stm32h7xx_hal_tim.c ****   */
 386:Drivers/STM32H7xx_HAL_Driver/Src/stm32h7xx_hal_tim.c **** __weak void HAL_TIM_Base_MspDeInit(TIM_HandleTypeDef *htim)
 387:Drivers/STM32H7xx_HAL_Driver/Src/stm32h7xx_hal_tim.c **** {
 302              		.loc 1 387 1
 303              		.cfi_startproc
 304              		@ args = 0, pretend = 0, frame = 8
ARM GAS  C:\Users\Su\AppData\Local\Temp\cc9h93iY.s 			page 13


 305              		@ frame_needed = 1, uses_anonymous_args = 0
 306              		@ link register save eliminated.
 307 0000 80B4     		push	{r7}
 308              	.LCFI16:
 309              		.cfi_def_cfa_offset 4
 310              		.cfi_offset 7, -4
 311 0002 83B0     		sub	sp, sp, #12
 312              	.LCFI17:
 313              		.cfi_def_cfa_offset 16
 314 0004 00AF     		add	r7, sp, #0
 315              	.LCFI18:
 316              		.cfi_def_cfa_register 7
 317 0006 7860     		str	r0, [r7, #4]
 388:Drivers/STM32H7xx_HAL_Driver/Src/stm32h7xx_hal_tim.c ****   /* Prevent unused argument(s) compilation warning */
 389:Drivers/STM32H7xx_HAL_Driver/Src/stm32h7xx_hal_tim.c ****   UNUSED(htim);
 390:Drivers/STM32H7xx_HAL_Driver/Src/stm32h7xx_hal_tim.c **** 
 391:Drivers/STM32H7xx_HAL_Driver/Src/stm32h7xx_hal_tim.c ****   /* NOTE : This function should not be modified, when the callback is needed,
 392:Drivers/STM32H7xx_HAL_Driver/Src/stm32h7xx_hal_tim.c ****             the HAL_TIM_Base_MspDeInit could be implemented in the user file
 393:Drivers/STM32H7xx_HAL_Driver/Src/stm32h7xx_hal_tim.c ****    */
 394:Drivers/STM32H7xx_HAL_Driver/Src/stm32h7xx_hal_tim.c **** }
 318              		.loc 1 394 1
 319 0008 00BF     		nop
 320 000a 0C37     		adds	r7, r7, #12
 321              	.LCFI19:
 322              		.cfi_def_cfa_offset 4
 323 000c BD46     		mov	sp, r7
 324              	.LCFI20:
 325              		.cfi_def_cfa_register 13
 326              		@ sp needed
 327 000e 5DF8047B 		ldr	r7, [sp], #4
 328              	.LCFI21:
 329              		.cfi_restore 7
 330              		.cfi_def_cfa_offset 0
 331 0012 7047     		bx	lr
 332              		.cfi_endproc
 333              	.LFE147:
 335              		.section	.text.HAL_TIM_Base_Start,"ax",%progbits
 336              		.align	1
 337              		.global	HAL_TIM_Base_Start
 338              		.syntax unified
 339              		.thumb
 340              		.thumb_func
 342              	HAL_TIM_Base_Start:
 343              	.LFB148:
 395:Drivers/STM32H7xx_HAL_Driver/Src/stm32h7xx_hal_tim.c **** 
 396:Drivers/STM32H7xx_HAL_Driver/Src/stm32h7xx_hal_tim.c **** 
 397:Drivers/STM32H7xx_HAL_Driver/Src/stm32h7xx_hal_tim.c **** /**
 398:Drivers/STM32H7xx_HAL_Driver/Src/stm32h7xx_hal_tim.c ****   * @brief  Starts the TIM Base generation.
 399:Drivers/STM32H7xx_HAL_Driver/Src/stm32h7xx_hal_tim.c ****   * @param  htim TIM Base handle
 400:Drivers/STM32H7xx_HAL_Driver/Src/stm32h7xx_hal_tim.c ****   * @retval HAL status
 401:Drivers/STM32H7xx_HAL_Driver/Src/stm32h7xx_hal_tim.c ****   */
 402:Drivers/STM32H7xx_HAL_Driver/Src/stm32h7xx_hal_tim.c **** HAL_StatusTypeDef HAL_TIM_Base_Start(TIM_HandleTypeDef *htim)
 403:Drivers/STM32H7xx_HAL_Driver/Src/stm32h7xx_hal_tim.c **** {
 344              		.loc 1 403 1
 345              		.cfi_startproc
 346              		@ args = 0, pretend = 0, frame = 16
 347              		@ frame_needed = 1, uses_anonymous_args = 0
ARM GAS  C:\Users\Su\AppData\Local\Temp\cc9h93iY.s 			page 14


 348              		@ link register save eliminated.
 349 0000 80B4     		push	{r7}
 350              	.LCFI22:
 351              		.cfi_def_cfa_offset 4
 352              		.cfi_offset 7, -4
 353 0002 85B0     		sub	sp, sp, #20
 354              	.LCFI23:
 355              		.cfi_def_cfa_offset 24
 356 0004 00AF     		add	r7, sp, #0
 357              	.LCFI24:
 358              		.cfi_def_cfa_register 7
 359 0006 7860     		str	r0, [r7, #4]
 404:Drivers/STM32H7xx_HAL_Driver/Src/stm32h7xx_hal_tim.c ****   uint32_t tmpsmcr;
 405:Drivers/STM32H7xx_HAL_Driver/Src/stm32h7xx_hal_tim.c **** 
 406:Drivers/STM32H7xx_HAL_Driver/Src/stm32h7xx_hal_tim.c ****   /* Check the parameters */
 407:Drivers/STM32H7xx_HAL_Driver/Src/stm32h7xx_hal_tim.c ****   assert_param(IS_TIM_INSTANCE(htim->Instance));
 408:Drivers/STM32H7xx_HAL_Driver/Src/stm32h7xx_hal_tim.c **** 
 409:Drivers/STM32H7xx_HAL_Driver/Src/stm32h7xx_hal_tim.c ****   /* Check the TIM state */
 410:Drivers/STM32H7xx_HAL_Driver/Src/stm32h7xx_hal_tim.c ****   if (htim->State != HAL_TIM_STATE_READY)
 360              		.loc 1 410 11
 361 0008 7B68     		ldr	r3, [r7, #4]
 362 000a 93F83D30 		ldrb	r3, [r3, #61]
 363 000e DBB2     		uxtb	r3, r3
 364              		.loc 1 410 6
 365 0010 012B     		cmp	r3, #1
 366 0012 01D0     		beq	.L11
 411:Drivers/STM32H7xx_HAL_Driver/Src/stm32h7xx_hal_tim.c ****   {
 412:Drivers/STM32H7xx_HAL_Driver/Src/stm32h7xx_hal_tim.c ****     return HAL_ERROR;
 367              		.loc 1 412 12
 368 0014 0123     		movs	r3, #1
 369 0016 56E0     		b	.L12
 370              	.L11:
 413:Drivers/STM32H7xx_HAL_Driver/Src/stm32h7xx_hal_tim.c ****   }
 414:Drivers/STM32H7xx_HAL_Driver/Src/stm32h7xx_hal_tim.c **** 
 415:Drivers/STM32H7xx_HAL_Driver/Src/stm32h7xx_hal_tim.c ****   /* Set the TIM state */
 416:Drivers/STM32H7xx_HAL_Driver/Src/stm32h7xx_hal_tim.c ****   htim->State = HAL_TIM_STATE_BUSY;
 371              		.loc 1 416 15
 372 0018 7B68     		ldr	r3, [r7, #4]
 373 001a 0222     		movs	r2, #2
 374 001c 83F83D20 		strb	r2, [r3, #61]
 417:Drivers/STM32H7xx_HAL_Driver/Src/stm32h7xx_hal_tim.c **** 
 418:Drivers/STM32H7xx_HAL_Driver/Src/stm32h7xx_hal_tim.c ****   /* Enable the Peripheral, except in trigger mode where enable is automatically done with trigger 
 419:Drivers/STM32H7xx_HAL_Driver/Src/stm32h7xx_hal_tim.c ****   if (IS_TIM_SLAVE_INSTANCE(htim->Instance))
 375              		.loc 1 419 7
 376 0020 7B68     		ldr	r3, [r7, #4]
 377 0022 1B68     		ldr	r3, [r3]
 378              		.loc 1 419 6
 379 0024 2B4A     		ldr	r2, .L18
 380 0026 9342     		cmp	r3, r2
 381 0028 2CD0     		beq	.L13
 382              		.loc 1 419 7 discriminator 1
 383 002a 7B68     		ldr	r3, [r7, #4]
 384 002c 1B68     		ldr	r3, [r3]
 385 002e B3F1804F 		cmp	r3, #1073741824
 386 0032 27D0     		beq	.L13
 387              		.loc 1 419 7 is_stmt 0 discriminator 2
 388 0034 7B68     		ldr	r3, [r7, #4]
ARM GAS  C:\Users\Su\AppData\Local\Temp\cc9h93iY.s 			page 15


 389 0036 1B68     		ldr	r3, [r3]
 390 0038 274A     		ldr	r2, .L18+4
 391 003a 9342     		cmp	r3, r2
 392 003c 22D0     		beq	.L13
 393              		.loc 1 419 7 discriminator 3
 394 003e 7B68     		ldr	r3, [r7, #4]
 395 0040 1B68     		ldr	r3, [r3]
 396 0042 264A     		ldr	r2, .L18+8
 397 0044 9342     		cmp	r3, r2
 398 0046 1DD0     		beq	.L13
 399              		.loc 1 419 7 discriminator 4
 400 0048 7B68     		ldr	r3, [r7, #4]
 401 004a 1B68     		ldr	r3, [r3]
 402 004c 244A     		ldr	r2, .L18+12
 403 004e 9342     		cmp	r3, r2
 404 0050 18D0     		beq	.L13
 405              		.loc 1 419 7 discriminator 5
 406 0052 7B68     		ldr	r3, [r7, #4]
 407 0054 1B68     		ldr	r3, [r3]
 408 0056 234A     		ldr	r2, .L18+16
 409 0058 9342     		cmp	r3, r2
 410 005a 13D0     		beq	.L13
 411              		.loc 1 419 7 discriminator 6
 412 005c 7B68     		ldr	r3, [r7, #4]
 413 005e 1B68     		ldr	r3, [r3]
 414 0060 214A     		ldr	r2, .L18+20
 415 0062 9342     		cmp	r3, r2
 416 0064 0ED0     		beq	.L13
 417              		.loc 1 419 7 discriminator 7
 418 0066 7B68     		ldr	r3, [r7, #4]
 419 0068 1B68     		ldr	r3, [r3]
 420 006a 204A     		ldr	r2, .L18+24
 421 006c 9342     		cmp	r3, r2
 422 006e 09D0     		beq	.L13
 423              		.loc 1 419 7 discriminator 8
 424 0070 7B68     		ldr	r3, [r7, #4]
 425 0072 1B68     		ldr	r3, [r3]
 426 0074 1E4A     		ldr	r2, .L18+28
 427 0076 9342     		cmp	r3, r2
 428 0078 04D0     		beq	.L13
 429              		.loc 1 419 7 discriminator 9
 430 007a 7B68     		ldr	r3, [r7, #4]
 431 007c 1B68     		ldr	r3, [r3]
 432 007e 1D4A     		ldr	r2, .L18+32
 433 0080 9342     		cmp	r3, r2
 434 0082 15D1     		bne	.L14
 435              	.L13:
 420:Drivers/STM32H7xx_HAL_Driver/Src/stm32h7xx_hal_tim.c ****   {
 421:Drivers/STM32H7xx_HAL_Driver/Src/stm32h7xx_hal_tim.c ****     tmpsmcr = htim->Instance->SMCR & TIM_SMCR_SMS;
 436              		.loc 1 421 19 is_stmt 1
 437 0084 7B68     		ldr	r3, [r7, #4]
 438 0086 1B68     		ldr	r3, [r3]
 439              		.loc 1 421 29
 440 0088 9A68     		ldr	r2, [r3, #8]
 441              		.loc 1 421 13
 442 008a 1B4B     		ldr	r3, .L18+36
 443 008c 1340     		ands	r3, r3, r2
ARM GAS  C:\Users\Su\AppData\Local\Temp\cc9h93iY.s 			page 16


 444 008e FB60     		str	r3, [r7, #12]
 422:Drivers/STM32H7xx_HAL_Driver/Src/stm32h7xx_hal_tim.c ****     if (!IS_TIM_SLAVEMODE_TRIGGER_ENABLED(tmpsmcr))
 445              		.loc 1 422 8
 446 0090 FB68     		ldr	r3, [r7, #12]
 447 0092 062B     		cmp	r3, #6
 448 0094 15D0     		beq	.L17
 449              		.loc 1 422 9 discriminator 1
 450 0096 FB68     		ldr	r3, [r7, #12]
 451 0098 B3F5803F 		cmp	r3, #65536
 452 009c 11D0     		beq	.L17
 423:Drivers/STM32H7xx_HAL_Driver/Src/stm32h7xx_hal_tim.c ****     {
 424:Drivers/STM32H7xx_HAL_Driver/Src/stm32h7xx_hal_tim.c ****       __HAL_TIM_ENABLE(htim);
 453              		.loc 1 424 7
 454 009e 7B68     		ldr	r3, [r7, #4]
 455 00a0 1B68     		ldr	r3, [r3]
 456 00a2 1A68     		ldr	r2, [r3]
 457 00a4 7B68     		ldr	r3, [r7, #4]
 458 00a6 1B68     		ldr	r3, [r3]
 459 00a8 42F00102 		orr	r2, r2, #1
 460 00ac 1A60     		str	r2, [r3]
 422:Drivers/STM32H7xx_HAL_Driver/Src/stm32h7xx_hal_tim.c ****     if (!IS_TIM_SLAVEMODE_TRIGGER_ENABLED(tmpsmcr))
 461              		.loc 1 422 8
 462 00ae 08E0     		b	.L17
 463              	.L14:
 425:Drivers/STM32H7xx_HAL_Driver/Src/stm32h7xx_hal_tim.c ****     }
 426:Drivers/STM32H7xx_HAL_Driver/Src/stm32h7xx_hal_tim.c ****   }
 427:Drivers/STM32H7xx_HAL_Driver/Src/stm32h7xx_hal_tim.c ****   else
 428:Drivers/STM32H7xx_HAL_Driver/Src/stm32h7xx_hal_tim.c ****   {
 429:Drivers/STM32H7xx_HAL_Driver/Src/stm32h7xx_hal_tim.c ****     __HAL_TIM_ENABLE(htim);
 464              		.loc 1 429 5
 465 00b0 7B68     		ldr	r3, [r7, #4]
 466 00b2 1B68     		ldr	r3, [r3]
 467 00b4 1A68     		ldr	r2, [r3]
 468 00b6 7B68     		ldr	r3, [r7, #4]
 469 00b8 1B68     		ldr	r3, [r3]
 470 00ba 42F00102 		orr	r2, r2, #1
 471 00be 1A60     		str	r2, [r3]
 472 00c0 00E0     		b	.L16
 473              	.L17:
 422:Drivers/STM32H7xx_HAL_Driver/Src/stm32h7xx_hal_tim.c ****     {
 474              		.loc 1 422 8
 475 00c2 00BF     		nop
 476              	.L16:
 430:Drivers/STM32H7xx_HAL_Driver/Src/stm32h7xx_hal_tim.c ****   }
 431:Drivers/STM32H7xx_HAL_Driver/Src/stm32h7xx_hal_tim.c **** 
 432:Drivers/STM32H7xx_HAL_Driver/Src/stm32h7xx_hal_tim.c ****   /* Return function status */
 433:Drivers/STM32H7xx_HAL_Driver/Src/stm32h7xx_hal_tim.c ****   return HAL_OK;
 477              		.loc 1 433 10
 478 00c4 0023     		movs	r3, #0
 479              	.L12:
 434:Drivers/STM32H7xx_HAL_Driver/Src/stm32h7xx_hal_tim.c **** }
 480              		.loc 1 434 1
 481 00c6 1846     		mov	r0, r3
 482 00c8 1437     		adds	r7, r7, #20
 483              	.LCFI25:
 484              		.cfi_def_cfa_offset 4
 485 00ca BD46     		mov	sp, r7
ARM GAS  C:\Users\Su\AppData\Local\Temp\cc9h93iY.s 			page 17


 486              	.LCFI26:
 487              		.cfi_def_cfa_register 13
 488              		@ sp needed
 489 00cc 5DF8047B 		ldr	r7, [sp], #4
 490              	.LCFI27:
 491              		.cfi_restore 7
 492              		.cfi_def_cfa_offset 0
 493 00d0 7047     		bx	lr
 494              	.L19:
 495 00d2 00BF     		.align	2
 496              	.L18:
 497 00d4 00000140 		.word	1073807360
 498 00d8 00040040 		.word	1073742848
 499 00dc 00080040 		.word	1073743872
 500 00e0 000C0040 		.word	1073744896
 501 00e4 00040140 		.word	1073808384
 502 00e8 00180040 		.word	1073747968
 503 00ec 00400140 		.word	1073823744
 504 00f0 00E00040 		.word	1073799168
 505 00f4 00E40040 		.word	1073800192
 506 00f8 07000100 		.word	65543
 507              		.cfi_endproc
 508              	.LFE148:
 510              		.section	.text.HAL_TIM_Base_Stop,"ax",%progbits
 511              		.align	1
 512              		.global	HAL_TIM_Base_Stop
 513              		.syntax unified
 514              		.thumb
 515              		.thumb_func
 517              	HAL_TIM_Base_Stop:
 518              	.LFB149:
 435:Drivers/STM32H7xx_HAL_Driver/Src/stm32h7xx_hal_tim.c **** 
 436:Drivers/STM32H7xx_HAL_Driver/Src/stm32h7xx_hal_tim.c **** /**
 437:Drivers/STM32H7xx_HAL_Driver/Src/stm32h7xx_hal_tim.c ****   * @brief  Stops the TIM Base generation.
 438:Drivers/STM32H7xx_HAL_Driver/Src/stm32h7xx_hal_tim.c ****   * @param  htim TIM Base handle
 439:Drivers/STM32H7xx_HAL_Driver/Src/stm32h7xx_hal_tim.c ****   * @retval HAL status
 440:Drivers/STM32H7xx_HAL_Driver/Src/stm32h7xx_hal_tim.c ****   */
 441:Drivers/STM32H7xx_HAL_Driver/Src/stm32h7xx_hal_tim.c **** HAL_StatusTypeDef HAL_TIM_Base_Stop(TIM_HandleTypeDef *htim)
 442:Drivers/STM32H7xx_HAL_Driver/Src/stm32h7xx_hal_tim.c **** {
 519              		.loc 1 442 1
 520              		.cfi_startproc
 521              		@ args = 0, pretend = 0, frame = 8
 522              		@ frame_needed = 1, uses_anonymous_args = 0
 523              		@ link register save eliminated.
 524 0000 80B4     		push	{r7}
 525              	.LCFI28:
 526              		.cfi_def_cfa_offset 4
 527              		.cfi_offset 7, -4
 528 0002 83B0     		sub	sp, sp, #12
 529              	.LCFI29:
 530              		.cfi_def_cfa_offset 16
 531 0004 00AF     		add	r7, sp, #0
 532              	.LCFI30:
 533              		.cfi_def_cfa_register 7
 534 0006 7860     		str	r0, [r7, #4]
 443:Drivers/STM32H7xx_HAL_Driver/Src/stm32h7xx_hal_tim.c ****   /* Check the parameters */
 444:Drivers/STM32H7xx_HAL_Driver/Src/stm32h7xx_hal_tim.c ****   assert_param(IS_TIM_INSTANCE(htim->Instance));
ARM GAS  C:\Users\Su\AppData\Local\Temp\cc9h93iY.s 			page 18


 445:Drivers/STM32H7xx_HAL_Driver/Src/stm32h7xx_hal_tim.c **** 
 446:Drivers/STM32H7xx_HAL_Driver/Src/stm32h7xx_hal_tim.c ****   /* Disable the Peripheral */
 447:Drivers/STM32H7xx_HAL_Driver/Src/stm32h7xx_hal_tim.c ****   __HAL_TIM_DISABLE(htim);
 535              		.loc 1 447 3
 536 0008 7B68     		ldr	r3, [r7, #4]
 537 000a 1B68     		ldr	r3, [r3]
 538 000c 1A6A     		ldr	r2, [r3, #32]
 539 000e 41F21113 		movw	r3, #4369
 540 0012 1340     		ands	r3, r3, r2
 541 0014 002B     		cmp	r3, #0
 542 0016 0FD1     		bne	.L21
 543              		.loc 1 447 3 is_stmt 0 discriminator 1
 544 0018 7B68     		ldr	r3, [r7, #4]
 545 001a 1B68     		ldr	r3, [r3]
 546 001c 1A6A     		ldr	r2, [r3, #32]
 547 001e 40F24443 		movw	r3, #1092
 548 0022 1340     		ands	r3, r3, r2
 549 0024 002B     		cmp	r3, #0
 550 0026 07D1     		bne	.L21
 551              		.loc 1 447 3 discriminator 2
 552 0028 7B68     		ldr	r3, [r7, #4]
 553 002a 1B68     		ldr	r3, [r3]
 554 002c 1A68     		ldr	r2, [r3]
 555 002e 7B68     		ldr	r3, [r7, #4]
 556 0030 1B68     		ldr	r3, [r3]
 557 0032 22F00102 		bic	r2, r2, #1
 558 0036 1A60     		str	r2, [r3]
 559              	.L21:
 448:Drivers/STM32H7xx_HAL_Driver/Src/stm32h7xx_hal_tim.c **** 
 449:Drivers/STM32H7xx_HAL_Driver/Src/stm32h7xx_hal_tim.c ****   /* Set the TIM state */
 450:Drivers/STM32H7xx_HAL_Driver/Src/stm32h7xx_hal_tim.c ****   htim->State = HAL_TIM_STATE_READY;
 560              		.loc 1 450 15 is_stmt 1
 561 0038 7B68     		ldr	r3, [r7, #4]
 562 003a 0122     		movs	r2, #1
 563 003c 83F83D20 		strb	r2, [r3, #61]
 451:Drivers/STM32H7xx_HAL_Driver/Src/stm32h7xx_hal_tim.c **** 
 452:Drivers/STM32H7xx_HAL_Driver/Src/stm32h7xx_hal_tim.c ****   /* Return function status */
 453:Drivers/STM32H7xx_HAL_Driver/Src/stm32h7xx_hal_tim.c ****   return HAL_OK;
 564              		.loc 1 453 10
 565 0040 0023     		movs	r3, #0
 454:Drivers/STM32H7xx_HAL_Driver/Src/stm32h7xx_hal_tim.c **** }
 566              		.loc 1 454 1
 567 0042 1846     		mov	r0, r3
 568 0044 0C37     		adds	r7, r7, #12
 569              	.LCFI31:
 570              		.cfi_def_cfa_offset 4
 571 0046 BD46     		mov	sp, r7
 572              	.LCFI32:
 573              		.cfi_def_cfa_register 13
 574              		@ sp needed
 575 0048 5DF8047B 		ldr	r7, [sp], #4
 576              	.LCFI33:
 577              		.cfi_restore 7
 578              		.cfi_def_cfa_offset 0
 579 004c 7047     		bx	lr
 580              		.cfi_endproc
 581              	.LFE149:
ARM GAS  C:\Users\Su\AppData\Local\Temp\cc9h93iY.s 			page 19


 583              		.section	.text.HAL_TIM_Base_Start_IT,"ax",%progbits
 584              		.align	1
 585              		.global	HAL_TIM_Base_Start_IT
 586              		.syntax unified
 587              		.thumb
 588              		.thumb_func
 590              	HAL_TIM_Base_Start_IT:
 591              	.LFB150:
 455:Drivers/STM32H7xx_HAL_Driver/Src/stm32h7xx_hal_tim.c **** 
 456:Drivers/STM32H7xx_HAL_Driver/Src/stm32h7xx_hal_tim.c **** /**
 457:Drivers/STM32H7xx_HAL_Driver/Src/stm32h7xx_hal_tim.c ****   * @brief  Starts the TIM Base generation in interrupt mode.
 458:Drivers/STM32H7xx_HAL_Driver/Src/stm32h7xx_hal_tim.c ****   * @param  htim TIM Base handle
 459:Drivers/STM32H7xx_HAL_Driver/Src/stm32h7xx_hal_tim.c ****   * @retval HAL status
 460:Drivers/STM32H7xx_HAL_Driver/Src/stm32h7xx_hal_tim.c ****   */
 461:Drivers/STM32H7xx_HAL_Driver/Src/stm32h7xx_hal_tim.c **** HAL_StatusTypeDef HAL_TIM_Base_Start_IT(TIM_HandleTypeDef *htim)
 462:Drivers/STM32H7xx_HAL_Driver/Src/stm32h7xx_hal_tim.c **** {
 592              		.loc 1 462 1
 593              		.cfi_startproc
 594              		@ args = 0, pretend = 0, frame = 16
 595              		@ frame_needed = 1, uses_anonymous_args = 0
 596              		@ link register save eliminated.
 597 0000 80B4     		push	{r7}
 598              	.LCFI34:
 599              		.cfi_def_cfa_offset 4
 600              		.cfi_offset 7, -4
 601 0002 85B0     		sub	sp, sp, #20
 602              	.LCFI35:
 603              		.cfi_def_cfa_offset 24
 604 0004 00AF     		add	r7, sp, #0
 605              	.LCFI36:
 606              		.cfi_def_cfa_register 7
 607 0006 7860     		str	r0, [r7, #4]
 463:Drivers/STM32H7xx_HAL_Driver/Src/stm32h7xx_hal_tim.c ****   uint32_t tmpsmcr;
 464:Drivers/STM32H7xx_HAL_Driver/Src/stm32h7xx_hal_tim.c **** 
 465:Drivers/STM32H7xx_HAL_Driver/Src/stm32h7xx_hal_tim.c ****   /* Check the parameters */
 466:Drivers/STM32H7xx_HAL_Driver/Src/stm32h7xx_hal_tim.c ****   assert_param(IS_TIM_INSTANCE(htim->Instance));
 467:Drivers/STM32H7xx_HAL_Driver/Src/stm32h7xx_hal_tim.c **** 
 468:Drivers/STM32H7xx_HAL_Driver/Src/stm32h7xx_hal_tim.c ****   /* Check the TIM state */
 469:Drivers/STM32H7xx_HAL_Driver/Src/stm32h7xx_hal_tim.c ****   if (htim->State != HAL_TIM_STATE_READY)
 608              		.loc 1 469 11
 609 0008 7B68     		ldr	r3, [r7, #4]
 610 000a 93F83D30 		ldrb	r3, [r3, #61]
 611 000e DBB2     		uxtb	r3, r3
 612              		.loc 1 469 6
 613 0010 012B     		cmp	r3, #1
 614 0012 01D0     		beq	.L24
 470:Drivers/STM32H7xx_HAL_Driver/Src/stm32h7xx_hal_tim.c ****   {
 471:Drivers/STM32H7xx_HAL_Driver/Src/stm32h7xx_hal_tim.c ****     return HAL_ERROR;
 615              		.loc 1 471 12
 616 0014 0123     		movs	r3, #1
 617 0016 5EE0     		b	.L25
 618              	.L24:
 472:Drivers/STM32H7xx_HAL_Driver/Src/stm32h7xx_hal_tim.c ****   }
 473:Drivers/STM32H7xx_HAL_Driver/Src/stm32h7xx_hal_tim.c **** 
 474:Drivers/STM32H7xx_HAL_Driver/Src/stm32h7xx_hal_tim.c ****   /* Set the TIM state */
 475:Drivers/STM32H7xx_HAL_Driver/Src/stm32h7xx_hal_tim.c ****   htim->State = HAL_TIM_STATE_BUSY;
 619              		.loc 1 475 15
ARM GAS  C:\Users\Su\AppData\Local\Temp\cc9h93iY.s 			page 20


 620 0018 7B68     		ldr	r3, [r7, #4]
 621 001a 0222     		movs	r2, #2
 622 001c 83F83D20 		strb	r2, [r3, #61]
 476:Drivers/STM32H7xx_HAL_Driver/Src/stm32h7xx_hal_tim.c **** 
 477:Drivers/STM32H7xx_HAL_Driver/Src/stm32h7xx_hal_tim.c ****   /* Enable the TIM Update interrupt */
 478:Drivers/STM32H7xx_HAL_Driver/Src/stm32h7xx_hal_tim.c ****   __HAL_TIM_ENABLE_IT(htim, TIM_IT_UPDATE);
 623              		.loc 1 478 3
 624 0020 7B68     		ldr	r3, [r7, #4]
 625 0022 1B68     		ldr	r3, [r3]
 626 0024 DA68     		ldr	r2, [r3, #12]
 627 0026 7B68     		ldr	r3, [r7, #4]
 628 0028 1B68     		ldr	r3, [r3]
 629 002a 42F00102 		orr	r2, r2, #1
 630 002e DA60     		str	r2, [r3, #12]
 479:Drivers/STM32H7xx_HAL_Driver/Src/stm32h7xx_hal_tim.c **** 
 480:Drivers/STM32H7xx_HAL_Driver/Src/stm32h7xx_hal_tim.c ****   /* Enable the Peripheral, except in trigger mode where enable is automatically done with trigger 
 481:Drivers/STM32H7xx_HAL_Driver/Src/stm32h7xx_hal_tim.c ****   if (IS_TIM_SLAVE_INSTANCE(htim->Instance))
 631              		.loc 1 481 7
 632 0030 7B68     		ldr	r3, [r7, #4]
 633 0032 1B68     		ldr	r3, [r3]
 634              		.loc 1 481 6
 635 0034 2B4A     		ldr	r2, .L31
 636 0036 9342     		cmp	r3, r2
 637 0038 2CD0     		beq	.L26
 638              		.loc 1 481 7 discriminator 1
 639 003a 7B68     		ldr	r3, [r7, #4]
 640 003c 1B68     		ldr	r3, [r3]
 641 003e B3F1804F 		cmp	r3, #1073741824
 642 0042 27D0     		beq	.L26
 643              		.loc 1 481 7 is_stmt 0 discriminator 2
 644 0044 7B68     		ldr	r3, [r7, #4]
 645 0046 1B68     		ldr	r3, [r3]
 646 0048 274A     		ldr	r2, .L31+4
 647 004a 9342     		cmp	r3, r2
 648 004c 22D0     		beq	.L26
 649              		.loc 1 481 7 discriminator 3
 650 004e 7B68     		ldr	r3, [r7, #4]
 651 0050 1B68     		ldr	r3, [r3]
 652 0052 264A     		ldr	r2, .L31+8
 653 0054 9342     		cmp	r3, r2
 654 0056 1DD0     		beq	.L26
 655              		.loc 1 481 7 discriminator 4
 656 0058 7B68     		ldr	r3, [r7, #4]
 657 005a 1B68     		ldr	r3, [r3]
 658 005c 244A     		ldr	r2, .L31+12
 659 005e 9342     		cmp	r3, r2
 660 0060 18D0     		beq	.L26
 661              		.loc 1 481 7 discriminator 5
 662 0062 7B68     		ldr	r3, [r7, #4]
 663 0064 1B68     		ldr	r3, [r3]
 664 0066 234A     		ldr	r2, .L31+16
 665 0068 9342     		cmp	r3, r2
 666 006a 13D0     		beq	.L26
 667              		.loc 1 481 7 discriminator 6
 668 006c 7B68     		ldr	r3, [r7, #4]
 669 006e 1B68     		ldr	r3, [r3]
 670 0070 214A     		ldr	r2, .L31+20
ARM GAS  C:\Users\Su\AppData\Local\Temp\cc9h93iY.s 			page 21


 671 0072 9342     		cmp	r3, r2
 672 0074 0ED0     		beq	.L26
 673              		.loc 1 481 7 discriminator 7
 674 0076 7B68     		ldr	r3, [r7, #4]
 675 0078 1B68     		ldr	r3, [r3]
 676 007a 204A     		ldr	r2, .L31+24
 677 007c 9342     		cmp	r3, r2
 678 007e 09D0     		beq	.L26
 679              		.loc 1 481 7 discriminator 8
 680 0080 7B68     		ldr	r3, [r7, #4]
 681 0082 1B68     		ldr	r3, [r3]
 682 0084 1E4A     		ldr	r2, .L31+28
 683 0086 9342     		cmp	r3, r2
 684 0088 04D0     		beq	.L26
 685              		.loc 1 481 7 discriminator 9
 686 008a 7B68     		ldr	r3, [r7, #4]
 687 008c 1B68     		ldr	r3, [r3]
 688 008e 1D4A     		ldr	r2, .L31+32
 689 0090 9342     		cmp	r3, r2
 690 0092 15D1     		bne	.L27
 691              	.L26:
 482:Drivers/STM32H7xx_HAL_Driver/Src/stm32h7xx_hal_tim.c ****   {
 483:Drivers/STM32H7xx_HAL_Driver/Src/stm32h7xx_hal_tim.c ****     tmpsmcr = htim->Instance->SMCR & TIM_SMCR_SMS;
 692              		.loc 1 483 19 is_stmt 1
 693 0094 7B68     		ldr	r3, [r7, #4]
 694 0096 1B68     		ldr	r3, [r3]
 695              		.loc 1 483 29
 696 0098 9A68     		ldr	r2, [r3, #8]
 697              		.loc 1 483 13
 698 009a 1B4B     		ldr	r3, .L31+36
 699 009c 1340     		ands	r3, r3, r2
 700 009e FB60     		str	r3, [r7, #12]
 484:Drivers/STM32H7xx_HAL_Driver/Src/stm32h7xx_hal_tim.c ****     if (!IS_TIM_SLAVEMODE_TRIGGER_ENABLED(tmpsmcr))
 701              		.loc 1 484 8
 702 00a0 FB68     		ldr	r3, [r7, #12]
 703 00a2 062B     		cmp	r3, #6
 704 00a4 15D0     		beq	.L30
 705              		.loc 1 484 9 discriminator 1
 706 00a6 FB68     		ldr	r3, [r7, #12]
 707 00a8 B3F5803F 		cmp	r3, #65536
 708 00ac 11D0     		beq	.L30
 485:Drivers/STM32H7xx_HAL_Driver/Src/stm32h7xx_hal_tim.c ****     {
 486:Drivers/STM32H7xx_HAL_Driver/Src/stm32h7xx_hal_tim.c ****       __HAL_TIM_ENABLE(htim);
 709              		.loc 1 486 7
 710 00ae 7B68     		ldr	r3, [r7, #4]
 711 00b0 1B68     		ldr	r3, [r3]
 712 00b2 1A68     		ldr	r2, [r3]
 713 00b4 7B68     		ldr	r3, [r7, #4]
 714 00b6 1B68     		ldr	r3, [r3]
 715 00b8 42F00102 		orr	r2, r2, #1
 716 00bc 1A60     		str	r2, [r3]
 484:Drivers/STM32H7xx_HAL_Driver/Src/stm32h7xx_hal_tim.c ****     if (!IS_TIM_SLAVEMODE_TRIGGER_ENABLED(tmpsmcr))
 717              		.loc 1 484 8
 718 00be 08E0     		b	.L30
 719              	.L27:
 487:Drivers/STM32H7xx_HAL_Driver/Src/stm32h7xx_hal_tim.c ****     }
 488:Drivers/STM32H7xx_HAL_Driver/Src/stm32h7xx_hal_tim.c ****   }
ARM GAS  C:\Users\Su\AppData\Local\Temp\cc9h93iY.s 			page 22


 489:Drivers/STM32H7xx_HAL_Driver/Src/stm32h7xx_hal_tim.c ****   else
 490:Drivers/STM32H7xx_HAL_Driver/Src/stm32h7xx_hal_tim.c ****   {
 491:Drivers/STM32H7xx_HAL_Driver/Src/stm32h7xx_hal_tim.c ****     __HAL_TIM_ENABLE(htim);
 720              		.loc 1 491 5
 721 00c0 7B68     		ldr	r3, [r7, #4]
 722 00c2 1B68     		ldr	r3, [r3]
 723 00c4 1A68     		ldr	r2, [r3]
 724 00c6 7B68     		ldr	r3, [r7, #4]
 725 00c8 1B68     		ldr	r3, [r3]
 726 00ca 42F00102 		orr	r2, r2, #1
 727 00ce 1A60     		str	r2, [r3]
 728 00d0 00E0     		b	.L29
 729              	.L30:
 484:Drivers/STM32H7xx_HAL_Driver/Src/stm32h7xx_hal_tim.c ****     {
 730              		.loc 1 484 8
 731 00d2 00BF     		nop
 732              	.L29:
 492:Drivers/STM32H7xx_HAL_Driver/Src/stm32h7xx_hal_tim.c ****   }
 493:Drivers/STM32H7xx_HAL_Driver/Src/stm32h7xx_hal_tim.c **** 
 494:Drivers/STM32H7xx_HAL_Driver/Src/stm32h7xx_hal_tim.c ****   /* Return function status */
 495:Drivers/STM32H7xx_HAL_Driver/Src/stm32h7xx_hal_tim.c ****   return HAL_OK;
 733              		.loc 1 495 10
 734 00d4 0023     		movs	r3, #0
 735              	.L25:
 496:Drivers/STM32H7xx_HAL_Driver/Src/stm32h7xx_hal_tim.c **** }
 736              		.loc 1 496 1
 737 00d6 1846     		mov	r0, r3
 738 00d8 1437     		adds	r7, r7, #20
 739              	.LCFI37:
 740              		.cfi_def_cfa_offset 4
 741 00da BD46     		mov	sp, r7
 742              	.LCFI38:
 743              		.cfi_def_cfa_register 13
 744              		@ sp needed
 745 00dc 5DF8047B 		ldr	r7, [sp], #4
 746              	.LCFI39:
 747              		.cfi_restore 7
 748              		.cfi_def_cfa_offset 0
 749 00e0 7047     		bx	lr
 750              	.L32:
 751 00e2 00BF     		.align	2
 752              	.L31:
 753 00e4 00000140 		.word	1073807360
 754 00e8 00040040 		.word	1073742848
 755 00ec 00080040 		.word	1073743872
 756 00f0 000C0040 		.word	1073744896
 757 00f4 00040140 		.word	1073808384
 758 00f8 00180040 		.word	1073747968
 759 00fc 00400140 		.word	1073823744
 760 0100 00E00040 		.word	1073799168
 761 0104 00E40040 		.word	1073800192
 762 0108 07000100 		.word	65543
 763              		.cfi_endproc
 764              	.LFE150:
 766              		.section	.text.HAL_TIM_Base_Stop_IT,"ax",%progbits
 767              		.align	1
 768              		.global	HAL_TIM_Base_Stop_IT
ARM GAS  C:\Users\Su\AppData\Local\Temp\cc9h93iY.s 			page 23


 769              		.syntax unified
 770              		.thumb
 771              		.thumb_func
 773              	HAL_TIM_Base_Stop_IT:
 774              	.LFB151:
 497:Drivers/STM32H7xx_HAL_Driver/Src/stm32h7xx_hal_tim.c **** 
 498:Drivers/STM32H7xx_HAL_Driver/Src/stm32h7xx_hal_tim.c **** /**
 499:Drivers/STM32H7xx_HAL_Driver/Src/stm32h7xx_hal_tim.c ****   * @brief  Stops the TIM Base generation in interrupt mode.
 500:Drivers/STM32H7xx_HAL_Driver/Src/stm32h7xx_hal_tim.c ****   * @param  htim TIM Base handle
 501:Drivers/STM32H7xx_HAL_Driver/Src/stm32h7xx_hal_tim.c ****   * @retval HAL status
 502:Drivers/STM32H7xx_HAL_Driver/Src/stm32h7xx_hal_tim.c ****   */
 503:Drivers/STM32H7xx_HAL_Driver/Src/stm32h7xx_hal_tim.c **** HAL_StatusTypeDef HAL_TIM_Base_Stop_IT(TIM_HandleTypeDef *htim)
 504:Drivers/STM32H7xx_HAL_Driver/Src/stm32h7xx_hal_tim.c **** {
 775              		.loc 1 504 1
 776              		.cfi_startproc
 777              		@ args = 0, pretend = 0, frame = 8
 778              		@ frame_needed = 1, uses_anonymous_args = 0
 779              		@ link register save eliminated.
 780 0000 80B4     		push	{r7}
 781              	.LCFI40:
 782              		.cfi_def_cfa_offset 4
 783              		.cfi_offset 7, -4
 784 0002 83B0     		sub	sp, sp, #12
 785              	.LCFI41:
 786              		.cfi_def_cfa_offset 16
 787 0004 00AF     		add	r7, sp, #0
 788              	.LCFI42:
 789              		.cfi_def_cfa_register 7
 790 0006 7860     		str	r0, [r7, #4]
 505:Drivers/STM32H7xx_HAL_Driver/Src/stm32h7xx_hal_tim.c ****   /* Check the parameters */
 506:Drivers/STM32H7xx_HAL_Driver/Src/stm32h7xx_hal_tim.c ****   assert_param(IS_TIM_INSTANCE(htim->Instance));
 507:Drivers/STM32H7xx_HAL_Driver/Src/stm32h7xx_hal_tim.c **** 
 508:Drivers/STM32H7xx_HAL_Driver/Src/stm32h7xx_hal_tim.c ****   /* Disable the TIM Update interrupt */
 509:Drivers/STM32H7xx_HAL_Driver/Src/stm32h7xx_hal_tim.c ****   __HAL_TIM_DISABLE_IT(htim, TIM_IT_UPDATE);
 791              		.loc 1 509 3
 792 0008 7B68     		ldr	r3, [r7, #4]
 793 000a 1B68     		ldr	r3, [r3]
 794 000c DA68     		ldr	r2, [r3, #12]
 795 000e 7B68     		ldr	r3, [r7, #4]
 796 0010 1B68     		ldr	r3, [r3]
 797 0012 22F00102 		bic	r2, r2, #1
 798 0016 DA60     		str	r2, [r3, #12]
 510:Drivers/STM32H7xx_HAL_Driver/Src/stm32h7xx_hal_tim.c **** 
 511:Drivers/STM32H7xx_HAL_Driver/Src/stm32h7xx_hal_tim.c ****   /* Disable the Peripheral */
 512:Drivers/STM32H7xx_HAL_Driver/Src/stm32h7xx_hal_tim.c ****   __HAL_TIM_DISABLE(htim);
 799              		.loc 1 512 3
 800 0018 7B68     		ldr	r3, [r7, #4]
 801 001a 1B68     		ldr	r3, [r3]
 802 001c 1A6A     		ldr	r2, [r3, #32]
 803 001e 41F21113 		movw	r3, #4369
 804 0022 1340     		ands	r3, r3, r2
 805 0024 002B     		cmp	r3, #0
 806 0026 0FD1     		bne	.L34
 807              		.loc 1 512 3 is_stmt 0 discriminator 1
 808 0028 7B68     		ldr	r3, [r7, #4]
 809 002a 1B68     		ldr	r3, [r3]
 810 002c 1A6A     		ldr	r2, [r3, #32]
ARM GAS  C:\Users\Su\AppData\Local\Temp\cc9h93iY.s 			page 24


 811 002e 40F24443 		movw	r3, #1092
 812 0032 1340     		ands	r3, r3, r2
 813 0034 002B     		cmp	r3, #0
 814 0036 07D1     		bne	.L34
 815              		.loc 1 512 3 discriminator 2
 816 0038 7B68     		ldr	r3, [r7, #4]
 817 003a 1B68     		ldr	r3, [r3]
 818 003c 1A68     		ldr	r2, [r3]
 819 003e 7B68     		ldr	r3, [r7, #4]
 820 0040 1B68     		ldr	r3, [r3]
 821 0042 22F00102 		bic	r2, r2, #1
 822 0046 1A60     		str	r2, [r3]
 823              	.L34:
 513:Drivers/STM32H7xx_HAL_Driver/Src/stm32h7xx_hal_tim.c **** 
 514:Drivers/STM32H7xx_HAL_Driver/Src/stm32h7xx_hal_tim.c ****   /* Set the TIM state */
 515:Drivers/STM32H7xx_HAL_Driver/Src/stm32h7xx_hal_tim.c ****   htim->State = HAL_TIM_STATE_READY;
 824              		.loc 1 515 15 is_stmt 1
 825 0048 7B68     		ldr	r3, [r7, #4]
 826 004a 0122     		movs	r2, #1
 827 004c 83F83D20 		strb	r2, [r3, #61]
 516:Drivers/STM32H7xx_HAL_Driver/Src/stm32h7xx_hal_tim.c **** 
 517:Drivers/STM32H7xx_HAL_Driver/Src/stm32h7xx_hal_tim.c ****   /* Return function status */
 518:Drivers/STM32H7xx_HAL_Driver/Src/stm32h7xx_hal_tim.c ****   return HAL_OK;
 828              		.loc 1 518 10
 829 0050 0023     		movs	r3, #0
 519:Drivers/STM32H7xx_HAL_Driver/Src/stm32h7xx_hal_tim.c **** }
 830              		.loc 1 519 1
 831 0052 1846     		mov	r0, r3
 832 0054 0C37     		adds	r7, r7, #12
 833              	.LCFI43:
 834              		.cfi_def_cfa_offset 4
 835 0056 BD46     		mov	sp, r7
 836              	.LCFI44:
 837              		.cfi_def_cfa_register 13
 838              		@ sp needed
 839 0058 5DF8047B 		ldr	r7, [sp], #4
 840              	.LCFI45:
 841              		.cfi_restore 7
 842              		.cfi_def_cfa_offset 0
 843 005c 7047     		bx	lr
 844              		.cfi_endproc
 845              	.LFE151:
 847              		.section	.text.HAL_TIM_Base_Start_DMA,"ax",%progbits
 848              		.align	1
 849              		.global	HAL_TIM_Base_Start_DMA
 850              		.syntax unified
 851              		.thumb
 852              		.thumb_func
 854              	HAL_TIM_Base_Start_DMA:
 855              	.LFB152:
 520:Drivers/STM32H7xx_HAL_Driver/Src/stm32h7xx_hal_tim.c **** 
 521:Drivers/STM32H7xx_HAL_Driver/Src/stm32h7xx_hal_tim.c **** /**
 522:Drivers/STM32H7xx_HAL_Driver/Src/stm32h7xx_hal_tim.c ****   * @brief  Starts the TIM Base generation in DMA mode.
 523:Drivers/STM32H7xx_HAL_Driver/Src/stm32h7xx_hal_tim.c ****   * @param  htim TIM Base handle
 524:Drivers/STM32H7xx_HAL_Driver/Src/stm32h7xx_hal_tim.c ****   * @param  pData The source Buffer address.
 525:Drivers/STM32H7xx_HAL_Driver/Src/stm32h7xx_hal_tim.c ****   * @param  Length The length of data to be transferred from memory to peripheral.
 526:Drivers/STM32H7xx_HAL_Driver/Src/stm32h7xx_hal_tim.c ****   * @retval HAL status
ARM GAS  C:\Users\Su\AppData\Local\Temp\cc9h93iY.s 			page 25


 527:Drivers/STM32H7xx_HAL_Driver/Src/stm32h7xx_hal_tim.c ****   */
 528:Drivers/STM32H7xx_HAL_Driver/Src/stm32h7xx_hal_tim.c **** HAL_StatusTypeDef HAL_TIM_Base_Start_DMA(TIM_HandleTypeDef *htim, uint32_t *pData, uint16_t Length)
 529:Drivers/STM32H7xx_HAL_Driver/Src/stm32h7xx_hal_tim.c **** {
 856              		.loc 1 529 1
 857              		.cfi_startproc
 858              		@ args = 0, pretend = 0, frame = 24
 859              		@ frame_needed = 1, uses_anonymous_args = 0
 860 0000 80B5     		push	{r7, lr}
 861              	.LCFI46:
 862              		.cfi_def_cfa_offset 8
 863              		.cfi_offset 7, -8
 864              		.cfi_offset 14, -4
 865 0002 86B0     		sub	sp, sp, #24
 866              	.LCFI47:
 867              		.cfi_def_cfa_offset 32
 868 0004 00AF     		add	r7, sp, #0
 869              	.LCFI48:
 870              		.cfi_def_cfa_register 7
 871 0006 F860     		str	r0, [r7, #12]
 872 0008 B960     		str	r1, [r7, #8]
 873 000a 1346     		mov	r3, r2
 874 000c FB80     		strh	r3, [r7, #6]	@ movhi
 530:Drivers/STM32H7xx_HAL_Driver/Src/stm32h7xx_hal_tim.c ****   uint32_t tmpsmcr;
 531:Drivers/STM32H7xx_HAL_Driver/Src/stm32h7xx_hal_tim.c **** 
 532:Drivers/STM32H7xx_HAL_Driver/Src/stm32h7xx_hal_tim.c ****   /* Check the parameters */
 533:Drivers/STM32H7xx_HAL_Driver/Src/stm32h7xx_hal_tim.c ****   assert_param(IS_TIM_DMA_INSTANCE(htim->Instance));
 534:Drivers/STM32H7xx_HAL_Driver/Src/stm32h7xx_hal_tim.c **** 
 535:Drivers/STM32H7xx_HAL_Driver/Src/stm32h7xx_hal_tim.c ****   /* Set the TIM state */
 536:Drivers/STM32H7xx_HAL_Driver/Src/stm32h7xx_hal_tim.c ****   if (htim->State == HAL_TIM_STATE_BUSY)
 875              		.loc 1 536 11
 876 000e FB68     		ldr	r3, [r7, #12]
 877 0010 93F83D30 		ldrb	r3, [r3, #61]
 878 0014 DBB2     		uxtb	r3, r3
 879              		.loc 1 536 6
 880 0016 022B     		cmp	r3, #2
 881 0018 01D1     		bne	.L37
 537:Drivers/STM32H7xx_HAL_Driver/Src/stm32h7xx_hal_tim.c ****   {
 538:Drivers/STM32H7xx_HAL_Driver/Src/stm32h7xx_hal_tim.c ****     return HAL_BUSY;
 882              		.loc 1 538 12
 883 001a 0223     		movs	r3, #2
 884 001c 8AE0     		b	.L38
 885              	.L37:
 539:Drivers/STM32H7xx_HAL_Driver/Src/stm32h7xx_hal_tim.c ****   }
 540:Drivers/STM32H7xx_HAL_Driver/Src/stm32h7xx_hal_tim.c ****   else if (htim->State == HAL_TIM_STATE_READY)
 886              		.loc 1 540 16
 887 001e FB68     		ldr	r3, [r7, #12]
 888 0020 93F83D30 		ldrb	r3, [r3, #61]
 889 0024 DBB2     		uxtb	r3, r3
 890              		.loc 1 540 11
 891 0026 012B     		cmp	r3, #1
 892 0028 25D1     		bne	.L39
 541:Drivers/STM32H7xx_HAL_Driver/Src/stm32h7xx_hal_tim.c ****   {
 542:Drivers/STM32H7xx_HAL_Driver/Src/stm32h7xx_hal_tim.c ****     if ((pData == NULL) && (Length > 0U))
 893              		.loc 1 542 8
 894 002a BB68     		ldr	r3, [r7, #8]
 895 002c 002B     		cmp	r3, #0
 896 002e 04D1     		bne	.L40
ARM GAS  C:\Users\Su\AppData\Local\Temp\cc9h93iY.s 			page 26


 897              		.loc 1 542 25 discriminator 1
 898 0030 FB88     		ldrh	r3, [r7, #6]
 899 0032 002B     		cmp	r3, #0
 900 0034 01D0     		beq	.L40
 543:Drivers/STM32H7xx_HAL_Driver/Src/stm32h7xx_hal_tim.c ****     {
 544:Drivers/STM32H7xx_HAL_Driver/Src/stm32h7xx_hal_tim.c ****       return HAL_ERROR;
 901              		.loc 1 544 14
 902 0036 0123     		movs	r3, #1
 903 0038 7CE0     		b	.L38
 904              	.L40:
 545:Drivers/STM32H7xx_HAL_Driver/Src/stm32h7xx_hal_tim.c ****     }
 546:Drivers/STM32H7xx_HAL_Driver/Src/stm32h7xx_hal_tim.c ****     else
 547:Drivers/STM32H7xx_HAL_Driver/Src/stm32h7xx_hal_tim.c ****     {
 548:Drivers/STM32H7xx_HAL_Driver/Src/stm32h7xx_hal_tim.c ****       htim->State = HAL_TIM_STATE_BUSY;
 905              		.loc 1 548 19
 906 003a FB68     		ldr	r3, [r7, #12]
 907 003c 0222     		movs	r2, #2
 908 003e 83F83D20 		strb	r2, [r3, #61]
 549:Drivers/STM32H7xx_HAL_Driver/Src/stm32h7xx_hal_tim.c ****     }
 550:Drivers/STM32H7xx_HAL_Driver/Src/stm32h7xx_hal_tim.c ****   }
 551:Drivers/STM32H7xx_HAL_Driver/Src/stm32h7xx_hal_tim.c ****   else
 552:Drivers/STM32H7xx_HAL_Driver/Src/stm32h7xx_hal_tim.c ****   {
 553:Drivers/STM32H7xx_HAL_Driver/Src/stm32h7xx_hal_tim.c ****     return HAL_ERROR;
 554:Drivers/STM32H7xx_HAL_Driver/Src/stm32h7xx_hal_tim.c ****   }
 555:Drivers/STM32H7xx_HAL_Driver/Src/stm32h7xx_hal_tim.c **** 
 556:Drivers/STM32H7xx_HAL_Driver/Src/stm32h7xx_hal_tim.c ****   /* Set the DMA Period elapsed callbacks */
 557:Drivers/STM32H7xx_HAL_Driver/Src/stm32h7xx_hal_tim.c ****   htim->hdma[TIM_DMA_ID_UPDATE]->XferCpltCallback = TIM_DMAPeriodElapsedCplt;
 909              		.loc 1 557 13
 910 0042 FB68     		ldr	r3, [r7, #12]
 911 0044 1B6A     		ldr	r3, [r3, #32]
 912              		.loc 1 557 51
 913 0046 3D4A     		ldr	r2, .L49
 914 0048 DA63     		str	r2, [r3, #60]
 558:Drivers/STM32H7xx_HAL_Driver/Src/stm32h7xx_hal_tim.c ****   htim->hdma[TIM_DMA_ID_UPDATE]->XferHalfCpltCallback = TIM_DMAPeriodElapsedHalfCplt;
 915              		.loc 1 558 13
 916 004a FB68     		ldr	r3, [r7, #12]
 917 004c 1B6A     		ldr	r3, [r3, #32]
 918              		.loc 1 558 55
 919 004e 3C4A     		ldr	r2, .L49+4
 920 0050 1A64     		str	r2, [r3, #64]
 559:Drivers/STM32H7xx_HAL_Driver/Src/stm32h7xx_hal_tim.c **** 
 560:Drivers/STM32H7xx_HAL_Driver/Src/stm32h7xx_hal_tim.c ****   /* Set the DMA error callback */
 561:Drivers/STM32H7xx_HAL_Driver/Src/stm32h7xx_hal_tim.c ****   htim->hdma[TIM_DMA_ID_UPDATE]->XferErrorCallback = TIM_DMAError ;
 921              		.loc 1 561 13
 922 0052 FB68     		ldr	r3, [r7, #12]
 923 0054 1B6A     		ldr	r3, [r3, #32]
 924              		.loc 1 561 52
 925 0056 3B4A     		ldr	r2, .L49+8
 926 0058 DA64     		str	r2, [r3, #76]
 562:Drivers/STM32H7xx_HAL_Driver/Src/stm32h7xx_hal_tim.c **** 
 563:Drivers/STM32H7xx_HAL_Driver/Src/stm32h7xx_hal_tim.c ****   /* Enable the DMA stream */
 564:Drivers/STM32H7xx_HAL_Driver/Src/stm32h7xx_hal_tim.c ****   if (HAL_DMA_Start_IT(htim->hdma[TIM_DMA_ID_UPDATE], (uint32_t)pData, (uint32_t)&htim->Instance->A
 927              		.loc 1 564 7
 928 005a FB68     		ldr	r3, [r7, #12]
 929 005c 186A     		ldr	r0, [r3, #32]
 930 005e B968     		ldr	r1, [r7, #8]
 931              		.loc 1 564 87
ARM GAS  C:\Users\Su\AppData\Local\Temp\cc9h93iY.s 			page 27


 932 0060 FB68     		ldr	r3, [r7, #12]
 933 0062 1B68     		ldr	r3, [r3]
 934              		.loc 1 564 82
 935 0064 2C33     		adds	r3, r3, #44
 936              		.loc 1 564 7
 937 0066 1A46     		mov	r2, r3
 938 0068 FB88     		ldrh	r3, [r7, #6]
 939 006a FFF7FEFF 		bl	HAL_DMA_Start_IT
 940 006e 0346     		mov	r3, r0
 941              		.loc 1 564 6
 942 0070 002B     		cmp	r3, #0
 943 0072 04D0     		beq	.L42
 944 0074 01E0     		b	.L47
 945              	.L39:
 553:Drivers/STM32H7xx_HAL_Driver/Src/stm32h7xx_hal_tim.c ****   }
 946              		.loc 1 553 12
 947 0076 0123     		movs	r3, #1
 948 0078 5CE0     		b	.L38
 949              	.L47:
 565:Drivers/STM32H7xx_HAL_Driver/Src/stm32h7xx_hal_tim.c ****                        Length) != HAL_OK)
 566:Drivers/STM32H7xx_HAL_Driver/Src/stm32h7xx_hal_tim.c ****   {
 567:Drivers/STM32H7xx_HAL_Driver/Src/stm32h7xx_hal_tim.c ****     /* Return error status */
 568:Drivers/STM32H7xx_HAL_Driver/Src/stm32h7xx_hal_tim.c ****     return HAL_ERROR;
 950              		.loc 1 568 12
 951 007a 0123     		movs	r3, #1
 952 007c 5AE0     		b	.L38
 953              	.L42:
 569:Drivers/STM32H7xx_HAL_Driver/Src/stm32h7xx_hal_tim.c ****   }
 570:Drivers/STM32H7xx_HAL_Driver/Src/stm32h7xx_hal_tim.c **** 
 571:Drivers/STM32H7xx_HAL_Driver/Src/stm32h7xx_hal_tim.c ****   /* Enable the TIM Update DMA request */
 572:Drivers/STM32H7xx_HAL_Driver/Src/stm32h7xx_hal_tim.c ****   __HAL_TIM_ENABLE_DMA(htim, TIM_DMA_UPDATE);
 954              		.loc 1 572 3
 955 007e FB68     		ldr	r3, [r7, #12]
 956 0080 1B68     		ldr	r3, [r3]
 957 0082 DA68     		ldr	r2, [r3, #12]
 958 0084 FB68     		ldr	r3, [r7, #12]
 959 0086 1B68     		ldr	r3, [r3]
 960 0088 42F48072 		orr	r2, r2, #256
 961 008c DA60     		str	r2, [r3, #12]
 573:Drivers/STM32H7xx_HAL_Driver/Src/stm32h7xx_hal_tim.c **** 
 574:Drivers/STM32H7xx_HAL_Driver/Src/stm32h7xx_hal_tim.c ****   /* Enable the Peripheral, except in trigger mode where enable is automatically done with trigger 
 575:Drivers/STM32H7xx_HAL_Driver/Src/stm32h7xx_hal_tim.c ****   if (IS_TIM_SLAVE_INSTANCE(htim->Instance))
 962              		.loc 1 575 7
 963 008e FB68     		ldr	r3, [r7, #12]
 964 0090 1B68     		ldr	r3, [r3]
 965              		.loc 1 575 6
 966 0092 2D4A     		ldr	r2, .L49+12
 967 0094 9342     		cmp	r3, r2
 968 0096 2CD0     		beq	.L43
 969              		.loc 1 575 7 discriminator 1
 970 0098 FB68     		ldr	r3, [r7, #12]
 971 009a 1B68     		ldr	r3, [r3]
 972 009c B3F1804F 		cmp	r3, #1073741824
 973 00a0 27D0     		beq	.L43
 974              		.loc 1 575 7 is_stmt 0 discriminator 2
 975 00a2 FB68     		ldr	r3, [r7, #12]
 976 00a4 1B68     		ldr	r3, [r3]
ARM GAS  C:\Users\Su\AppData\Local\Temp\cc9h93iY.s 			page 28


 977 00a6 294A     		ldr	r2, .L49+16
 978 00a8 9342     		cmp	r3, r2
 979 00aa 22D0     		beq	.L43
 980              		.loc 1 575 7 discriminator 3
 981 00ac FB68     		ldr	r3, [r7, #12]
 982 00ae 1B68     		ldr	r3, [r3]
 983 00b0 274A     		ldr	r2, .L49+20
 984 00b2 9342     		cmp	r3, r2
 985 00b4 1DD0     		beq	.L43
 986              		.loc 1 575 7 discriminator 4
 987 00b6 FB68     		ldr	r3, [r7, #12]
 988 00b8 1B68     		ldr	r3, [r3]
 989 00ba 264A     		ldr	r2, .L49+24
 990 00bc 9342     		cmp	r3, r2
 991 00be 18D0     		beq	.L43
 992              		.loc 1 575 7 discriminator 5
 993 00c0 FB68     		ldr	r3, [r7, #12]
 994 00c2 1B68     		ldr	r3, [r3]
 995 00c4 244A     		ldr	r2, .L49+28
 996 00c6 9342     		cmp	r3, r2
 997 00c8 13D0     		beq	.L43
 998              		.loc 1 575 7 discriminator 6
 999 00ca FB68     		ldr	r3, [r7, #12]
 1000 00cc 1B68     		ldr	r3, [r3]
 1001 00ce 234A     		ldr	r2, .L49+32
 1002 00d0 9342     		cmp	r3, r2
 1003 00d2 0ED0     		beq	.L43
 1004              		.loc 1 575 7 discriminator 7
 1005 00d4 FB68     		ldr	r3, [r7, #12]
 1006 00d6 1B68     		ldr	r3, [r3]
 1007 00d8 214A     		ldr	r2, .L49+36
 1008 00da 9342     		cmp	r3, r2
 1009 00dc 09D0     		beq	.L43
 1010              		.loc 1 575 7 discriminator 8
 1011 00de FB68     		ldr	r3, [r7, #12]
 1012 00e0 1B68     		ldr	r3, [r3]
 1013 00e2 204A     		ldr	r2, .L49+40
 1014 00e4 9342     		cmp	r3, r2
 1015 00e6 04D0     		beq	.L43
 1016              		.loc 1 575 7 discriminator 9
 1017 00e8 FB68     		ldr	r3, [r7, #12]
 1018 00ea 1B68     		ldr	r3, [r3]
 1019 00ec 1E4A     		ldr	r2, .L49+44
 1020 00ee 9342     		cmp	r3, r2
 1021 00f0 15D1     		bne	.L44
 1022              	.L43:
 576:Drivers/STM32H7xx_HAL_Driver/Src/stm32h7xx_hal_tim.c ****   {
 577:Drivers/STM32H7xx_HAL_Driver/Src/stm32h7xx_hal_tim.c ****     tmpsmcr = htim->Instance->SMCR & TIM_SMCR_SMS;
 1023              		.loc 1 577 19 is_stmt 1
 1024 00f2 FB68     		ldr	r3, [r7, #12]
 1025 00f4 1B68     		ldr	r3, [r3]
 1026              		.loc 1 577 29
 1027 00f6 9A68     		ldr	r2, [r3, #8]
 1028              		.loc 1 577 13
 1029 00f8 1C4B     		ldr	r3, .L49+48
 1030 00fa 1340     		ands	r3, r3, r2
 1031 00fc 7B61     		str	r3, [r7, #20]
ARM GAS  C:\Users\Su\AppData\Local\Temp\cc9h93iY.s 			page 29


 578:Drivers/STM32H7xx_HAL_Driver/Src/stm32h7xx_hal_tim.c ****     if (!IS_TIM_SLAVEMODE_TRIGGER_ENABLED(tmpsmcr))
 1032              		.loc 1 578 8
 1033 00fe 7B69     		ldr	r3, [r7, #20]
 1034 0100 062B     		cmp	r3, #6
 1035 0102 15D0     		beq	.L48
 1036              		.loc 1 578 9 discriminator 1
 1037 0104 7B69     		ldr	r3, [r7, #20]
 1038 0106 B3F5803F 		cmp	r3, #65536
 1039 010a 11D0     		beq	.L48
 579:Drivers/STM32H7xx_HAL_Driver/Src/stm32h7xx_hal_tim.c ****     {
 580:Drivers/STM32H7xx_HAL_Driver/Src/stm32h7xx_hal_tim.c ****       __HAL_TIM_ENABLE(htim);
 1040              		.loc 1 580 7
 1041 010c FB68     		ldr	r3, [r7, #12]
 1042 010e 1B68     		ldr	r3, [r3]
 1043 0110 1A68     		ldr	r2, [r3]
 1044 0112 FB68     		ldr	r3, [r7, #12]
 1045 0114 1B68     		ldr	r3, [r3]
 1046 0116 42F00102 		orr	r2, r2, #1
 1047 011a 1A60     		str	r2, [r3]
 578:Drivers/STM32H7xx_HAL_Driver/Src/stm32h7xx_hal_tim.c ****     if (!IS_TIM_SLAVEMODE_TRIGGER_ENABLED(tmpsmcr))
 1048              		.loc 1 578 8
 1049 011c 08E0     		b	.L48
 1050              	.L44:
 581:Drivers/STM32H7xx_HAL_Driver/Src/stm32h7xx_hal_tim.c ****     }
 582:Drivers/STM32H7xx_HAL_Driver/Src/stm32h7xx_hal_tim.c ****   }
 583:Drivers/STM32H7xx_HAL_Driver/Src/stm32h7xx_hal_tim.c ****   else
 584:Drivers/STM32H7xx_HAL_Driver/Src/stm32h7xx_hal_tim.c ****   {
 585:Drivers/STM32H7xx_HAL_Driver/Src/stm32h7xx_hal_tim.c ****     __HAL_TIM_ENABLE(htim);
 1051              		.loc 1 585 5
 1052 011e FB68     		ldr	r3, [r7, #12]
 1053 0120 1B68     		ldr	r3, [r3]
 1054 0122 1A68     		ldr	r2, [r3]
 1055 0124 FB68     		ldr	r3, [r7, #12]
 1056 0126 1B68     		ldr	r3, [r3]
 1057 0128 42F00102 		orr	r2, r2, #1
 1058 012c 1A60     		str	r2, [r3]
 1059 012e 00E0     		b	.L46
 1060              	.L48:
 578:Drivers/STM32H7xx_HAL_Driver/Src/stm32h7xx_hal_tim.c ****     {
 1061              		.loc 1 578 8
 1062 0130 00BF     		nop
 1063              	.L46:
 586:Drivers/STM32H7xx_HAL_Driver/Src/stm32h7xx_hal_tim.c ****   }
 587:Drivers/STM32H7xx_HAL_Driver/Src/stm32h7xx_hal_tim.c **** 
 588:Drivers/STM32H7xx_HAL_Driver/Src/stm32h7xx_hal_tim.c ****   /* Return function status */
 589:Drivers/STM32H7xx_HAL_Driver/Src/stm32h7xx_hal_tim.c ****   return HAL_OK;
 1064              		.loc 1 589 10
 1065 0132 0023     		movs	r3, #0
 1066              	.L38:
 590:Drivers/STM32H7xx_HAL_Driver/Src/stm32h7xx_hal_tim.c **** }
 1067              		.loc 1 590 1
 1068 0134 1846     		mov	r0, r3
 1069 0136 1837     		adds	r7, r7, #24
 1070              	.LCFI49:
 1071              		.cfi_def_cfa_offset 8
 1072 0138 BD46     		mov	sp, r7
 1073              	.LCFI50:
ARM GAS  C:\Users\Su\AppData\Local\Temp\cc9h93iY.s 			page 30


 1074              		.cfi_def_cfa_register 13
 1075              		@ sp needed
 1076 013a 80BD     		pop	{r7, pc}
 1077              	.L50:
 1078              		.align	2
 1079              	.L49:
 1080 013c 00000000 		.word	TIM_DMAPeriodElapsedCplt
 1081 0140 00000000 		.word	TIM_DMAPeriodElapsedHalfCplt
 1082 0144 00000000 		.word	TIM_DMAError
 1083 0148 00000140 		.word	1073807360
 1084 014c 00040040 		.word	1073742848
 1085 0150 00080040 		.word	1073743872
 1086 0154 000C0040 		.word	1073744896
 1087 0158 00040140 		.word	1073808384
 1088 015c 00180040 		.word	1073747968
 1089 0160 00400140 		.word	1073823744
 1090 0164 00E00040 		.word	1073799168
 1091 0168 00E40040 		.word	1073800192
 1092 016c 07000100 		.word	65543
 1093              		.cfi_endproc
 1094              	.LFE152:
 1096              		.section	.text.HAL_TIM_Base_Stop_DMA,"ax",%progbits
 1097              		.align	1
 1098              		.global	HAL_TIM_Base_Stop_DMA
 1099              		.syntax unified
 1100              		.thumb
 1101              		.thumb_func
 1103              	HAL_TIM_Base_Stop_DMA:
 1104              	.LFB153:
 591:Drivers/STM32H7xx_HAL_Driver/Src/stm32h7xx_hal_tim.c **** 
 592:Drivers/STM32H7xx_HAL_Driver/Src/stm32h7xx_hal_tim.c **** /**
 593:Drivers/STM32H7xx_HAL_Driver/Src/stm32h7xx_hal_tim.c ****   * @brief  Stops the TIM Base generation in DMA mode.
 594:Drivers/STM32H7xx_HAL_Driver/Src/stm32h7xx_hal_tim.c ****   * @param  htim TIM Base handle
 595:Drivers/STM32H7xx_HAL_Driver/Src/stm32h7xx_hal_tim.c ****   * @retval HAL status
 596:Drivers/STM32H7xx_HAL_Driver/Src/stm32h7xx_hal_tim.c ****   */
 597:Drivers/STM32H7xx_HAL_Driver/Src/stm32h7xx_hal_tim.c **** HAL_StatusTypeDef HAL_TIM_Base_Stop_DMA(TIM_HandleTypeDef *htim)
 598:Drivers/STM32H7xx_HAL_Driver/Src/stm32h7xx_hal_tim.c **** {
 1105              		.loc 1 598 1
 1106              		.cfi_startproc
 1107              		@ args = 0, pretend = 0, frame = 8
 1108              		@ frame_needed = 1, uses_anonymous_args = 0
 1109 0000 80B5     		push	{r7, lr}
 1110              	.LCFI51:
 1111              		.cfi_def_cfa_offset 8
 1112              		.cfi_offset 7, -8
 1113              		.cfi_offset 14, -4
 1114 0002 82B0     		sub	sp, sp, #8
 1115              	.LCFI52:
 1116              		.cfi_def_cfa_offset 16
 1117 0004 00AF     		add	r7, sp, #0
 1118              	.LCFI53:
 1119              		.cfi_def_cfa_register 7
 1120 0006 7860     		str	r0, [r7, #4]
 599:Drivers/STM32H7xx_HAL_Driver/Src/stm32h7xx_hal_tim.c ****   /* Check the parameters */
 600:Drivers/STM32H7xx_HAL_Driver/Src/stm32h7xx_hal_tim.c ****   assert_param(IS_TIM_DMA_INSTANCE(htim->Instance));
 601:Drivers/STM32H7xx_HAL_Driver/Src/stm32h7xx_hal_tim.c **** 
 602:Drivers/STM32H7xx_HAL_Driver/Src/stm32h7xx_hal_tim.c ****   /* Disable the TIM Update DMA request */
ARM GAS  C:\Users\Su\AppData\Local\Temp\cc9h93iY.s 			page 31


 603:Drivers/STM32H7xx_HAL_Driver/Src/stm32h7xx_hal_tim.c ****   __HAL_TIM_DISABLE_DMA(htim, TIM_DMA_UPDATE);
 1121              		.loc 1 603 3
 1122 0008 7B68     		ldr	r3, [r7, #4]
 1123 000a 1B68     		ldr	r3, [r3]
 1124 000c DA68     		ldr	r2, [r3, #12]
 1125 000e 7B68     		ldr	r3, [r7, #4]
 1126 0010 1B68     		ldr	r3, [r3]
 1127 0012 22F48072 		bic	r2, r2, #256
 1128 0016 DA60     		str	r2, [r3, #12]
 604:Drivers/STM32H7xx_HAL_Driver/Src/stm32h7xx_hal_tim.c **** 
 605:Drivers/STM32H7xx_HAL_Driver/Src/stm32h7xx_hal_tim.c ****   (void)HAL_DMA_Abort_IT(htim->hdma[TIM_DMA_ID_UPDATE]);
 1129              		.loc 1 605 9
 1130 0018 7B68     		ldr	r3, [r7, #4]
 1131 001a 1B6A     		ldr	r3, [r3, #32]
 1132 001c 1846     		mov	r0, r3
 1133 001e FFF7FEFF 		bl	HAL_DMA_Abort_IT
 606:Drivers/STM32H7xx_HAL_Driver/Src/stm32h7xx_hal_tim.c **** 
 607:Drivers/STM32H7xx_HAL_Driver/Src/stm32h7xx_hal_tim.c ****   /* Disable the Peripheral */
 608:Drivers/STM32H7xx_HAL_Driver/Src/stm32h7xx_hal_tim.c ****   __HAL_TIM_DISABLE(htim);
 1134              		.loc 1 608 3
 1135 0022 7B68     		ldr	r3, [r7, #4]
 1136 0024 1B68     		ldr	r3, [r3]
 1137 0026 1A6A     		ldr	r2, [r3, #32]
 1138 0028 41F21113 		movw	r3, #4369
 1139 002c 1340     		ands	r3, r3, r2
 1140 002e 002B     		cmp	r3, #0
 1141 0030 0FD1     		bne	.L52
 1142              		.loc 1 608 3 is_stmt 0 discriminator 1
 1143 0032 7B68     		ldr	r3, [r7, #4]
 1144 0034 1B68     		ldr	r3, [r3]
 1145 0036 1A6A     		ldr	r2, [r3, #32]
 1146 0038 40F24443 		movw	r3, #1092
 1147 003c 1340     		ands	r3, r3, r2
 1148 003e 002B     		cmp	r3, #0
 1149 0040 07D1     		bne	.L52
 1150              		.loc 1 608 3 discriminator 2
 1151 0042 7B68     		ldr	r3, [r7, #4]
 1152 0044 1B68     		ldr	r3, [r3]
 1153 0046 1A68     		ldr	r2, [r3]
 1154 0048 7B68     		ldr	r3, [r7, #4]
 1155 004a 1B68     		ldr	r3, [r3]
 1156 004c 22F00102 		bic	r2, r2, #1
 1157 0050 1A60     		str	r2, [r3]
 1158              	.L52:
 609:Drivers/STM32H7xx_HAL_Driver/Src/stm32h7xx_hal_tim.c **** 
 610:Drivers/STM32H7xx_HAL_Driver/Src/stm32h7xx_hal_tim.c ****   /* Set the TIM state */
 611:Drivers/STM32H7xx_HAL_Driver/Src/stm32h7xx_hal_tim.c ****   htim->State = HAL_TIM_STATE_READY;
 1159              		.loc 1 611 15 is_stmt 1
 1160 0052 7B68     		ldr	r3, [r7, #4]
 1161 0054 0122     		movs	r2, #1
 1162 0056 83F83D20 		strb	r2, [r3, #61]
 612:Drivers/STM32H7xx_HAL_Driver/Src/stm32h7xx_hal_tim.c **** 
 613:Drivers/STM32H7xx_HAL_Driver/Src/stm32h7xx_hal_tim.c ****   /* Return function status */
 614:Drivers/STM32H7xx_HAL_Driver/Src/stm32h7xx_hal_tim.c ****   return HAL_OK;
 1163              		.loc 1 614 10
 1164 005a 0023     		movs	r3, #0
 615:Drivers/STM32H7xx_HAL_Driver/Src/stm32h7xx_hal_tim.c **** }
ARM GAS  C:\Users\Su\AppData\Local\Temp\cc9h93iY.s 			page 32


 1165              		.loc 1 615 1
 1166 005c 1846     		mov	r0, r3
 1167 005e 0837     		adds	r7, r7, #8
 1168              	.LCFI54:
 1169              		.cfi_def_cfa_offset 8
 1170 0060 BD46     		mov	sp, r7
 1171              	.LCFI55:
 1172              		.cfi_def_cfa_register 13
 1173              		@ sp needed
 1174 0062 80BD     		pop	{r7, pc}
 1175              		.cfi_endproc
 1176              	.LFE153:
 1178              		.section	.text.HAL_TIM_OC_Init,"ax",%progbits
 1179              		.align	1
 1180              		.global	HAL_TIM_OC_Init
 1181              		.syntax unified
 1182              		.thumb
 1183              		.thumb_func
 1185              	HAL_TIM_OC_Init:
 1186              	.LFB154:
 616:Drivers/STM32H7xx_HAL_Driver/Src/stm32h7xx_hal_tim.c **** 
 617:Drivers/STM32H7xx_HAL_Driver/Src/stm32h7xx_hal_tim.c **** /**
 618:Drivers/STM32H7xx_HAL_Driver/Src/stm32h7xx_hal_tim.c ****   * @}
 619:Drivers/STM32H7xx_HAL_Driver/Src/stm32h7xx_hal_tim.c ****   */
 620:Drivers/STM32H7xx_HAL_Driver/Src/stm32h7xx_hal_tim.c **** 
 621:Drivers/STM32H7xx_HAL_Driver/Src/stm32h7xx_hal_tim.c **** /** @defgroup TIM_Exported_Functions_Group2 TIM Output Compare functions
 622:Drivers/STM32H7xx_HAL_Driver/Src/stm32h7xx_hal_tim.c ****   *  @brief    TIM Output Compare functions
 623:Drivers/STM32H7xx_HAL_Driver/Src/stm32h7xx_hal_tim.c ****   *
 624:Drivers/STM32H7xx_HAL_Driver/Src/stm32h7xx_hal_tim.c **** @verbatim
 625:Drivers/STM32H7xx_HAL_Driver/Src/stm32h7xx_hal_tim.c ****   ==============================================================================
 626:Drivers/STM32H7xx_HAL_Driver/Src/stm32h7xx_hal_tim.c ****                   ##### TIM Output Compare functions #####
 627:Drivers/STM32H7xx_HAL_Driver/Src/stm32h7xx_hal_tim.c ****   ==============================================================================
 628:Drivers/STM32H7xx_HAL_Driver/Src/stm32h7xx_hal_tim.c ****   [..]
 629:Drivers/STM32H7xx_HAL_Driver/Src/stm32h7xx_hal_tim.c ****     This section provides functions allowing to:
 630:Drivers/STM32H7xx_HAL_Driver/Src/stm32h7xx_hal_tim.c ****     (+) Initialize and configure the TIM Output Compare.
 631:Drivers/STM32H7xx_HAL_Driver/Src/stm32h7xx_hal_tim.c ****     (+) De-initialize the TIM Output Compare.
 632:Drivers/STM32H7xx_HAL_Driver/Src/stm32h7xx_hal_tim.c ****     (+) Start the TIM Output Compare.
 633:Drivers/STM32H7xx_HAL_Driver/Src/stm32h7xx_hal_tim.c ****     (+) Stop the TIM Output Compare.
 634:Drivers/STM32H7xx_HAL_Driver/Src/stm32h7xx_hal_tim.c ****     (+) Start the TIM Output Compare and enable interrupt.
 635:Drivers/STM32H7xx_HAL_Driver/Src/stm32h7xx_hal_tim.c ****     (+) Stop the TIM Output Compare and disable interrupt.
 636:Drivers/STM32H7xx_HAL_Driver/Src/stm32h7xx_hal_tim.c ****     (+) Start the TIM Output Compare and enable DMA transfer.
 637:Drivers/STM32H7xx_HAL_Driver/Src/stm32h7xx_hal_tim.c ****     (+) Stop the TIM Output Compare and disable DMA transfer.
 638:Drivers/STM32H7xx_HAL_Driver/Src/stm32h7xx_hal_tim.c **** 
 639:Drivers/STM32H7xx_HAL_Driver/Src/stm32h7xx_hal_tim.c **** @endverbatim
 640:Drivers/STM32H7xx_HAL_Driver/Src/stm32h7xx_hal_tim.c ****   * @{
 641:Drivers/STM32H7xx_HAL_Driver/Src/stm32h7xx_hal_tim.c ****   */
 642:Drivers/STM32H7xx_HAL_Driver/Src/stm32h7xx_hal_tim.c **** /**
 643:Drivers/STM32H7xx_HAL_Driver/Src/stm32h7xx_hal_tim.c ****   * @brief  Initializes the TIM Output Compare according to the specified
 644:Drivers/STM32H7xx_HAL_Driver/Src/stm32h7xx_hal_tim.c ****   *         parameters in the TIM_HandleTypeDef and initializes the associated handle.
 645:Drivers/STM32H7xx_HAL_Driver/Src/stm32h7xx_hal_tim.c ****   * @note   Switching from Center Aligned counter mode to Edge counter mode (or reverse)
 646:Drivers/STM32H7xx_HAL_Driver/Src/stm32h7xx_hal_tim.c ****   *         requires a timer reset to avoid unexpected direction
 647:Drivers/STM32H7xx_HAL_Driver/Src/stm32h7xx_hal_tim.c ****   *         due to DIR bit readonly in center aligned mode.
 648:Drivers/STM32H7xx_HAL_Driver/Src/stm32h7xx_hal_tim.c ****   *         Ex: call @ref HAL_TIM_OC_DeInit() before HAL_TIM_OC_Init()
 649:Drivers/STM32H7xx_HAL_Driver/Src/stm32h7xx_hal_tim.c ****   * @param  htim TIM Output Compare handle
 650:Drivers/STM32H7xx_HAL_Driver/Src/stm32h7xx_hal_tim.c ****   * @retval HAL status
 651:Drivers/STM32H7xx_HAL_Driver/Src/stm32h7xx_hal_tim.c ****   */
 652:Drivers/STM32H7xx_HAL_Driver/Src/stm32h7xx_hal_tim.c **** HAL_StatusTypeDef HAL_TIM_OC_Init(TIM_HandleTypeDef *htim)
ARM GAS  C:\Users\Su\AppData\Local\Temp\cc9h93iY.s 			page 33


 653:Drivers/STM32H7xx_HAL_Driver/Src/stm32h7xx_hal_tim.c **** {
 1187              		.loc 1 653 1
 1188              		.cfi_startproc
 1189              		@ args = 0, pretend = 0, frame = 8
 1190              		@ frame_needed = 1, uses_anonymous_args = 0
 1191 0000 80B5     		push	{r7, lr}
 1192              	.LCFI56:
 1193              		.cfi_def_cfa_offset 8
 1194              		.cfi_offset 7, -8
 1195              		.cfi_offset 14, -4
 1196 0002 82B0     		sub	sp, sp, #8
 1197              	.LCFI57:
 1198              		.cfi_def_cfa_offset 16
 1199 0004 00AF     		add	r7, sp, #0
 1200              	.LCFI58:
 1201              		.cfi_def_cfa_register 7
 1202 0006 7860     		str	r0, [r7, #4]
 654:Drivers/STM32H7xx_HAL_Driver/Src/stm32h7xx_hal_tim.c ****   /* Check the TIM handle allocation */
 655:Drivers/STM32H7xx_HAL_Driver/Src/stm32h7xx_hal_tim.c ****   if (htim == NULL)
 1203              		.loc 1 655 6
 1204 0008 7B68     		ldr	r3, [r7, #4]
 1205 000a 002B     		cmp	r3, #0
 1206 000c 01D1     		bne	.L55
 656:Drivers/STM32H7xx_HAL_Driver/Src/stm32h7xx_hal_tim.c ****   {
 657:Drivers/STM32H7xx_HAL_Driver/Src/stm32h7xx_hal_tim.c ****     return HAL_ERROR;
 1207              		.loc 1 657 12
 1208 000e 0123     		movs	r3, #1
 1209 0010 49E0     		b	.L56
 1210              	.L55:
 658:Drivers/STM32H7xx_HAL_Driver/Src/stm32h7xx_hal_tim.c ****   }
 659:Drivers/STM32H7xx_HAL_Driver/Src/stm32h7xx_hal_tim.c **** 
 660:Drivers/STM32H7xx_HAL_Driver/Src/stm32h7xx_hal_tim.c ****   /* Check the parameters */
 661:Drivers/STM32H7xx_HAL_Driver/Src/stm32h7xx_hal_tim.c ****   assert_param(IS_TIM_INSTANCE(htim->Instance));
 662:Drivers/STM32H7xx_HAL_Driver/Src/stm32h7xx_hal_tim.c ****   assert_param(IS_TIM_COUNTER_MODE(htim->Init.CounterMode));
 663:Drivers/STM32H7xx_HAL_Driver/Src/stm32h7xx_hal_tim.c ****   assert_param(IS_TIM_CLOCKDIVISION_DIV(htim->Init.ClockDivision));
 664:Drivers/STM32H7xx_HAL_Driver/Src/stm32h7xx_hal_tim.c ****   assert_param(IS_TIM_AUTORELOAD_PRELOAD(htim->Init.AutoReloadPreload));
 665:Drivers/STM32H7xx_HAL_Driver/Src/stm32h7xx_hal_tim.c **** 
 666:Drivers/STM32H7xx_HAL_Driver/Src/stm32h7xx_hal_tim.c ****   if (htim->State == HAL_TIM_STATE_RESET)
 1211              		.loc 1 666 11
 1212 0012 7B68     		ldr	r3, [r7, #4]
 1213 0014 93F83D30 		ldrb	r3, [r3, #61]
 1214 0018 DBB2     		uxtb	r3, r3
 1215              		.loc 1 666 6
 1216 001a 002B     		cmp	r3, #0
 1217 001c 06D1     		bne	.L57
 667:Drivers/STM32H7xx_HAL_Driver/Src/stm32h7xx_hal_tim.c ****   {
 668:Drivers/STM32H7xx_HAL_Driver/Src/stm32h7xx_hal_tim.c ****     /* Allocate lock resource and initialize it */
 669:Drivers/STM32H7xx_HAL_Driver/Src/stm32h7xx_hal_tim.c ****     htim->Lock = HAL_UNLOCKED;
 1218              		.loc 1 669 16
 1219 001e 7B68     		ldr	r3, [r7, #4]
 1220 0020 0022     		movs	r2, #0
 1221 0022 83F83C20 		strb	r2, [r3, #60]
 670:Drivers/STM32H7xx_HAL_Driver/Src/stm32h7xx_hal_tim.c **** 
 671:Drivers/STM32H7xx_HAL_Driver/Src/stm32h7xx_hal_tim.c **** #if (USE_HAL_TIM_REGISTER_CALLBACKS == 1)
 672:Drivers/STM32H7xx_HAL_Driver/Src/stm32h7xx_hal_tim.c ****     /* Reset interrupt callbacks to legacy weak callbacks */
 673:Drivers/STM32H7xx_HAL_Driver/Src/stm32h7xx_hal_tim.c ****     TIM_ResetCallback(htim);
 674:Drivers/STM32H7xx_HAL_Driver/Src/stm32h7xx_hal_tim.c **** 
ARM GAS  C:\Users\Su\AppData\Local\Temp\cc9h93iY.s 			page 34


 675:Drivers/STM32H7xx_HAL_Driver/Src/stm32h7xx_hal_tim.c ****     if (htim->OC_MspInitCallback == NULL)
 676:Drivers/STM32H7xx_HAL_Driver/Src/stm32h7xx_hal_tim.c ****     {
 677:Drivers/STM32H7xx_HAL_Driver/Src/stm32h7xx_hal_tim.c ****       htim->OC_MspInitCallback = HAL_TIM_OC_MspInit;
 678:Drivers/STM32H7xx_HAL_Driver/Src/stm32h7xx_hal_tim.c ****     }
 679:Drivers/STM32H7xx_HAL_Driver/Src/stm32h7xx_hal_tim.c ****     /* Init the low level hardware : GPIO, CLOCK, NVIC */
 680:Drivers/STM32H7xx_HAL_Driver/Src/stm32h7xx_hal_tim.c ****     htim->OC_MspInitCallback(htim);
 681:Drivers/STM32H7xx_HAL_Driver/Src/stm32h7xx_hal_tim.c **** #else
 682:Drivers/STM32H7xx_HAL_Driver/Src/stm32h7xx_hal_tim.c ****     /* Init the low level hardware : GPIO, CLOCK, NVIC and DMA */
 683:Drivers/STM32H7xx_HAL_Driver/Src/stm32h7xx_hal_tim.c ****     HAL_TIM_OC_MspInit(htim);
 1222              		.loc 1 683 5
 1223 0026 7868     		ldr	r0, [r7, #4]
 1224 0028 FFF7FEFF 		bl	HAL_TIM_OC_MspInit
 1225              	.L57:
 684:Drivers/STM32H7xx_HAL_Driver/Src/stm32h7xx_hal_tim.c **** #endif /* USE_HAL_TIM_REGISTER_CALLBACKS */
 685:Drivers/STM32H7xx_HAL_Driver/Src/stm32h7xx_hal_tim.c ****   }
 686:Drivers/STM32H7xx_HAL_Driver/Src/stm32h7xx_hal_tim.c **** 
 687:Drivers/STM32H7xx_HAL_Driver/Src/stm32h7xx_hal_tim.c ****   /* Set the TIM state */
 688:Drivers/STM32H7xx_HAL_Driver/Src/stm32h7xx_hal_tim.c ****   htim->State = HAL_TIM_STATE_BUSY;
 1226              		.loc 1 688 15
 1227 002c 7B68     		ldr	r3, [r7, #4]
 1228 002e 0222     		movs	r2, #2
 1229 0030 83F83D20 		strb	r2, [r3, #61]
 689:Drivers/STM32H7xx_HAL_Driver/Src/stm32h7xx_hal_tim.c **** 
 690:Drivers/STM32H7xx_HAL_Driver/Src/stm32h7xx_hal_tim.c ****   /* Init the base time for the Output Compare */
 691:Drivers/STM32H7xx_HAL_Driver/Src/stm32h7xx_hal_tim.c ****   TIM_Base_SetConfig(htim->Instance,  &htim->Init);
 1230              		.loc 1 691 3
 1231 0034 7B68     		ldr	r3, [r7, #4]
 1232 0036 1A68     		ldr	r2, [r3]
 1233 0038 7B68     		ldr	r3, [r7, #4]
 1234 003a 0433     		adds	r3, r3, #4
 1235 003c 1946     		mov	r1, r3
 1236 003e 1046     		mov	r0, r2
 1237 0040 FFF7FEFF 		bl	TIM_Base_SetConfig
 692:Drivers/STM32H7xx_HAL_Driver/Src/stm32h7xx_hal_tim.c **** 
 693:Drivers/STM32H7xx_HAL_Driver/Src/stm32h7xx_hal_tim.c ****   /* Initialize the DMA burst operation state */
 694:Drivers/STM32H7xx_HAL_Driver/Src/stm32h7xx_hal_tim.c ****   htim->DMABurstState = HAL_DMA_BURST_STATE_READY;
 1238              		.loc 1 694 23
 1239 0044 7B68     		ldr	r3, [r7, #4]
 1240 0046 0122     		movs	r2, #1
 1241 0048 83F84820 		strb	r2, [r3, #72]
 695:Drivers/STM32H7xx_HAL_Driver/Src/stm32h7xx_hal_tim.c **** 
 696:Drivers/STM32H7xx_HAL_Driver/Src/stm32h7xx_hal_tim.c ****   /* Initialize the TIM channels state */
 697:Drivers/STM32H7xx_HAL_Driver/Src/stm32h7xx_hal_tim.c ****   TIM_CHANNEL_STATE_SET_ALL(htim, HAL_TIM_CHANNEL_STATE_READY);
 1242              		.loc 1 697 3
 1243 004c 7B68     		ldr	r3, [r7, #4]
 1244 004e 0122     		movs	r2, #1
 1245 0050 83F83E20 		strb	r2, [r3, #62]
 1246 0054 7B68     		ldr	r3, [r7, #4]
 1247 0056 0122     		movs	r2, #1
 1248 0058 83F83F20 		strb	r2, [r3, #63]
 1249 005c 7B68     		ldr	r3, [r7, #4]
 1250 005e 0122     		movs	r2, #1
 1251 0060 83F84020 		strb	r2, [r3, #64]
 1252 0064 7B68     		ldr	r3, [r7, #4]
 1253 0066 0122     		movs	r2, #1
 1254 0068 83F84120 		strb	r2, [r3, #65]
 1255 006c 7B68     		ldr	r3, [r7, #4]
ARM GAS  C:\Users\Su\AppData\Local\Temp\cc9h93iY.s 			page 35


 1256 006e 0122     		movs	r2, #1
 1257 0070 83F84220 		strb	r2, [r3, #66]
 1258 0074 7B68     		ldr	r3, [r7, #4]
 1259 0076 0122     		movs	r2, #1
 1260 0078 83F84320 		strb	r2, [r3, #67]
 698:Drivers/STM32H7xx_HAL_Driver/Src/stm32h7xx_hal_tim.c ****   TIM_CHANNEL_N_STATE_SET_ALL(htim, HAL_TIM_CHANNEL_STATE_READY);
 1261              		.loc 1 698 3
 1262 007c 7B68     		ldr	r3, [r7, #4]
 1263 007e 0122     		movs	r2, #1
 1264 0080 83F84420 		strb	r2, [r3, #68]
 1265 0084 7B68     		ldr	r3, [r7, #4]
 1266 0086 0122     		movs	r2, #1
 1267 0088 83F84520 		strb	r2, [r3, #69]
 1268 008c 7B68     		ldr	r3, [r7, #4]
 1269 008e 0122     		movs	r2, #1
 1270 0090 83F84620 		strb	r2, [r3, #70]
 1271 0094 7B68     		ldr	r3, [r7, #4]
 1272 0096 0122     		movs	r2, #1
 1273 0098 83F84720 		strb	r2, [r3, #71]
 699:Drivers/STM32H7xx_HAL_Driver/Src/stm32h7xx_hal_tim.c **** 
 700:Drivers/STM32H7xx_HAL_Driver/Src/stm32h7xx_hal_tim.c ****   /* Initialize the TIM state*/
 701:Drivers/STM32H7xx_HAL_Driver/Src/stm32h7xx_hal_tim.c ****   htim->State = HAL_TIM_STATE_READY;
 1274              		.loc 1 701 15
 1275 009c 7B68     		ldr	r3, [r7, #4]
 1276 009e 0122     		movs	r2, #1
 1277 00a0 83F83D20 		strb	r2, [r3, #61]
 702:Drivers/STM32H7xx_HAL_Driver/Src/stm32h7xx_hal_tim.c **** 
 703:Drivers/STM32H7xx_HAL_Driver/Src/stm32h7xx_hal_tim.c ****   return HAL_OK;
 1278              		.loc 1 703 10
 1279 00a4 0023     		movs	r3, #0
 1280              	.L56:
 704:Drivers/STM32H7xx_HAL_Driver/Src/stm32h7xx_hal_tim.c **** }
 1281              		.loc 1 704 1
 1282 00a6 1846     		mov	r0, r3
 1283 00a8 0837     		adds	r7, r7, #8
 1284              	.LCFI59:
 1285              		.cfi_def_cfa_offset 8
 1286 00aa BD46     		mov	sp, r7
 1287              	.LCFI60:
 1288              		.cfi_def_cfa_register 13
 1289              		@ sp needed
 1290 00ac 80BD     		pop	{r7, pc}
 1291              		.cfi_endproc
 1292              	.LFE154:
 1294              		.section	.text.HAL_TIM_OC_DeInit,"ax",%progbits
 1295              		.align	1
 1296              		.global	HAL_TIM_OC_DeInit
 1297              		.syntax unified
 1298              		.thumb
 1299              		.thumb_func
 1301              	HAL_TIM_OC_DeInit:
 1302              	.LFB155:
 705:Drivers/STM32H7xx_HAL_Driver/Src/stm32h7xx_hal_tim.c **** 
 706:Drivers/STM32H7xx_HAL_Driver/Src/stm32h7xx_hal_tim.c **** /**
 707:Drivers/STM32H7xx_HAL_Driver/Src/stm32h7xx_hal_tim.c ****   * @brief  DeInitializes the TIM peripheral
 708:Drivers/STM32H7xx_HAL_Driver/Src/stm32h7xx_hal_tim.c ****   * @param  htim TIM Output Compare handle
 709:Drivers/STM32H7xx_HAL_Driver/Src/stm32h7xx_hal_tim.c ****   * @retval HAL status
ARM GAS  C:\Users\Su\AppData\Local\Temp\cc9h93iY.s 			page 36


 710:Drivers/STM32H7xx_HAL_Driver/Src/stm32h7xx_hal_tim.c ****   */
 711:Drivers/STM32H7xx_HAL_Driver/Src/stm32h7xx_hal_tim.c **** HAL_StatusTypeDef HAL_TIM_OC_DeInit(TIM_HandleTypeDef *htim)
 712:Drivers/STM32H7xx_HAL_Driver/Src/stm32h7xx_hal_tim.c **** {
 1303              		.loc 1 712 1
 1304              		.cfi_startproc
 1305              		@ args = 0, pretend = 0, frame = 8
 1306              		@ frame_needed = 1, uses_anonymous_args = 0
 1307 0000 80B5     		push	{r7, lr}
 1308              	.LCFI61:
 1309              		.cfi_def_cfa_offset 8
 1310              		.cfi_offset 7, -8
 1311              		.cfi_offset 14, -4
 1312 0002 82B0     		sub	sp, sp, #8
 1313              	.LCFI62:
 1314              		.cfi_def_cfa_offset 16
 1315 0004 00AF     		add	r7, sp, #0
 1316              	.LCFI63:
 1317              		.cfi_def_cfa_register 7
 1318 0006 7860     		str	r0, [r7, #4]
 713:Drivers/STM32H7xx_HAL_Driver/Src/stm32h7xx_hal_tim.c ****   /* Check the parameters */
 714:Drivers/STM32H7xx_HAL_Driver/Src/stm32h7xx_hal_tim.c ****   assert_param(IS_TIM_INSTANCE(htim->Instance));
 715:Drivers/STM32H7xx_HAL_Driver/Src/stm32h7xx_hal_tim.c **** 
 716:Drivers/STM32H7xx_HAL_Driver/Src/stm32h7xx_hal_tim.c ****   htim->State = HAL_TIM_STATE_BUSY;
 1319              		.loc 1 716 15
 1320 0008 7B68     		ldr	r3, [r7, #4]
 1321 000a 0222     		movs	r2, #2
 1322 000c 83F83D20 		strb	r2, [r3, #61]
 717:Drivers/STM32H7xx_HAL_Driver/Src/stm32h7xx_hal_tim.c **** 
 718:Drivers/STM32H7xx_HAL_Driver/Src/stm32h7xx_hal_tim.c ****   /* Disable the TIM Peripheral Clock */
 719:Drivers/STM32H7xx_HAL_Driver/Src/stm32h7xx_hal_tim.c ****   __HAL_TIM_DISABLE(htim);
 1323              		.loc 1 719 3
 1324 0010 7B68     		ldr	r3, [r7, #4]
 1325 0012 1B68     		ldr	r3, [r3]
 1326 0014 1A6A     		ldr	r2, [r3, #32]
 1327 0016 41F21113 		movw	r3, #4369
 1328 001a 1340     		ands	r3, r3, r2
 1329 001c 002B     		cmp	r3, #0
 1330 001e 0FD1     		bne	.L59
 1331              		.loc 1 719 3 is_stmt 0 discriminator 1
 1332 0020 7B68     		ldr	r3, [r7, #4]
 1333 0022 1B68     		ldr	r3, [r3]
 1334 0024 1A6A     		ldr	r2, [r3, #32]
 1335 0026 40F24443 		movw	r3, #1092
 1336 002a 1340     		ands	r3, r3, r2
 1337 002c 002B     		cmp	r3, #0
 1338 002e 07D1     		bne	.L59
 1339              		.loc 1 719 3 discriminator 2
 1340 0030 7B68     		ldr	r3, [r7, #4]
 1341 0032 1B68     		ldr	r3, [r3]
 1342 0034 1A68     		ldr	r2, [r3]
 1343 0036 7B68     		ldr	r3, [r7, #4]
 1344 0038 1B68     		ldr	r3, [r3]
 1345 003a 22F00102 		bic	r2, r2, #1
 1346 003e 1A60     		str	r2, [r3]
 1347              	.L59:
 720:Drivers/STM32H7xx_HAL_Driver/Src/stm32h7xx_hal_tim.c **** 
 721:Drivers/STM32H7xx_HAL_Driver/Src/stm32h7xx_hal_tim.c **** #if (USE_HAL_TIM_REGISTER_CALLBACKS == 1)
ARM GAS  C:\Users\Su\AppData\Local\Temp\cc9h93iY.s 			page 37


 722:Drivers/STM32H7xx_HAL_Driver/Src/stm32h7xx_hal_tim.c ****   if (htim->OC_MspDeInitCallback == NULL)
 723:Drivers/STM32H7xx_HAL_Driver/Src/stm32h7xx_hal_tim.c ****   {
 724:Drivers/STM32H7xx_HAL_Driver/Src/stm32h7xx_hal_tim.c ****     htim->OC_MspDeInitCallback = HAL_TIM_OC_MspDeInit;
 725:Drivers/STM32H7xx_HAL_Driver/Src/stm32h7xx_hal_tim.c ****   }
 726:Drivers/STM32H7xx_HAL_Driver/Src/stm32h7xx_hal_tim.c ****   /* DeInit the low level hardware */
 727:Drivers/STM32H7xx_HAL_Driver/Src/stm32h7xx_hal_tim.c ****   htim->OC_MspDeInitCallback(htim);
 728:Drivers/STM32H7xx_HAL_Driver/Src/stm32h7xx_hal_tim.c **** #else
 729:Drivers/STM32H7xx_HAL_Driver/Src/stm32h7xx_hal_tim.c ****   /* DeInit the low level hardware: GPIO, CLOCK, NVIC and DMA */
 730:Drivers/STM32H7xx_HAL_Driver/Src/stm32h7xx_hal_tim.c ****   HAL_TIM_OC_MspDeInit(htim);
 1348              		.loc 1 730 3 is_stmt 1
 1349 0040 7868     		ldr	r0, [r7, #4]
 1350 0042 FFF7FEFF 		bl	HAL_TIM_OC_MspDeInit
 731:Drivers/STM32H7xx_HAL_Driver/Src/stm32h7xx_hal_tim.c **** #endif /* USE_HAL_TIM_REGISTER_CALLBACKS */
 732:Drivers/STM32H7xx_HAL_Driver/Src/stm32h7xx_hal_tim.c **** 
 733:Drivers/STM32H7xx_HAL_Driver/Src/stm32h7xx_hal_tim.c ****   /* Change the DMA burst operation state */
 734:Drivers/STM32H7xx_HAL_Driver/Src/stm32h7xx_hal_tim.c ****   htim->DMABurstState = HAL_DMA_BURST_STATE_RESET;
 1351              		.loc 1 734 23
 1352 0046 7B68     		ldr	r3, [r7, #4]
 1353 0048 0022     		movs	r2, #0
 1354 004a 83F84820 		strb	r2, [r3, #72]
 735:Drivers/STM32H7xx_HAL_Driver/Src/stm32h7xx_hal_tim.c **** 
 736:Drivers/STM32H7xx_HAL_Driver/Src/stm32h7xx_hal_tim.c ****   /* Change the TIM channels state */
 737:Drivers/STM32H7xx_HAL_Driver/Src/stm32h7xx_hal_tim.c ****   TIM_CHANNEL_STATE_SET_ALL(htim, HAL_TIM_CHANNEL_STATE_RESET);
 1355              		.loc 1 737 3
 1356 004e 7B68     		ldr	r3, [r7, #4]
 1357 0050 0022     		movs	r2, #0
 1358 0052 83F83E20 		strb	r2, [r3, #62]
 1359 0056 7B68     		ldr	r3, [r7, #4]
 1360 0058 0022     		movs	r2, #0
 1361 005a 83F83F20 		strb	r2, [r3, #63]
 1362 005e 7B68     		ldr	r3, [r7, #4]
 1363 0060 0022     		movs	r2, #0
 1364 0062 83F84020 		strb	r2, [r3, #64]
 1365 0066 7B68     		ldr	r3, [r7, #4]
 1366 0068 0022     		movs	r2, #0
 1367 006a 83F84120 		strb	r2, [r3, #65]
 1368 006e 7B68     		ldr	r3, [r7, #4]
 1369 0070 0022     		movs	r2, #0
 1370 0072 83F84220 		strb	r2, [r3, #66]
 1371 0076 7B68     		ldr	r3, [r7, #4]
 1372 0078 0022     		movs	r2, #0
 1373 007a 83F84320 		strb	r2, [r3, #67]
 738:Drivers/STM32H7xx_HAL_Driver/Src/stm32h7xx_hal_tim.c ****   TIM_CHANNEL_N_STATE_SET_ALL(htim, HAL_TIM_CHANNEL_STATE_RESET);
 1374              		.loc 1 738 3
 1375 007e 7B68     		ldr	r3, [r7, #4]
 1376 0080 0022     		movs	r2, #0
 1377 0082 83F84420 		strb	r2, [r3, #68]
 1378 0086 7B68     		ldr	r3, [r7, #4]
 1379 0088 0022     		movs	r2, #0
 1380 008a 83F84520 		strb	r2, [r3, #69]
 1381 008e 7B68     		ldr	r3, [r7, #4]
 1382 0090 0022     		movs	r2, #0
 1383 0092 83F84620 		strb	r2, [r3, #70]
 1384 0096 7B68     		ldr	r3, [r7, #4]
 1385 0098 0022     		movs	r2, #0
 1386 009a 83F84720 		strb	r2, [r3, #71]
 739:Drivers/STM32H7xx_HAL_Driver/Src/stm32h7xx_hal_tim.c **** 
ARM GAS  C:\Users\Su\AppData\Local\Temp\cc9h93iY.s 			page 38


 740:Drivers/STM32H7xx_HAL_Driver/Src/stm32h7xx_hal_tim.c ****   /* Change TIM state */
 741:Drivers/STM32H7xx_HAL_Driver/Src/stm32h7xx_hal_tim.c ****   htim->State = HAL_TIM_STATE_RESET;
 1387              		.loc 1 741 15
 1388 009e 7B68     		ldr	r3, [r7, #4]
 1389 00a0 0022     		movs	r2, #0
 1390 00a2 83F83D20 		strb	r2, [r3, #61]
 742:Drivers/STM32H7xx_HAL_Driver/Src/stm32h7xx_hal_tim.c **** 
 743:Drivers/STM32H7xx_HAL_Driver/Src/stm32h7xx_hal_tim.c ****   /* Release Lock */
 744:Drivers/STM32H7xx_HAL_Driver/Src/stm32h7xx_hal_tim.c ****   __HAL_UNLOCK(htim);
 1391              		.loc 1 744 3
 1392 00a6 7B68     		ldr	r3, [r7, #4]
 1393 00a8 0022     		movs	r2, #0
 1394 00aa 83F83C20 		strb	r2, [r3, #60]
 745:Drivers/STM32H7xx_HAL_Driver/Src/stm32h7xx_hal_tim.c **** 
 746:Drivers/STM32H7xx_HAL_Driver/Src/stm32h7xx_hal_tim.c ****   return HAL_OK;
 1395              		.loc 1 746 10
 1396 00ae 0023     		movs	r3, #0
 747:Drivers/STM32H7xx_HAL_Driver/Src/stm32h7xx_hal_tim.c **** }
 1397              		.loc 1 747 1
 1398 00b0 1846     		mov	r0, r3
 1399 00b2 0837     		adds	r7, r7, #8
 1400              	.LCFI64:
 1401              		.cfi_def_cfa_offset 8
 1402 00b4 BD46     		mov	sp, r7
 1403              	.LCFI65:
 1404              		.cfi_def_cfa_register 13
 1405              		@ sp needed
 1406 00b6 80BD     		pop	{r7, pc}
 1407              		.cfi_endproc
 1408              	.LFE155:
 1410              		.section	.text.HAL_TIM_OC_MspInit,"ax",%progbits
 1411              		.align	1
 1412              		.weak	HAL_TIM_OC_MspInit
 1413              		.syntax unified
 1414              		.thumb
 1415              		.thumb_func
 1417              	HAL_TIM_OC_MspInit:
 1418              	.LFB156:
 748:Drivers/STM32H7xx_HAL_Driver/Src/stm32h7xx_hal_tim.c **** 
 749:Drivers/STM32H7xx_HAL_Driver/Src/stm32h7xx_hal_tim.c **** /**
 750:Drivers/STM32H7xx_HAL_Driver/Src/stm32h7xx_hal_tim.c ****   * @brief  Initializes the TIM Output Compare MSP.
 751:Drivers/STM32H7xx_HAL_Driver/Src/stm32h7xx_hal_tim.c ****   * @param  htim TIM Output Compare handle
 752:Drivers/STM32H7xx_HAL_Driver/Src/stm32h7xx_hal_tim.c ****   * @retval None
 753:Drivers/STM32H7xx_HAL_Driver/Src/stm32h7xx_hal_tim.c ****   */
 754:Drivers/STM32H7xx_HAL_Driver/Src/stm32h7xx_hal_tim.c **** __weak void HAL_TIM_OC_MspInit(TIM_HandleTypeDef *htim)
 755:Drivers/STM32H7xx_HAL_Driver/Src/stm32h7xx_hal_tim.c **** {
 1419              		.loc 1 755 1
 1420              		.cfi_startproc
 1421              		@ args = 0, pretend = 0, frame = 8
 1422              		@ frame_needed = 1, uses_anonymous_args = 0
 1423              		@ link register save eliminated.
 1424 0000 80B4     		push	{r7}
 1425              	.LCFI66:
 1426              		.cfi_def_cfa_offset 4
 1427              		.cfi_offset 7, -4
 1428 0002 83B0     		sub	sp, sp, #12
 1429              	.LCFI67:
ARM GAS  C:\Users\Su\AppData\Local\Temp\cc9h93iY.s 			page 39


 1430              		.cfi_def_cfa_offset 16
 1431 0004 00AF     		add	r7, sp, #0
 1432              	.LCFI68:
 1433              		.cfi_def_cfa_register 7
 1434 0006 7860     		str	r0, [r7, #4]
 756:Drivers/STM32H7xx_HAL_Driver/Src/stm32h7xx_hal_tim.c ****   /* Prevent unused argument(s) compilation warning */
 757:Drivers/STM32H7xx_HAL_Driver/Src/stm32h7xx_hal_tim.c ****   UNUSED(htim);
 758:Drivers/STM32H7xx_HAL_Driver/Src/stm32h7xx_hal_tim.c **** 
 759:Drivers/STM32H7xx_HAL_Driver/Src/stm32h7xx_hal_tim.c ****   /* NOTE : This function should not be modified, when the callback is needed,
 760:Drivers/STM32H7xx_HAL_Driver/Src/stm32h7xx_hal_tim.c ****             the HAL_TIM_OC_MspInit could be implemented in the user file
 761:Drivers/STM32H7xx_HAL_Driver/Src/stm32h7xx_hal_tim.c ****    */
 762:Drivers/STM32H7xx_HAL_Driver/Src/stm32h7xx_hal_tim.c **** }
 1435              		.loc 1 762 1
 1436 0008 00BF     		nop
 1437 000a 0C37     		adds	r7, r7, #12
 1438              	.LCFI69:
 1439              		.cfi_def_cfa_offset 4
 1440 000c BD46     		mov	sp, r7
 1441              	.LCFI70:
 1442              		.cfi_def_cfa_register 13
 1443              		@ sp needed
 1444 000e 5DF8047B 		ldr	r7, [sp], #4
 1445              	.LCFI71:
 1446              		.cfi_restore 7
 1447              		.cfi_def_cfa_offset 0
 1448 0012 7047     		bx	lr
 1449              		.cfi_endproc
 1450              	.LFE156:
 1452              		.section	.text.HAL_TIM_OC_MspDeInit,"ax",%progbits
 1453              		.align	1
 1454              		.weak	HAL_TIM_OC_MspDeInit
 1455              		.syntax unified
 1456              		.thumb
 1457              		.thumb_func
 1459              	HAL_TIM_OC_MspDeInit:
 1460              	.LFB157:
 763:Drivers/STM32H7xx_HAL_Driver/Src/stm32h7xx_hal_tim.c **** 
 764:Drivers/STM32H7xx_HAL_Driver/Src/stm32h7xx_hal_tim.c **** /**
 765:Drivers/STM32H7xx_HAL_Driver/Src/stm32h7xx_hal_tim.c ****   * @brief  DeInitializes TIM Output Compare MSP.
 766:Drivers/STM32H7xx_HAL_Driver/Src/stm32h7xx_hal_tim.c ****   * @param  htim TIM Output Compare handle
 767:Drivers/STM32H7xx_HAL_Driver/Src/stm32h7xx_hal_tim.c ****   * @retval None
 768:Drivers/STM32H7xx_HAL_Driver/Src/stm32h7xx_hal_tim.c ****   */
 769:Drivers/STM32H7xx_HAL_Driver/Src/stm32h7xx_hal_tim.c **** __weak void HAL_TIM_OC_MspDeInit(TIM_HandleTypeDef *htim)
 770:Drivers/STM32H7xx_HAL_Driver/Src/stm32h7xx_hal_tim.c **** {
 1461              		.loc 1 770 1
 1462              		.cfi_startproc
 1463              		@ args = 0, pretend = 0, frame = 8
 1464              		@ frame_needed = 1, uses_anonymous_args = 0
 1465              		@ link register save eliminated.
 1466 0000 80B4     		push	{r7}
 1467              	.LCFI72:
 1468              		.cfi_def_cfa_offset 4
 1469              		.cfi_offset 7, -4
 1470 0002 83B0     		sub	sp, sp, #12
 1471              	.LCFI73:
 1472              		.cfi_def_cfa_offset 16
 1473 0004 00AF     		add	r7, sp, #0
ARM GAS  C:\Users\Su\AppData\Local\Temp\cc9h93iY.s 			page 40


 1474              	.LCFI74:
 1475              		.cfi_def_cfa_register 7
 1476 0006 7860     		str	r0, [r7, #4]
 771:Drivers/STM32H7xx_HAL_Driver/Src/stm32h7xx_hal_tim.c ****   /* Prevent unused argument(s) compilation warning */
 772:Drivers/STM32H7xx_HAL_Driver/Src/stm32h7xx_hal_tim.c ****   UNUSED(htim);
 773:Drivers/STM32H7xx_HAL_Driver/Src/stm32h7xx_hal_tim.c **** 
 774:Drivers/STM32H7xx_HAL_Driver/Src/stm32h7xx_hal_tim.c ****   /* NOTE : This function should not be modified, when the callback is needed,
 775:Drivers/STM32H7xx_HAL_Driver/Src/stm32h7xx_hal_tim.c ****             the HAL_TIM_OC_MspDeInit could be implemented in the user file
 776:Drivers/STM32H7xx_HAL_Driver/Src/stm32h7xx_hal_tim.c ****    */
 777:Drivers/STM32H7xx_HAL_Driver/Src/stm32h7xx_hal_tim.c **** }
 1477              		.loc 1 777 1
 1478 0008 00BF     		nop
 1479 000a 0C37     		adds	r7, r7, #12
 1480              	.LCFI75:
 1481              		.cfi_def_cfa_offset 4
 1482 000c BD46     		mov	sp, r7
 1483              	.LCFI76:
 1484              		.cfi_def_cfa_register 13
 1485              		@ sp needed
 1486 000e 5DF8047B 		ldr	r7, [sp], #4
 1487              	.LCFI77:
 1488              		.cfi_restore 7
 1489              		.cfi_def_cfa_offset 0
 1490 0012 7047     		bx	lr
 1491              		.cfi_endproc
 1492              	.LFE157:
 1494              		.section	.text.HAL_TIM_OC_Start,"ax",%progbits
 1495              		.align	1
 1496              		.global	HAL_TIM_OC_Start
 1497              		.syntax unified
 1498              		.thumb
 1499              		.thumb_func
 1501              	HAL_TIM_OC_Start:
 1502              	.LFB158:
 778:Drivers/STM32H7xx_HAL_Driver/Src/stm32h7xx_hal_tim.c **** 
 779:Drivers/STM32H7xx_HAL_Driver/Src/stm32h7xx_hal_tim.c **** /**
 780:Drivers/STM32H7xx_HAL_Driver/Src/stm32h7xx_hal_tim.c ****   * @brief  Starts the TIM Output Compare signal generation.
 781:Drivers/STM32H7xx_HAL_Driver/Src/stm32h7xx_hal_tim.c ****   * @param  htim TIM Output Compare handle
 782:Drivers/STM32H7xx_HAL_Driver/Src/stm32h7xx_hal_tim.c ****   * @param  Channel TIM Channel to be enabled
 783:Drivers/STM32H7xx_HAL_Driver/Src/stm32h7xx_hal_tim.c ****   *          This parameter can be one of the following values:
 784:Drivers/STM32H7xx_HAL_Driver/Src/stm32h7xx_hal_tim.c ****   *            @arg TIM_CHANNEL_1: TIM Channel 1 selected
 785:Drivers/STM32H7xx_HAL_Driver/Src/stm32h7xx_hal_tim.c ****   *            @arg TIM_CHANNEL_2: TIM Channel 2 selected
 786:Drivers/STM32H7xx_HAL_Driver/Src/stm32h7xx_hal_tim.c ****   *            @arg TIM_CHANNEL_3: TIM Channel 3 selected
 787:Drivers/STM32H7xx_HAL_Driver/Src/stm32h7xx_hal_tim.c ****   *            @arg TIM_CHANNEL_4: TIM Channel 4 selected
 788:Drivers/STM32H7xx_HAL_Driver/Src/stm32h7xx_hal_tim.c ****   *            @arg TIM_CHANNEL_5: TIM Channel 5 selected
 789:Drivers/STM32H7xx_HAL_Driver/Src/stm32h7xx_hal_tim.c ****   *            @arg TIM_CHANNEL_6: TIM Channel 6 selected
 790:Drivers/STM32H7xx_HAL_Driver/Src/stm32h7xx_hal_tim.c ****   * @retval HAL status
 791:Drivers/STM32H7xx_HAL_Driver/Src/stm32h7xx_hal_tim.c ****   */
 792:Drivers/STM32H7xx_HAL_Driver/Src/stm32h7xx_hal_tim.c **** HAL_StatusTypeDef HAL_TIM_OC_Start(TIM_HandleTypeDef *htim, uint32_t Channel)
 793:Drivers/STM32H7xx_HAL_Driver/Src/stm32h7xx_hal_tim.c **** {
 1503              		.loc 1 793 1
 1504              		.cfi_startproc
 1505              		@ args = 0, pretend = 0, frame = 16
 1506              		@ frame_needed = 1, uses_anonymous_args = 0
 1507 0000 80B5     		push	{r7, lr}
 1508              	.LCFI78:
 1509              		.cfi_def_cfa_offset 8
ARM GAS  C:\Users\Su\AppData\Local\Temp\cc9h93iY.s 			page 41


 1510              		.cfi_offset 7, -8
 1511              		.cfi_offset 14, -4
 1512 0002 84B0     		sub	sp, sp, #16
 1513              	.LCFI79:
 1514              		.cfi_def_cfa_offset 24
 1515 0004 00AF     		add	r7, sp, #0
 1516              	.LCFI80:
 1517              		.cfi_def_cfa_register 7
 1518 0006 7860     		str	r0, [r7, #4]
 1519 0008 3960     		str	r1, [r7]
 794:Drivers/STM32H7xx_HAL_Driver/Src/stm32h7xx_hal_tim.c ****   uint32_t tmpsmcr;
 795:Drivers/STM32H7xx_HAL_Driver/Src/stm32h7xx_hal_tim.c **** 
 796:Drivers/STM32H7xx_HAL_Driver/Src/stm32h7xx_hal_tim.c ****   /* Check the parameters */
 797:Drivers/STM32H7xx_HAL_Driver/Src/stm32h7xx_hal_tim.c ****   assert_param(IS_TIM_CCX_INSTANCE(htim->Instance, Channel));
 798:Drivers/STM32H7xx_HAL_Driver/Src/stm32h7xx_hal_tim.c **** 
 799:Drivers/STM32H7xx_HAL_Driver/Src/stm32h7xx_hal_tim.c ****   /* Check the TIM channel state */
 800:Drivers/STM32H7xx_HAL_Driver/Src/stm32h7xx_hal_tim.c ****   if (TIM_CHANNEL_STATE_GET(htim, Channel) != HAL_TIM_CHANNEL_STATE_READY)
 1520              		.loc 1 800 44
 1521 000a 3B68     		ldr	r3, [r7]
 1522 000c 002B     		cmp	r3, #0
 1523 000e 09D1     		bne	.L64
 1524              		.loc 1 800 7 discriminator 1
 1525 0010 7B68     		ldr	r3, [r7, #4]
 1526 0012 93F83E30 		ldrb	r3, [r3, #62]
 1527 0016 DBB2     		uxtb	r3, r3
 1528              		.loc 1 800 44 discriminator 1
 1529 0018 012B     		cmp	r3, #1
 1530 001a 14BF     		ite	ne
 1531 001c 0123     		movne	r3, #1
 1532 001e 0023     		moveq	r3, #0
 1533 0020 DBB2     		uxtb	r3, r3
 1534 0022 3CE0     		b	.L65
 1535              	.L64:
 1536              		.loc 1 800 44 is_stmt 0 discriminator 2
 1537 0024 3B68     		ldr	r3, [r7]
 1538 0026 042B     		cmp	r3, #4
 1539 0028 09D1     		bne	.L66
 1540              		.loc 1 800 7 is_stmt 1 discriminator 4
 1541 002a 7B68     		ldr	r3, [r7, #4]
 1542 002c 93F83F30 		ldrb	r3, [r3, #63]
 1543 0030 DBB2     		uxtb	r3, r3
 1544              		.loc 1 800 44 discriminator 4
 1545 0032 012B     		cmp	r3, #1
 1546 0034 14BF     		ite	ne
 1547 0036 0123     		movne	r3, #1
 1548 0038 0023     		moveq	r3, #0
 1549 003a DBB2     		uxtb	r3, r3
 1550 003c 2FE0     		b	.L65
 1551              	.L66:
 1552              		.loc 1 800 44 is_stmt 0 discriminator 5
 1553 003e 3B68     		ldr	r3, [r7]
 1554 0040 082B     		cmp	r3, #8
 1555 0042 09D1     		bne	.L68
 1556              		.loc 1 800 7 is_stmt 1 discriminator 7
 1557 0044 7B68     		ldr	r3, [r7, #4]
 1558 0046 93F84030 		ldrb	r3, [r3, #64]
 1559 004a DBB2     		uxtb	r3, r3
ARM GAS  C:\Users\Su\AppData\Local\Temp\cc9h93iY.s 			page 42


 1560              		.loc 1 800 44 discriminator 7
 1561 004c 012B     		cmp	r3, #1
 1562 004e 14BF     		ite	ne
 1563 0050 0123     		movne	r3, #1
 1564 0052 0023     		moveq	r3, #0
 1565 0054 DBB2     		uxtb	r3, r3
 1566 0056 22E0     		b	.L65
 1567              	.L68:
 1568              		.loc 1 800 44 is_stmt 0 discriminator 8
 1569 0058 3B68     		ldr	r3, [r7]
 1570 005a 0C2B     		cmp	r3, #12
 1571 005c 09D1     		bne	.L70
 1572              		.loc 1 800 7 is_stmt 1 discriminator 10
 1573 005e 7B68     		ldr	r3, [r7, #4]
 1574 0060 93F84130 		ldrb	r3, [r3, #65]
 1575 0064 DBB2     		uxtb	r3, r3
 1576              		.loc 1 800 44 discriminator 10
 1577 0066 012B     		cmp	r3, #1
 1578 0068 14BF     		ite	ne
 1579 006a 0123     		movne	r3, #1
 1580 006c 0023     		moveq	r3, #0
 1581 006e DBB2     		uxtb	r3, r3
 1582 0070 15E0     		b	.L65
 1583              	.L70:
 1584              		.loc 1 800 44 is_stmt 0 discriminator 11
 1585 0072 3B68     		ldr	r3, [r7]
 1586 0074 102B     		cmp	r3, #16
 1587 0076 09D1     		bne	.L72
 1588              		.loc 1 800 7 is_stmt 1 discriminator 13
 1589 0078 7B68     		ldr	r3, [r7, #4]
 1590 007a 93F84230 		ldrb	r3, [r3, #66]
 1591 007e DBB2     		uxtb	r3, r3
 1592              		.loc 1 800 44 discriminator 13
 1593 0080 012B     		cmp	r3, #1
 1594 0082 14BF     		ite	ne
 1595 0084 0123     		movne	r3, #1
 1596 0086 0023     		moveq	r3, #0
 1597 0088 DBB2     		uxtb	r3, r3
 1598 008a 08E0     		b	.L65
 1599              	.L72:
 1600              		.loc 1 800 7 discriminator 14
 1601 008c 7B68     		ldr	r3, [r7, #4]
 1602 008e 93F84330 		ldrb	r3, [r3, #67]
 1603 0092 DBB2     		uxtb	r3, r3
 1604              		.loc 1 800 44 discriminator 14
 1605 0094 012B     		cmp	r3, #1
 1606 0096 14BF     		ite	ne
 1607 0098 0123     		movne	r3, #1
 1608 009a 0023     		moveq	r3, #0
 1609 009c DBB2     		uxtb	r3, r3
 1610              	.L65:
 1611              		.loc 1 800 6 discriminator 20
 1612 009e 002B     		cmp	r3, #0
 1613 00a0 01D0     		beq	.L74
 801:Drivers/STM32H7xx_HAL_Driver/Src/stm32h7xx_hal_tim.c ****   {
 802:Drivers/STM32H7xx_HAL_Driver/Src/stm32h7xx_hal_tim.c ****     return HAL_ERROR;
 1614              		.loc 1 802 12
ARM GAS  C:\Users\Su\AppData\Local\Temp\cc9h93iY.s 			page 43


 1615 00a2 0123     		movs	r3, #1
 1616 00a4 ABE0     		b	.L75
 1617              	.L74:
 803:Drivers/STM32H7xx_HAL_Driver/Src/stm32h7xx_hal_tim.c ****   }
 804:Drivers/STM32H7xx_HAL_Driver/Src/stm32h7xx_hal_tim.c **** 
 805:Drivers/STM32H7xx_HAL_Driver/Src/stm32h7xx_hal_tim.c ****   /* Set the TIM channel state */
 806:Drivers/STM32H7xx_HAL_Driver/Src/stm32h7xx_hal_tim.c ****   TIM_CHANNEL_STATE_SET(htim, Channel, HAL_TIM_CHANNEL_STATE_BUSY);
 1618              		.loc 1 806 3
 1619 00a6 3B68     		ldr	r3, [r7]
 1620 00a8 002B     		cmp	r3, #0
 1621 00aa 04D1     		bne	.L76
 1622              		.loc 1 806 3 is_stmt 0 discriminator 1
 1623 00ac 7B68     		ldr	r3, [r7, #4]
 1624 00ae 0222     		movs	r2, #2
 1625 00b0 83F83E20 		strb	r2, [r3, #62]
 1626 00b4 23E0     		b	.L77
 1627              	.L76:
 1628              		.loc 1 806 3 discriminator 2
 1629 00b6 3B68     		ldr	r3, [r7]
 1630 00b8 042B     		cmp	r3, #4
 1631 00ba 04D1     		bne	.L78
 1632              		.loc 1 806 3 discriminator 3
 1633 00bc 7B68     		ldr	r3, [r7, #4]
 1634 00be 0222     		movs	r2, #2
 1635 00c0 83F83F20 		strb	r2, [r3, #63]
 1636 00c4 1BE0     		b	.L77
 1637              	.L78:
 1638              		.loc 1 806 3 discriminator 4
 1639 00c6 3B68     		ldr	r3, [r7]
 1640 00c8 082B     		cmp	r3, #8
 1641 00ca 04D1     		bne	.L80
 1642              		.loc 1 806 3 discriminator 6
 1643 00cc 7B68     		ldr	r3, [r7, #4]
 1644 00ce 0222     		movs	r2, #2
 1645 00d0 83F84020 		strb	r2, [r3, #64]
 1646 00d4 13E0     		b	.L77
 1647              	.L80:
 1648              		.loc 1 806 3 discriminator 7
 1649 00d6 3B68     		ldr	r3, [r7]
 1650 00d8 0C2B     		cmp	r3, #12
 1651 00da 04D1     		bne	.L82
 1652              		.loc 1 806 3 discriminator 9
 1653 00dc 7B68     		ldr	r3, [r7, #4]
 1654 00de 0222     		movs	r2, #2
 1655 00e0 83F84120 		strb	r2, [r3, #65]
 1656 00e4 0BE0     		b	.L77
 1657              	.L82:
 1658              		.loc 1 806 3 discriminator 10
 1659 00e6 3B68     		ldr	r3, [r7]
 1660 00e8 102B     		cmp	r3, #16
 1661 00ea 04D1     		bne	.L84
 1662              		.loc 1 806 3 discriminator 12
 1663 00ec 7B68     		ldr	r3, [r7, #4]
 1664 00ee 0222     		movs	r2, #2
 1665 00f0 83F84220 		strb	r2, [r3, #66]
 1666 00f4 03E0     		b	.L77
 1667              	.L84:
ARM GAS  C:\Users\Su\AppData\Local\Temp\cc9h93iY.s 			page 44


 1668              		.loc 1 806 3 discriminator 13
 1669 00f6 7B68     		ldr	r3, [r7, #4]
 1670 00f8 0222     		movs	r2, #2
 1671 00fa 83F84320 		strb	r2, [r3, #67]
 1672              	.L77:
 807:Drivers/STM32H7xx_HAL_Driver/Src/stm32h7xx_hal_tim.c **** 
 808:Drivers/STM32H7xx_HAL_Driver/Src/stm32h7xx_hal_tim.c ****   /* Enable the Output compare channel */
 809:Drivers/STM32H7xx_HAL_Driver/Src/stm32h7xx_hal_tim.c ****   TIM_CCxChannelCmd(htim->Instance, Channel, TIM_CCx_ENABLE);
 1673              		.loc 1 809 3 is_stmt 1
 1674 00fe 7B68     		ldr	r3, [r7, #4]
 1675 0100 1B68     		ldr	r3, [r3]
 1676 0102 0122     		movs	r2, #1
 1677 0104 3968     		ldr	r1, [r7]
 1678 0106 1846     		mov	r0, r3
 1679 0108 FFF7FEFF 		bl	TIM_CCxChannelCmd
 810:Drivers/STM32H7xx_HAL_Driver/Src/stm32h7xx_hal_tim.c **** 
 811:Drivers/STM32H7xx_HAL_Driver/Src/stm32h7xx_hal_tim.c ****   if (IS_TIM_BREAK_INSTANCE(htim->Instance) != RESET)
 1680              		.loc 1 811 7
 1681 010c 7B68     		ldr	r3, [r7, #4]
 1682 010e 1B68     		ldr	r3, [r3]
 1683 0110 3D4A     		ldr	r2, .L95
 1684 0112 9342     		cmp	r3, r2
 1685 0114 13D0     		beq	.L86
 1686              		.loc 1 811 7 is_stmt 0 discriminator 2
 1687 0116 7B68     		ldr	r3, [r7, #4]
 1688 0118 1B68     		ldr	r3, [r3]
 1689 011a 3C4A     		ldr	r2, .L95+4
 1690 011c 9342     		cmp	r3, r2
 1691 011e 0ED0     		beq	.L86
 1692              		.loc 1 811 7 discriminator 4
 1693 0120 7B68     		ldr	r3, [r7, #4]
 1694 0122 1B68     		ldr	r3, [r3]
 1695 0124 3A4A     		ldr	r2, .L95+8
 1696 0126 9342     		cmp	r3, r2
 1697 0128 09D0     		beq	.L86
 1698              		.loc 1 811 7 discriminator 6
 1699 012a 7B68     		ldr	r3, [r7, #4]
 1700 012c 1B68     		ldr	r3, [r3]
 1701 012e 394A     		ldr	r2, .L95+12
 1702 0130 9342     		cmp	r3, r2
 1703 0132 04D0     		beq	.L86
 1704              		.loc 1 811 7 discriminator 8
 1705 0134 7B68     		ldr	r3, [r7, #4]
 1706 0136 1B68     		ldr	r3, [r3]
 1707 0138 374A     		ldr	r2, .L95+16
 1708 013a 9342     		cmp	r3, r2
 1709 013c 01D1     		bne	.L87
 1710              	.L86:
 1711              		.loc 1 811 7 discriminator 9
 1712 013e 0123     		movs	r3, #1
 1713 0140 00E0     		b	.L88
 1714              	.L87:
 1715              		.loc 1 811 7 discriminator 10
 1716 0142 0023     		movs	r3, #0
 1717              	.L88:
 1718              		.loc 1 811 6 is_stmt 1 discriminator 12
 1719 0144 002B     		cmp	r3, #0
ARM GAS  C:\Users\Su\AppData\Local\Temp\cc9h93iY.s 			page 45


 1720 0146 07D0     		beq	.L89
 812:Drivers/STM32H7xx_HAL_Driver/Src/stm32h7xx_hal_tim.c ****   {
 813:Drivers/STM32H7xx_HAL_Driver/Src/stm32h7xx_hal_tim.c ****     /* Enable the main output */
 814:Drivers/STM32H7xx_HAL_Driver/Src/stm32h7xx_hal_tim.c ****     __HAL_TIM_MOE_ENABLE(htim);
 1721              		.loc 1 814 5
 1722 0148 7B68     		ldr	r3, [r7, #4]
 1723 014a 1B68     		ldr	r3, [r3]
 1724 014c 5A6C     		ldr	r2, [r3, #68]
 1725 014e 7B68     		ldr	r3, [r7, #4]
 1726 0150 1B68     		ldr	r3, [r3]
 1727 0152 42F40042 		orr	r2, r2, #32768
 1728 0156 5A64     		str	r2, [r3, #68]
 1729              	.L89:
 815:Drivers/STM32H7xx_HAL_Driver/Src/stm32h7xx_hal_tim.c ****   }
 816:Drivers/STM32H7xx_HAL_Driver/Src/stm32h7xx_hal_tim.c **** 
 817:Drivers/STM32H7xx_HAL_Driver/Src/stm32h7xx_hal_tim.c ****   /* Enable the Peripheral, except in trigger mode where enable is automatically done with trigger 
 818:Drivers/STM32H7xx_HAL_Driver/Src/stm32h7xx_hal_tim.c ****   if (IS_TIM_SLAVE_INSTANCE(htim->Instance))
 1730              		.loc 1 818 7
 1731 0158 7B68     		ldr	r3, [r7, #4]
 1732 015a 1B68     		ldr	r3, [r3]
 1733              		.loc 1 818 6
 1734 015c 2A4A     		ldr	r2, .L95
 1735 015e 9342     		cmp	r3, r2
 1736 0160 2CD0     		beq	.L90
 1737              		.loc 1 818 7 discriminator 1
 1738 0162 7B68     		ldr	r3, [r7, #4]
 1739 0164 1B68     		ldr	r3, [r3]
 1740 0166 B3F1804F 		cmp	r3, #1073741824
 1741 016a 27D0     		beq	.L90
 1742              		.loc 1 818 7 is_stmt 0 discriminator 2
 1743 016c 7B68     		ldr	r3, [r7, #4]
 1744 016e 1B68     		ldr	r3, [r3]
 1745 0170 2A4A     		ldr	r2, .L95+20
 1746 0172 9342     		cmp	r3, r2
 1747 0174 22D0     		beq	.L90
 1748              		.loc 1 818 7 discriminator 3
 1749 0176 7B68     		ldr	r3, [r7, #4]
 1750 0178 1B68     		ldr	r3, [r3]
 1751 017a 294A     		ldr	r2, .L95+24
 1752 017c 9342     		cmp	r3, r2
 1753 017e 1DD0     		beq	.L90
 1754              		.loc 1 818 7 discriminator 4
 1755 0180 7B68     		ldr	r3, [r7, #4]
 1756 0182 1B68     		ldr	r3, [r3]
 1757 0184 274A     		ldr	r2, .L95+28
 1758 0186 9342     		cmp	r3, r2
 1759 0188 18D0     		beq	.L90
 1760              		.loc 1 818 7 discriminator 5
 1761 018a 7B68     		ldr	r3, [r7, #4]
 1762 018c 1B68     		ldr	r3, [r3]
 1763 018e 1F4A     		ldr	r2, .L95+4
 1764 0190 9342     		cmp	r3, r2
 1765 0192 13D0     		beq	.L90
 1766              		.loc 1 818 7 discriminator 6
 1767 0194 7B68     		ldr	r3, [r7, #4]
 1768 0196 1B68     		ldr	r3, [r3]
 1769 0198 234A     		ldr	r2, .L95+32
ARM GAS  C:\Users\Su\AppData\Local\Temp\cc9h93iY.s 			page 46


 1770 019a 9342     		cmp	r3, r2
 1771 019c 0ED0     		beq	.L90
 1772              		.loc 1 818 7 discriminator 7
 1773 019e 7B68     		ldr	r3, [r7, #4]
 1774 01a0 1B68     		ldr	r3, [r3]
 1775 01a2 1B4A     		ldr	r2, .L95+8
 1776 01a4 9342     		cmp	r3, r2
 1777 01a6 09D0     		beq	.L90
 1778              		.loc 1 818 7 discriminator 8
 1779 01a8 7B68     		ldr	r3, [r7, #4]
 1780 01aa 1B68     		ldr	r3, [r3]
 1781 01ac 1F4A     		ldr	r2, .L95+36
 1782 01ae 9342     		cmp	r3, r2
 1783 01b0 04D0     		beq	.L90
 1784              		.loc 1 818 7 discriminator 9
 1785 01b2 7B68     		ldr	r3, [r7, #4]
 1786 01b4 1B68     		ldr	r3, [r3]
 1787 01b6 1E4A     		ldr	r2, .L95+40
 1788 01b8 9342     		cmp	r3, r2
 1789 01ba 15D1     		bne	.L91
 1790              	.L90:
 819:Drivers/STM32H7xx_HAL_Driver/Src/stm32h7xx_hal_tim.c ****   {
 820:Drivers/STM32H7xx_HAL_Driver/Src/stm32h7xx_hal_tim.c ****     tmpsmcr = htim->Instance->SMCR & TIM_SMCR_SMS;
 1791              		.loc 1 820 19 is_stmt 1
 1792 01bc 7B68     		ldr	r3, [r7, #4]
 1793 01be 1B68     		ldr	r3, [r3]
 1794              		.loc 1 820 29
 1795 01c0 9A68     		ldr	r2, [r3, #8]
 1796              		.loc 1 820 13
 1797 01c2 1C4B     		ldr	r3, .L95+44
 1798 01c4 1340     		ands	r3, r3, r2
 1799 01c6 FB60     		str	r3, [r7, #12]
 821:Drivers/STM32H7xx_HAL_Driver/Src/stm32h7xx_hal_tim.c ****     if (!IS_TIM_SLAVEMODE_TRIGGER_ENABLED(tmpsmcr))
 1800              		.loc 1 821 8
 1801 01c8 FB68     		ldr	r3, [r7, #12]
 1802 01ca 062B     		cmp	r3, #6
 1803 01cc 15D0     		beq	.L94
 1804              		.loc 1 821 9 discriminator 1
 1805 01ce FB68     		ldr	r3, [r7, #12]
 1806 01d0 B3F5803F 		cmp	r3, #65536
 1807 01d4 11D0     		beq	.L94
 822:Drivers/STM32H7xx_HAL_Driver/Src/stm32h7xx_hal_tim.c ****     {
 823:Drivers/STM32H7xx_HAL_Driver/Src/stm32h7xx_hal_tim.c ****       __HAL_TIM_ENABLE(htim);
 1808              		.loc 1 823 7
 1809 01d6 7B68     		ldr	r3, [r7, #4]
 1810 01d8 1B68     		ldr	r3, [r3]
 1811 01da 1A68     		ldr	r2, [r3]
 1812 01dc 7B68     		ldr	r3, [r7, #4]
 1813 01de 1B68     		ldr	r3, [r3]
 1814 01e0 42F00102 		orr	r2, r2, #1
 1815 01e4 1A60     		str	r2, [r3]
 821:Drivers/STM32H7xx_HAL_Driver/Src/stm32h7xx_hal_tim.c ****     if (!IS_TIM_SLAVEMODE_TRIGGER_ENABLED(tmpsmcr))
 1816              		.loc 1 821 8
 1817 01e6 08E0     		b	.L94
 1818              	.L91:
 824:Drivers/STM32H7xx_HAL_Driver/Src/stm32h7xx_hal_tim.c ****     }
 825:Drivers/STM32H7xx_HAL_Driver/Src/stm32h7xx_hal_tim.c ****   }
ARM GAS  C:\Users\Su\AppData\Local\Temp\cc9h93iY.s 			page 47


 826:Drivers/STM32H7xx_HAL_Driver/Src/stm32h7xx_hal_tim.c ****   else
 827:Drivers/STM32H7xx_HAL_Driver/Src/stm32h7xx_hal_tim.c ****   {
 828:Drivers/STM32H7xx_HAL_Driver/Src/stm32h7xx_hal_tim.c ****     __HAL_TIM_ENABLE(htim);
 1819              		.loc 1 828 5
 1820 01e8 7B68     		ldr	r3, [r7, #4]
 1821 01ea 1B68     		ldr	r3, [r3]
 1822 01ec 1A68     		ldr	r2, [r3]
 1823 01ee 7B68     		ldr	r3, [r7, #4]
 1824 01f0 1B68     		ldr	r3, [r3]
 1825 01f2 42F00102 		orr	r2, r2, #1
 1826 01f6 1A60     		str	r2, [r3]
 1827 01f8 00E0     		b	.L93
 1828              	.L94:
 821:Drivers/STM32H7xx_HAL_Driver/Src/stm32h7xx_hal_tim.c ****     {
 1829              		.loc 1 821 8
 1830 01fa 00BF     		nop
 1831              	.L93:
 829:Drivers/STM32H7xx_HAL_Driver/Src/stm32h7xx_hal_tim.c ****   }
 830:Drivers/STM32H7xx_HAL_Driver/Src/stm32h7xx_hal_tim.c **** 
 831:Drivers/STM32H7xx_HAL_Driver/Src/stm32h7xx_hal_tim.c ****   /* Return function status */
 832:Drivers/STM32H7xx_HAL_Driver/Src/stm32h7xx_hal_tim.c ****   return HAL_OK;
 1832              		.loc 1 832 10
 1833 01fc 0023     		movs	r3, #0
 1834              	.L75:
 833:Drivers/STM32H7xx_HAL_Driver/Src/stm32h7xx_hal_tim.c **** }
 1835              		.loc 1 833 1
 1836 01fe 1846     		mov	r0, r3
 1837 0200 1037     		adds	r7, r7, #16
 1838              	.LCFI81:
 1839              		.cfi_def_cfa_offset 8
 1840 0202 BD46     		mov	sp, r7
 1841              	.LCFI82:
 1842              		.cfi_def_cfa_register 13
 1843              		@ sp needed
 1844 0204 80BD     		pop	{r7, pc}
 1845              	.L96:
 1846 0206 00BF     		.align	2
 1847              	.L95:
 1848 0208 00000140 		.word	1073807360
 1849 020c 00040140 		.word	1073808384
 1850 0210 00400140 		.word	1073823744
 1851 0214 00440140 		.word	1073824768
 1852 0218 00480140 		.word	1073825792
 1853 021c 00040040 		.word	1073742848
 1854 0220 00080040 		.word	1073743872
 1855 0224 000C0040 		.word	1073744896
 1856 0228 00180040 		.word	1073747968
 1857 022c 00E00040 		.word	1073799168
 1858 0230 00E40040 		.word	1073800192
 1859 0234 07000100 		.word	65543
 1860              		.cfi_endproc
 1861              	.LFE158:
 1863              		.section	.text.HAL_TIM_OC_Stop,"ax",%progbits
 1864              		.align	1
 1865              		.global	HAL_TIM_OC_Stop
 1866              		.syntax unified
 1867              		.thumb
ARM GAS  C:\Users\Su\AppData\Local\Temp\cc9h93iY.s 			page 48


 1868              		.thumb_func
 1870              	HAL_TIM_OC_Stop:
 1871              	.LFB159:
 834:Drivers/STM32H7xx_HAL_Driver/Src/stm32h7xx_hal_tim.c **** 
 835:Drivers/STM32H7xx_HAL_Driver/Src/stm32h7xx_hal_tim.c **** /**
 836:Drivers/STM32H7xx_HAL_Driver/Src/stm32h7xx_hal_tim.c ****   * @brief  Stops the TIM Output Compare signal generation.
 837:Drivers/STM32H7xx_HAL_Driver/Src/stm32h7xx_hal_tim.c ****   * @param  htim TIM Output Compare handle
 838:Drivers/STM32H7xx_HAL_Driver/Src/stm32h7xx_hal_tim.c ****   * @param  Channel TIM Channel to be disabled
 839:Drivers/STM32H7xx_HAL_Driver/Src/stm32h7xx_hal_tim.c ****   *          This parameter can be one of the following values:
 840:Drivers/STM32H7xx_HAL_Driver/Src/stm32h7xx_hal_tim.c ****   *            @arg TIM_CHANNEL_1: TIM Channel 1 selected
 841:Drivers/STM32H7xx_HAL_Driver/Src/stm32h7xx_hal_tim.c ****   *            @arg TIM_CHANNEL_2: TIM Channel 2 selected
 842:Drivers/STM32H7xx_HAL_Driver/Src/stm32h7xx_hal_tim.c ****   *            @arg TIM_CHANNEL_3: TIM Channel 3 selected
 843:Drivers/STM32H7xx_HAL_Driver/Src/stm32h7xx_hal_tim.c ****   *            @arg TIM_CHANNEL_4: TIM Channel 4 selected
 844:Drivers/STM32H7xx_HAL_Driver/Src/stm32h7xx_hal_tim.c ****   *            @arg TIM_CHANNEL_5: TIM Channel 5 selected
 845:Drivers/STM32H7xx_HAL_Driver/Src/stm32h7xx_hal_tim.c ****   *            @arg TIM_CHANNEL_6: TIM Channel 6 selected
 846:Drivers/STM32H7xx_HAL_Driver/Src/stm32h7xx_hal_tim.c ****   * @retval HAL status
 847:Drivers/STM32H7xx_HAL_Driver/Src/stm32h7xx_hal_tim.c ****   */
 848:Drivers/STM32H7xx_HAL_Driver/Src/stm32h7xx_hal_tim.c **** HAL_StatusTypeDef HAL_TIM_OC_Stop(TIM_HandleTypeDef *htim, uint32_t Channel)
 849:Drivers/STM32H7xx_HAL_Driver/Src/stm32h7xx_hal_tim.c **** {
 1872              		.loc 1 849 1
 1873              		.cfi_startproc
 1874              		@ args = 0, pretend = 0, frame = 8
 1875              		@ frame_needed = 1, uses_anonymous_args = 0
 1876 0000 80B5     		push	{r7, lr}
 1877              	.LCFI83:
 1878              		.cfi_def_cfa_offset 8
 1879              		.cfi_offset 7, -8
 1880              		.cfi_offset 14, -4
 1881 0002 82B0     		sub	sp, sp, #8
 1882              	.LCFI84:
 1883              		.cfi_def_cfa_offset 16
 1884 0004 00AF     		add	r7, sp, #0
 1885              	.LCFI85:
 1886              		.cfi_def_cfa_register 7
 1887 0006 7860     		str	r0, [r7, #4]
 1888 0008 3960     		str	r1, [r7]
 850:Drivers/STM32H7xx_HAL_Driver/Src/stm32h7xx_hal_tim.c ****   /* Check the parameters */
 851:Drivers/STM32H7xx_HAL_Driver/Src/stm32h7xx_hal_tim.c ****   assert_param(IS_TIM_CCX_INSTANCE(htim->Instance, Channel));
 852:Drivers/STM32H7xx_HAL_Driver/Src/stm32h7xx_hal_tim.c **** 
 853:Drivers/STM32H7xx_HAL_Driver/Src/stm32h7xx_hal_tim.c ****   /* Disable the Output compare channel */
 854:Drivers/STM32H7xx_HAL_Driver/Src/stm32h7xx_hal_tim.c ****   TIM_CCxChannelCmd(htim->Instance, Channel, TIM_CCx_DISABLE);
 1889              		.loc 1 854 3
 1890 000a 7B68     		ldr	r3, [r7, #4]
 1891 000c 1B68     		ldr	r3, [r3]
 1892 000e 0022     		movs	r2, #0
 1893 0010 3968     		ldr	r1, [r7]
 1894 0012 1846     		mov	r0, r3
 1895 0014 FFF7FEFF 		bl	TIM_CCxChannelCmd
 855:Drivers/STM32H7xx_HAL_Driver/Src/stm32h7xx_hal_tim.c **** 
 856:Drivers/STM32H7xx_HAL_Driver/Src/stm32h7xx_hal_tim.c ****   if (IS_TIM_BREAK_INSTANCE(htim->Instance) != RESET)
 1896              		.loc 1 856 7
 1897 0018 7B68     		ldr	r3, [r7, #4]
 1898 001a 1B68     		ldr	r3, [r3]
 1899 001c 3E4A     		ldr	r2, .L114
 1900 001e 9342     		cmp	r3, r2
 1901 0020 13D0     		beq	.L98
 1902              		.loc 1 856 7 is_stmt 0 discriminator 2
ARM GAS  C:\Users\Su\AppData\Local\Temp\cc9h93iY.s 			page 49


 1903 0022 7B68     		ldr	r3, [r7, #4]
 1904 0024 1B68     		ldr	r3, [r3]
 1905 0026 3D4A     		ldr	r2, .L114+4
 1906 0028 9342     		cmp	r3, r2
 1907 002a 0ED0     		beq	.L98
 1908              		.loc 1 856 7 discriminator 4
 1909 002c 7B68     		ldr	r3, [r7, #4]
 1910 002e 1B68     		ldr	r3, [r3]
 1911 0030 3B4A     		ldr	r2, .L114+8
 1912 0032 9342     		cmp	r3, r2
 1913 0034 09D0     		beq	.L98
 1914              		.loc 1 856 7 discriminator 6
 1915 0036 7B68     		ldr	r3, [r7, #4]
 1916 0038 1B68     		ldr	r3, [r3]
 1917 003a 3A4A     		ldr	r2, .L114+12
 1918 003c 9342     		cmp	r3, r2
 1919 003e 04D0     		beq	.L98
 1920              		.loc 1 856 7 discriminator 8
 1921 0040 7B68     		ldr	r3, [r7, #4]
 1922 0042 1B68     		ldr	r3, [r3]
 1923 0044 384A     		ldr	r2, .L114+16
 1924 0046 9342     		cmp	r3, r2
 1925 0048 01D1     		bne	.L99
 1926              	.L98:
 1927              		.loc 1 856 7 discriminator 9
 1928 004a 0123     		movs	r3, #1
 1929 004c 00E0     		b	.L100
 1930              	.L99:
 1931              		.loc 1 856 7 discriminator 10
 1932 004e 0023     		movs	r3, #0
 1933              	.L100:
 1934              		.loc 1 856 6 is_stmt 1 discriminator 12
 1935 0050 002B     		cmp	r3, #0
 1936 0052 17D0     		beq	.L101
 857:Drivers/STM32H7xx_HAL_Driver/Src/stm32h7xx_hal_tim.c ****   {
 858:Drivers/STM32H7xx_HAL_Driver/Src/stm32h7xx_hal_tim.c ****     /* Disable the Main Output */
 859:Drivers/STM32H7xx_HAL_Driver/Src/stm32h7xx_hal_tim.c ****     __HAL_TIM_MOE_DISABLE(htim);
 1937              		.loc 1 859 5
 1938 0054 7B68     		ldr	r3, [r7, #4]
 1939 0056 1B68     		ldr	r3, [r3]
 1940 0058 1A6A     		ldr	r2, [r3, #32]
 1941 005a 41F21113 		movw	r3, #4369
 1942 005e 1340     		ands	r3, r3, r2
 1943 0060 002B     		cmp	r3, #0
 1944 0062 0FD1     		bne	.L101
 1945              		.loc 1 859 5 is_stmt 0 discriminator 1
 1946 0064 7B68     		ldr	r3, [r7, #4]
 1947 0066 1B68     		ldr	r3, [r3]
 1948 0068 1A6A     		ldr	r2, [r3, #32]
 1949 006a 40F24443 		movw	r3, #1092
 1950 006e 1340     		ands	r3, r3, r2
 1951 0070 002B     		cmp	r3, #0
 1952 0072 07D1     		bne	.L101
 1953              		.loc 1 859 5 discriminator 2
 1954 0074 7B68     		ldr	r3, [r7, #4]
 1955 0076 1B68     		ldr	r3, [r3]
 1956 0078 5A6C     		ldr	r2, [r3, #68]
ARM GAS  C:\Users\Su\AppData\Local\Temp\cc9h93iY.s 			page 50


 1957 007a 7B68     		ldr	r3, [r7, #4]
 1958 007c 1B68     		ldr	r3, [r3]
 1959 007e 22F40042 		bic	r2, r2, #32768
 1960 0082 5A64     		str	r2, [r3, #68]
 1961              	.L101:
 860:Drivers/STM32H7xx_HAL_Driver/Src/stm32h7xx_hal_tim.c ****   }
 861:Drivers/STM32H7xx_HAL_Driver/Src/stm32h7xx_hal_tim.c **** 
 862:Drivers/STM32H7xx_HAL_Driver/Src/stm32h7xx_hal_tim.c ****   /* Disable the Peripheral */
 863:Drivers/STM32H7xx_HAL_Driver/Src/stm32h7xx_hal_tim.c ****   __HAL_TIM_DISABLE(htim);
 1962              		.loc 1 863 3 is_stmt 1
 1963 0084 7B68     		ldr	r3, [r7, #4]
 1964 0086 1B68     		ldr	r3, [r3]
 1965 0088 1A6A     		ldr	r2, [r3, #32]
 1966 008a 41F21113 		movw	r3, #4369
 1967 008e 1340     		ands	r3, r3, r2
 1968 0090 002B     		cmp	r3, #0
 1969 0092 0FD1     		bne	.L102
 1970              		.loc 1 863 3 is_stmt 0 discriminator 1
 1971 0094 7B68     		ldr	r3, [r7, #4]
 1972 0096 1B68     		ldr	r3, [r3]
 1973 0098 1A6A     		ldr	r2, [r3, #32]
 1974 009a 40F24443 		movw	r3, #1092
 1975 009e 1340     		ands	r3, r3, r2
 1976 00a0 002B     		cmp	r3, #0
 1977 00a2 07D1     		bne	.L102
 1978              		.loc 1 863 3 discriminator 2
 1979 00a4 7B68     		ldr	r3, [r7, #4]
 1980 00a6 1B68     		ldr	r3, [r3]
 1981 00a8 1A68     		ldr	r2, [r3]
 1982 00aa 7B68     		ldr	r3, [r7, #4]
 1983 00ac 1B68     		ldr	r3, [r3]
 1984 00ae 22F00102 		bic	r2, r2, #1
 1985 00b2 1A60     		str	r2, [r3]
 1986              	.L102:
 864:Drivers/STM32H7xx_HAL_Driver/Src/stm32h7xx_hal_tim.c **** 
 865:Drivers/STM32H7xx_HAL_Driver/Src/stm32h7xx_hal_tim.c ****   /* Set the TIM channel state */
 866:Drivers/STM32H7xx_HAL_Driver/Src/stm32h7xx_hal_tim.c ****   TIM_CHANNEL_STATE_SET(htim, Channel, HAL_TIM_CHANNEL_STATE_READY);
 1987              		.loc 1 866 3 is_stmt 1
 1988 00b4 3B68     		ldr	r3, [r7]
 1989 00b6 002B     		cmp	r3, #0
 1990 00b8 04D1     		bne	.L103
 1991              		.loc 1 866 3 is_stmt 0 discriminator 1
 1992 00ba 7B68     		ldr	r3, [r7, #4]
 1993 00bc 0122     		movs	r2, #1
 1994 00be 83F83E20 		strb	r2, [r3, #62]
 1995 00c2 23E0     		b	.L104
 1996              	.L103:
 1997              		.loc 1 866 3 discriminator 2
 1998 00c4 3B68     		ldr	r3, [r7]
 1999 00c6 042B     		cmp	r3, #4
 2000 00c8 04D1     		bne	.L105
 2001              		.loc 1 866 3 discriminator 3
 2002 00ca 7B68     		ldr	r3, [r7, #4]
 2003 00cc 0122     		movs	r2, #1
 2004 00ce 83F83F20 		strb	r2, [r3, #63]
 2005 00d2 1BE0     		b	.L104
 2006              	.L105:
ARM GAS  C:\Users\Su\AppData\Local\Temp\cc9h93iY.s 			page 51


 2007              		.loc 1 866 3 discriminator 4
 2008 00d4 3B68     		ldr	r3, [r7]
 2009 00d6 082B     		cmp	r3, #8
 2010 00d8 04D1     		bne	.L107
 2011              		.loc 1 866 3 discriminator 6
 2012 00da 7B68     		ldr	r3, [r7, #4]
 2013 00dc 0122     		movs	r2, #1
 2014 00de 83F84020 		strb	r2, [r3, #64]
 2015 00e2 13E0     		b	.L104
 2016              	.L107:
 2017              		.loc 1 866 3 discriminator 7
 2018 00e4 3B68     		ldr	r3, [r7]
 2019 00e6 0C2B     		cmp	r3, #12
 2020 00e8 04D1     		bne	.L109
 2021              		.loc 1 866 3 discriminator 9
 2022 00ea 7B68     		ldr	r3, [r7, #4]
 2023 00ec 0122     		movs	r2, #1
 2024 00ee 83F84120 		strb	r2, [r3, #65]
 2025 00f2 0BE0     		b	.L104
 2026              	.L109:
 2027              		.loc 1 866 3 discriminator 10
 2028 00f4 3B68     		ldr	r3, [r7]
 2029 00f6 102B     		cmp	r3, #16
 2030 00f8 04D1     		bne	.L111
 2031              		.loc 1 866 3 discriminator 12
 2032 00fa 7B68     		ldr	r3, [r7, #4]
 2033 00fc 0122     		movs	r2, #1
 2034 00fe 83F84220 		strb	r2, [r3, #66]
 2035 0102 03E0     		b	.L104
 2036              	.L111:
 2037              		.loc 1 866 3 discriminator 13
 2038 0104 7B68     		ldr	r3, [r7, #4]
 2039 0106 0122     		movs	r2, #1
 2040 0108 83F84320 		strb	r2, [r3, #67]
 2041              	.L104:
 867:Drivers/STM32H7xx_HAL_Driver/Src/stm32h7xx_hal_tim.c **** 
 868:Drivers/STM32H7xx_HAL_Driver/Src/stm32h7xx_hal_tim.c ****   /* Return function status */
 869:Drivers/STM32H7xx_HAL_Driver/Src/stm32h7xx_hal_tim.c ****   return HAL_OK;
 2042              		.loc 1 869 10 is_stmt 1
 2043 010c 0023     		movs	r3, #0
 870:Drivers/STM32H7xx_HAL_Driver/Src/stm32h7xx_hal_tim.c **** }
 2044              		.loc 1 870 1
 2045 010e 1846     		mov	r0, r3
 2046 0110 0837     		adds	r7, r7, #8
 2047              	.LCFI86:
 2048              		.cfi_def_cfa_offset 8
 2049 0112 BD46     		mov	sp, r7
 2050              	.LCFI87:
 2051              		.cfi_def_cfa_register 13
 2052              		@ sp needed
 2053 0114 80BD     		pop	{r7, pc}
 2054              	.L115:
 2055 0116 00BF     		.align	2
 2056              	.L114:
 2057 0118 00000140 		.word	1073807360
 2058 011c 00040140 		.word	1073808384
 2059 0120 00400140 		.word	1073823744
ARM GAS  C:\Users\Su\AppData\Local\Temp\cc9h93iY.s 			page 52


 2060 0124 00440140 		.word	1073824768
 2061 0128 00480140 		.word	1073825792
 2062              		.cfi_endproc
 2063              	.LFE159:
 2065              		.section	.text.HAL_TIM_OC_Start_IT,"ax",%progbits
 2066              		.align	1
 2067              		.global	HAL_TIM_OC_Start_IT
 2068              		.syntax unified
 2069              		.thumb
 2070              		.thumb_func
 2072              	HAL_TIM_OC_Start_IT:
 2073              	.LFB160:
 871:Drivers/STM32H7xx_HAL_Driver/Src/stm32h7xx_hal_tim.c **** 
 872:Drivers/STM32H7xx_HAL_Driver/Src/stm32h7xx_hal_tim.c **** /**
 873:Drivers/STM32H7xx_HAL_Driver/Src/stm32h7xx_hal_tim.c ****   * @brief  Starts the TIM Output Compare signal generation in interrupt mode.
 874:Drivers/STM32H7xx_HAL_Driver/Src/stm32h7xx_hal_tim.c ****   * @param  htim TIM Output Compare handle
 875:Drivers/STM32H7xx_HAL_Driver/Src/stm32h7xx_hal_tim.c ****   * @param  Channel TIM Channel to be enabled
 876:Drivers/STM32H7xx_HAL_Driver/Src/stm32h7xx_hal_tim.c ****   *          This parameter can be one of the following values:
 877:Drivers/STM32H7xx_HAL_Driver/Src/stm32h7xx_hal_tim.c ****   *            @arg TIM_CHANNEL_1: TIM Channel 1 selected
 878:Drivers/STM32H7xx_HAL_Driver/Src/stm32h7xx_hal_tim.c ****   *            @arg TIM_CHANNEL_2: TIM Channel 2 selected
 879:Drivers/STM32H7xx_HAL_Driver/Src/stm32h7xx_hal_tim.c ****   *            @arg TIM_CHANNEL_3: TIM Channel 3 selected
 880:Drivers/STM32H7xx_HAL_Driver/Src/stm32h7xx_hal_tim.c ****   *            @arg TIM_CHANNEL_4: TIM Channel 4 selected
 881:Drivers/STM32H7xx_HAL_Driver/Src/stm32h7xx_hal_tim.c ****   * @retval HAL status
 882:Drivers/STM32H7xx_HAL_Driver/Src/stm32h7xx_hal_tim.c ****   */
 883:Drivers/STM32H7xx_HAL_Driver/Src/stm32h7xx_hal_tim.c **** HAL_StatusTypeDef HAL_TIM_OC_Start_IT(TIM_HandleTypeDef *htim, uint32_t Channel)
 884:Drivers/STM32H7xx_HAL_Driver/Src/stm32h7xx_hal_tim.c **** {
 2074              		.loc 1 884 1
 2075              		.cfi_startproc
 2076              		@ args = 0, pretend = 0, frame = 16
 2077              		@ frame_needed = 1, uses_anonymous_args = 0
 2078 0000 80B5     		push	{r7, lr}
 2079              	.LCFI88:
 2080              		.cfi_def_cfa_offset 8
 2081              		.cfi_offset 7, -8
 2082              		.cfi_offset 14, -4
 2083 0002 84B0     		sub	sp, sp, #16
 2084              	.LCFI89:
 2085              		.cfi_def_cfa_offset 24
 2086 0004 00AF     		add	r7, sp, #0
 2087              	.LCFI90:
 2088              		.cfi_def_cfa_register 7
 2089 0006 7860     		str	r0, [r7, #4]
 2090 0008 3960     		str	r1, [r7]
 885:Drivers/STM32H7xx_HAL_Driver/Src/stm32h7xx_hal_tim.c ****   HAL_StatusTypeDef status = HAL_OK;
 2091              		.loc 1 885 21
 2092 000a 0023     		movs	r3, #0
 2093 000c FB73     		strb	r3, [r7, #15]
 886:Drivers/STM32H7xx_HAL_Driver/Src/stm32h7xx_hal_tim.c ****   uint32_t tmpsmcr;
 887:Drivers/STM32H7xx_HAL_Driver/Src/stm32h7xx_hal_tim.c **** 
 888:Drivers/STM32H7xx_HAL_Driver/Src/stm32h7xx_hal_tim.c ****   /* Check the parameters */
 889:Drivers/STM32H7xx_HAL_Driver/Src/stm32h7xx_hal_tim.c ****   assert_param(IS_TIM_CCX_INSTANCE(htim->Instance, Channel));
 890:Drivers/STM32H7xx_HAL_Driver/Src/stm32h7xx_hal_tim.c **** 
 891:Drivers/STM32H7xx_HAL_Driver/Src/stm32h7xx_hal_tim.c ****   /* Check the TIM channel state */
 892:Drivers/STM32H7xx_HAL_Driver/Src/stm32h7xx_hal_tim.c ****   if (TIM_CHANNEL_STATE_GET(htim, Channel) != HAL_TIM_CHANNEL_STATE_READY)
 2094              		.loc 1 892 44
 2095 000e 3B68     		ldr	r3, [r7]
 2096 0010 002B     		cmp	r3, #0
ARM GAS  C:\Users\Su\AppData\Local\Temp\cc9h93iY.s 			page 53


 2097 0012 09D1     		bne	.L117
 2098              		.loc 1 892 7 discriminator 1
 2099 0014 7B68     		ldr	r3, [r7, #4]
 2100 0016 93F83E30 		ldrb	r3, [r3, #62]
 2101 001a DBB2     		uxtb	r3, r3
 2102              		.loc 1 892 44 discriminator 1
 2103 001c 012B     		cmp	r3, #1
 2104 001e 14BF     		ite	ne
 2105 0020 0123     		movne	r3, #1
 2106 0022 0023     		moveq	r3, #0
 2107 0024 DBB2     		uxtb	r3, r3
 2108 0026 3CE0     		b	.L118
 2109              	.L117:
 2110              		.loc 1 892 44 is_stmt 0 discriminator 2
 2111 0028 3B68     		ldr	r3, [r7]
 2112 002a 042B     		cmp	r3, #4
 2113 002c 09D1     		bne	.L119
 2114              		.loc 1 892 7 is_stmt 1 discriminator 4
 2115 002e 7B68     		ldr	r3, [r7, #4]
 2116 0030 93F83F30 		ldrb	r3, [r3, #63]
 2117 0034 DBB2     		uxtb	r3, r3
 2118              		.loc 1 892 44 discriminator 4
 2119 0036 012B     		cmp	r3, #1
 2120 0038 14BF     		ite	ne
 2121 003a 0123     		movne	r3, #1
 2122 003c 0023     		moveq	r3, #0
 2123 003e DBB2     		uxtb	r3, r3
 2124 0040 2FE0     		b	.L118
 2125              	.L119:
 2126              		.loc 1 892 44 is_stmt 0 discriminator 5
 2127 0042 3B68     		ldr	r3, [r7]
 2128 0044 082B     		cmp	r3, #8
 2129 0046 09D1     		bne	.L121
 2130              		.loc 1 892 7 is_stmt 1 discriminator 7
 2131 0048 7B68     		ldr	r3, [r7, #4]
 2132 004a 93F84030 		ldrb	r3, [r3, #64]
 2133 004e DBB2     		uxtb	r3, r3
 2134              		.loc 1 892 44 discriminator 7
 2135 0050 012B     		cmp	r3, #1
 2136 0052 14BF     		ite	ne
 2137 0054 0123     		movne	r3, #1
 2138 0056 0023     		moveq	r3, #0
 2139 0058 DBB2     		uxtb	r3, r3
 2140 005a 22E0     		b	.L118
 2141              	.L121:
 2142              		.loc 1 892 44 is_stmt 0 discriminator 8
 2143 005c 3B68     		ldr	r3, [r7]
 2144 005e 0C2B     		cmp	r3, #12
 2145 0060 09D1     		bne	.L123
 2146              		.loc 1 892 7 is_stmt 1 discriminator 10
 2147 0062 7B68     		ldr	r3, [r7, #4]
 2148 0064 93F84130 		ldrb	r3, [r3, #65]
 2149 0068 DBB2     		uxtb	r3, r3
 2150              		.loc 1 892 44 discriminator 10
 2151 006a 012B     		cmp	r3, #1
 2152 006c 14BF     		ite	ne
 2153 006e 0123     		movne	r3, #1
ARM GAS  C:\Users\Su\AppData\Local\Temp\cc9h93iY.s 			page 54


 2154 0070 0023     		moveq	r3, #0
 2155 0072 DBB2     		uxtb	r3, r3
 2156 0074 15E0     		b	.L118
 2157              	.L123:
 2158              		.loc 1 892 44 is_stmt 0 discriminator 11
 2159 0076 3B68     		ldr	r3, [r7]
 2160 0078 102B     		cmp	r3, #16
 2161 007a 09D1     		bne	.L125
 2162              		.loc 1 892 7 is_stmt 1 discriminator 13
 2163 007c 7B68     		ldr	r3, [r7, #4]
 2164 007e 93F84230 		ldrb	r3, [r3, #66]
 2165 0082 DBB2     		uxtb	r3, r3
 2166              		.loc 1 892 44 discriminator 13
 2167 0084 012B     		cmp	r3, #1
 2168 0086 14BF     		ite	ne
 2169 0088 0123     		movne	r3, #1
 2170 008a 0023     		moveq	r3, #0
 2171 008c DBB2     		uxtb	r3, r3
 2172 008e 08E0     		b	.L118
 2173              	.L125:
 2174              		.loc 1 892 7 discriminator 14
 2175 0090 7B68     		ldr	r3, [r7, #4]
 2176 0092 93F84330 		ldrb	r3, [r3, #67]
 2177 0096 DBB2     		uxtb	r3, r3
 2178              		.loc 1 892 44 discriminator 14
 2179 0098 012B     		cmp	r3, #1
 2180 009a 14BF     		ite	ne
 2181 009c 0123     		movne	r3, #1
 2182 009e 0023     		moveq	r3, #0
 2183 00a0 DBB2     		uxtb	r3, r3
 2184              	.L118:
 2185              		.loc 1 892 6 discriminator 20
 2186 00a2 002B     		cmp	r3, #0
 2187 00a4 01D0     		beq	.L127
 893:Drivers/STM32H7xx_HAL_Driver/Src/stm32h7xx_hal_tim.c ****   {
 894:Drivers/STM32H7xx_HAL_Driver/Src/stm32h7xx_hal_tim.c ****     return HAL_ERROR;
 2188              		.loc 1 894 12
 2189 00a6 0123     		movs	r3, #1
 2190 00a8 F6E0     		b	.L128
 2191              	.L127:
 895:Drivers/STM32H7xx_HAL_Driver/Src/stm32h7xx_hal_tim.c ****   }
 896:Drivers/STM32H7xx_HAL_Driver/Src/stm32h7xx_hal_tim.c **** 
 897:Drivers/STM32H7xx_HAL_Driver/Src/stm32h7xx_hal_tim.c ****   /* Set the TIM channel state */
 898:Drivers/STM32H7xx_HAL_Driver/Src/stm32h7xx_hal_tim.c ****   TIM_CHANNEL_STATE_SET(htim, Channel, HAL_TIM_CHANNEL_STATE_BUSY);
 2192              		.loc 1 898 3
 2193 00aa 3B68     		ldr	r3, [r7]
 2194 00ac 002B     		cmp	r3, #0
 2195 00ae 04D1     		bne	.L129
 2196              		.loc 1 898 3 is_stmt 0 discriminator 1
 2197 00b0 7B68     		ldr	r3, [r7, #4]
 2198 00b2 0222     		movs	r2, #2
 2199 00b4 83F83E20 		strb	r2, [r3, #62]
 2200 00b8 23E0     		b	.L130
 2201              	.L129:
 2202              		.loc 1 898 3 discriminator 2
 2203 00ba 3B68     		ldr	r3, [r7]
 2204 00bc 042B     		cmp	r3, #4
ARM GAS  C:\Users\Su\AppData\Local\Temp\cc9h93iY.s 			page 55


 2205 00be 04D1     		bne	.L131
 2206              		.loc 1 898 3 discriminator 3
 2207 00c0 7B68     		ldr	r3, [r7, #4]
 2208 00c2 0222     		movs	r2, #2
 2209 00c4 83F83F20 		strb	r2, [r3, #63]
 2210 00c8 1BE0     		b	.L130
 2211              	.L131:
 2212              		.loc 1 898 3 discriminator 4
 2213 00ca 3B68     		ldr	r3, [r7]
 2214 00cc 082B     		cmp	r3, #8
 2215 00ce 04D1     		bne	.L133
 2216              		.loc 1 898 3 discriminator 6
 2217 00d0 7B68     		ldr	r3, [r7, #4]
 2218 00d2 0222     		movs	r2, #2
 2219 00d4 83F84020 		strb	r2, [r3, #64]
 2220 00d8 13E0     		b	.L130
 2221              	.L133:
 2222              		.loc 1 898 3 discriminator 7
 2223 00da 3B68     		ldr	r3, [r7]
 2224 00dc 0C2B     		cmp	r3, #12
 2225 00de 04D1     		bne	.L135
 2226              		.loc 1 898 3 discriminator 9
 2227 00e0 7B68     		ldr	r3, [r7, #4]
 2228 00e2 0222     		movs	r2, #2
 2229 00e4 83F84120 		strb	r2, [r3, #65]
 2230 00e8 0BE0     		b	.L130
 2231              	.L135:
 2232              		.loc 1 898 3 discriminator 10
 2233 00ea 3B68     		ldr	r3, [r7]
 2234 00ec 102B     		cmp	r3, #16
 2235 00ee 04D1     		bne	.L137
 2236              		.loc 1 898 3 discriminator 12
 2237 00f0 7B68     		ldr	r3, [r7, #4]
 2238 00f2 0222     		movs	r2, #2
 2239 00f4 83F84220 		strb	r2, [r3, #66]
 2240 00f8 03E0     		b	.L130
 2241              	.L137:
 2242              		.loc 1 898 3 discriminator 13
 2243 00fa 7B68     		ldr	r3, [r7, #4]
 2244 00fc 0222     		movs	r2, #2
 2245 00fe 83F84320 		strb	r2, [r3, #67]
 2246              	.L130:
 899:Drivers/STM32H7xx_HAL_Driver/Src/stm32h7xx_hal_tim.c **** 
 900:Drivers/STM32H7xx_HAL_Driver/Src/stm32h7xx_hal_tim.c ****   switch (Channel)
 2247              		.loc 1 900 3 is_stmt 1
 2248 0102 3B68     		ldr	r3, [r7]
 2249 0104 0C2B     		cmp	r3, #12
 2250 0106 41D8     		bhi	.L139
 2251 0108 01A2     		adr	r2, .L141
 2252 010a 52F823F0 		ldr	pc, [r2, r3, lsl #2]
 2253 010e 00BF     		.p2align 2
 2254              	.L141:
 2255 0110 45010000 		.word	.L144+1
 2256 0114 8D010000 		.word	.L139+1
 2257 0118 8D010000 		.word	.L139+1
 2258 011c 8D010000 		.word	.L139+1
 2259 0120 57010000 		.word	.L143+1
ARM GAS  C:\Users\Su\AppData\Local\Temp\cc9h93iY.s 			page 56


 2260 0124 8D010000 		.word	.L139+1
 2261 0128 8D010000 		.word	.L139+1
 2262 012c 8D010000 		.word	.L139+1
 2263 0130 69010000 		.word	.L142+1
 2264 0134 8D010000 		.word	.L139+1
 2265 0138 8D010000 		.word	.L139+1
 2266 013c 8D010000 		.word	.L139+1
 2267 0140 7B010000 		.word	.L140+1
 2268              		.p2align 1
 2269              	.L144:
 901:Drivers/STM32H7xx_HAL_Driver/Src/stm32h7xx_hal_tim.c ****   {
 902:Drivers/STM32H7xx_HAL_Driver/Src/stm32h7xx_hal_tim.c ****     case TIM_CHANNEL_1:
 903:Drivers/STM32H7xx_HAL_Driver/Src/stm32h7xx_hal_tim.c ****     {
 904:Drivers/STM32H7xx_HAL_Driver/Src/stm32h7xx_hal_tim.c ****       /* Enable the TIM Capture/Compare 1 interrupt */
 905:Drivers/STM32H7xx_HAL_Driver/Src/stm32h7xx_hal_tim.c ****       __HAL_TIM_ENABLE_IT(htim, TIM_IT_CC1);
 2270              		.loc 1 905 7
 2271 0144 7B68     		ldr	r3, [r7, #4]
 2272 0146 1B68     		ldr	r3, [r3]
 2273 0148 DA68     		ldr	r2, [r3, #12]
 2274 014a 7B68     		ldr	r3, [r7, #4]
 2275 014c 1B68     		ldr	r3, [r3]
 2276 014e 42F00202 		orr	r2, r2, #2
 2277 0152 DA60     		str	r2, [r3, #12]
 906:Drivers/STM32H7xx_HAL_Driver/Src/stm32h7xx_hal_tim.c ****       break;
 2278              		.loc 1 906 7
 2279 0154 1DE0     		b	.L145
 2280              	.L143:
 907:Drivers/STM32H7xx_HAL_Driver/Src/stm32h7xx_hal_tim.c ****     }
 908:Drivers/STM32H7xx_HAL_Driver/Src/stm32h7xx_hal_tim.c **** 
 909:Drivers/STM32H7xx_HAL_Driver/Src/stm32h7xx_hal_tim.c ****     case TIM_CHANNEL_2:
 910:Drivers/STM32H7xx_HAL_Driver/Src/stm32h7xx_hal_tim.c ****     {
 911:Drivers/STM32H7xx_HAL_Driver/Src/stm32h7xx_hal_tim.c ****       /* Enable the TIM Capture/Compare 2 interrupt */
 912:Drivers/STM32H7xx_HAL_Driver/Src/stm32h7xx_hal_tim.c ****       __HAL_TIM_ENABLE_IT(htim, TIM_IT_CC2);
 2281              		.loc 1 912 7
 2282 0156 7B68     		ldr	r3, [r7, #4]
 2283 0158 1B68     		ldr	r3, [r3]
 2284 015a DA68     		ldr	r2, [r3, #12]
 2285 015c 7B68     		ldr	r3, [r7, #4]
 2286 015e 1B68     		ldr	r3, [r3]
 2287 0160 42F00402 		orr	r2, r2, #4
 2288 0164 DA60     		str	r2, [r3, #12]
 913:Drivers/STM32H7xx_HAL_Driver/Src/stm32h7xx_hal_tim.c ****       break;
 2289              		.loc 1 913 7
 2290 0166 14E0     		b	.L145
 2291              	.L142:
 914:Drivers/STM32H7xx_HAL_Driver/Src/stm32h7xx_hal_tim.c ****     }
 915:Drivers/STM32H7xx_HAL_Driver/Src/stm32h7xx_hal_tim.c **** 
 916:Drivers/STM32H7xx_HAL_Driver/Src/stm32h7xx_hal_tim.c ****     case TIM_CHANNEL_3:
 917:Drivers/STM32H7xx_HAL_Driver/Src/stm32h7xx_hal_tim.c ****     {
 918:Drivers/STM32H7xx_HAL_Driver/Src/stm32h7xx_hal_tim.c ****       /* Enable the TIM Capture/Compare 3 interrupt */
 919:Drivers/STM32H7xx_HAL_Driver/Src/stm32h7xx_hal_tim.c ****       __HAL_TIM_ENABLE_IT(htim, TIM_IT_CC3);
 2292              		.loc 1 919 7
 2293 0168 7B68     		ldr	r3, [r7, #4]
 2294 016a 1B68     		ldr	r3, [r3]
 2295 016c DA68     		ldr	r2, [r3, #12]
 2296 016e 7B68     		ldr	r3, [r7, #4]
 2297 0170 1B68     		ldr	r3, [r3]
ARM GAS  C:\Users\Su\AppData\Local\Temp\cc9h93iY.s 			page 57


 2298 0172 42F00802 		orr	r2, r2, #8
 2299 0176 DA60     		str	r2, [r3, #12]
 920:Drivers/STM32H7xx_HAL_Driver/Src/stm32h7xx_hal_tim.c ****       break;
 2300              		.loc 1 920 7
 2301 0178 0BE0     		b	.L145
 2302              	.L140:
 921:Drivers/STM32H7xx_HAL_Driver/Src/stm32h7xx_hal_tim.c ****     }
 922:Drivers/STM32H7xx_HAL_Driver/Src/stm32h7xx_hal_tim.c **** 
 923:Drivers/STM32H7xx_HAL_Driver/Src/stm32h7xx_hal_tim.c ****     case TIM_CHANNEL_4:
 924:Drivers/STM32H7xx_HAL_Driver/Src/stm32h7xx_hal_tim.c ****     {
 925:Drivers/STM32H7xx_HAL_Driver/Src/stm32h7xx_hal_tim.c ****       /* Enable the TIM Capture/Compare 4 interrupt */
 926:Drivers/STM32H7xx_HAL_Driver/Src/stm32h7xx_hal_tim.c ****       __HAL_TIM_ENABLE_IT(htim, TIM_IT_CC4);
 2303              		.loc 1 926 7
 2304 017a 7B68     		ldr	r3, [r7, #4]
 2305 017c 1B68     		ldr	r3, [r3]
 2306 017e DA68     		ldr	r2, [r3, #12]
 2307 0180 7B68     		ldr	r3, [r7, #4]
 2308 0182 1B68     		ldr	r3, [r3]
 2309 0184 42F01002 		orr	r2, r2, #16
 2310 0188 DA60     		str	r2, [r3, #12]
 927:Drivers/STM32H7xx_HAL_Driver/Src/stm32h7xx_hal_tim.c ****       break;
 2311              		.loc 1 927 7
 2312 018a 02E0     		b	.L145
 2313              	.L139:
 928:Drivers/STM32H7xx_HAL_Driver/Src/stm32h7xx_hal_tim.c ****     }
 929:Drivers/STM32H7xx_HAL_Driver/Src/stm32h7xx_hal_tim.c **** 
 930:Drivers/STM32H7xx_HAL_Driver/Src/stm32h7xx_hal_tim.c ****     default:
 931:Drivers/STM32H7xx_HAL_Driver/Src/stm32h7xx_hal_tim.c ****       status = HAL_ERROR;
 2314              		.loc 1 931 14
 2315 018c 0123     		movs	r3, #1
 2316 018e FB73     		strb	r3, [r7, #15]
 932:Drivers/STM32H7xx_HAL_Driver/Src/stm32h7xx_hal_tim.c ****       break;
 2317              		.loc 1 932 7
 2318 0190 00BF     		nop
 2319              	.L145:
 933:Drivers/STM32H7xx_HAL_Driver/Src/stm32h7xx_hal_tim.c ****   }
 934:Drivers/STM32H7xx_HAL_Driver/Src/stm32h7xx_hal_tim.c **** 
 935:Drivers/STM32H7xx_HAL_Driver/Src/stm32h7xx_hal_tim.c ****   if (status == HAL_OK)
 2320              		.loc 1 935 6
 2321 0192 FB7B     		ldrb	r3, [r7, #15]	@ zero_extendqisi2
 2322 0194 002B     		cmp	r3, #0
 2323 0196 7ED1     		bne	.L146
 936:Drivers/STM32H7xx_HAL_Driver/Src/stm32h7xx_hal_tim.c ****   {
 937:Drivers/STM32H7xx_HAL_Driver/Src/stm32h7xx_hal_tim.c ****     /* Enable the Output compare channel */
 938:Drivers/STM32H7xx_HAL_Driver/Src/stm32h7xx_hal_tim.c ****     TIM_CCxChannelCmd(htim->Instance, Channel, TIM_CCx_ENABLE);
 2324              		.loc 1 938 5
 2325 0198 7B68     		ldr	r3, [r7, #4]
 2326 019a 1B68     		ldr	r3, [r3]
 2327 019c 0122     		movs	r2, #1
 2328 019e 3968     		ldr	r1, [r7]
 2329 01a0 1846     		mov	r0, r3
 2330 01a2 FFF7FEFF 		bl	TIM_CCxChannelCmd
 939:Drivers/STM32H7xx_HAL_Driver/Src/stm32h7xx_hal_tim.c **** 
 940:Drivers/STM32H7xx_HAL_Driver/Src/stm32h7xx_hal_tim.c ****     if (IS_TIM_BREAK_INSTANCE(htim->Instance) != RESET)
 2331              		.loc 1 940 9
 2332 01a6 7B68     		ldr	r3, [r7, #4]
 2333 01a8 1B68     		ldr	r3, [r3]
ARM GAS  C:\Users\Su\AppData\Local\Temp\cc9h93iY.s 			page 58


 2334 01aa 3D4A     		ldr	r2, .L155
 2335 01ac 9342     		cmp	r3, r2
 2336 01ae 13D0     		beq	.L147
 2337              		.loc 1 940 9 is_stmt 0 discriminator 2
 2338 01b0 7B68     		ldr	r3, [r7, #4]
 2339 01b2 1B68     		ldr	r3, [r3]
 2340 01b4 3B4A     		ldr	r2, .L155+4
 2341 01b6 9342     		cmp	r3, r2
 2342 01b8 0ED0     		beq	.L147
 2343              		.loc 1 940 9 discriminator 4
 2344 01ba 7B68     		ldr	r3, [r7, #4]
 2345 01bc 1B68     		ldr	r3, [r3]
 2346 01be 3A4A     		ldr	r2, .L155+8
 2347 01c0 9342     		cmp	r3, r2
 2348 01c2 09D0     		beq	.L147
 2349              		.loc 1 940 9 discriminator 6
 2350 01c4 7B68     		ldr	r3, [r7, #4]
 2351 01c6 1B68     		ldr	r3, [r3]
 2352 01c8 384A     		ldr	r2, .L155+12
 2353 01ca 9342     		cmp	r3, r2
 2354 01cc 04D0     		beq	.L147
 2355              		.loc 1 940 9 discriminator 8
 2356 01ce 7B68     		ldr	r3, [r7, #4]
 2357 01d0 1B68     		ldr	r3, [r3]
 2358 01d2 374A     		ldr	r2, .L155+16
 2359 01d4 9342     		cmp	r3, r2
 2360 01d6 01D1     		bne	.L148
 2361              	.L147:
 2362              		.loc 1 940 9 discriminator 9
 2363 01d8 0123     		movs	r3, #1
 2364 01da 00E0     		b	.L149
 2365              	.L148:
 2366              		.loc 1 940 9 discriminator 10
 2367 01dc 0023     		movs	r3, #0
 2368              	.L149:
 2369              		.loc 1 940 8 is_stmt 1 discriminator 12
 2370 01de 002B     		cmp	r3, #0
 2371 01e0 07D0     		beq	.L150
 941:Drivers/STM32H7xx_HAL_Driver/Src/stm32h7xx_hal_tim.c ****     {
 942:Drivers/STM32H7xx_HAL_Driver/Src/stm32h7xx_hal_tim.c ****       /* Enable the main output */
 943:Drivers/STM32H7xx_HAL_Driver/Src/stm32h7xx_hal_tim.c ****       __HAL_TIM_MOE_ENABLE(htim);
 2372              		.loc 1 943 7
 2373 01e2 7B68     		ldr	r3, [r7, #4]
 2374 01e4 1B68     		ldr	r3, [r3]
 2375 01e6 5A6C     		ldr	r2, [r3, #68]
 2376 01e8 7B68     		ldr	r3, [r7, #4]
 2377 01ea 1B68     		ldr	r3, [r3]
 2378 01ec 42F40042 		orr	r2, r2, #32768
 2379 01f0 5A64     		str	r2, [r3, #68]
 2380              	.L150:
 944:Drivers/STM32H7xx_HAL_Driver/Src/stm32h7xx_hal_tim.c ****     }
 945:Drivers/STM32H7xx_HAL_Driver/Src/stm32h7xx_hal_tim.c **** 
 946:Drivers/STM32H7xx_HAL_Driver/Src/stm32h7xx_hal_tim.c ****     /* Enable the Peripheral, except in trigger mode where enable is automatically done with trigge
 947:Drivers/STM32H7xx_HAL_Driver/Src/stm32h7xx_hal_tim.c ****     if (IS_TIM_SLAVE_INSTANCE(htim->Instance))
 2381              		.loc 1 947 9
 2382 01f2 7B68     		ldr	r3, [r7, #4]
 2383 01f4 1B68     		ldr	r3, [r3]
ARM GAS  C:\Users\Su\AppData\Local\Temp\cc9h93iY.s 			page 59


 2384              		.loc 1 947 8
 2385 01f6 2A4A     		ldr	r2, .L155
 2386 01f8 9342     		cmp	r3, r2
 2387 01fa 2CD0     		beq	.L151
 2388              		.loc 1 947 9 discriminator 1
 2389 01fc 7B68     		ldr	r3, [r7, #4]
 2390 01fe 1B68     		ldr	r3, [r3]
 2391 0200 B3F1804F 		cmp	r3, #1073741824
 2392 0204 27D0     		beq	.L151
 2393              		.loc 1 947 9 is_stmt 0 discriminator 2
 2394 0206 7B68     		ldr	r3, [r7, #4]
 2395 0208 1B68     		ldr	r3, [r3]
 2396 020a 2A4A     		ldr	r2, .L155+20
 2397 020c 9342     		cmp	r3, r2
 2398 020e 22D0     		beq	.L151
 2399              		.loc 1 947 9 discriminator 3
 2400 0210 7B68     		ldr	r3, [r7, #4]
 2401 0212 1B68     		ldr	r3, [r3]
 2402 0214 284A     		ldr	r2, .L155+24
 2403 0216 9342     		cmp	r3, r2
 2404 0218 1DD0     		beq	.L151
 2405              		.loc 1 947 9 discriminator 4
 2406 021a 7B68     		ldr	r3, [r7, #4]
 2407 021c 1B68     		ldr	r3, [r3]
 2408 021e 274A     		ldr	r2, .L155+28
 2409 0220 9342     		cmp	r3, r2
 2410 0222 18D0     		beq	.L151
 2411              		.loc 1 947 9 discriminator 5
 2412 0224 7B68     		ldr	r3, [r7, #4]
 2413 0226 1B68     		ldr	r3, [r3]
 2414 0228 1E4A     		ldr	r2, .L155+4
 2415 022a 9342     		cmp	r3, r2
 2416 022c 13D0     		beq	.L151
 2417              		.loc 1 947 9 discriminator 6
 2418 022e 7B68     		ldr	r3, [r7, #4]
 2419 0230 1B68     		ldr	r3, [r3]
 2420 0232 234A     		ldr	r2, .L155+32
 2421 0234 9342     		cmp	r3, r2
 2422 0236 0ED0     		beq	.L151
 2423              		.loc 1 947 9 discriminator 7
 2424 0238 7B68     		ldr	r3, [r7, #4]
 2425 023a 1B68     		ldr	r3, [r3]
 2426 023c 1A4A     		ldr	r2, .L155+8
 2427 023e 9342     		cmp	r3, r2
 2428 0240 09D0     		beq	.L151
 2429              		.loc 1 947 9 discriminator 8
 2430 0242 7B68     		ldr	r3, [r7, #4]
 2431 0244 1B68     		ldr	r3, [r3]
 2432 0246 1F4A     		ldr	r2, .L155+36
 2433 0248 9342     		cmp	r3, r2
 2434 024a 04D0     		beq	.L151
 2435              		.loc 1 947 9 discriminator 9
 2436 024c 7B68     		ldr	r3, [r7, #4]
 2437 024e 1B68     		ldr	r3, [r3]
 2438 0250 1D4A     		ldr	r2, .L155+40
 2439 0252 9342     		cmp	r3, r2
 2440 0254 15D1     		bne	.L152
ARM GAS  C:\Users\Su\AppData\Local\Temp\cc9h93iY.s 			page 60


 2441              	.L151:
 948:Drivers/STM32H7xx_HAL_Driver/Src/stm32h7xx_hal_tim.c ****     {
 949:Drivers/STM32H7xx_HAL_Driver/Src/stm32h7xx_hal_tim.c ****       tmpsmcr = htim->Instance->SMCR & TIM_SMCR_SMS;
 2442              		.loc 1 949 21 is_stmt 1
 2443 0256 7B68     		ldr	r3, [r7, #4]
 2444 0258 1B68     		ldr	r3, [r3]
 2445              		.loc 1 949 31
 2446 025a 9A68     		ldr	r2, [r3, #8]
 2447              		.loc 1 949 15
 2448 025c 1B4B     		ldr	r3, .L155+44
 2449 025e 1340     		ands	r3, r3, r2
 2450 0260 BB60     		str	r3, [r7, #8]
 950:Drivers/STM32H7xx_HAL_Driver/Src/stm32h7xx_hal_tim.c ****       if (!IS_TIM_SLAVEMODE_TRIGGER_ENABLED(tmpsmcr))
 2451              		.loc 1 950 10
 2452 0262 BB68     		ldr	r3, [r7, #8]
 2453 0264 062B     		cmp	r3, #6
 2454 0266 15D0     		beq	.L154
 2455              		.loc 1 950 11 discriminator 1
 2456 0268 BB68     		ldr	r3, [r7, #8]
 2457 026a B3F5803F 		cmp	r3, #65536
 2458 026e 11D0     		beq	.L154
 951:Drivers/STM32H7xx_HAL_Driver/Src/stm32h7xx_hal_tim.c ****       {
 952:Drivers/STM32H7xx_HAL_Driver/Src/stm32h7xx_hal_tim.c ****         __HAL_TIM_ENABLE(htim);
 2459              		.loc 1 952 9
 2460 0270 7B68     		ldr	r3, [r7, #4]
 2461 0272 1B68     		ldr	r3, [r3]
 2462 0274 1A68     		ldr	r2, [r3]
 2463 0276 7B68     		ldr	r3, [r7, #4]
 2464 0278 1B68     		ldr	r3, [r3]
 2465 027a 42F00102 		orr	r2, r2, #1
 2466 027e 1A60     		str	r2, [r3]
 950:Drivers/STM32H7xx_HAL_Driver/Src/stm32h7xx_hal_tim.c ****       if (!IS_TIM_SLAVEMODE_TRIGGER_ENABLED(tmpsmcr))
 2467              		.loc 1 950 10
 2468 0280 08E0     		b	.L154
 2469              	.L152:
 953:Drivers/STM32H7xx_HAL_Driver/Src/stm32h7xx_hal_tim.c ****       }
 954:Drivers/STM32H7xx_HAL_Driver/Src/stm32h7xx_hal_tim.c ****     }
 955:Drivers/STM32H7xx_HAL_Driver/Src/stm32h7xx_hal_tim.c ****     else
 956:Drivers/STM32H7xx_HAL_Driver/Src/stm32h7xx_hal_tim.c ****     {
 957:Drivers/STM32H7xx_HAL_Driver/Src/stm32h7xx_hal_tim.c ****       __HAL_TIM_ENABLE(htim);
 2470              		.loc 1 957 7
 2471 0282 7B68     		ldr	r3, [r7, #4]
 2472 0284 1B68     		ldr	r3, [r3]
 2473 0286 1A68     		ldr	r2, [r3]
 2474 0288 7B68     		ldr	r3, [r7, #4]
 2475 028a 1B68     		ldr	r3, [r3]
 2476 028c 42F00102 		orr	r2, r2, #1
 2477 0290 1A60     		str	r2, [r3]
 2478 0292 00E0     		b	.L146
 2479              	.L154:
 950:Drivers/STM32H7xx_HAL_Driver/Src/stm32h7xx_hal_tim.c ****       {
 2480              		.loc 1 950 10
 2481 0294 00BF     		nop
 2482              	.L146:
 958:Drivers/STM32H7xx_HAL_Driver/Src/stm32h7xx_hal_tim.c ****     }
 959:Drivers/STM32H7xx_HAL_Driver/Src/stm32h7xx_hal_tim.c ****   }
 960:Drivers/STM32H7xx_HAL_Driver/Src/stm32h7xx_hal_tim.c **** 
ARM GAS  C:\Users\Su\AppData\Local\Temp\cc9h93iY.s 			page 61


 961:Drivers/STM32H7xx_HAL_Driver/Src/stm32h7xx_hal_tim.c ****   /* Return function status */
 962:Drivers/STM32H7xx_HAL_Driver/Src/stm32h7xx_hal_tim.c ****   return status;
 2483              		.loc 1 962 10
 2484 0296 FB7B     		ldrb	r3, [r7, #15]	@ zero_extendqisi2
 2485              	.L128:
 963:Drivers/STM32H7xx_HAL_Driver/Src/stm32h7xx_hal_tim.c **** }
 2486              		.loc 1 963 1
 2487 0298 1846     		mov	r0, r3
 2488 029a 1037     		adds	r7, r7, #16
 2489              	.LCFI91:
 2490              		.cfi_def_cfa_offset 8
 2491 029c BD46     		mov	sp, r7
 2492              	.LCFI92:
 2493              		.cfi_def_cfa_register 13
 2494              		@ sp needed
 2495 029e 80BD     		pop	{r7, pc}
 2496              	.L156:
 2497              		.align	2
 2498              	.L155:
 2499 02a0 00000140 		.word	1073807360
 2500 02a4 00040140 		.word	1073808384
 2501 02a8 00400140 		.word	1073823744
 2502 02ac 00440140 		.word	1073824768
 2503 02b0 00480140 		.word	1073825792
 2504 02b4 00040040 		.word	1073742848
 2505 02b8 00080040 		.word	1073743872
 2506 02bc 000C0040 		.word	1073744896
 2507 02c0 00180040 		.word	1073747968
 2508 02c4 00E00040 		.word	1073799168
 2509 02c8 00E40040 		.word	1073800192
 2510 02cc 07000100 		.word	65543
 2511              		.cfi_endproc
 2512              	.LFE160:
 2514              		.section	.text.HAL_TIM_OC_Stop_IT,"ax",%progbits
 2515              		.align	1
 2516              		.global	HAL_TIM_OC_Stop_IT
 2517              		.syntax unified
 2518              		.thumb
 2519              		.thumb_func
 2521              	HAL_TIM_OC_Stop_IT:
 2522              	.LFB161:
 964:Drivers/STM32H7xx_HAL_Driver/Src/stm32h7xx_hal_tim.c **** 
 965:Drivers/STM32H7xx_HAL_Driver/Src/stm32h7xx_hal_tim.c **** /**
 966:Drivers/STM32H7xx_HAL_Driver/Src/stm32h7xx_hal_tim.c ****   * @brief  Stops the TIM Output Compare signal generation in interrupt mode.
 967:Drivers/STM32H7xx_HAL_Driver/Src/stm32h7xx_hal_tim.c ****   * @param  htim TIM Output Compare handle
 968:Drivers/STM32H7xx_HAL_Driver/Src/stm32h7xx_hal_tim.c ****   * @param  Channel TIM Channel to be disabled
 969:Drivers/STM32H7xx_HAL_Driver/Src/stm32h7xx_hal_tim.c ****   *          This parameter can be one of the following values:
 970:Drivers/STM32H7xx_HAL_Driver/Src/stm32h7xx_hal_tim.c ****   *            @arg TIM_CHANNEL_1: TIM Channel 1 selected
 971:Drivers/STM32H7xx_HAL_Driver/Src/stm32h7xx_hal_tim.c ****   *            @arg TIM_CHANNEL_2: TIM Channel 2 selected
 972:Drivers/STM32H7xx_HAL_Driver/Src/stm32h7xx_hal_tim.c ****   *            @arg TIM_CHANNEL_3: TIM Channel 3 selected
 973:Drivers/STM32H7xx_HAL_Driver/Src/stm32h7xx_hal_tim.c ****   *            @arg TIM_CHANNEL_4: TIM Channel 4 selected
 974:Drivers/STM32H7xx_HAL_Driver/Src/stm32h7xx_hal_tim.c ****   * @retval HAL status
 975:Drivers/STM32H7xx_HAL_Driver/Src/stm32h7xx_hal_tim.c ****   */
 976:Drivers/STM32H7xx_HAL_Driver/Src/stm32h7xx_hal_tim.c **** HAL_StatusTypeDef HAL_TIM_OC_Stop_IT(TIM_HandleTypeDef *htim, uint32_t Channel)
 977:Drivers/STM32H7xx_HAL_Driver/Src/stm32h7xx_hal_tim.c **** {
 2523              		.loc 1 977 1
 2524              		.cfi_startproc
ARM GAS  C:\Users\Su\AppData\Local\Temp\cc9h93iY.s 			page 62


 2525              		@ args = 0, pretend = 0, frame = 16
 2526              		@ frame_needed = 1, uses_anonymous_args = 0
 2527 0000 80B5     		push	{r7, lr}
 2528              	.LCFI93:
 2529              		.cfi_def_cfa_offset 8
 2530              		.cfi_offset 7, -8
 2531              		.cfi_offset 14, -4
 2532 0002 84B0     		sub	sp, sp, #16
 2533              	.LCFI94:
 2534              		.cfi_def_cfa_offset 24
 2535 0004 00AF     		add	r7, sp, #0
 2536              	.LCFI95:
 2537              		.cfi_def_cfa_register 7
 2538 0006 7860     		str	r0, [r7, #4]
 2539 0008 3960     		str	r1, [r7]
 978:Drivers/STM32H7xx_HAL_Driver/Src/stm32h7xx_hal_tim.c ****   HAL_StatusTypeDef status = HAL_OK;
 2540              		.loc 1 978 21
 2541 000a 0023     		movs	r3, #0
 2542 000c FB73     		strb	r3, [r7, #15]
 979:Drivers/STM32H7xx_HAL_Driver/Src/stm32h7xx_hal_tim.c **** 
 980:Drivers/STM32H7xx_HAL_Driver/Src/stm32h7xx_hal_tim.c ****   /* Check the parameters */
 981:Drivers/STM32H7xx_HAL_Driver/Src/stm32h7xx_hal_tim.c ****   assert_param(IS_TIM_CCX_INSTANCE(htim->Instance, Channel));
 982:Drivers/STM32H7xx_HAL_Driver/Src/stm32h7xx_hal_tim.c **** 
 983:Drivers/STM32H7xx_HAL_Driver/Src/stm32h7xx_hal_tim.c ****   switch (Channel)
 2543              		.loc 1 983 3
 2544 000e 3B68     		ldr	r3, [r7]
 2545 0010 0C2B     		cmp	r3, #12
 2546 0012 41D8     		bhi	.L158
 2547 0014 01A2     		adr	r2, .L160
 2548 0016 52F823F0 		ldr	pc, [r2, r3, lsl #2]
 2549 001a 00BF     		.p2align 2
 2550              	.L160:
 2551 001c 51000000 		.word	.L163+1
 2552 0020 99000000 		.word	.L158+1
 2553 0024 99000000 		.word	.L158+1
 2554 0028 99000000 		.word	.L158+1
 2555 002c 63000000 		.word	.L162+1
 2556 0030 99000000 		.word	.L158+1
 2557 0034 99000000 		.word	.L158+1
 2558 0038 99000000 		.word	.L158+1
 2559 003c 75000000 		.word	.L161+1
 2560 0040 99000000 		.word	.L158+1
 2561 0044 99000000 		.word	.L158+1
 2562 0048 99000000 		.word	.L158+1
 2563 004c 87000000 		.word	.L159+1
 2564              		.p2align 1
 2565              	.L163:
 984:Drivers/STM32H7xx_HAL_Driver/Src/stm32h7xx_hal_tim.c ****   {
 985:Drivers/STM32H7xx_HAL_Driver/Src/stm32h7xx_hal_tim.c ****     case TIM_CHANNEL_1:
 986:Drivers/STM32H7xx_HAL_Driver/Src/stm32h7xx_hal_tim.c ****     {
 987:Drivers/STM32H7xx_HAL_Driver/Src/stm32h7xx_hal_tim.c ****       /* Disable the TIM Capture/Compare 1 interrupt */
 988:Drivers/STM32H7xx_HAL_Driver/Src/stm32h7xx_hal_tim.c ****       __HAL_TIM_DISABLE_IT(htim, TIM_IT_CC1);
 2566              		.loc 1 988 7
 2567 0050 7B68     		ldr	r3, [r7, #4]
 2568 0052 1B68     		ldr	r3, [r3]
 2569 0054 DA68     		ldr	r2, [r3, #12]
 2570 0056 7B68     		ldr	r3, [r7, #4]
ARM GAS  C:\Users\Su\AppData\Local\Temp\cc9h93iY.s 			page 63


 2571 0058 1B68     		ldr	r3, [r3]
 2572 005a 22F00202 		bic	r2, r2, #2
 2573 005e DA60     		str	r2, [r3, #12]
 989:Drivers/STM32H7xx_HAL_Driver/Src/stm32h7xx_hal_tim.c ****       break;
 2574              		.loc 1 989 7
 2575 0060 1DE0     		b	.L164
 2576              	.L162:
 990:Drivers/STM32H7xx_HAL_Driver/Src/stm32h7xx_hal_tim.c ****     }
 991:Drivers/STM32H7xx_HAL_Driver/Src/stm32h7xx_hal_tim.c **** 
 992:Drivers/STM32H7xx_HAL_Driver/Src/stm32h7xx_hal_tim.c ****     case TIM_CHANNEL_2:
 993:Drivers/STM32H7xx_HAL_Driver/Src/stm32h7xx_hal_tim.c ****     {
 994:Drivers/STM32H7xx_HAL_Driver/Src/stm32h7xx_hal_tim.c ****       /* Disable the TIM Capture/Compare 2 interrupt */
 995:Drivers/STM32H7xx_HAL_Driver/Src/stm32h7xx_hal_tim.c ****       __HAL_TIM_DISABLE_IT(htim, TIM_IT_CC2);
 2577              		.loc 1 995 7
 2578 0062 7B68     		ldr	r3, [r7, #4]
 2579 0064 1B68     		ldr	r3, [r3]
 2580 0066 DA68     		ldr	r2, [r3, #12]
 2581 0068 7B68     		ldr	r3, [r7, #4]
 2582 006a 1B68     		ldr	r3, [r3]
 2583 006c 22F00402 		bic	r2, r2, #4
 2584 0070 DA60     		str	r2, [r3, #12]
 996:Drivers/STM32H7xx_HAL_Driver/Src/stm32h7xx_hal_tim.c ****       break;
 2585              		.loc 1 996 7
 2586 0072 14E0     		b	.L164
 2587              	.L161:
 997:Drivers/STM32H7xx_HAL_Driver/Src/stm32h7xx_hal_tim.c ****     }
 998:Drivers/STM32H7xx_HAL_Driver/Src/stm32h7xx_hal_tim.c **** 
 999:Drivers/STM32H7xx_HAL_Driver/Src/stm32h7xx_hal_tim.c ****     case TIM_CHANNEL_3:
1000:Drivers/STM32H7xx_HAL_Driver/Src/stm32h7xx_hal_tim.c ****     {
1001:Drivers/STM32H7xx_HAL_Driver/Src/stm32h7xx_hal_tim.c ****       /* Disable the TIM Capture/Compare 3 interrupt */
1002:Drivers/STM32H7xx_HAL_Driver/Src/stm32h7xx_hal_tim.c ****       __HAL_TIM_DISABLE_IT(htim, TIM_IT_CC3);
 2588              		.loc 1 1002 7
 2589 0074 7B68     		ldr	r3, [r7, #4]
 2590 0076 1B68     		ldr	r3, [r3]
 2591 0078 DA68     		ldr	r2, [r3, #12]
 2592 007a 7B68     		ldr	r3, [r7, #4]
 2593 007c 1B68     		ldr	r3, [r3]
 2594 007e 22F00802 		bic	r2, r2, #8
 2595 0082 DA60     		str	r2, [r3, #12]
1003:Drivers/STM32H7xx_HAL_Driver/Src/stm32h7xx_hal_tim.c ****       break;
 2596              		.loc 1 1003 7
 2597 0084 0BE0     		b	.L164
 2598              	.L159:
1004:Drivers/STM32H7xx_HAL_Driver/Src/stm32h7xx_hal_tim.c ****     }
1005:Drivers/STM32H7xx_HAL_Driver/Src/stm32h7xx_hal_tim.c **** 
1006:Drivers/STM32H7xx_HAL_Driver/Src/stm32h7xx_hal_tim.c ****     case TIM_CHANNEL_4:
1007:Drivers/STM32H7xx_HAL_Driver/Src/stm32h7xx_hal_tim.c ****     {
1008:Drivers/STM32H7xx_HAL_Driver/Src/stm32h7xx_hal_tim.c ****       /* Disable the TIM Capture/Compare 4 interrupt */
1009:Drivers/STM32H7xx_HAL_Driver/Src/stm32h7xx_hal_tim.c ****       __HAL_TIM_DISABLE_IT(htim, TIM_IT_CC4);
 2599              		.loc 1 1009 7
 2600 0086 7B68     		ldr	r3, [r7, #4]
 2601 0088 1B68     		ldr	r3, [r3]
 2602 008a DA68     		ldr	r2, [r3, #12]
 2603 008c 7B68     		ldr	r3, [r7, #4]
 2604 008e 1B68     		ldr	r3, [r3]
 2605 0090 22F01002 		bic	r2, r2, #16
 2606 0094 DA60     		str	r2, [r3, #12]
ARM GAS  C:\Users\Su\AppData\Local\Temp\cc9h93iY.s 			page 64


1010:Drivers/STM32H7xx_HAL_Driver/Src/stm32h7xx_hal_tim.c ****       break;
 2607              		.loc 1 1010 7
 2608 0096 02E0     		b	.L164
 2609              	.L158:
1011:Drivers/STM32H7xx_HAL_Driver/Src/stm32h7xx_hal_tim.c ****     }
1012:Drivers/STM32H7xx_HAL_Driver/Src/stm32h7xx_hal_tim.c **** 
1013:Drivers/STM32H7xx_HAL_Driver/Src/stm32h7xx_hal_tim.c ****     default:
1014:Drivers/STM32H7xx_HAL_Driver/Src/stm32h7xx_hal_tim.c ****       status = HAL_ERROR;
 2610              		.loc 1 1014 14
 2611 0098 0123     		movs	r3, #1
 2612 009a FB73     		strb	r3, [r7, #15]
1015:Drivers/STM32H7xx_HAL_Driver/Src/stm32h7xx_hal_tim.c ****       break;
 2613              		.loc 1 1015 7
 2614 009c 00BF     		nop
 2615              	.L164:
1016:Drivers/STM32H7xx_HAL_Driver/Src/stm32h7xx_hal_tim.c ****   }
1017:Drivers/STM32H7xx_HAL_Driver/Src/stm32h7xx_hal_tim.c **** 
1018:Drivers/STM32H7xx_HAL_Driver/Src/stm32h7xx_hal_tim.c ****   if (status == HAL_OK)
 2616              		.loc 1 1018 6
 2617 009e FB7B     		ldrb	r3, [r7, #15]	@ zero_extendqisi2
 2618 00a0 002B     		cmp	r3, #0
 2619 00a2 40F08180 		bne	.L165
1019:Drivers/STM32H7xx_HAL_Driver/Src/stm32h7xx_hal_tim.c ****   {
1020:Drivers/STM32H7xx_HAL_Driver/Src/stm32h7xx_hal_tim.c ****     /* Disable the Output compare channel */
1021:Drivers/STM32H7xx_HAL_Driver/Src/stm32h7xx_hal_tim.c ****     TIM_CCxChannelCmd(htim->Instance, Channel, TIM_CCx_DISABLE);
 2620              		.loc 1 1021 5
 2621 00a6 7B68     		ldr	r3, [r7, #4]
 2622 00a8 1B68     		ldr	r3, [r3]
 2623 00aa 0022     		movs	r2, #0
 2624 00ac 3968     		ldr	r1, [r7]
 2625 00ae 1846     		mov	r0, r3
 2626 00b0 FFF7FEFF 		bl	TIM_CCxChannelCmd
1022:Drivers/STM32H7xx_HAL_Driver/Src/stm32h7xx_hal_tim.c **** 
1023:Drivers/STM32H7xx_HAL_Driver/Src/stm32h7xx_hal_tim.c ****     if (IS_TIM_BREAK_INSTANCE(htim->Instance) != RESET)
 2627              		.loc 1 1023 9
 2628 00b4 7B68     		ldr	r3, [r7, #4]
 2629 00b6 1B68     		ldr	r3, [r3]
 2630 00b8 3E4A     		ldr	r2, .L181
 2631 00ba 9342     		cmp	r3, r2
 2632 00bc 13D0     		beq	.L166
 2633              		.loc 1 1023 9 is_stmt 0 discriminator 2
 2634 00be 7B68     		ldr	r3, [r7, #4]
 2635 00c0 1B68     		ldr	r3, [r3]
 2636 00c2 3D4A     		ldr	r2, .L181+4
 2637 00c4 9342     		cmp	r3, r2
 2638 00c6 0ED0     		beq	.L166
 2639              		.loc 1 1023 9 discriminator 4
 2640 00c8 7B68     		ldr	r3, [r7, #4]
 2641 00ca 1B68     		ldr	r3, [r3]
 2642 00cc 3B4A     		ldr	r2, .L181+8
 2643 00ce 9342     		cmp	r3, r2
 2644 00d0 09D0     		beq	.L166
 2645              		.loc 1 1023 9 discriminator 6
 2646 00d2 7B68     		ldr	r3, [r7, #4]
 2647 00d4 1B68     		ldr	r3, [r3]
 2648 00d6 3A4A     		ldr	r2, .L181+12
 2649 00d8 9342     		cmp	r3, r2
ARM GAS  C:\Users\Su\AppData\Local\Temp\cc9h93iY.s 			page 65


 2650 00da 04D0     		beq	.L166
 2651              		.loc 1 1023 9 discriminator 8
 2652 00dc 7B68     		ldr	r3, [r7, #4]
 2653 00de 1B68     		ldr	r3, [r3]
 2654 00e0 384A     		ldr	r2, .L181+16
 2655 00e2 9342     		cmp	r3, r2
 2656 00e4 01D1     		bne	.L167
 2657              	.L166:
 2658              		.loc 1 1023 9 discriminator 9
 2659 00e6 0123     		movs	r3, #1
 2660 00e8 00E0     		b	.L168
 2661              	.L167:
 2662              		.loc 1 1023 9 discriminator 10
 2663 00ea 0023     		movs	r3, #0
 2664              	.L168:
 2665              		.loc 1 1023 8 is_stmt 1 discriminator 12
 2666 00ec 002B     		cmp	r3, #0
 2667 00ee 17D0     		beq	.L169
1024:Drivers/STM32H7xx_HAL_Driver/Src/stm32h7xx_hal_tim.c ****     {
1025:Drivers/STM32H7xx_HAL_Driver/Src/stm32h7xx_hal_tim.c ****       /* Disable the Main Output */
1026:Drivers/STM32H7xx_HAL_Driver/Src/stm32h7xx_hal_tim.c ****       __HAL_TIM_MOE_DISABLE(htim);
 2668              		.loc 1 1026 7
 2669 00f0 7B68     		ldr	r3, [r7, #4]
 2670 00f2 1B68     		ldr	r3, [r3]
 2671 00f4 1A6A     		ldr	r2, [r3, #32]
 2672 00f6 41F21113 		movw	r3, #4369
 2673 00fa 1340     		ands	r3, r3, r2
 2674 00fc 002B     		cmp	r3, #0
 2675 00fe 0FD1     		bne	.L169
 2676              		.loc 1 1026 7 is_stmt 0 discriminator 1
 2677 0100 7B68     		ldr	r3, [r7, #4]
 2678 0102 1B68     		ldr	r3, [r3]
 2679 0104 1A6A     		ldr	r2, [r3, #32]
 2680 0106 40F24443 		movw	r3, #1092
 2681 010a 1340     		ands	r3, r3, r2
 2682 010c 002B     		cmp	r3, #0
 2683 010e 07D1     		bne	.L169
 2684              		.loc 1 1026 7 discriminator 2
 2685 0110 7B68     		ldr	r3, [r7, #4]
 2686 0112 1B68     		ldr	r3, [r3]
 2687 0114 5A6C     		ldr	r2, [r3, #68]
 2688 0116 7B68     		ldr	r3, [r7, #4]
 2689 0118 1B68     		ldr	r3, [r3]
 2690 011a 22F40042 		bic	r2, r2, #32768
 2691 011e 5A64     		str	r2, [r3, #68]
 2692              	.L169:
1027:Drivers/STM32H7xx_HAL_Driver/Src/stm32h7xx_hal_tim.c ****     }
1028:Drivers/STM32H7xx_HAL_Driver/Src/stm32h7xx_hal_tim.c **** 
1029:Drivers/STM32H7xx_HAL_Driver/Src/stm32h7xx_hal_tim.c ****     /* Disable the Peripheral */
1030:Drivers/STM32H7xx_HAL_Driver/Src/stm32h7xx_hal_tim.c ****     __HAL_TIM_DISABLE(htim);
 2693              		.loc 1 1030 5 is_stmt 1
 2694 0120 7B68     		ldr	r3, [r7, #4]
 2695 0122 1B68     		ldr	r3, [r3]
 2696 0124 1A6A     		ldr	r2, [r3, #32]
 2697 0126 41F21113 		movw	r3, #4369
 2698 012a 1340     		ands	r3, r3, r2
 2699 012c 002B     		cmp	r3, #0
ARM GAS  C:\Users\Su\AppData\Local\Temp\cc9h93iY.s 			page 66


 2700 012e 0FD1     		bne	.L170
 2701              		.loc 1 1030 5 is_stmt 0 discriminator 1
 2702 0130 7B68     		ldr	r3, [r7, #4]
 2703 0132 1B68     		ldr	r3, [r3]
 2704 0134 1A6A     		ldr	r2, [r3, #32]
 2705 0136 40F24443 		movw	r3, #1092
 2706 013a 1340     		ands	r3, r3, r2
 2707 013c 002B     		cmp	r3, #0
 2708 013e 07D1     		bne	.L170
 2709              		.loc 1 1030 5 discriminator 2
 2710 0140 7B68     		ldr	r3, [r7, #4]
 2711 0142 1B68     		ldr	r3, [r3]
 2712 0144 1A68     		ldr	r2, [r3]
 2713 0146 7B68     		ldr	r3, [r7, #4]
 2714 0148 1B68     		ldr	r3, [r3]
 2715 014a 22F00102 		bic	r2, r2, #1
 2716 014e 1A60     		str	r2, [r3]
 2717              	.L170:
1031:Drivers/STM32H7xx_HAL_Driver/Src/stm32h7xx_hal_tim.c **** 
1032:Drivers/STM32H7xx_HAL_Driver/Src/stm32h7xx_hal_tim.c ****     /* Set the TIM channel state */
1033:Drivers/STM32H7xx_HAL_Driver/Src/stm32h7xx_hal_tim.c ****     TIM_CHANNEL_STATE_SET(htim, Channel, HAL_TIM_CHANNEL_STATE_READY);
 2718              		.loc 1 1033 5 is_stmt 1
 2719 0150 3B68     		ldr	r3, [r7]
 2720 0152 002B     		cmp	r3, #0
 2721 0154 04D1     		bne	.L171
 2722              		.loc 1 1033 5 is_stmt 0 discriminator 1
 2723 0156 7B68     		ldr	r3, [r7, #4]
 2724 0158 0122     		movs	r2, #1
 2725 015a 83F83E20 		strb	r2, [r3, #62]
 2726 015e 23E0     		b	.L165
 2727              	.L171:
 2728              		.loc 1 1033 5 discriminator 2
 2729 0160 3B68     		ldr	r3, [r7]
 2730 0162 042B     		cmp	r3, #4
 2731 0164 04D1     		bne	.L172
 2732              		.loc 1 1033 5 discriminator 3
 2733 0166 7B68     		ldr	r3, [r7, #4]
 2734 0168 0122     		movs	r2, #1
 2735 016a 83F83F20 		strb	r2, [r3, #63]
 2736 016e 1BE0     		b	.L165
 2737              	.L172:
 2738              		.loc 1 1033 5 discriminator 4
 2739 0170 3B68     		ldr	r3, [r7]
 2740 0172 082B     		cmp	r3, #8
 2741 0174 04D1     		bne	.L174
 2742              		.loc 1 1033 5 discriminator 6
 2743 0176 7B68     		ldr	r3, [r7, #4]
 2744 0178 0122     		movs	r2, #1
 2745 017a 83F84020 		strb	r2, [r3, #64]
 2746 017e 13E0     		b	.L165
 2747              	.L174:
 2748              		.loc 1 1033 5 discriminator 7
 2749 0180 3B68     		ldr	r3, [r7]
 2750 0182 0C2B     		cmp	r3, #12
 2751 0184 04D1     		bne	.L176
 2752              		.loc 1 1033 5 discriminator 9
 2753 0186 7B68     		ldr	r3, [r7, #4]
ARM GAS  C:\Users\Su\AppData\Local\Temp\cc9h93iY.s 			page 67


 2754 0188 0122     		movs	r2, #1
 2755 018a 83F84120 		strb	r2, [r3, #65]
 2756 018e 0BE0     		b	.L165
 2757              	.L176:
 2758              		.loc 1 1033 5 discriminator 10
 2759 0190 3B68     		ldr	r3, [r7]
 2760 0192 102B     		cmp	r3, #16
 2761 0194 04D1     		bne	.L178
 2762              		.loc 1 1033 5 discriminator 12
 2763 0196 7B68     		ldr	r3, [r7, #4]
 2764 0198 0122     		movs	r2, #1
 2765 019a 83F84220 		strb	r2, [r3, #66]
 2766 019e 03E0     		b	.L165
 2767              	.L178:
 2768              		.loc 1 1033 5 discriminator 13
 2769 01a0 7B68     		ldr	r3, [r7, #4]
 2770 01a2 0122     		movs	r2, #1
 2771 01a4 83F84320 		strb	r2, [r3, #67]
 2772              	.L165:
1034:Drivers/STM32H7xx_HAL_Driver/Src/stm32h7xx_hal_tim.c ****   }
1035:Drivers/STM32H7xx_HAL_Driver/Src/stm32h7xx_hal_tim.c **** 
1036:Drivers/STM32H7xx_HAL_Driver/Src/stm32h7xx_hal_tim.c ****   /* Return function status */
1037:Drivers/STM32H7xx_HAL_Driver/Src/stm32h7xx_hal_tim.c ****   return status;
 2773              		.loc 1 1037 10 is_stmt 1
 2774 01a8 FB7B     		ldrb	r3, [r7, #15]	@ zero_extendqisi2
1038:Drivers/STM32H7xx_HAL_Driver/Src/stm32h7xx_hal_tim.c **** }
 2775              		.loc 1 1038 1
 2776 01aa 1846     		mov	r0, r3
 2777 01ac 1037     		adds	r7, r7, #16
 2778              	.LCFI96:
 2779              		.cfi_def_cfa_offset 8
 2780 01ae BD46     		mov	sp, r7
 2781              	.LCFI97:
 2782              		.cfi_def_cfa_register 13
 2783              		@ sp needed
 2784 01b0 80BD     		pop	{r7, pc}
 2785              	.L182:
 2786 01b2 00BF     		.align	2
 2787              	.L181:
 2788 01b4 00000140 		.word	1073807360
 2789 01b8 00040140 		.word	1073808384
 2790 01bc 00400140 		.word	1073823744
 2791 01c0 00440140 		.word	1073824768
 2792 01c4 00480140 		.word	1073825792
 2793              		.cfi_endproc
 2794              	.LFE161:
 2796              		.section	.text.HAL_TIM_OC_Start_DMA,"ax",%progbits
 2797              		.align	1
 2798              		.global	HAL_TIM_OC_Start_DMA
 2799              		.syntax unified
 2800              		.thumb
 2801              		.thumb_func
 2803              	HAL_TIM_OC_Start_DMA:
 2804              	.LFB162:
1039:Drivers/STM32H7xx_HAL_Driver/Src/stm32h7xx_hal_tim.c **** 
1040:Drivers/STM32H7xx_HAL_Driver/Src/stm32h7xx_hal_tim.c **** /**
1041:Drivers/STM32H7xx_HAL_Driver/Src/stm32h7xx_hal_tim.c ****   * @brief  Starts the TIM Output Compare signal generation in DMA mode.
ARM GAS  C:\Users\Su\AppData\Local\Temp\cc9h93iY.s 			page 68


1042:Drivers/STM32H7xx_HAL_Driver/Src/stm32h7xx_hal_tim.c ****   * @param  htim TIM Output Compare handle
1043:Drivers/STM32H7xx_HAL_Driver/Src/stm32h7xx_hal_tim.c ****   * @param  Channel TIM Channel to be enabled
1044:Drivers/STM32H7xx_HAL_Driver/Src/stm32h7xx_hal_tim.c ****   *          This parameter can be one of the following values:
1045:Drivers/STM32H7xx_HAL_Driver/Src/stm32h7xx_hal_tim.c ****   *            @arg TIM_CHANNEL_1: TIM Channel 1 selected
1046:Drivers/STM32H7xx_HAL_Driver/Src/stm32h7xx_hal_tim.c ****   *            @arg TIM_CHANNEL_2: TIM Channel 2 selected
1047:Drivers/STM32H7xx_HAL_Driver/Src/stm32h7xx_hal_tim.c ****   *            @arg TIM_CHANNEL_3: TIM Channel 3 selected
1048:Drivers/STM32H7xx_HAL_Driver/Src/stm32h7xx_hal_tim.c ****   *            @arg TIM_CHANNEL_4: TIM Channel 4 selected
1049:Drivers/STM32H7xx_HAL_Driver/Src/stm32h7xx_hal_tim.c ****   * @param  pData The source Buffer address.
1050:Drivers/STM32H7xx_HAL_Driver/Src/stm32h7xx_hal_tim.c ****   * @param  Length The length of data to be transferred from memory to TIM peripheral
1051:Drivers/STM32H7xx_HAL_Driver/Src/stm32h7xx_hal_tim.c ****   * @retval HAL status
1052:Drivers/STM32H7xx_HAL_Driver/Src/stm32h7xx_hal_tim.c ****   */
1053:Drivers/STM32H7xx_HAL_Driver/Src/stm32h7xx_hal_tim.c **** HAL_StatusTypeDef HAL_TIM_OC_Start_DMA(TIM_HandleTypeDef *htim, uint32_t Channel, uint32_t *pData, 
1054:Drivers/STM32H7xx_HAL_Driver/Src/stm32h7xx_hal_tim.c **** {
 2805              		.loc 1 1054 1
 2806              		.cfi_startproc
 2807              		@ args = 0, pretend = 0, frame = 24
 2808              		@ frame_needed = 1, uses_anonymous_args = 0
 2809 0000 80B5     		push	{r7, lr}
 2810              	.LCFI98:
 2811              		.cfi_def_cfa_offset 8
 2812              		.cfi_offset 7, -8
 2813              		.cfi_offset 14, -4
 2814 0002 86B0     		sub	sp, sp, #24
 2815              	.LCFI99:
 2816              		.cfi_def_cfa_offset 32
 2817 0004 00AF     		add	r7, sp, #0
 2818              	.LCFI100:
 2819              		.cfi_def_cfa_register 7
 2820 0006 F860     		str	r0, [r7, #12]
 2821 0008 B960     		str	r1, [r7, #8]
 2822 000a 7A60     		str	r2, [r7, #4]
 2823 000c 7B80     		strh	r3, [r7, #2]	@ movhi
1055:Drivers/STM32H7xx_HAL_Driver/Src/stm32h7xx_hal_tim.c ****   HAL_StatusTypeDef status = HAL_OK;
 2824              		.loc 1 1055 21
 2825 000e 0023     		movs	r3, #0
 2826 0010 FB75     		strb	r3, [r7, #23]
1056:Drivers/STM32H7xx_HAL_Driver/Src/stm32h7xx_hal_tim.c ****   uint32_t tmpsmcr;
1057:Drivers/STM32H7xx_HAL_Driver/Src/stm32h7xx_hal_tim.c **** 
1058:Drivers/STM32H7xx_HAL_Driver/Src/stm32h7xx_hal_tim.c ****   /* Check the parameters */
1059:Drivers/STM32H7xx_HAL_Driver/Src/stm32h7xx_hal_tim.c ****   assert_param(IS_TIM_CCX_INSTANCE(htim->Instance, Channel));
1060:Drivers/STM32H7xx_HAL_Driver/Src/stm32h7xx_hal_tim.c **** 
1061:Drivers/STM32H7xx_HAL_Driver/Src/stm32h7xx_hal_tim.c ****   /* Set the TIM channel state */
1062:Drivers/STM32H7xx_HAL_Driver/Src/stm32h7xx_hal_tim.c ****   if (TIM_CHANNEL_STATE_GET(htim, Channel) == HAL_TIM_CHANNEL_STATE_BUSY)
 2827              		.loc 1 1062 44
 2828 0012 BB68     		ldr	r3, [r7, #8]
 2829 0014 002B     		cmp	r3, #0
 2830 0016 09D1     		bne	.L184
 2831              		.loc 1 1062 7 discriminator 1
 2832 0018 FB68     		ldr	r3, [r7, #12]
 2833 001a 93F83E30 		ldrb	r3, [r3, #62]
 2834 001e DBB2     		uxtb	r3, r3
 2835              		.loc 1 1062 44 discriminator 1
 2836 0020 022B     		cmp	r3, #2
 2837 0022 0CBF     		ite	eq
 2838 0024 0123     		moveq	r3, #1
 2839 0026 0023     		movne	r3, #0
 2840 0028 DBB2     		uxtb	r3, r3
ARM GAS  C:\Users\Su\AppData\Local\Temp\cc9h93iY.s 			page 69


 2841 002a 3CE0     		b	.L185
 2842              	.L184:
 2843              		.loc 1 1062 44 is_stmt 0 discriminator 2
 2844 002c BB68     		ldr	r3, [r7, #8]
 2845 002e 042B     		cmp	r3, #4
 2846 0030 09D1     		bne	.L186
 2847              		.loc 1 1062 7 is_stmt 1 discriminator 4
 2848 0032 FB68     		ldr	r3, [r7, #12]
 2849 0034 93F83F30 		ldrb	r3, [r3, #63]
 2850 0038 DBB2     		uxtb	r3, r3
 2851              		.loc 1 1062 44 discriminator 4
 2852 003a 022B     		cmp	r3, #2
 2853 003c 0CBF     		ite	eq
 2854 003e 0123     		moveq	r3, #1
 2855 0040 0023     		movne	r3, #0
 2856 0042 DBB2     		uxtb	r3, r3
 2857 0044 2FE0     		b	.L185
 2858              	.L186:
 2859              		.loc 1 1062 44 is_stmt 0 discriminator 5
 2860 0046 BB68     		ldr	r3, [r7, #8]
 2861 0048 082B     		cmp	r3, #8
 2862 004a 09D1     		bne	.L188
 2863              		.loc 1 1062 7 is_stmt 1 discriminator 7
 2864 004c FB68     		ldr	r3, [r7, #12]
 2865 004e 93F84030 		ldrb	r3, [r3, #64]
 2866 0052 DBB2     		uxtb	r3, r3
 2867              		.loc 1 1062 44 discriminator 7
 2868 0054 022B     		cmp	r3, #2
 2869 0056 0CBF     		ite	eq
 2870 0058 0123     		moveq	r3, #1
 2871 005a 0023     		movne	r3, #0
 2872 005c DBB2     		uxtb	r3, r3
 2873 005e 22E0     		b	.L185
 2874              	.L188:
 2875              		.loc 1 1062 44 is_stmt 0 discriminator 8
 2876 0060 BB68     		ldr	r3, [r7, #8]
 2877 0062 0C2B     		cmp	r3, #12
 2878 0064 09D1     		bne	.L190
 2879              		.loc 1 1062 7 is_stmt 1 discriminator 10
 2880 0066 FB68     		ldr	r3, [r7, #12]
 2881 0068 93F84130 		ldrb	r3, [r3, #65]
 2882 006c DBB2     		uxtb	r3, r3
 2883              		.loc 1 1062 44 discriminator 10
 2884 006e 022B     		cmp	r3, #2
 2885 0070 0CBF     		ite	eq
 2886 0072 0123     		moveq	r3, #1
 2887 0074 0023     		movne	r3, #0
 2888 0076 DBB2     		uxtb	r3, r3
 2889 0078 15E0     		b	.L185
 2890              	.L190:
 2891              		.loc 1 1062 44 is_stmt 0 discriminator 11
 2892 007a BB68     		ldr	r3, [r7, #8]
 2893 007c 102B     		cmp	r3, #16
 2894 007e 09D1     		bne	.L192
 2895              		.loc 1 1062 7 is_stmt 1 discriminator 13
 2896 0080 FB68     		ldr	r3, [r7, #12]
 2897 0082 93F84230 		ldrb	r3, [r3, #66]
ARM GAS  C:\Users\Su\AppData\Local\Temp\cc9h93iY.s 			page 70


 2898 0086 DBB2     		uxtb	r3, r3
 2899              		.loc 1 1062 44 discriminator 13
 2900 0088 022B     		cmp	r3, #2
 2901 008a 0CBF     		ite	eq
 2902 008c 0123     		moveq	r3, #1
 2903 008e 0023     		movne	r3, #0
 2904 0090 DBB2     		uxtb	r3, r3
 2905 0092 08E0     		b	.L185
 2906              	.L192:
 2907              		.loc 1 1062 7 discriminator 14
 2908 0094 FB68     		ldr	r3, [r7, #12]
 2909 0096 93F84330 		ldrb	r3, [r3, #67]
 2910 009a DBB2     		uxtb	r3, r3
 2911              		.loc 1 1062 44 discriminator 14
 2912 009c 022B     		cmp	r3, #2
 2913 009e 0CBF     		ite	eq
 2914 00a0 0123     		moveq	r3, #1
 2915 00a2 0023     		movne	r3, #0
 2916 00a4 DBB2     		uxtb	r3, r3
 2917              	.L185:
 2918              		.loc 1 1062 6 discriminator 20
 2919 00a6 002B     		cmp	r3, #0
 2920 00a8 01D0     		beq	.L194
1063:Drivers/STM32H7xx_HAL_Driver/Src/stm32h7xx_hal_tim.c ****   {
1064:Drivers/STM32H7xx_HAL_Driver/Src/stm32h7xx_hal_tim.c ****     return HAL_BUSY;
 2921              		.loc 1 1064 12
 2922 00aa 0223     		movs	r3, #2
 2923 00ac BAE1     		b	.L195
 2924              	.L194:
1065:Drivers/STM32H7xx_HAL_Driver/Src/stm32h7xx_hal_tim.c ****   }
1066:Drivers/STM32H7xx_HAL_Driver/Src/stm32h7xx_hal_tim.c ****   else if (TIM_CHANNEL_STATE_GET(htim, Channel) == HAL_TIM_CHANNEL_STATE_READY)
 2925              		.loc 1 1066 49
 2926 00ae BB68     		ldr	r3, [r7, #8]
 2927 00b0 002B     		cmp	r3, #0
 2928 00b2 09D1     		bne	.L196
 2929              		.loc 1 1066 12 discriminator 1
 2930 00b4 FB68     		ldr	r3, [r7, #12]
 2931 00b6 93F83E30 		ldrb	r3, [r3, #62]
 2932 00ba DBB2     		uxtb	r3, r3
 2933              		.loc 1 1066 49 discriminator 1
 2934 00bc 012B     		cmp	r3, #1
 2935 00be 0CBF     		ite	eq
 2936 00c0 0123     		moveq	r3, #1
 2937 00c2 0023     		movne	r3, #0
 2938 00c4 DBB2     		uxtb	r3, r3
 2939 00c6 3CE0     		b	.L197
 2940              	.L196:
 2941              		.loc 1 1066 49 is_stmt 0 discriminator 2
 2942 00c8 BB68     		ldr	r3, [r7, #8]
 2943 00ca 042B     		cmp	r3, #4
 2944 00cc 09D1     		bne	.L198
 2945              		.loc 1 1066 12 is_stmt 1 discriminator 4
 2946 00ce FB68     		ldr	r3, [r7, #12]
 2947 00d0 93F83F30 		ldrb	r3, [r3, #63]
 2948 00d4 DBB2     		uxtb	r3, r3
 2949              		.loc 1 1066 49 discriminator 4
 2950 00d6 012B     		cmp	r3, #1
ARM GAS  C:\Users\Su\AppData\Local\Temp\cc9h93iY.s 			page 71


 2951 00d8 0CBF     		ite	eq
 2952 00da 0123     		moveq	r3, #1
 2953 00dc 0023     		movne	r3, #0
 2954 00de DBB2     		uxtb	r3, r3
 2955 00e0 2FE0     		b	.L197
 2956              	.L198:
 2957              		.loc 1 1066 49 is_stmt 0 discriminator 5
 2958 00e2 BB68     		ldr	r3, [r7, #8]
 2959 00e4 082B     		cmp	r3, #8
 2960 00e6 09D1     		bne	.L200
 2961              		.loc 1 1066 12 is_stmt 1 discriminator 7
 2962 00e8 FB68     		ldr	r3, [r7, #12]
 2963 00ea 93F84030 		ldrb	r3, [r3, #64]
 2964 00ee DBB2     		uxtb	r3, r3
 2965              		.loc 1 1066 49 discriminator 7
 2966 00f0 012B     		cmp	r3, #1
 2967 00f2 0CBF     		ite	eq
 2968 00f4 0123     		moveq	r3, #1
 2969 00f6 0023     		movne	r3, #0
 2970 00f8 DBB2     		uxtb	r3, r3
 2971 00fa 22E0     		b	.L197
 2972              	.L200:
 2973              		.loc 1 1066 49 is_stmt 0 discriminator 8
 2974 00fc BB68     		ldr	r3, [r7, #8]
 2975 00fe 0C2B     		cmp	r3, #12
 2976 0100 09D1     		bne	.L202
 2977              		.loc 1 1066 12 is_stmt 1 discriminator 10
 2978 0102 FB68     		ldr	r3, [r7, #12]
 2979 0104 93F84130 		ldrb	r3, [r3, #65]
 2980 0108 DBB2     		uxtb	r3, r3
 2981              		.loc 1 1066 49 discriminator 10
 2982 010a 012B     		cmp	r3, #1
 2983 010c 0CBF     		ite	eq
 2984 010e 0123     		moveq	r3, #1
 2985 0110 0023     		movne	r3, #0
 2986 0112 DBB2     		uxtb	r3, r3
 2987 0114 15E0     		b	.L197
 2988              	.L202:
 2989              		.loc 1 1066 49 is_stmt 0 discriminator 11
 2990 0116 BB68     		ldr	r3, [r7, #8]
 2991 0118 102B     		cmp	r3, #16
 2992 011a 09D1     		bne	.L204
 2993              		.loc 1 1066 12 is_stmt 1 discriminator 13
 2994 011c FB68     		ldr	r3, [r7, #12]
 2995 011e 93F84230 		ldrb	r3, [r3, #66]
 2996 0122 DBB2     		uxtb	r3, r3
 2997              		.loc 1 1066 49 discriminator 13
 2998 0124 012B     		cmp	r3, #1
 2999 0126 0CBF     		ite	eq
 3000 0128 0123     		moveq	r3, #1
 3001 012a 0023     		movne	r3, #0
 3002 012c DBB2     		uxtb	r3, r3
 3003 012e 08E0     		b	.L197
 3004              	.L204:
 3005              		.loc 1 1066 12 discriminator 14
 3006 0130 FB68     		ldr	r3, [r7, #12]
 3007 0132 93F84330 		ldrb	r3, [r3, #67]
ARM GAS  C:\Users\Su\AppData\Local\Temp\cc9h93iY.s 			page 72


 3008 0136 DBB2     		uxtb	r3, r3
 3009              		.loc 1 1066 49 discriminator 14
 3010 0138 012B     		cmp	r3, #1
 3011 013a 0CBF     		ite	eq
 3012 013c 0123     		moveq	r3, #1
 3013 013e 0023     		movne	r3, #0
 3014 0140 DBB2     		uxtb	r3, r3
 3015              	.L197:
 3016              		.loc 1 1066 11 discriminator 20
 3017 0142 002B     		cmp	r3, #0
 3018 0144 34D0     		beq	.L206
1067:Drivers/STM32H7xx_HAL_Driver/Src/stm32h7xx_hal_tim.c ****   {
1068:Drivers/STM32H7xx_HAL_Driver/Src/stm32h7xx_hal_tim.c ****     if ((pData == NULL) && (Length > 0U))
 3019              		.loc 1 1068 8
 3020 0146 7B68     		ldr	r3, [r7, #4]
 3021 0148 002B     		cmp	r3, #0
 3022 014a 04D1     		bne	.L207
 3023              		.loc 1 1068 25 discriminator 1
 3024 014c 7B88     		ldrh	r3, [r7, #2]
 3025 014e 002B     		cmp	r3, #0
 3026 0150 01D0     		beq	.L207
1069:Drivers/STM32H7xx_HAL_Driver/Src/stm32h7xx_hal_tim.c ****     {
1070:Drivers/STM32H7xx_HAL_Driver/Src/stm32h7xx_hal_tim.c ****       return HAL_ERROR;
 3027              		.loc 1 1070 14
 3028 0152 0123     		movs	r3, #1
 3029 0154 66E1     		b	.L195
 3030              	.L207:
1071:Drivers/STM32H7xx_HAL_Driver/Src/stm32h7xx_hal_tim.c ****     }
1072:Drivers/STM32H7xx_HAL_Driver/Src/stm32h7xx_hal_tim.c ****     else
1073:Drivers/STM32H7xx_HAL_Driver/Src/stm32h7xx_hal_tim.c ****     {
1074:Drivers/STM32H7xx_HAL_Driver/Src/stm32h7xx_hal_tim.c ****       TIM_CHANNEL_STATE_SET(htim, Channel, HAL_TIM_CHANNEL_STATE_BUSY);
 3031              		.loc 1 1074 7
 3032 0156 BB68     		ldr	r3, [r7, #8]
 3033 0158 002B     		cmp	r3, #0
 3034 015a 04D1     		bne	.L208
 3035              		.loc 1 1074 7 is_stmt 0 discriminator 1
 3036 015c FB68     		ldr	r3, [r7, #12]
 3037 015e 0222     		movs	r2, #2
 3038 0160 83F83E20 		strb	r2, [r3, #62]
 3039 0164 26E0     		b	.L209
 3040              	.L208:
 3041              		.loc 1 1074 7 discriminator 2
 3042 0166 BB68     		ldr	r3, [r7, #8]
 3043 0168 042B     		cmp	r3, #4
 3044 016a 04D1     		bne	.L210
 3045              		.loc 1 1074 7 discriminator 3
 3046 016c FB68     		ldr	r3, [r7, #12]
 3047 016e 0222     		movs	r2, #2
 3048 0170 83F83F20 		strb	r2, [r3, #63]
 3049 0174 1EE0     		b	.L209
 3050              	.L210:
 3051              		.loc 1 1074 7 discriminator 4
 3052 0176 BB68     		ldr	r3, [r7, #8]
 3053 0178 082B     		cmp	r3, #8
 3054 017a 04D1     		bne	.L212
 3055              		.loc 1 1074 7 discriminator 6
 3056 017c FB68     		ldr	r3, [r7, #12]
ARM GAS  C:\Users\Su\AppData\Local\Temp\cc9h93iY.s 			page 73


 3057 017e 0222     		movs	r2, #2
 3058 0180 83F84020 		strb	r2, [r3, #64]
 3059 0184 16E0     		b	.L209
 3060              	.L212:
 3061              		.loc 1 1074 7 discriminator 7
 3062 0186 BB68     		ldr	r3, [r7, #8]
 3063 0188 0C2B     		cmp	r3, #12
 3064 018a 04D1     		bne	.L214
 3065              		.loc 1 1074 7 discriminator 9
 3066 018c FB68     		ldr	r3, [r7, #12]
 3067 018e 0222     		movs	r2, #2
 3068 0190 83F84120 		strb	r2, [r3, #65]
 3069 0194 0EE0     		b	.L209
 3070              	.L214:
 3071              		.loc 1 1074 7 discriminator 10
 3072 0196 BB68     		ldr	r3, [r7, #8]
 3073 0198 102B     		cmp	r3, #16
 3074 019a 04D1     		bne	.L216
 3075              		.loc 1 1074 7 discriminator 12
 3076 019c FB68     		ldr	r3, [r7, #12]
 3077 019e 0222     		movs	r2, #2
 3078 01a0 83F84220 		strb	r2, [r3, #66]
 3079 01a4 06E0     		b	.L209
 3080              	.L216:
 3081              		.loc 1 1074 7 discriminator 13
 3082 01a6 FB68     		ldr	r3, [r7, #12]
 3083 01a8 0222     		movs	r2, #2
 3084 01aa 83F84320 		strb	r2, [r3, #67]
 3085 01ae 01E0     		b	.L209
 3086              	.L206:
1075:Drivers/STM32H7xx_HAL_Driver/Src/stm32h7xx_hal_tim.c ****     }
1076:Drivers/STM32H7xx_HAL_Driver/Src/stm32h7xx_hal_tim.c ****   }
1077:Drivers/STM32H7xx_HAL_Driver/Src/stm32h7xx_hal_tim.c ****   else
1078:Drivers/STM32H7xx_HAL_Driver/Src/stm32h7xx_hal_tim.c ****   {
1079:Drivers/STM32H7xx_HAL_Driver/Src/stm32h7xx_hal_tim.c ****     return HAL_ERROR;
 3087              		.loc 1 1079 12 is_stmt 1
 3088 01b0 0123     		movs	r3, #1
 3089 01b2 37E1     		b	.L195
 3090              	.L209:
1080:Drivers/STM32H7xx_HAL_Driver/Src/stm32h7xx_hal_tim.c ****   }
1081:Drivers/STM32H7xx_HAL_Driver/Src/stm32h7xx_hal_tim.c **** 
1082:Drivers/STM32H7xx_HAL_Driver/Src/stm32h7xx_hal_tim.c ****   switch (Channel)
 3091              		.loc 1 1082 3
 3092 01b4 BB68     		ldr	r3, [r7, #8]
 3093 01b6 0C2B     		cmp	r3, #12
 3094 01b8 00F2AE80 		bhi	.L218
 3095 01bc 01A2     		adr	r2, .L220
 3096 01be 52F823F0 		ldr	pc, [r2, r3, lsl #2]
 3097 01c2 00BF     		.p2align 2
 3098              	.L220:
 3099 01c4 F9010000 		.word	.L223+1
 3100 01c8 19030000 		.word	.L218+1
 3101 01cc 19030000 		.word	.L218+1
 3102 01d0 19030000 		.word	.L218+1
 3103 01d4 41020000 		.word	.L222+1
 3104 01d8 19030000 		.word	.L218+1
 3105 01dc 19030000 		.word	.L218+1
ARM GAS  C:\Users\Su\AppData\Local\Temp\cc9h93iY.s 			page 74


 3106 01e0 19030000 		.word	.L218+1
 3107 01e4 89020000 		.word	.L221+1
 3108 01e8 19030000 		.word	.L218+1
 3109 01ec 19030000 		.word	.L218+1
 3110 01f0 19030000 		.word	.L218+1
 3111 01f4 D1020000 		.word	.L219+1
 3112              		.p2align 1
 3113              	.L223:
1083:Drivers/STM32H7xx_HAL_Driver/Src/stm32h7xx_hal_tim.c ****   {
1084:Drivers/STM32H7xx_HAL_Driver/Src/stm32h7xx_hal_tim.c ****     case TIM_CHANNEL_1:
1085:Drivers/STM32H7xx_HAL_Driver/Src/stm32h7xx_hal_tim.c ****     {
1086:Drivers/STM32H7xx_HAL_Driver/Src/stm32h7xx_hal_tim.c ****       /* Set the DMA compare callbacks */
1087:Drivers/STM32H7xx_HAL_Driver/Src/stm32h7xx_hal_tim.c ****       htim->hdma[TIM_DMA_ID_CC1]->XferCpltCallback = TIM_DMADelayPulseCplt;
 3114              		.loc 1 1087 17
 3115 01f8 FB68     		ldr	r3, [r7, #12]
 3116 01fa 5B6A     		ldr	r3, [r3, #36]
 3117              		.loc 1 1087 52
 3118 01fc 8B4A     		ldr	r2, .L238
 3119 01fe DA63     		str	r2, [r3, #60]
1088:Drivers/STM32H7xx_HAL_Driver/Src/stm32h7xx_hal_tim.c ****       htim->hdma[TIM_DMA_ID_CC1]->XferHalfCpltCallback = TIM_DMADelayPulseHalfCplt;
 3120              		.loc 1 1088 17
 3121 0200 FB68     		ldr	r3, [r7, #12]
 3122 0202 5B6A     		ldr	r3, [r3, #36]
 3123              		.loc 1 1088 56
 3124 0204 8A4A     		ldr	r2, .L238+4
 3125 0206 1A64     		str	r2, [r3, #64]
1089:Drivers/STM32H7xx_HAL_Driver/Src/stm32h7xx_hal_tim.c **** 
1090:Drivers/STM32H7xx_HAL_Driver/Src/stm32h7xx_hal_tim.c ****       /* Set the DMA error callback */
1091:Drivers/STM32H7xx_HAL_Driver/Src/stm32h7xx_hal_tim.c ****       htim->hdma[TIM_DMA_ID_CC1]->XferErrorCallback = TIM_DMAError ;
 3126              		.loc 1 1091 17
 3127 0208 FB68     		ldr	r3, [r7, #12]
 3128 020a 5B6A     		ldr	r3, [r3, #36]
 3129              		.loc 1 1091 53
 3130 020c 894A     		ldr	r2, .L238+8
 3131 020e DA64     		str	r2, [r3, #76]
1092:Drivers/STM32H7xx_HAL_Driver/Src/stm32h7xx_hal_tim.c **** 
1093:Drivers/STM32H7xx_HAL_Driver/Src/stm32h7xx_hal_tim.c ****       /* Enable the DMA stream */
1094:Drivers/STM32H7xx_HAL_Driver/Src/stm32h7xx_hal_tim.c ****       if (HAL_DMA_Start_IT(htim->hdma[TIM_DMA_ID_CC1], (uint32_t)pData, (uint32_t)&htim->Instance->
 3132              		.loc 1 1094 11
 3133 0210 FB68     		ldr	r3, [r7, #12]
 3134 0212 586A     		ldr	r0, [r3, #36]
 3135 0214 7968     		ldr	r1, [r7, #4]
 3136              		.loc 1 1094 88
 3137 0216 FB68     		ldr	r3, [r7, #12]
 3138 0218 1B68     		ldr	r3, [r3]
 3139              		.loc 1 1094 83
 3140 021a 3433     		adds	r3, r3, #52
 3141              		.loc 1 1094 11
 3142 021c 1A46     		mov	r2, r3
 3143 021e 7B88     		ldrh	r3, [r7, #2]
 3144 0220 FFF7FEFF 		bl	HAL_DMA_Start_IT
 3145 0224 0346     		mov	r3, r0
 3146              		.loc 1 1094 10
 3147 0226 002B     		cmp	r3, #0
 3148 0228 01D0     		beq	.L224
1095:Drivers/STM32H7xx_HAL_Driver/Src/stm32h7xx_hal_tim.c ****                            Length) != HAL_OK)
1096:Drivers/STM32H7xx_HAL_Driver/Src/stm32h7xx_hal_tim.c ****       {
ARM GAS  C:\Users\Su\AppData\Local\Temp\cc9h93iY.s 			page 75


1097:Drivers/STM32H7xx_HAL_Driver/Src/stm32h7xx_hal_tim.c ****         /* Return error status */
1098:Drivers/STM32H7xx_HAL_Driver/Src/stm32h7xx_hal_tim.c ****         return HAL_ERROR;
 3149              		.loc 1 1098 16
 3150 022a 0123     		movs	r3, #1
 3151 022c FAE0     		b	.L195
 3152              	.L224:
1099:Drivers/STM32H7xx_HAL_Driver/Src/stm32h7xx_hal_tim.c ****       }
1100:Drivers/STM32H7xx_HAL_Driver/Src/stm32h7xx_hal_tim.c **** 
1101:Drivers/STM32H7xx_HAL_Driver/Src/stm32h7xx_hal_tim.c ****       /* Enable the TIM Capture/Compare 1 DMA request */
1102:Drivers/STM32H7xx_HAL_Driver/Src/stm32h7xx_hal_tim.c ****       __HAL_TIM_ENABLE_DMA(htim, TIM_DMA_CC1);
 3153              		.loc 1 1102 7
 3154 022e FB68     		ldr	r3, [r7, #12]
 3155 0230 1B68     		ldr	r3, [r3]
 3156 0232 DA68     		ldr	r2, [r3, #12]
 3157 0234 FB68     		ldr	r3, [r7, #12]
 3158 0236 1B68     		ldr	r3, [r3]
 3159 0238 42F40072 		orr	r2, r2, #512
 3160 023c DA60     		str	r2, [r3, #12]
1103:Drivers/STM32H7xx_HAL_Driver/Src/stm32h7xx_hal_tim.c ****       break;
 3161              		.loc 1 1103 7
 3162 023e 6EE0     		b	.L225
 3163              	.L222:
1104:Drivers/STM32H7xx_HAL_Driver/Src/stm32h7xx_hal_tim.c ****     }
1105:Drivers/STM32H7xx_HAL_Driver/Src/stm32h7xx_hal_tim.c **** 
1106:Drivers/STM32H7xx_HAL_Driver/Src/stm32h7xx_hal_tim.c ****     case TIM_CHANNEL_2:
1107:Drivers/STM32H7xx_HAL_Driver/Src/stm32h7xx_hal_tim.c ****     {
1108:Drivers/STM32H7xx_HAL_Driver/Src/stm32h7xx_hal_tim.c ****       /* Set the DMA compare callbacks */
1109:Drivers/STM32H7xx_HAL_Driver/Src/stm32h7xx_hal_tim.c ****       htim->hdma[TIM_DMA_ID_CC2]->XferCpltCallback = TIM_DMADelayPulseCplt;
 3164              		.loc 1 1109 17
 3165 0240 FB68     		ldr	r3, [r7, #12]
 3166 0242 9B6A     		ldr	r3, [r3, #40]
 3167              		.loc 1 1109 52
 3168 0244 794A     		ldr	r2, .L238
 3169 0246 DA63     		str	r2, [r3, #60]
1110:Drivers/STM32H7xx_HAL_Driver/Src/stm32h7xx_hal_tim.c ****       htim->hdma[TIM_DMA_ID_CC2]->XferHalfCpltCallback = TIM_DMADelayPulseHalfCplt;
 3170              		.loc 1 1110 17
 3171 0248 FB68     		ldr	r3, [r7, #12]
 3172 024a 9B6A     		ldr	r3, [r3, #40]
 3173              		.loc 1 1110 56
 3174 024c 784A     		ldr	r2, .L238+4
 3175 024e 1A64     		str	r2, [r3, #64]
1111:Drivers/STM32H7xx_HAL_Driver/Src/stm32h7xx_hal_tim.c **** 
1112:Drivers/STM32H7xx_HAL_Driver/Src/stm32h7xx_hal_tim.c ****       /* Set the DMA error callback */
1113:Drivers/STM32H7xx_HAL_Driver/Src/stm32h7xx_hal_tim.c ****       htim->hdma[TIM_DMA_ID_CC2]->XferErrorCallback = TIM_DMAError ;
 3176              		.loc 1 1113 17
 3177 0250 FB68     		ldr	r3, [r7, #12]
 3178 0252 9B6A     		ldr	r3, [r3, #40]
 3179              		.loc 1 1113 53
 3180 0254 774A     		ldr	r2, .L238+8
 3181 0256 DA64     		str	r2, [r3, #76]
1114:Drivers/STM32H7xx_HAL_Driver/Src/stm32h7xx_hal_tim.c **** 
1115:Drivers/STM32H7xx_HAL_Driver/Src/stm32h7xx_hal_tim.c ****       /* Enable the DMA stream */
1116:Drivers/STM32H7xx_HAL_Driver/Src/stm32h7xx_hal_tim.c ****       if (HAL_DMA_Start_IT(htim->hdma[TIM_DMA_ID_CC2], (uint32_t)pData, (uint32_t)&htim->Instance->
 3182              		.loc 1 1116 11
 3183 0258 FB68     		ldr	r3, [r7, #12]
 3184 025a 986A     		ldr	r0, [r3, #40]
 3185 025c 7968     		ldr	r1, [r7, #4]
ARM GAS  C:\Users\Su\AppData\Local\Temp\cc9h93iY.s 			page 76


 3186              		.loc 1 1116 88
 3187 025e FB68     		ldr	r3, [r7, #12]
 3188 0260 1B68     		ldr	r3, [r3]
 3189              		.loc 1 1116 83
 3190 0262 3833     		adds	r3, r3, #56
 3191              		.loc 1 1116 11
 3192 0264 1A46     		mov	r2, r3
 3193 0266 7B88     		ldrh	r3, [r7, #2]
 3194 0268 FFF7FEFF 		bl	HAL_DMA_Start_IT
 3195 026c 0346     		mov	r3, r0
 3196              		.loc 1 1116 10
 3197 026e 002B     		cmp	r3, #0
 3198 0270 01D0     		beq	.L226
1117:Drivers/STM32H7xx_HAL_Driver/Src/stm32h7xx_hal_tim.c ****                            Length) != HAL_OK)
1118:Drivers/STM32H7xx_HAL_Driver/Src/stm32h7xx_hal_tim.c ****       {
1119:Drivers/STM32H7xx_HAL_Driver/Src/stm32h7xx_hal_tim.c ****         /* Return error status */
1120:Drivers/STM32H7xx_HAL_Driver/Src/stm32h7xx_hal_tim.c ****         return HAL_ERROR;
 3199              		.loc 1 1120 16
 3200 0272 0123     		movs	r3, #1
 3201 0274 D6E0     		b	.L195
 3202              	.L226:
1121:Drivers/STM32H7xx_HAL_Driver/Src/stm32h7xx_hal_tim.c ****       }
1122:Drivers/STM32H7xx_HAL_Driver/Src/stm32h7xx_hal_tim.c **** 
1123:Drivers/STM32H7xx_HAL_Driver/Src/stm32h7xx_hal_tim.c ****       /* Enable the TIM Capture/Compare 2 DMA request */
1124:Drivers/STM32H7xx_HAL_Driver/Src/stm32h7xx_hal_tim.c ****       __HAL_TIM_ENABLE_DMA(htim, TIM_DMA_CC2);
 3203              		.loc 1 1124 7
 3204 0276 FB68     		ldr	r3, [r7, #12]
 3205 0278 1B68     		ldr	r3, [r3]
 3206 027a DA68     		ldr	r2, [r3, #12]
 3207 027c FB68     		ldr	r3, [r7, #12]
 3208 027e 1B68     		ldr	r3, [r3]
 3209 0280 42F48062 		orr	r2, r2, #1024
 3210 0284 DA60     		str	r2, [r3, #12]
1125:Drivers/STM32H7xx_HAL_Driver/Src/stm32h7xx_hal_tim.c ****       break;
 3211              		.loc 1 1125 7
 3212 0286 4AE0     		b	.L225
 3213              	.L221:
1126:Drivers/STM32H7xx_HAL_Driver/Src/stm32h7xx_hal_tim.c ****     }
1127:Drivers/STM32H7xx_HAL_Driver/Src/stm32h7xx_hal_tim.c **** 
1128:Drivers/STM32H7xx_HAL_Driver/Src/stm32h7xx_hal_tim.c ****     case TIM_CHANNEL_3:
1129:Drivers/STM32H7xx_HAL_Driver/Src/stm32h7xx_hal_tim.c ****     {
1130:Drivers/STM32H7xx_HAL_Driver/Src/stm32h7xx_hal_tim.c ****       /* Set the DMA compare callbacks */
1131:Drivers/STM32H7xx_HAL_Driver/Src/stm32h7xx_hal_tim.c ****       htim->hdma[TIM_DMA_ID_CC3]->XferCpltCallback = TIM_DMADelayPulseCplt;
 3214              		.loc 1 1131 17
 3215 0288 FB68     		ldr	r3, [r7, #12]
 3216 028a DB6A     		ldr	r3, [r3, #44]
 3217              		.loc 1 1131 52
 3218 028c 674A     		ldr	r2, .L238
 3219 028e DA63     		str	r2, [r3, #60]
1132:Drivers/STM32H7xx_HAL_Driver/Src/stm32h7xx_hal_tim.c ****       htim->hdma[TIM_DMA_ID_CC3]->XferHalfCpltCallback = TIM_DMADelayPulseHalfCplt;
 3220              		.loc 1 1132 17
 3221 0290 FB68     		ldr	r3, [r7, #12]
 3222 0292 DB6A     		ldr	r3, [r3, #44]
 3223              		.loc 1 1132 56
 3224 0294 664A     		ldr	r2, .L238+4
 3225 0296 1A64     		str	r2, [r3, #64]
1133:Drivers/STM32H7xx_HAL_Driver/Src/stm32h7xx_hal_tim.c **** 
ARM GAS  C:\Users\Su\AppData\Local\Temp\cc9h93iY.s 			page 77


1134:Drivers/STM32H7xx_HAL_Driver/Src/stm32h7xx_hal_tim.c ****       /* Set the DMA error callback */
1135:Drivers/STM32H7xx_HAL_Driver/Src/stm32h7xx_hal_tim.c ****       htim->hdma[TIM_DMA_ID_CC3]->XferErrorCallback = TIM_DMAError ;
 3226              		.loc 1 1135 17
 3227 0298 FB68     		ldr	r3, [r7, #12]
 3228 029a DB6A     		ldr	r3, [r3, #44]
 3229              		.loc 1 1135 53
 3230 029c 654A     		ldr	r2, .L238+8
 3231 029e DA64     		str	r2, [r3, #76]
1136:Drivers/STM32H7xx_HAL_Driver/Src/stm32h7xx_hal_tim.c **** 
1137:Drivers/STM32H7xx_HAL_Driver/Src/stm32h7xx_hal_tim.c ****       /* Enable the DMA stream */
1138:Drivers/STM32H7xx_HAL_Driver/Src/stm32h7xx_hal_tim.c ****       if (HAL_DMA_Start_IT(htim->hdma[TIM_DMA_ID_CC3], (uint32_t)pData, (uint32_t)&htim->Instance->
 3232              		.loc 1 1138 11
 3233 02a0 FB68     		ldr	r3, [r7, #12]
 3234 02a2 D86A     		ldr	r0, [r3, #44]
 3235 02a4 7968     		ldr	r1, [r7, #4]
 3236              		.loc 1 1138 88
 3237 02a6 FB68     		ldr	r3, [r7, #12]
 3238 02a8 1B68     		ldr	r3, [r3]
 3239              		.loc 1 1138 83
 3240 02aa 3C33     		adds	r3, r3, #60
 3241              		.loc 1 1138 11
 3242 02ac 1A46     		mov	r2, r3
 3243 02ae 7B88     		ldrh	r3, [r7, #2]
 3244 02b0 FFF7FEFF 		bl	HAL_DMA_Start_IT
 3245 02b4 0346     		mov	r3, r0
 3246              		.loc 1 1138 10
 3247 02b6 002B     		cmp	r3, #0
 3248 02b8 01D0     		beq	.L227
1139:Drivers/STM32H7xx_HAL_Driver/Src/stm32h7xx_hal_tim.c ****                            Length) != HAL_OK)
1140:Drivers/STM32H7xx_HAL_Driver/Src/stm32h7xx_hal_tim.c ****       {
1141:Drivers/STM32H7xx_HAL_Driver/Src/stm32h7xx_hal_tim.c ****         /* Return error status */
1142:Drivers/STM32H7xx_HAL_Driver/Src/stm32h7xx_hal_tim.c ****         return HAL_ERROR;
 3249              		.loc 1 1142 16
 3250 02ba 0123     		movs	r3, #1
 3251 02bc B2E0     		b	.L195
 3252              	.L227:
1143:Drivers/STM32H7xx_HAL_Driver/Src/stm32h7xx_hal_tim.c ****       }
1144:Drivers/STM32H7xx_HAL_Driver/Src/stm32h7xx_hal_tim.c ****       /* Enable the TIM Capture/Compare 3 DMA request */
1145:Drivers/STM32H7xx_HAL_Driver/Src/stm32h7xx_hal_tim.c ****       __HAL_TIM_ENABLE_DMA(htim, TIM_DMA_CC3);
 3253              		.loc 1 1145 7
 3254 02be FB68     		ldr	r3, [r7, #12]
 3255 02c0 1B68     		ldr	r3, [r3]
 3256 02c2 DA68     		ldr	r2, [r3, #12]
 3257 02c4 FB68     		ldr	r3, [r7, #12]
 3258 02c6 1B68     		ldr	r3, [r3]
 3259 02c8 42F40062 		orr	r2, r2, #2048
 3260 02cc DA60     		str	r2, [r3, #12]
1146:Drivers/STM32H7xx_HAL_Driver/Src/stm32h7xx_hal_tim.c ****       break;
 3261              		.loc 1 1146 7
 3262 02ce 26E0     		b	.L225
 3263              	.L219:
1147:Drivers/STM32H7xx_HAL_Driver/Src/stm32h7xx_hal_tim.c ****     }
1148:Drivers/STM32H7xx_HAL_Driver/Src/stm32h7xx_hal_tim.c **** 
1149:Drivers/STM32H7xx_HAL_Driver/Src/stm32h7xx_hal_tim.c ****     case TIM_CHANNEL_4:
1150:Drivers/STM32H7xx_HAL_Driver/Src/stm32h7xx_hal_tim.c ****     {
1151:Drivers/STM32H7xx_HAL_Driver/Src/stm32h7xx_hal_tim.c ****       /* Set the DMA compare callbacks */
1152:Drivers/STM32H7xx_HAL_Driver/Src/stm32h7xx_hal_tim.c ****       htim->hdma[TIM_DMA_ID_CC4]->XferCpltCallback = TIM_DMADelayPulseCplt;
ARM GAS  C:\Users\Su\AppData\Local\Temp\cc9h93iY.s 			page 78


 3264              		.loc 1 1152 17
 3265 02d0 FB68     		ldr	r3, [r7, #12]
 3266 02d2 1B6B     		ldr	r3, [r3, #48]
 3267              		.loc 1 1152 52
 3268 02d4 554A     		ldr	r2, .L238
 3269 02d6 DA63     		str	r2, [r3, #60]
1153:Drivers/STM32H7xx_HAL_Driver/Src/stm32h7xx_hal_tim.c ****       htim->hdma[TIM_DMA_ID_CC4]->XferHalfCpltCallback = TIM_DMADelayPulseHalfCplt;
 3270              		.loc 1 1153 17
 3271 02d8 FB68     		ldr	r3, [r7, #12]
 3272 02da 1B6B     		ldr	r3, [r3, #48]
 3273              		.loc 1 1153 56
 3274 02dc 544A     		ldr	r2, .L238+4
 3275 02de 1A64     		str	r2, [r3, #64]
1154:Drivers/STM32H7xx_HAL_Driver/Src/stm32h7xx_hal_tim.c **** 
1155:Drivers/STM32H7xx_HAL_Driver/Src/stm32h7xx_hal_tim.c ****       /* Set the DMA error callback */
1156:Drivers/STM32H7xx_HAL_Driver/Src/stm32h7xx_hal_tim.c ****       htim->hdma[TIM_DMA_ID_CC4]->XferErrorCallback = TIM_DMAError ;
 3276              		.loc 1 1156 17
 3277 02e0 FB68     		ldr	r3, [r7, #12]
 3278 02e2 1B6B     		ldr	r3, [r3, #48]
 3279              		.loc 1 1156 53
 3280 02e4 534A     		ldr	r2, .L238+8
 3281 02e6 DA64     		str	r2, [r3, #76]
1157:Drivers/STM32H7xx_HAL_Driver/Src/stm32h7xx_hal_tim.c **** 
1158:Drivers/STM32H7xx_HAL_Driver/Src/stm32h7xx_hal_tim.c ****       /* Enable the DMA stream */
1159:Drivers/STM32H7xx_HAL_Driver/Src/stm32h7xx_hal_tim.c ****       if (HAL_DMA_Start_IT(htim->hdma[TIM_DMA_ID_CC4], (uint32_t)pData, (uint32_t)&htim->Instance->
 3282              		.loc 1 1159 11
 3283 02e8 FB68     		ldr	r3, [r7, #12]
 3284 02ea 186B     		ldr	r0, [r3, #48]
 3285 02ec 7968     		ldr	r1, [r7, #4]
 3286              		.loc 1 1159 88
 3287 02ee FB68     		ldr	r3, [r7, #12]
 3288 02f0 1B68     		ldr	r3, [r3]
 3289              		.loc 1 1159 83
 3290 02f2 4033     		adds	r3, r3, #64
 3291              		.loc 1 1159 11
 3292 02f4 1A46     		mov	r2, r3
 3293 02f6 7B88     		ldrh	r3, [r7, #2]
 3294 02f8 FFF7FEFF 		bl	HAL_DMA_Start_IT
 3295 02fc 0346     		mov	r3, r0
 3296              		.loc 1 1159 10
 3297 02fe 002B     		cmp	r3, #0
 3298 0300 01D0     		beq	.L228
1160:Drivers/STM32H7xx_HAL_Driver/Src/stm32h7xx_hal_tim.c ****                            Length) != HAL_OK)
1161:Drivers/STM32H7xx_HAL_Driver/Src/stm32h7xx_hal_tim.c ****       {
1162:Drivers/STM32H7xx_HAL_Driver/Src/stm32h7xx_hal_tim.c ****         /* Return error status */
1163:Drivers/STM32H7xx_HAL_Driver/Src/stm32h7xx_hal_tim.c ****         return HAL_ERROR;
 3299              		.loc 1 1163 16
 3300 0302 0123     		movs	r3, #1
 3301 0304 8EE0     		b	.L195
 3302              	.L228:
1164:Drivers/STM32H7xx_HAL_Driver/Src/stm32h7xx_hal_tim.c ****       }
1165:Drivers/STM32H7xx_HAL_Driver/Src/stm32h7xx_hal_tim.c ****       /* Enable the TIM Capture/Compare 4 DMA request */
1166:Drivers/STM32H7xx_HAL_Driver/Src/stm32h7xx_hal_tim.c ****       __HAL_TIM_ENABLE_DMA(htim, TIM_DMA_CC4);
 3303              		.loc 1 1166 7
 3304 0306 FB68     		ldr	r3, [r7, #12]
 3305 0308 1B68     		ldr	r3, [r3]
 3306 030a DA68     		ldr	r2, [r3, #12]
ARM GAS  C:\Users\Su\AppData\Local\Temp\cc9h93iY.s 			page 79


 3307 030c FB68     		ldr	r3, [r7, #12]
 3308 030e 1B68     		ldr	r3, [r3]
 3309 0310 42F48052 		orr	r2, r2, #4096
 3310 0314 DA60     		str	r2, [r3, #12]
1167:Drivers/STM32H7xx_HAL_Driver/Src/stm32h7xx_hal_tim.c ****       break;
 3311              		.loc 1 1167 7
 3312 0316 02E0     		b	.L225
 3313              	.L218:
1168:Drivers/STM32H7xx_HAL_Driver/Src/stm32h7xx_hal_tim.c ****     }
1169:Drivers/STM32H7xx_HAL_Driver/Src/stm32h7xx_hal_tim.c **** 
1170:Drivers/STM32H7xx_HAL_Driver/Src/stm32h7xx_hal_tim.c ****     default:
1171:Drivers/STM32H7xx_HAL_Driver/Src/stm32h7xx_hal_tim.c ****       status = HAL_ERROR;
 3314              		.loc 1 1171 14
 3315 0318 0123     		movs	r3, #1
 3316 031a FB75     		strb	r3, [r7, #23]
1172:Drivers/STM32H7xx_HAL_Driver/Src/stm32h7xx_hal_tim.c ****       break;
 3317              		.loc 1 1172 7
 3318 031c 00BF     		nop
 3319              	.L225:
1173:Drivers/STM32H7xx_HAL_Driver/Src/stm32h7xx_hal_tim.c ****   }
1174:Drivers/STM32H7xx_HAL_Driver/Src/stm32h7xx_hal_tim.c **** 
1175:Drivers/STM32H7xx_HAL_Driver/Src/stm32h7xx_hal_tim.c ****   if (status == HAL_OK)
 3320              		.loc 1 1175 6
 3321 031e FB7D     		ldrb	r3, [r7, #23]	@ zero_extendqisi2
 3322 0320 002B     		cmp	r3, #0
 3323 0322 7ED1     		bne	.L229
1176:Drivers/STM32H7xx_HAL_Driver/Src/stm32h7xx_hal_tim.c ****   {
1177:Drivers/STM32H7xx_HAL_Driver/Src/stm32h7xx_hal_tim.c ****     /* Enable the Output compare channel */
1178:Drivers/STM32H7xx_HAL_Driver/Src/stm32h7xx_hal_tim.c ****     TIM_CCxChannelCmd(htim->Instance, Channel, TIM_CCx_ENABLE);
 3324              		.loc 1 1178 5
 3325 0324 FB68     		ldr	r3, [r7, #12]
 3326 0326 1B68     		ldr	r3, [r3]
 3327 0328 0122     		movs	r2, #1
 3328 032a B968     		ldr	r1, [r7, #8]
 3329 032c 1846     		mov	r0, r3
 3330 032e FFF7FEFF 		bl	TIM_CCxChannelCmd
1179:Drivers/STM32H7xx_HAL_Driver/Src/stm32h7xx_hal_tim.c **** 
1180:Drivers/STM32H7xx_HAL_Driver/Src/stm32h7xx_hal_tim.c ****     if (IS_TIM_BREAK_INSTANCE(htim->Instance) != RESET)
 3331              		.loc 1 1180 9
 3332 0332 FB68     		ldr	r3, [r7, #12]
 3333 0334 1B68     		ldr	r3, [r3]
 3334 0336 404A     		ldr	r2, .L238+12
 3335 0338 9342     		cmp	r3, r2
 3336 033a 13D0     		beq	.L230
 3337              		.loc 1 1180 9 is_stmt 0 discriminator 2
 3338 033c FB68     		ldr	r3, [r7, #12]
 3339 033e 1B68     		ldr	r3, [r3]
 3340 0340 3E4A     		ldr	r2, .L238+16
 3341 0342 9342     		cmp	r3, r2
 3342 0344 0ED0     		beq	.L230
 3343              		.loc 1 1180 9 discriminator 4
 3344 0346 FB68     		ldr	r3, [r7, #12]
 3345 0348 1B68     		ldr	r3, [r3]
 3346 034a 3D4A     		ldr	r2, .L238+20
 3347 034c 9342     		cmp	r3, r2
 3348 034e 09D0     		beq	.L230
 3349              		.loc 1 1180 9 discriminator 6
ARM GAS  C:\Users\Su\AppData\Local\Temp\cc9h93iY.s 			page 80


 3350 0350 FB68     		ldr	r3, [r7, #12]
 3351 0352 1B68     		ldr	r3, [r3]
 3352 0354 3B4A     		ldr	r2, .L238+24
 3353 0356 9342     		cmp	r3, r2
 3354 0358 04D0     		beq	.L230
 3355              		.loc 1 1180 9 discriminator 8
 3356 035a FB68     		ldr	r3, [r7, #12]
 3357 035c 1B68     		ldr	r3, [r3]
 3358 035e 3A4A     		ldr	r2, .L238+28
 3359 0360 9342     		cmp	r3, r2
 3360 0362 01D1     		bne	.L231
 3361              	.L230:
 3362              		.loc 1 1180 9 discriminator 9
 3363 0364 0123     		movs	r3, #1
 3364 0366 00E0     		b	.L232
 3365              	.L231:
 3366              		.loc 1 1180 9 discriminator 10
 3367 0368 0023     		movs	r3, #0
 3368              	.L232:
 3369              		.loc 1 1180 8 is_stmt 1 discriminator 12
 3370 036a 002B     		cmp	r3, #0
 3371 036c 07D0     		beq	.L233
1181:Drivers/STM32H7xx_HAL_Driver/Src/stm32h7xx_hal_tim.c ****     {
1182:Drivers/STM32H7xx_HAL_Driver/Src/stm32h7xx_hal_tim.c ****       /* Enable the main output */
1183:Drivers/STM32H7xx_HAL_Driver/Src/stm32h7xx_hal_tim.c ****       __HAL_TIM_MOE_ENABLE(htim);
 3372              		.loc 1 1183 7
 3373 036e FB68     		ldr	r3, [r7, #12]
 3374 0370 1B68     		ldr	r3, [r3]
 3375 0372 5A6C     		ldr	r2, [r3, #68]
 3376 0374 FB68     		ldr	r3, [r7, #12]
 3377 0376 1B68     		ldr	r3, [r3]
 3378 0378 42F40042 		orr	r2, r2, #32768
 3379 037c 5A64     		str	r2, [r3, #68]
 3380              	.L233:
1184:Drivers/STM32H7xx_HAL_Driver/Src/stm32h7xx_hal_tim.c ****     }
1185:Drivers/STM32H7xx_HAL_Driver/Src/stm32h7xx_hal_tim.c **** 
1186:Drivers/STM32H7xx_HAL_Driver/Src/stm32h7xx_hal_tim.c ****     /* Enable the Peripheral, except in trigger mode where enable is automatically done with trigge
1187:Drivers/STM32H7xx_HAL_Driver/Src/stm32h7xx_hal_tim.c ****     if (IS_TIM_SLAVE_INSTANCE(htim->Instance))
 3381              		.loc 1 1187 9
 3382 037e FB68     		ldr	r3, [r7, #12]
 3383 0380 1B68     		ldr	r3, [r3]
 3384              		.loc 1 1187 8
 3385 0382 2D4A     		ldr	r2, .L238+12
 3386 0384 9342     		cmp	r3, r2
 3387 0386 2CD0     		beq	.L234
 3388              		.loc 1 1187 9 discriminator 1
 3389 0388 FB68     		ldr	r3, [r7, #12]
 3390 038a 1B68     		ldr	r3, [r3]
 3391 038c B3F1804F 		cmp	r3, #1073741824
 3392 0390 27D0     		beq	.L234
 3393              		.loc 1 1187 9 is_stmt 0 discriminator 2
 3394 0392 FB68     		ldr	r3, [r7, #12]
 3395 0394 1B68     		ldr	r3, [r3]
 3396 0396 2D4A     		ldr	r2, .L238+32
 3397 0398 9342     		cmp	r3, r2
 3398 039a 22D0     		beq	.L234
 3399              		.loc 1 1187 9 discriminator 3
ARM GAS  C:\Users\Su\AppData\Local\Temp\cc9h93iY.s 			page 81


 3400 039c FB68     		ldr	r3, [r7, #12]
 3401 039e 1B68     		ldr	r3, [r3]
 3402 03a0 2B4A     		ldr	r2, .L238+36
 3403 03a2 9342     		cmp	r3, r2
 3404 03a4 1DD0     		beq	.L234
 3405              		.loc 1 1187 9 discriminator 4
 3406 03a6 FB68     		ldr	r3, [r7, #12]
 3407 03a8 1B68     		ldr	r3, [r3]
 3408 03aa 2A4A     		ldr	r2, .L238+40
 3409 03ac 9342     		cmp	r3, r2
 3410 03ae 18D0     		beq	.L234
 3411              		.loc 1 1187 9 discriminator 5
 3412 03b0 FB68     		ldr	r3, [r7, #12]
 3413 03b2 1B68     		ldr	r3, [r3]
 3414 03b4 214A     		ldr	r2, .L238+16
 3415 03b6 9342     		cmp	r3, r2
 3416 03b8 13D0     		beq	.L234
 3417              		.loc 1 1187 9 discriminator 6
 3418 03ba FB68     		ldr	r3, [r7, #12]
 3419 03bc 1B68     		ldr	r3, [r3]
 3420 03be 264A     		ldr	r2, .L238+44
 3421 03c0 9342     		cmp	r3, r2
 3422 03c2 0ED0     		beq	.L234
 3423              		.loc 1 1187 9 discriminator 7
 3424 03c4 FB68     		ldr	r3, [r7, #12]
 3425 03c6 1B68     		ldr	r3, [r3]
 3426 03c8 1D4A     		ldr	r2, .L238+20
 3427 03ca 9342     		cmp	r3, r2
 3428 03cc 09D0     		beq	.L234
 3429              		.loc 1 1187 9 discriminator 8
 3430 03ce FB68     		ldr	r3, [r7, #12]
 3431 03d0 1B68     		ldr	r3, [r3]
 3432 03d2 224A     		ldr	r2, .L238+48
 3433 03d4 9342     		cmp	r3, r2
 3434 03d6 04D0     		beq	.L234
 3435              		.loc 1 1187 9 discriminator 9
 3436 03d8 FB68     		ldr	r3, [r7, #12]
 3437 03da 1B68     		ldr	r3, [r3]
 3438 03dc 204A     		ldr	r2, .L238+52
 3439 03de 9342     		cmp	r3, r2
 3440 03e0 15D1     		bne	.L235
 3441              	.L234:
1188:Drivers/STM32H7xx_HAL_Driver/Src/stm32h7xx_hal_tim.c ****     {
1189:Drivers/STM32H7xx_HAL_Driver/Src/stm32h7xx_hal_tim.c ****       tmpsmcr = htim->Instance->SMCR & TIM_SMCR_SMS;
 3442              		.loc 1 1189 21 is_stmt 1
 3443 03e2 FB68     		ldr	r3, [r7, #12]
 3444 03e4 1B68     		ldr	r3, [r3]
 3445              		.loc 1 1189 31
 3446 03e6 9A68     		ldr	r2, [r3, #8]
 3447              		.loc 1 1189 15
 3448 03e8 1E4B     		ldr	r3, .L238+56
 3449 03ea 1340     		ands	r3, r3, r2
 3450 03ec 3B61     		str	r3, [r7, #16]
1190:Drivers/STM32H7xx_HAL_Driver/Src/stm32h7xx_hal_tim.c ****       if (!IS_TIM_SLAVEMODE_TRIGGER_ENABLED(tmpsmcr))
 3451              		.loc 1 1190 10
 3452 03ee 3B69     		ldr	r3, [r7, #16]
 3453 03f0 062B     		cmp	r3, #6
ARM GAS  C:\Users\Su\AppData\Local\Temp\cc9h93iY.s 			page 82


 3454 03f2 15D0     		beq	.L237
 3455              		.loc 1 1190 11 discriminator 1
 3456 03f4 3B69     		ldr	r3, [r7, #16]
 3457 03f6 B3F5803F 		cmp	r3, #65536
 3458 03fa 11D0     		beq	.L237
1191:Drivers/STM32H7xx_HAL_Driver/Src/stm32h7xx_hal_tim.c ****       {
1192:Drivers/STM32H7xx_HAL_Driver/Src/stm32h7xx_hal_tim.c ****         __HAL_TIM_ENABLE(htim);
 3459              		.loc 1 1192 9
 3460 03fc FB68     		ldr	r3, [r7, #12]
 3461 03fe 1B68     		ldr	r3, [r3]
 3462 0400 1A68     		ldr	r2, [r3]
 3463 0402 FB68     		ldr	r3, [r7, #12]
 3464 0404 1B68     		ldr	r3, [r3]
 3465 0406 42F00102 		orr	r2, r2, #1
 3466 040a 1A60     		str	r2, [r3]
1190:Drivers/STM32H7xx_HAL_Driver/Src/stm32h7xx_hal_tim.c ****       if (!IS_TIM_SLAVEMODE_TRIGGER_ENABLED(tmpsmcr))
 3467              		.loc 1 1190 10
 3468 040c 08E0     		b	.L237
 3469              	.L235:
1193:Drivers/STM32H7xx_HAL_Driver/Src/stm32h7xx_hal_tim.c ****       }
1194:Drivers/STM32H7xx_HAL_Driver/Src/stm32h7xx_hal_tim.c ****     }
1195:Drivers/STM32H7xx_HAL_Driver/Src/stm32h7xx_hal_tim.c ****     else
1196:Drivers/STM32H7xx_HAL_Driver/Src/stm32h7xx_hal_tim.c ****     {
1197:Drivers/STM32H7xx_HAL_Driver/Src/stm32h7xx_hal_tim.c ****       __HAL_TIM_ENABLE(htim);
 3470              		.loc 1 1197 7
 3471 040e FB68     		ldr	r3, [r7, #12]
 3472 0410 1B68     		ldr	r3, [r3]
 3473 0412 1A68     		ldr	r2, [r3]
 3474 0414 FB68     		ldr	r3, [r7, #12]
 3475 0416 1B68     		ldr	r3, [r3]
 3476 0418 42F00102 		orr	r2, r2, #1
 3477 041c 1A60     		str	r2, [r3]
 3478 041e 00E0     		b	.L229
 3479              	.L237:
1190:Drivers/STM32H7xx_HAL_Driver/Src/stm32h7xx_hal_tim.c ****       {
 3480              		.loc 1 1190 10
 3481 0420 00BF     		nop
 3482              	.L229:
1198:Drivers/STM32H7xx_HAL_Driver/Src/stm32h7xx_hal_tim.c ****     }
1199:Drivers/STM32H7xx_HAL_Driver/Src/stm32h7xx_hal_tim.c ****   }
1200:Drivers/STM32H7xx_HAL_Driver/Src/stm32h7xx_hal_tim.c **** 
1201:Drivers/STM32H7xx_HAL_Driver/Src/stm32h7xx_hal_tim.c ****   /* Return function status */
1202:Drivers/STM32H7xx_HAL_Driver/Src/stm32h7xx_hal_tim.c ****   return status;
 3483              		.loc 1 1202 10
 3484 0422 FB7D     		ldrb	r3, [r7, #23]	@ zero_extendqisi2
 3485              	.L195:
1203:Drivers/STM32H7xx_HAL_Driver/Src/stm32h7xx_hal_tim.c **** }
 3486              		.loc 1 1203 1
 3487 0424 1846     		mov	r0, r3
 3488 0426 1837     		adds	r7, r7, #24
 3489              	.LCFI101:
 3490              		.cfi_def_cfa_offset 8
 3491 0428 BD46     		mov	sp, r7
 3492              	.LCFI102:
 3493              		.cfi_def_cfa_register 13
 3494              		@ sp needed
 3495 042a 80BD     		pop	{r7, pc}
ARM GAS  C:\Users\Su\AppData\Local\Temp\cc9h93iY.s 			page 83


 3496              	.L239:
 3497              		.align	2
 3498              	.L238:
 3499 042c 00000000 		.word	TIM_DMADelayPulseCplt
 3500 0430 00000000 		.word	TIM_DMADelayPulseHalfCplt
 3501 0434 00000000 		.word	TIM_DMAError
 3502 0438 00000140 		.word	1073807360
 3503 043c 00040140 		.word	1073808384
 3504 0440 00400140 		.word	1073823744
 3505 0444 00440140 		.word	1073824768
 3506 0448 00480140 		.word	1073825792
 3507 044c 00040040 		.word	1073742848
 3508 0450 00080040 		.word	1073743872
 3509 0454 000C0040 		.word	1073744896
 3510 0458 00180040 		.word	1073747968
 3511 045c 00E00040 		.word	1073799168
 3512 0460 00E40040 		.word	1073800192
 3513 0464 07000100 		.word	65543
